ARM GAS  /tmp/ccAle920.s 			page 1


   1              		.cpu cortex-m7
   2              		.arch armv7e-m
   3              		.fpu fpv5-sp-d16
   4              		.eabi_attribute 27, 1
   5              		.eabi_attribute 28, 1
   6              		.eabi_attribute 20, 1
   7              		.eabi_attribute 21, 1
   8              		.eabi_attribute 23, 3
   9              		.eabi_attribute 24, 1
  10              		.eabi_attribute 25, 1
  11              		.eabi_attribute 26, 1
  12              		.eabi_attribute 30, 1
  13              		.eabi_attribute 34, 1
  14              		.eabi_attribute 18, 4
  15              		.file	"i2c.c"
  16              		.text
  17              	.Ltext0:
  18              		.cfi_sections	.debug_frame
  19              		.section	.text.MX_I2C1_Init,"ax",%progbits
  20              		.align	1
  21              		.global	MX_I2C1_Init
  22              		.syntax unified
  23              		.thumb
  24              		.thumb_func
  26              	MX_I2C1_Init:
  27              	.LFB141:
  28              		.file 1 "Core/Src/i2c.c"
   1:Core/Src/i2c.c **** /* USER CODE BEGIN Header */
   2:Core/Src/i2c.c **** /**
   3:Core/Src/i2c.c ****   ******************************************************************************
   4:Core/Src/i2c.c ****   * @file    i2c.c
   5:Core/Src/i2c.c ****   * @brief   This file provides code for the configuration
   6:Core/Src/i2c.c ****   *          of the I2C instances.
   7:Core/Src/i2c.c ****   ******************************************************************************
   8:Core/Src/i2c.c ****   * @attention
   9:Core/Src/i2c.c ****   *
  10:Core/Src/i2c.c ****   * Copyright (c) 2023 STMicroelectronics.
  11:Core/Src/i2c.c ****   * All rights reserved.
  12:Core/Src/i2c.c ****   *
  13:Core/Src/i2c.c ****   * This software is licensed under terms that can be found in the LICENSE file
  14:Core/Src/i2c.c ****   * in the root directory of this software component.
  15:Core/Src/i2c.c ****   * If no LICENSE file comes with this software, it is provided AS-IS.
  16:Core/Src/i2c.c ****   *
  17:Core/Src/i2c.c ****   ******************************************************************************
  18:Core/Src/i2c.c ****   */
  19:Core/Src/i2c.c **** /* USER CODE END Header */
  20:Core/Src/i2c.c **** /* Includes ------------------------------------------------------------------*/
  21:Core/Src/i2c.c **** #include "i2c.h"
  22:Core/Src/i2c.c **** 
  23:Core/Src/i2c.c **** /* USER CODE BEGIN 0 */
  24:Core/Src/i2c.c **** 
  25:Core/Src/i2c.c **** /* USER CODE END 0 */
  26:Core/Src/i2c.c **** 
  27:Core/Src/i2c.c **** I2C_HandleTypeDef hi2c1;
  28:Core/Src/i2c.c **** 
  29:Core/Src/i2c.c **** /* I2C1 init function */
  30:Core/Src/i2c.c **** void MX_I2C1_Init(void)
ARM GAS  /tmp/ccAle920.s 			page 2


  31:Core/Src/i2c.c **** {
  29              		.loc 1 31 1 view -0
  30              		.cfi_startproc
  31              		@ args = 0, pretend = 0, frame = 0
  32              		@ frame_needed = 0, uses_anonymous_args = 0
  33 0000 08B5     		push	{r3, lr}
  34              	.LCFI0:
  35              		.cfi_def_cfa_offset 8
  36              		.cfi_offset 3, -8
  37              		.cfi_offset 14, -4
  32:Core/Src/i2c.c **** 
  33:Core/Src/i2c.c ****   /* USER CODE BEGIN I2C1_Init 0 */
  34:Core/Src/i2c.c **** 
  35:Core/Src/i2c.c ****   /* USER CODE END I2C1_Init 0 */
  36:Core/Src/i2c.c **** 
  37:Core/Src/i2c.c ****   /* USER CODE BEGIN I2C1_Init 1 */
  38:Core/Src/i2c.c **** 
  39:Core/Src/i2c.c ****   /* USER CODE END I2C1_Init 1 */
  40:Core/Src/i2c.c ****   hi2c1.Instance = I2C1;
  38              		.loc 1 40 3 view .LVU1
  39              		.loc 1 40 18 is_stmt 0 view .LVU2
  40 0002 1448     		ldr	r0, .L9
  41 0004 144B     		ldr	r3, .L9+4
  42 0006 0360     		str	r3, [r0]
  41:Core/Src/i2c.c ****   hi2c1.Init.Timing = 0x20404768;
  43              		.loc 1 41 3 is_stmt 1 view .LVU3
  44              		.loc 1 41 21 is_stmt 0 view .LVU4
  45 0008 A3F1FE53 		sub	r3, r3, #532676608
  46 000c A3F69843 		subw	r3, r3, #3224
  47 0010 4360     		str	r3, [r0, #4]
  42:Core/Src/i2c.c ****   hi2c1.Init.OwnAddress1 = 0;
  48              		.loc 1 42 3 is_stmt 1 view .LVU5
  49              		.loc 1 42 26 is_stmt 0 view .LVU6
  50 0012 0023     		movs	r3, #0
  51 0014 8360     		str	r3, [r0, #8]
  43:Core/Src/i2c.c ****   hi2c1.Init.AddressingMode = I2C_ADDRESSINGMODE_7BIT;
  52              		.loc 1 43 3 is_stmt 1 view .LVU7
  53              		.loc 1 43 29 is_stmt 0 view .LVU8
  54 0016 0122     		movs	r2, #1
  55 0018 C260     		str	r2, [r0, #12]
  44:Core/Src/i2c.c ****   hi2c1.Init.DualAddressMode = I2C_DUALADDRESS_DISABLE;
  56              		.loc 1 44 3 is_stmt 1 view .LVU9
  57              		.loc 1 44 30 is_stmt 0 view .LVU10
  58 001a 0361     		str	r3, [r0, #16]
  45:Core/Src/i2c.c ****   hi2c1.Init.OwnAddress2 = 0;
  59              		.loc 1 45 3 is_stmt 1 view .LVU11
  60              		.loc 1 45 26 is_stmt 0 view .LVU12
  61 001c 4361     		str	r3, [r0, #20]
  46:Core/Src/i2c.c ****   hi2c1.Init.OwnAddress2Masks = I2C_OA2_NOMASK;
  62              		.loc 1 46 3 is_stmt 1 view .LVU13
  63              		.loc 1 46 31 is_stmt 0 view .LVU14
  64 001e 8361     		str	r3, [r0, #24]
  47:Core/Src/i2c.c ****   hi2c1.Init.GeneralCallMode = I2C_GENERALCALL_DISABLE;
  65              		.loc 1 47 3 is_stmt 1 view .LVU15
  66              		.loc 1 47 30 is_stmt 0 view .LVU16
  67 0020 C361     		str	r3, [r0, #28]
  48:Core/Src/i2c.c ****   hi2c1.Init.NoStretchMode = I2C_NOSTRETCH_DISABLE;
ARM GAS  /tmp/ccAle920.s 			page 3


  68              		.loc 1 48 3 is_stmt 1 view .LVU17
  69              		.loc 1 48 28 is_stmt 0 view .LVU18
  70 0022 0362     		str	r3, [r0, #32]
  49:Core/Src/i2c.c ****   if (HAL_I2C_Init(&hi2c1) != HAL_OK)
  71              		.loc 1 49 3 is_stmt 1 view .LVU19
  72              		.loc 1 49 7 is_stmt 0 view .LVU20
  73 0024 FFF7FEFF 		bl	HAL_I2C_Init
  74              	.LVL0:
  75              		.loc 1 49 6 view .LVU21
  76 0028 50B9     		cbnz	r0, .L6
  77              	.L2:
  50:Core/Src/i2c.c ****   {
  51:Core/Src/i2c.c ****     Error_Handler();
  52:Core/Src/i2c.c ****   }
  53:Core/Src/i2c.c **** 
  54:Core/Src/i2c.c ****   /** Configure Analogue filter
  55:Core/Src/i2c.c ****   */
  56:Core/Src/i2c.c ****   if (HAL_I2CEx_ConfigAnalogFilter(&hi2c1, I2C_ANALOGFILTER_ENABLE) != HAL_OK)
  78              		.loc 1 56 3 is_stmt 1 view .LVU22
  79              		.loc 1 56 7 is_stmt 0 view .LVU23
  80 002a 0021     		movs	r1, #0
  81 002c 0948     		ldr	r0, .L9
  82 002e FFF7FEFF 		bl	HAL_I2CEx_ConfigAnalogFilter
  83              	.LVL1:
  84              		.loc 1 56 6 view .LVU24
  85 0032 40B9     		cbnz	r0, .L7
  86              	.L3:
  57:Core/Src/i2c.c ****   {
  58:Core/Src/i2c.c ****     Error_Handler();
  59:Core/Src/i2c.c ****   }
  60:Core/Src/i2c.c **** 
  61:Core/Src/i2c.c ****   /** Configure Digital filter
  62:Core/Src/i2c.c ****   */
  63:Core/Src/i2c.c ****   if (HAL_I2CEx_ConfigDigitalFilter(&hi2c1, 0) != HAL_OK)
  87              		.loc 1 63 3 is_stmt 1 view .LVU25
  88              		.loc 1 63 7 is_stmt 0 view .LVU26
  89 0034 0021     		movs	r1, #0
  90 0036 0748     		ldr	r0, .L9
  91 0038 FFF7FEFF 		bl	HAL_I2CEx_ConfigDigitalFilter
  92              	.LVL2:
  93              		.loc 1 63 6 view .LVU27
  94 003c 30B9     		cbnz	r0, .L8
  95              	.L1:
  64:Core/Src/i2c.c ****   {
  65:Core/Src/i2c.c ****     Error_Handler();
  66:Core/Src/i2c.c ****   }
  67:Core/Src/i2c.c ****   /* USER CODE BEGIN I2C1_Init 2 */
  68:Core/Src/i2c.c **** 
  69:Core/Src/i2c.c ****   /* USER CODE END I2C1_Init 2 */
  70:Core/Src/i2c.c **** 
  71:Core/Src/i2c.c **** }
  96              		.loc 1 71 1 view .LVU28
  97 003e 08BD     		pop	{r3, pc}
  98              	.L6:
  51:Core/Src/i2c.c ****   }
  99              		.loc 1 51 5 is_stmt 1 view .LVU29
 100 0040 FFF7FEFF 		bl	Error_Handler
ARM GAS  /tmp/ccAle920.s 			page 4


 101              	.LVL3:
 102 0044 F1E7     		b	.L2
 103              	.L7:
  58:Core/Src/i2c.c ****   }
 104              		.loc 1 58 5 view .LVU30
 105 0046 FFF7FEFF 		bl	Error_Handler
 106              	.LVL4:
 107 004a F3E7     		b	.L3
 108              	.L8:
  65:Core/Src/i2c.c ****   }
 109              		.loc 1 65 5 view .LVU31
 110 004c FFF7FEFF 		bl	Error_Handler
 111              	.LVL5:
 112              		.loc 1 71 1 is_stmt 0 view .LVU32
 113 0050 F5E7     		b	.L1
 114              	.L10:
 115 0052 00BF     		.align	2
 116              	.L9:
 117 0054 00000000 		.word	.LANCHOR0
 118 0058 00540040 		.word	1073763328
 119              		.cfi_endproc
 120              	.LFE141:
 122              		.section	.text.HAL_I2C_MspInit,"ax",%progbits
 123              		.align	1
 124              		.global	HAL_I2C_MspInit
 125              		.syntax unified
 126              		.thumb
 127              		.thumb_func
 129              	HAL_I2C_MspInit:
 130              	.LVL6:
 131              	.LFB142:
  72:Core/Src/i2c.c **** 
  73:Core/Src/i2c.c **** void HAL_I2C_MspInit(I2C_HandleTypeDef* i2cHandle)
  74:Core/Src/i2c.c **** {
 132              		.loc 1 74 1 is_stmt 1 view -0
 133              		.cfi_startproc
 134              		@ args = 0, pretend = 0, frame = 160
 135              		@ frame_needed = 0, uses_anonymous_args = 0
 136              		.loc 1 74 1 is_stmt 0 view .LVU34
 137 0000 10B5     		push	{r4, lr}
 138              	.LCFI1:
 139              		.cfi_def_cfa_offset 8
 140              		.cfi_offset 4, -8
 141              		.cfi_offset 14, -4
 142 0002 A8B0     		sub	sp, sp, #160
 143              	.LCFI2:
 144              		.cfi_def_cfa_offset 168
 145 0004 0446     		mov	r4, r0
  75:Core/Src/i2c.c **** 
  76:Core/Src/i2c.c ****   GPIO_InitTypeDef GPIO_InitStruct = {0};
 146              		.loc 1 76 3 is_stmt 1 view .LVU35
 147              		.loc 1 76 20 is_stmt 0 view .LVU36
 148 0006 0021     		movs	r1, #0
 149 0008 2391     		str	r1, [sp, #140]
 150 000a 2491     		str	r1, [sp, #144]
 151 000c 2591     		str	r1, [sp, #148]
 152 000e 2691     		str	r1, [sp, #152]
ARM GAS  /tmp/ccAle920.s 			page 5


 153 0010 2791     		str	r1, [sp, #156]
  77:Core/Src/i2c.c ****   RCC_PeriphCLKInitTypeDef PeriphClkInitStruct = {0};
 154              		.loc 1 77 3 is_stmt 1 view .LVU37
 155              		.loc 1 77 28 is_stmt 0 view .LVU38
 156 0012 8022     		movs	r2, #128
 157 0014 03A8     		add	r0, sp, #12
 158              	.LVL7:
 159              		.loc 1 77 28 view .LVU39
 160 0016 FFF7FEFF 		bl	memset
 161              	.LVL8:
  78:Core/Src/i2c.c ****   if(i2cHandle->Instance==I2C1)
 162              		.loc 1 78 3 is_stmt 1 view .LVU40
 163              		.loc 1 78 15 is_stmt 0 view .LVU41
 164 001a 2268     		ldr	r2, [r4]
 165              		.loc 1 78 5 view .LVU42
 166 001c 184B     		ldr	r3, .L17
 167 001e 9A42     		cmp	r2, r3
 168 0020 01D0     		beq	.L15
 169              	.LVL9:
 170              	.L11:
  79:Core/Src/i2c.c ****   {
  80:Core/Src/i2c.c ****   /* USER CODE BEGIN I2C1_MspInit 0 */
  81:Core/Src/i2c.c **** 
  82:Core/Src/i2c.c ****   /* USER CODE END I2C1_MspInit 0 */
  83:Core/Src/i2c.c **** 
  84:Core/Src/i2c.c ****   /** Initializes the peripherals clock
  85:Core/Src/i2c.c ****   */
  86:Core/Src/i2c.c ****     PeriphClkInitStruct.PeriphClockSelection = RCC_PERIPHCLK_I2C1;
  87:Core/Src/i2c.c ****     PeriphClkInitStruct.I2c1ClockSelection = RCC_I2C1CLKSOURCE_PCLK1;
  88:Core/Src/i2c.c ****     if (HAL_RCCEx_PeriphCLKConfig(&PeriphClkInitStruct) != HAL_OK)
  89:Core/Src/i2c.c ****     {
  90:Core/Src/i2c.c ****       Error_Handler();
  91:Core/Src/i2c.c ****     }
  92:Core/Src/i2c.c **** 
  93:Core/Src/i2c.c ****     __HAL_RCC_GPIOB_CLK_ENABLE();
  94:Core/Src/i2c.c ****     /**I2C1 GPIO Configuration
  95:Core/Src/i2c.c ****     PB6     ------> I2C1_SCL
  96:Core/Src/i2c.c ****     PB7     ------> I2C1_SDA
  97:Core/Src/i2c.c ****     */
  98:Core/Src/i2c.c ****     GPIO_InitStruct.Pin = GPIO_PIN_6|GPIO_PIN_7;
  99:Core/Src/i2c.c ****     GPIO_InitStruct.Mode = GPIO_MODE_AF_OD;
 100:Core/Src/i2c.c ****     GPIO_InitStruct.Pull = GPIO_NOPULL;
 101:Core/Src/i2c.c ****     GPIO_InitStruct.Speed = GPIO_SPEED_FREQ_VERY_HIGH;
 102:Core/Src/i2c.c ****     GPIO_InitStruct.Alternate = GPIO_AF4_I2C1;
 103:Core/Src/i2c.c ****     HAL_GPIO_Init(GPIOB, &GPIO_InitStruct);
 104:Core/Src/i2c.c **** 
 105:Core/Src/i2c.c ****     /* I2C1 clock enable */
 106:Core/Src/i2c.c ****     __HAL_RCC_I2C1_CLK_ENABLE();
 107:Core/Src/i2c.c ****   /* USER CODE BEGIN I2C1_MspInit 1 */
 108:Core/Src/i2c.c **** 
 109:Core/Src/i2c.c ****   /* USER CODE END I2C1_MspInit 1 */
 110:Core/Src/i2c.c ****   }
 111:Core/Src/i2c.c **** }
 171              		.loc 1 111 1 view .LVU43
 172 0022 28B0     		add	sp, sp, #160
 173              	.LCFI3:
 174              		.cfi_remember_state
ARM GAS  /tmp/ccAle920.s 			page 6


 175              		.cfi_def_cfa_offset 8
 176              		@ sp needed
 177 0024 10BD     		pop	{r4, pc}
 178              	.LVL10:
 179              	.L15:
 180              	.LCFI4:
 181              		.cfi_restore_state
  86:Core/Src/i2c.c ****     PeriphClkInitStruct.I2c1ClockSelection = RCC_I2C1CLKSOURCE_PCLK1;
 182              		.loc 1 86 5 is_stmt 1 view .LVU44
  86:Core/Src/i2c.c ****     PeriphClkInitStruct.I2c1ClockSelection = RCC_I2C1CLKSOURCE_PCLK1;
 183              		.loc 1 86 46 is_stmt 0 view .LVU45
 184 0026 4FF48043 		mov	r3, #16384
 185 002a 0393     		str	r3, [sp, #12]
  87:Core/Src/i2c.c ****     if (HAL_RCCEx_PeriphCLKConfig(&PeriphClkInitStruct) != HAL_OK)
 186              		.loc 1 87 5 is_stmt 1 view .LVU46
  88:Core/Src/i2c.c ****     {
 187              		.loc 1 88 5 view .LVU47
  88:Core/Src/i2c.c ****     {
 188              		.loc 1 88 9 is_stmt 0 view .LVU48
 189 002c 03A8     		add	r0, sp, #12
 190 002e FFF7FEFF 		bl	HAL_RCCEx_PeriphCLKConfig
 191              	.LVL11:
  88:Core/Src/i2c.c ****     {
 192              		.loc 1 88 8 view .LVU49
 193 0032 08BB     		cbnz	r0, .L16
 194              	.L13:
  93:Core/Src/i2c.c ****     /**I2C1 GPIO Configuration
 195              		.loc 1 93 5 is_stmt 1 view .LVU50
 196              	.LBB2:
  93:Core/Src/i2c.c ****     /**I2C1 GPIO Configuration
 197              		.loc 1 93 5 view .LVU51
  93:Core/Src/i2c.c ****     /**I2C1 GPIO Configuration
 198              		.loc 1 93 5 view .LVU52
 199 0034 134C     		ldr	r4, .L17+4
 200              	.LVL12:
  93:Core/Src/i2c.c ****     /**I2C1 GPIO Configuration
 201              		.loc 1 93 5 is_stmt 0 view .LVU53
 202 0036 236B     		ldr	r3, [r4, #48]
 203 0038 43F00203 		orr	r3, r3, #2
 204 003c 2363     		str	r3, [r4, #48]
  93:Core/Src/i2c.c ****     /**I2C1 GPIO Configuration
 205              		.loc 1 93 5 is_stmt 1 view .LVU54
 206 003e 236B     		ldr	r3, [r4, #48]
 207 0040 03F00203 		and	r3, r3, #2
 208 0044 0193     		str	r3, [sp, #4]
  93:Core/Src/i2c.c ****     /**I2C1 GPIO Configuration
 209              		.loc 1 93 5 view .LVU55
 210 0046 019B     		ldr	r3, [sp, #4]
 211              	.LBE2:
  93:Core/Src/i2c.c ****     /**I2C1 GPIO Configuration
 212              		.loc 1 93 5 view .LVU56
  98:Core/Src/i2c.c ****     GPIO_InitStruct.Mode = GPIO_MODE_AF_OD;
 213              		.loc 1 98 5 view .LVU57
  98:Core/Src/i2c.c ****     GPIO_InitStruct.Mode = GPIO_MODE_AF_OD;
 214              		.loc 1 98 25 is_stmt 0 view .LVU58
 215 0048 C023     		movs	r3, #192
 216 004a 2393     		str	r3, [sp, #140]
ARM GAS  /tmp/ccAle920.s 			page 7


  99:Core/Src/i2c.c ****     GPIO_InitStruct.Pull = GPIO_NOPULL;
 217              		.loc 1 99 5 is_stmt 1 view .LVU59
  99:Core/Src/i2c.c ****     GPIO_InitStruct.Pull = GPIO_NOPULL;
 218              		.loc 1 99 26 is_stmt 0 view .LVU60
 219 004c 1223     		movs	r3, #18
 220 004e 2493     		str	r3, [sp, #144]
 100:Core/Src/i2c.c ****     GPIO_InitStruct.Speed = GPIO_SPEED_FREQ_VERY_HIGH;
 221              		.loc 1 100 5 is_stmt 1 view .LVU61
 100:Core/Src/i2c.c ****     GPIO_InitStruct.Speed = GPIO_SPEED_FREQ_VERY_HIGH;
 222              		.loc 1 100 26 is_stmt 0 view .LVU62
 223 0050 0023     		movs	r3, #0
 224 0052 2593     		str	r3, [sp, #148]
 101:Core/Src/i2c.c ****     GPIO_InitStruct.Alternate = GPIO_AF4_I2C1;
 225              		.loc 1 101 5 is_stmt 1 view .LVU63
 101:Core/Src/i2c.c ****     GPIO_InitStruct.Alternate = GPIO_AF4_I2C1;
 226              		.loc 1 101 27 is_stmt 0 view .LVU64
 227 0054 0323     		movs	r3, #3
 228 0056 2693     		str	r3, [sp, #152]
 102:Core/Src/i2c.c ****     HAL_GPIO_Init(GPIOB, &GPIO_InitStruct);
 229              		.loc 1 102 5 is_stmt 1 view .LVU65
 102:Core/Src/i2c.c ****     HAL_GPIO_Init(GPIOB, &GPIO_InitStruct);
 230              		.loc 1 102 31 is_stmt 0 view .LVU66
 231 0058 0423     		movs	r3, #4
 232 005a 2793     		str	r3, [sp, #156]
 103:Core/Src/i2c.c **** 
 233              		.loc 1 103 5 is_stmt 1 view .LVU67
 234 005c 23A9     		add	r1, sp, #140
 235 005e 0A48     		ldr	r0, .L17+8
 236 0060 FFF7FEFF 		bl	HAL_GPIO_Init
 237              	.LVL13:
 106:Core/Src/i2c.c ****   /* USER CODE BEGIN I2C1_MspInit 1 */
 238              		.loc 1 106 5 view .LVU68
 239              	.LBB3:
 106:Core/Src/i2c.c ****   /* USER CODE BEGIN I2C1_MspInit 1 */
 240              		.loc 1 106 5 view .LVU69
 106:Core/Src/i2c.c ****   /* USER CODE BEGIN I2C1_MspInit 1 */
 241              		.loc 1 106 5 view .LVU70
 242 0064 236C     		ldr	r3, [r4, #64]
 243 0066 43F40013 		orr	r3, r3, #2097152
 244 006a 2364     		str	r3, [r4, #64]
 106:Core/Src/i2c.c ****   /* USER CODE BEGIN I2C1_MspInit 1 */
 245              		.loc 1 106 5 view .LVU71
 246 006c 236C     		ldr	r3, [r4, #64]
 247 006e 03F40013 		and	r3, r3, #2097152
 248 0072 0293     		str	r3, [sp, #8]
 106:Core/Src/i2c.c ****   /* USER CODE BEGIN I2C1_MspInit 1 */
 249              		.loc 1 106 5 view .LVU72
 250 0074 029B     		ldr	r3, [sp, #8]
 251              	.LBE3:
 106:Core/Src/i2c.c ****   /* USER CODE BEGIN I2C1_MspInit 1 */
 252              		.loc 1 106 5 view .LVU73
 253              		.loc 1 111 1 is_stmt 0 view .LVU74
 254 0076 D4E7     		b	.L11
 255              	.LVL14:
 256              	.L16:
  90:Core/Src/i2c.c ****     }
 257              		.loc 1 90 7 is_stmt 1 view .LVU75
ARM GAS  /tmp/ccAle920.s 			page 8


 258 0078 FFF7FEFF 		bl	Error_Handler
 259              	.LVL15:
 260 007c DAE7     		b	.L13
 261              	.L18:
 262 007e 00BF     		.align	2
 263              	.L17:
 264 0080 00540040 		.word	1073763328
 265 0084 00380240 		.word	1073887232
 266 0088 00040240 		.word	1073873920
 267              		.cfi_endproc
 268              	.LFE142:
 270              		.section	.text.HAL_I2C_MspDeInit,"ax",%progbits
 271              		.align	1
 272              		.global	HAL_I2C_MspDeInit
 273              		.syntax unified
 274              		.thumb
 275              		.thumb_func
 277              	HAL_I2C_MspDeInit:
 278              	.LVL16:
 279              	.LFB143:
 112:Core/Src/i2c.c **** 
 113:Core/Src/i2c.c **** void HAL_I2C_MspDeInit(I2C_HandleTypeDef* i2cHandle)
 114:Core/Src/i2c.c **** {
 280              		.loc 1 114 1 view -0
 281              		.cfi_startproc
 282              		@ args = 0, pretend = 0, frame = 0
 283              		@ frame_needed = 0, uses_anonymous_args = 0
 115:Core/Src/i2c.c **** 
 116:Core/Src/i2c.c ****   if(i2cHandle->Instance==I2C1)
 284              		.loc 1 116 3 view .LVU77
 285              		.loc 1 116 15 is_stmt 0 view .LVU78
 286 0000 0268     		ldr	r2, [r0]
 287              		.loc 1 116 5 view .LVU79
 288 0002 0A4B     		ldr	r3, .L26
 289 0004 9A42     		cmp	r2, r3
 290 0006 00D0     		beq	.L25
 291 0008 7047     		bx	lr
 292              	.L25:
 114:Core/Src/i2c.c **** 
 293              		.loc 1 114 1 view .LVU80
 294 000a 10B5     		push	{r4, lr}
 295              	.LCFI5:
 296              		.cfi_def_cfa_offset 8
 297              		.cfi_offset 4, -8
 298              		.cfi_offset 14, -4
 117:Core/Src/i2c.c ****   {
 118:Core/Src/i2c.c ****   /* USER CODE BEGIN I2C1_MspDeInit 0 */
 119:Core/Src/i2c.c **** 
 120:Core/Src/i2c.c ****   /* USER CODE END I2C1_MspDeInit 0 */
 121:Core/Src/i2c.c ****     /* Peripheral clock disable */
 122:Core/Src/i2c.c ****     __HAL_RCC_I2C1_CLK_DISABLE();
 299              		.loc 1 122 5 is_stmt 1 view .LVU81
 300 000c 084A     		ldr	r2, .L26+4
 301 000e 136C     		ldr	r3, [r2, #64]
 302 0010 23F40013 		bic	r3, r3, #2097152
 303 0014 1364     		str	r3, [r2, #64]
 123:Core/Src/i2c.c **** 
ARM GAS  /tmp/ccAle920.s 			page 9


 124:Core/Src/i2c.c ****     /**I2C1 GPIO Configuration
 125:Core/Src/i2c.c ****     PB6     ------> I2C1_SCL
 126:Core/Src/i2c.c ****     PB7     ------> I2C1_SDA
 127:Core/Src/i2c.c ****     */
 128:Core/Src/i2c.c ****     HAL_GPIO_DeInit(GPIOB, GPIO_PIN_6);
 304              		.loc 1 128 5 view .LVU82
 305 0016 074C     		ldr	r4, .L26+8
 306 0018 4021     		movs	r1, #64
 307 001a 2046     		mov	r0, r4
 308              	.LVL17:
 309              		.loc 1 128 5 is_stmt 0 view .LVU83
 310 001c FFF7FEFF 		bl	HAL_GPIO_DeInit
 311              	.LVL18:
 129:Core/Src/i2c.c **** 
 130:Core/Src/i2c.c ****     HAL_GPIO_DeInit(GPIOB, GPIO_PIN_7);
 312              		.loc 1 130 5 is_stmt 1 view .LVU84
 313 0020 8021     		movs	r1, #128
 314 0022 2046     		mov	r0, r4
 315 0024 FFF7FEFF 		bl	HAL_GPIO_DeInit
 316              	.LVL19:
 131:Core/Src/i2c.c **** 
 132:Core/Src/i2c.c ****   /* USER CODE BEGIN I2C1_MspDeInit 1 */
 133:Core/Src/i2c.c **** 
 134:Core/Src/i2c.c ****   /* USER CODE END I2C1_MspDeInit 1 */
 135:Core/Src/i2c.c ****   }
 136:Core/Src/i2c.c **** }
 317              		.loc 1 136 1 is_stmt 0 view .LVU85
 318 0028 10BD     		pop	{r4, pc}
 319              	.L27:
 320 002a 00BF     		.align	2
 321              	.L26:
 322 002c 00540040 		.word	1073763328
 323 0030 00380240 		.word	1073887232
 324 0034 00040240 		.word	1073873920
 325              		.cfi_endproc
 326              	.LFE143:
 328              		.global	hi2c1
 329              		.section	.bss.hi2c1,"aw",%nobits
 330              		.align	2
 331              		.set	.LANCHOR0,. + 0
 334              	hi2c1:
 335 0000 00000000 		.space	84
 335      00000000 
 335      00000000 
 335      00000000 
 335      00000000 
 336              		.text
 337              	.Letext0:
 338              		.file 2 "/opt/gcc-arm-none-eabi-10.3-2021.10/arm-none-eabi/include/machine/_default_types.h"
 339              		.file 3 "/opt/gcc-arm-none-eabi-10.3-2021.10/arm-none-eabi/include/sys/_stdint.h"
 340              		.file 4 "Drivers/CMSIS/Device/ST/STM32F7xx/Include/stm32f723xx.h"
 341              		.file 5 "Drivers/STM32F7xx_HAL_Driver/Inc/stm32f7xx_hal_def.h"
 342              		.file 6 "Drivers/STM32F7xx_HAL_Driver/Inc/stm32f7xx_hal_rcc_ex.h"
 343              		.file 7 "Drivers/STM32F7xx_HAL_Driver/Inc/stm32f7xx_hal_gpio.h"
 344              		.file 8 "Drivers/STM32F7xx_HAL_Driver/Inc/stm32f7xx_hal_dma.h"
 345              		.file 9 "Drivers/STM32F7xx_HAL_Driver/Inc/stm32f7xx_hal_i2c.h"
 346              		.file 10 "Core/Inc/main.h"
ARM GAS  /tmp/ccAle920.s 			page 10


 347              		.file 11 "Drivers/STM32F7xx_HAL_Driver/Inc/stm32f7xx_hal_i2c_ex.h"
 348              		.file 12 "Core/Inc/i2c.h"
 349              		.file 13 "<built-in>"
ARM GAS  /tmp/ccAle920.s 			page 11

