Archive member included to satisfy reference by file (symbol)

/opt/gcc-arm-none-eabi-10.3-2021.10/bin/../lib/gcc/arm-none-eabi/10.3.1/../../../../arm-none-eabi/lib/thumb/v7e-m+fp/hard/libc_nano.a(lib_a-exit.o)
                              /opt/gcc-arm-none-eabi-10.3-2021.10/bin/../lib/gcc/arm-none-eabi/10.3.1/../../../../arm-none-eabi/lib/thumb/v7e-m+fp/hard/crt0.o (exit)
/opt/gcc-arm-none-eabi-10.3-2021.10/bin/../lib/gcc/arm-none-eabi/10.3.1/../../../../arm-none-eabi/lib/thumb/v7e-m+fp/hard/libc_nano.a(lib_a-impure.o)
                              /opt/gcc-arm-none-eabi-10.3-2021.10/bin/../lib/gcc/arm-none-eabi/10.3.1/../../../../arm-none-eabi/lib/thumb/v7e-m+fp/hard/libc_nano.a(lib_a-exit.o) (_global_impure_ptr)
/opt/gcc-arm-none-eabi-10.3-2021.10/bin/../lib/gcc/arm-none-eabi/10.3.1/../../../../arm-none-eabi/lib/thumb/v7e-m+fp/hard/libc_nano.a(lib_a-init.o)
                              /opt/gcc-arm-none-eabi-10.3-2021.10/bin/../lib/gcc/arm-none-eabi/10.3.1/../../../../arm-none-eabi/lib/thumb/v7e-m+fp/hard/crt0.o (__libc_init_array)
/opt/gcc-arm-none-eabi-10.3-2021.10/bin/../lib/gcc/arm-none-eabi/10.3.1/../../../../arm-none-eabi/lib/thumb/v7e-m+fp/hard/libc_nano.a(lib_a-malloc.o)
                              build/nyan_os.o (malloc)
/opt/gcc-arm-none-eabi-10.3-2021.10/bin/../lib/gcc/arm-none-eabi/10.3.1/../../../../arm-none-eabi/lib/thumb/v7e-m+fp/hard/libc_nano.a(lib_a-memcmp.o)
                              build/nyan_os.o (memcmp)
/opt/gcc-arm-none-eabi-10.3-2021.10/bin/../lib/gcc/arm-none-eabi/10.3.1/../../../../arm-none-eabi/lib/thumb/v7e-m+fp/hard/libc_nano.a(lib_a-memcpy-stub.o)
                              build/nyan_os.o (memcpy)
/opt/gcc-arm-none-eabi-10.3-2021.10/bin/../lib/gcc/arm-none-eabi/10.3.1/../../../../arm-none-eabi/lib/thumb/v7e-m+fp/hard/libc_nano.a(lib_a-memset.o)
                              /opt/gcc-arm-none-eabi-10.3-2021.10/bin/../lib/gcc/arm-none-eabi/10.3.1/../../../../arm-none-eabi/lib/thumb/v7e-m+fp/hard/crt0.o (memset)
/opt/gcc-arm-none-eabi-10.3-2021.10/bin/../lib/gcc/arm-none-eabi/10.3.1/../../../../arm-none-eabi/lib/thumb/v7e-m+fp/hard/libc_nano.a(lib_a-nano-freer.o)
                              /opt/gcc-arm-none-eabi-10.3-2021.10/bin/../lib/gcc/arm-none-eabi/10.3.1/../../../../arm-none-eabi/lib/thumb/v7e-m+fp/hard/libc_nano.a(lib_a-malloc.o) (_free_r)
/opt/gcc-arm-none-eabi-10.3-2021.10/bin/../lib/gcc/arm-none-eabi/10.3.1/../../../../arm-none-eabi/lib/thumb/v7e-m+fp/hard/libc_nano.a(lib_a-nano-mallocr.o)
                              /opt/gcc-arm-none-eabi-10.3-2021.10/bin/../lib/gcc/arm-none-eabi/10.3.1/../../../../arm-none-eabi/lib/thumb/v7e-m+fp/hard/libc_nano.a(lib_a-malloc.o) (_malloc_r)
/opt/gcc-arm-none-eabi-10.3-2021.10/bin/../lib/gcc/arm-none-eabi/10.3.1/../../../../arm-none-eabi/lib/thumb/v7e-m+fp/hard/libc_nano.a(lib_a-realloc.o)
                              build/nyan_os.o (realloc)
/opt/gcc-arm-none-eabi-10.3-2021.10/bin/../lib/gcc/arm-none-eabi/10.3.1/../../../../arm-none-eabi/lib/thumb/v7e-m+fp/hard/libc_nano.a(lib_a-sbrkr.o)
                              /opt/gcc-arm-none-eabi-10.3-2021.10/bin/../lib/gcc/arm-none-eabi/10.3.1/../../../../arm-none-eabi/lib/thumb/v7e-m+fp/hard/libc_nano.a(lib_a-nano-mallocr.o) (_sbrk_r)
/opt/gcc-arm-none-eabi-10.3-2021.10/bin/../lib/gcc/arm-none-eabi/10.3.1/../../../../arm-none-eabi/lib/thumb/v7e-m+fp/hard/libc_nano.a(lib_a-snprintf.o)
                              build/usbd_composite.o (snprintf)
/opt/gcc-arm-none-eabi-10.3-2021.10/bin/../lib/gcc/arm-none-eabi/10.3.1/../../../../arm-none-eabi/lib/thumb/v7e-m+fp/hard/libc_nano.a(lib_a-strlen.o)
                              build/nyan_os.o (strlen)
/opt/gcc-arm-none-eabi-10.3-2021.10/bin/../lib/gcc/arm-none-eabi/10.3.1/../../../../arm-none-eabi/lib/thumb/v7e-m+fp/hard/libc_nano.a(lib_a-mlock.o)
                              /opt/gcc-arm-none-eabi-10.3-2021.10/bin/../lib/gcc/arm-none-eabi/10.3.1/../../../../arm-none-eabi/lib/thumb/v7e-m+fp/hard/libc_nano.a(lib_a-nano-freer.o) (__malloc_lock)
/opt/gcc-arm-none-eabi-10.3-2021.10/bin/../lib/gcc/arm-none-eabi/10.3.1/../../../../arm-none-eabi/lib/thumb/v7e-m+fp/hard/libc_nano.a(lib_a-nano-reallocr.o)
                              /opt/gcc-arm-none-eabi-10.3-2021.10/bin/../lib/gcc/arm-none-eabi/10.3.1/../../../../arm-none-eabi/lib/thumb/v7e-m+fp/hard/libc_nano.a(lib_a-realloc.o) (_realloc_r)
/opt/gcc-arm-none-eabi-10.3-2021.10/bin/../lib/gcc/arm-none-eabi/10.3.1/../../../../arm-none-eabi/lib/thumb/v7e-m+fp/hard/libc_nano.a(lib_a-nano-svfprintf.o)
                              /opt/gcc-arm-none-eabi-10.3-2021.10/bin/../lib/gcc/arm-none-eabi/10.3.1/../../../../arm-none-eabi/lib/thumb/v7e-m+fp/hard/libc_nano.a(lib_a-snprintf.o) (_svfprintf_r)
/opt/gcc-arm-none-eabi-10.3-2021.10/bin/../lib/gcc/arm-none-eabi/10.3.1/../../../../arm-none-eabi/lib/thumb/v7e-m+fp/hard/libc_nano.a(lib_a-nano-vfprintf_i.o)
                              /opt/gcc-arm-none-eabi-10.3-2021.10/bin/../lib/gcc/arm-none-eabi/10.3.1/../../../../arm-none-eabi/lib/thumb/v7e-m+fp/hard/libc_nano.a(lib_a-nano-svfprintf.o) (_printf_i)
/opt/gcc-arm-none-eabi-10.3-2021.10/bin/../lib/gcc/arm-none-eabi/10.3.1/../../../../arm-none-eabi/lib/thumb/v7e-m+fp/hard/libc_nano.a(lib_a-reent.o)
                              /opt/gcc-arm-none-eabi-10.3-2021.10/bin/../lib/gcc/arm-none-eabi/10.3.1/../../../../arm-none-eabi/lib/thumb/v7e-m+fp/hard/libc_nano.a(lib_a-sbrkr.o) (errno)
/opt/gcc-arm-none-eabi-10.3-2021.10/bin/../lib/gcc/arm-none-eabi/10.3.1/../../../../arm-none-eabi/lib/thumb/v7e-m+fp/hard/libc_nano.a(lib_a-lock.o)
                              /opt/gcc-arm-none-eabi-10.3-2021.10/bin/../lib/gcc/arm-none-eabi/10.3.1/../../../../arm-none-eabi/lib/thumb/v7e-m+fp/hard/libc_nano.a(lib_a-mlock.o) (__retarget_lock_acquire_recursive)
/opt/gcc-arm-none-eabi-10.3-2021.10/bin/../lib/gcc/arm-none-eabi/10.3.1/../../../../arm-none-eabi/lib/thumb/v7e-m+fp/hard/libc_nano.a(lib_a-memchr.o)
                              /opt/gcc-arm-none-eabi-10.3-2021.10/bin/../lib/gcc/arm-none-eabi/10.3.1/../../../../arm-none-eabi/lib/thumb/v7e-m+fp/hard/libc_nano.a(lib_a-nano-svfprintf.o) (memchr)
/opt/gcc-arm-none-eabi-10.3-2021.10/bin/../lib/gcc/arm-none-eabi/10.3.1/../../../../arm-none-eabi/lib/thumb/v7e-m+fp/hard/libc_nano.a(lib_a-memmove.o)
                              /opt/gcc-arm-none-eabi-10.3-2021.10/bin/../lib/gcc/arm-none-eabi/10.3.1/../../../../arm-none-eabi/lib/thumb/v7e-m+fp/hard/libc_nano.a(lib_a-nano-svfprintf.o) (memmove)
/opt/gcc-arm-none-eabi-10.3-2021.10/bin/../lib/gcc/arm-none-eabi/10.3.1/../../../../arm-none-eabi/lib/thumb/v7e-m+fp/hard/libc_nano.a(lib_a-nano-msizer.o)
                              /opt/gcc-arm-none-eabi-10.3-2021.10/bin/../lib/gcc/arm-none-eabi/10.3.1/../../../../arm-none-eabi/lib/thumb/v7e-m+fp/hard/libc_nano.a(lib_a-nano-reallocr.o) (_malloc_usable_size_r)
/opt/gcc-arm-none-eabi-10.3-2021.10/bin/../lib/gcc/arm-none-eabi/10.3.1/../../../../arm-none-eabi/lib/thumb/v7e-m+fp/hard/libm.a(lib_a-s_floor.o)
                              build/nyan_leds.o (floor)
/opt/gcc-arm-none-eabi-10.3-2021.10/bin/../lib/gcc/arm-none-eabi/10.3.1/../../../../arm-none-eabi/lib/thumb/v7e-m+fp/hard/libm.a(lib_a-sf_cos.o)
                              build/nyan_leds.o (cosf)
/opt/gcc-arm-none-eabi-10.3-2021.10/bin/../lib/gcc/arm-none-eabi/10.3.1/../../../../arm-none-eabi/lib/thumb/v7e-m+fp/hard/libm.a(lib_a-w_pow.o)
                              build/nyan_leds.o (pow)
/opt/gcc-arm-none-eabi-10.3-2021.10/bin/../lib/gcc/arm-none-eabi/10.3.1/../../../../arm-none-eabi/lib/thumb/v7e-m+fp/hard/libm.a(lib_a-e_pow.o)
                              /opt/gcc-arm-none-eabi-10.3-2021.10/bin/../lib/gcc/arm-none-eabi/10.3.1/../../../../arm-none-eabi/lib/thumb/v7e-m+fp/hard/libm.a(lib_a-w_pow.o) (__ieee754_pow)
/opt/gcc-arm-none-eabi-10.3-2021.10/bin/../lib/gcc/arm-none-eabi/10.3.1/../../../../arm-none-eabi/lib/thumb/v7e-m+fp/hard/libm.a(lib_a-e_sqrt.o)
                              /opt/gcc-arm-none-eabi-10.3-2021.10/bin/../lib/gcc/arm-none-eabi/10.3.1/../../../../arm-none-eabi/lib/thumb/v7e-m+fp/hard/libm.a(lib_a-e_pow.o) (__ieee754_sqrt)
/opt/gcc-arm-none-eabi-10.3-2021.10/bin/../lib/gcc/arm-none-eabi/10.3.1/../../../../arm-none-eabi/lib/thumb/v7e-m+fp/hard/libm.a(lib_a-ef_rem_pio2.o)
                              /opt/gcc-arm-none-eabi-10.3-2021.10/bin/../lib/gcc/arm-none-eabi/10.3.1/../../../../arm-none-eabi/lib/thumb/v7e-m+fp/hard/libm.a(lib_a-sf_cos.o) (__ieee754_rem_pio2f)
/opt/gcc-arm-none-eabi-10.3-2021.10/bin/../lib/gcc/arm-none-eabi/10.3.1/../../../../arm-none-eabi/lib/thumb/v7e-m+fp/hard/libm.a(lib_a-kf_cos.o)
                              /opt/gcc-arm-none-eabi-10.3-2021.10/bin/../lib/gcc/arm-none-eabi/10.3.1/../../../../arm-none-eabi/lib/thumb/v7e-m+fp/hard/libm.a(lib_a-sf_cos.o) (__kernel_cosf)
/opt/gcc-arm-none-eabi-10.3-2021.10/bin/../lib/gcc/arm-none-eabi/10.3.1/../../../../arm-none-eabi/lib/thumb/v7e-m+fp/hard/libm.a(lib_a-kf_rem_pio2.o)
                              /opt/gcc-arm-none-eabi-10.3-2021.10/bin/../lib/gcc/arm-none-eabi/10.3.1/../../../../arm-none-eabi/lib/thumb/v7e-m+fp/hard/libm.a(lib_a-ef_rem_pio2.o) (__kernel_rem_pio2f)
/opt/gcc-arm-none-eabi-10.3-2021.10/bin/../lib/gcc/arm-none-eabi/10.3.1/../../../../arm-none-eabi/lib/thumb/v7e-m+fp/hard/libm.a(lib_a-kf_sin.o)
                              /opt/gcc-arm-none-eabi-10.3-2021.10/bin/../lib/gcc/arm-none-eabi/10.3.1/../../../../arm-none-eabi/lib/thumb/v7e-m+fp/hard/libm.a(lib_a-sf_cos.o) (__kernel_sinf)
/opt/gcc-arm-none-eabi-10.3-2021.10/bin/../lib/gcc/arm-none-eabi/10.3.1/../../../../arm-none-eabi/lib/thumb/v7e-m+fp/hard/libm.a(lib_a-math_err.o)
                              /opt/gcc-arm-none-eabi-10.3-2021.10/bin/../lib/gcc/arm-none-eabi/10.3.1/../../../../arm-none-eabi/lib/thumb/v7e-m+fp/hard/libm.a(lib_a-e_pow.o) (__math_uflow)
/opt/gcc-arm-none-eabi-10.3-2021.10/bin/../lib/gcc/arm-none-eabi/10.3.1/../../../../arm-none-eabi/lib/thumb/v7e-m+fp/hard/libm.a(lib_a-s_fabs.o)
                              /opt/gcc-arm-none-eabi-10.3-2021.10/bin/../lib/gcc/arm-none-eabi/10.3.1/../../../../arm-none-eabi/lib/thumb/v7e-m+fp/hard/libm.a(lib_a-e_pow.o) (fabs)
/opt/gcc-arm-none-eabi-10.3-2021.10/bin/../lib/gcc/arm-none-eabi/10.3.1/../../../../arm-none-eabi/lib/thumb/v7e-m+fp/hard/libm.a(lib_a-s_finite.o)
                              /opt/gcc-arm-none-eabi-10.3-2021.10/bin/../lib/gcc/arm-none-eabi/10.3.1/../../../../arm-none-eabi/lib/thumb/v7e-m+fp/hard/libm.a(lib_a-w_pow.o) (finite)
/opt/gcc-arm-none-eabi-10.3-2021.10/bin/../lib/gcc/arm-none-eabi/10.3.1/../../../../arm-none-eabi/lib/thumb/v7e-m+fp/hard/libm.a(lib_a-s_scalbn.o)
                              /opt/gcc-arm-none-eabi-10.3-2021.10/bin/../lib/gcc/arm-none-eabi/10.3.1/../../../../arm-none-eabi/lib/thumb/v7e-m+fp/hard/libm.a(lib_a-e_pow.o) (scalbn)
/opt/gcc-arm-none-eabi-10.3-2021.10/bin/../lib/gcc/arm-none-eabi/10.3.1/../../../../arm-none-eabi/lib/thumb/v7e-m+fp/hard/libm.a(lib_a-sf_fabs.o)
                              /opt/gcc-arm-none-eabi-10.3-2021.10/bin/../lib/gcc/arm-none-eabi/10.3.1/../../../../arm-none-eabi/lib/thumb/v7e-m+fp/hard/libm.a(lib_a-ef_rem_pio2.o) (fabsf)
/opt/gcc-arm-none-eabi-10.3-2021.10/bin/../lib/gcc/arm-none-eabi/10.3.1/../../../../arm-none-eabi/lib/thumb/v7e-m+fp/hard/libm.a(lib_a-sf_floor.o)
                              /opt/gcc-arm-none-eabi-10.3-2021.10/bin/../lib/gcc/arm-none-eabi/10.3.1/../../../../arm-none-eabi/lib/thumb/v7e-m+fp/hard/libm.a(lib_a-kf_rem_pio2.o) (floorf)
/opt/gcc-arm-none-eabi-10.3-2021.10/bin/../lib/gcc/arm-none-eabi/10.3.1/../../../../arm-none-eabi/lib/thumb/v7e-m+fp/hard/libm.a(lib_a-sf_scalbn.o)
                              /opt/gcc-arm-none-eabi-10.3-2021.10/bin/../lib/gcc/arm-none-eabi/10.3.1/../../../../arm-none-eabi/lib/thumb/v7e-m+fp/hard/libm.a(lib_a-kf_rem_pio2.o) (scalbnf)
/opt/gcc-arm-none-eabi-10.3-2021.10/bin/../lib/gcc/arm-none-eabi/10.3.1/../../../../arm-none-eabi/lib/thumb/v7e-m+fp/hard/libnosys.a(sbrk.o)
                              /opt/gcc-arm-none-eabi-10.3-2021.10/bin/../lib/gcc/arm-none-eabi/10.3.1/../../../../arm-none-eabi/lib/thumb/v7e-m+fp/hard/libc_nano.a(lib_a-sbrkr.o) (_sbrk)
/opt/gcc-arm-none-eabi-10.3-2021.10/bin/../lib/gcc/arm-none-eabi/10.3.1/../../../../arm-none-eabi/lib/thumb/v7e-m+fp/hard/libnosys.a(_exit.o)
                              /opt/gcc-arm-none-eabi-10.3-2021.10/bin/../lib/gcc/arm-none-eabi/10.3.1/../../../../arm-none-eabi/lib/thumb/v7e-m+fp/hard/libc_nano.a(lib_a-exit.o) (_exit)
/opt/gcc-arm-none-eabi-10.3-2021.10/bin/../lib/gcc/arm-none-eabi/10.3.1/thumb/v7e-m+fp/hard/libgcc.a(_arm_muldf3.o)
                              build/nyan_leds.o (__aeabi_dmul)
/opt/gcc-arm-none-eabi-10.3-2021.10/bin/../lib/gcc/arm-none-eabi/10.3.1/thumb/v7e-m+fp/hard/libgcc.a(_arm_addsubdf3.o)
                              /opt/gcc-arm-none-eabi-10.3-2021.10/bin/../lib/gcc/arm-none-eabi/10.3.1/../../../../arm-none-eabi/lib/thumb/v7e-m+fp/hard/libm.a(lib_a-e_pow.o) (__aeabi_dsub)
/opt/gcc-arm-none-eabi-10.3-2021.10/bin/../lib/gcc/arm-none-eabi/10.3.1/thumb/v7e-m+fp/hard/libgcc.a(_arm_muldivdf3.o)
                              /opt/gcc-arm-none-eabi-10.3-2021.10/bin/../lib/gcc/arm-none-eabi/10.3.1/../../../../arm-none-eabi/lib/thumb/v7e-m+fp/hard/libm.a(lib_a-e_pow.o) (__aeabi_ddiv)
/opt/gcc-arm-none-eabi-10.3-2021.10/bin/../lib/gcc/arm-none-eabi/10.3.1/thumb/v7e-m+fp/hard/libgcc.a(_arm_cmpdf2.o)
                              /opt/gcc-arm-none-eabi-10.3-2021.10/bin/../lib/gcc/arm-none-eabi/10.3.1/../../../../arm-none-eabi/lib/thumb/v7e-m+fp/hard/libm.a(lib_a-w_pow.o) (__aeabi_dcmpeq)
/opt/gcc-arm-none-eabi-10.3-2021.10/bin/../lib/gcc/arm-none-eabi/10.3.1/thumb/v7e-m+fp/hard/libgcc.a(_arm_unorddf2.o)
                              /opt/gcc-arm-none-eabi-10.3-2021.10/bin/../lib/gcc/arm-none-eabi/10.3.1/../../../../arm-none-eabi/lib/thumb/v7e-m+fp/hard/libm.a(lib_a-w_pow.o) (__aeabi_dcmpun)
/opt/gcc-arm-none-eabi-10.3-2021.10/bin/../lib/gcc/arm-none-eabi/10.3.1/thumb/v7e-m+fp/hard/libgcc.a(_arm_fixunsdfsi.o)
                              build/nyan_leds.o (__aeabi_d2uiz)
/opt/gcc-arm-none-eabi-10.3-2021.10/bin/../lib/gcc/arm-none-eabi/10.3.1/thumb/v7e-m+fp/hard/libgcc.a(_arm_truncdfsf2.o)
                              build/nyan_leds.o (__aeabi_d2f)
/opt/gcc-arm-none-eabi-10.3-2021.10/bin/../lib/gcc/arm-none-eabi/10.3.1/thumb/v7e-m+fp/hard/libgcc.a(_aeabi_uldivmod.o)
                              build/stm32f7xx_hal_rcc.o (__aeabi_uldivmod)
/opt/gcc-arm-none-eabi-10.3-2021.10/bin/../lib/gcc/arm-none-eabi/10.3.1/thumb/v7e-m+fp/hard/libgcc.a(_udivmoddi4.o)
                              /opt/gcc-arm-none-eabi-10.3-2021.10/bin/../lib/gcc/arm-none-eabi/10.3.1/thumb/v7e-m+fp/hard/libgcc.a(_aeabi_uldivmod.o) (__udivmoddi4)
/opt/gcc-arm-none-eabi-10.3-2021.10/bin/../lib/gcc/arm-none-eabi/10.3.1/thumb/v7e-m+fp/hard/libgcc.a(_dvmd_tls.o)
                              /opt/gcc-arm-none-eabi-10.3-2021.10/bin/../lib/gcc/arm-none-eabi/10.3.1/thumb/v7e-m+fp/hard/libgcc.a(_aeabi_uldivmod.o) (__aeabi_ldiv0)
/opt/gcc-arm-none-eabi-10.3-2021.10/bin/../lib/gcc/arm-none-eabi/10.3.1/../../../../arm-none-eabi/lib/thumb/v7e-m+fp/hard/libc_nano.a(lib_a-errno.o)
                              /opt/gcc-arm-none-eabi-10.3-2021.10/bin/../lib/gcc/arm-none-eabi/10.3.1/../../../../arm-none-eabi/lib/thumb/v7e-m+fp/hard/libm.a(lib_a-w_pow.o) (__errno)

Discarded input sections

 .text          0x0000000000000000        0x0 /opt/gcc-arm-none-eabi-10.3-2021.10/bin/../lib/gcc/arm-none-eabi/10.3.1/thumb/v7e-m+fp/hard/crti.o
 .data          0x0000000000000000        0x0 /opt/gcc-arm-none-eabi-10.3-2021.10/bin/../lib/gcc/arm-none-eabi/10.3.1/thumb/v7e-m+fp/hard/crti.o
 .bss           0x0000000000000000        0x0 /opt/gcc-arm-none-eabi-10.3-2021.10/bin/../lib/gcc/arm-none-eabi/10.3.1/thumb/v7e-m+fp/hard/crti.o
 .data          0x0000000000000000        0x4 /opt/gcc-arm-none-eabi-10.3-2021.10/bin/../lib/gcc/arm-none-eabi/10.3.1/thumb/v7e-m+fp/hard/crtbegin.o
 .rodata        0x0000000000000000       0x24 /opt/gcc-arm-none-eabi-10.3-2021.10/bin/../lib/gcc/arm-none-eabi/10.3.1/thumb/v7e-m+fp/hard/crtbegin.o
 .text          0x0000000000000000       0x7c /opt/gcc-arm-none-eabi-10.3-2021.10/bin/../lib/gcc/arm-none-eabi/10.3.1/../../../../arm-none-eabi/lib/thumb/v7e-m+fp/hard/crt0.o
 .data          0x0000000000000000        0x0 /opt/gcc-arm-none-eabi-10.3-2021.10/bin/../lib/gcc/arm-none-eabi/10.3.1/../../../../arm-none-eabi/lib/thumb/v7e-m+fp/hard/crt0.o
 .bss           0x0000000000000000        0x0 /opt/gcc-arm-none-eabi-10.3-2021.10/bin/../lib/gcc/arm-none-eabi/10.3.1/../../../../arm-none-eabi/lib/thumb/v7e-m+fp/hard/crt0.o
 .ARM.extab     0x0000000000000000        0x0 /opt/gcc-arm-none-eabi-10.3-2021.10/bin/../lib/gcc/arm-none-eabi/10.3.1/../../../../arm-none-eabi/lib/thumb/v7e-m+fp/hard/crt0.o
 .ARM.exidx     0x0000000000000000       0x10 /opt/gcc-arm-none-eabi-10.3-2021.10/bin/../lib/gcc/arm-none-eabi/10.3.1/../../../../arm-none-eabi/lib/thumb/v7e-m+fp/hard/crt0.o
 .ARM.attributes
                0x0000000000000000       0x1c /opt/gcc-arm-none-eabi-10.3-2021.10/bin/../lib/gcc/arm-none-eabi/10.3.1/../../../../arm-none-eabi/lib/thumb/v7e-m+fp/hard/crt0.o
 .text          0x0000000000000000        0x0 build/main.o
 .data          0x0000000000000000        0x0 build/main.o
 .bss           0x0000000000000000        0x0 build/main.o
 .text          0x0000000000000000        0x0 build/gpio.o
 .data          0x0000000000000000        0x0 build/gpio.o
 .bss           0x0000000000000000        0x0 build/gpio.o
 .text          0x0000000000000000        0x0 build/i2c.o
 .data          0x0000000000000000        0x0 build/i2c.o
 .bss           0x0000000000000000        0x0 build/i2c.o
 .text.HAL_I2C_MspDeInit
                0x0000000000000000       0x50 build/i2c.o
 .text          0x0000000000000000        0x0 build/rng.o
 .data          0x0000000000000000        0x0 build/rng.o
 .bss           0x0000000000000000        0x0 build/rng.o
 .text.HAL_RNG_MspDeInit
                0x0000000000000000       0x20 build/rng.o
 .text          0x0000000000000000        0x0 build/spi.o
 .data          0x0000000000000000        0x0 build/spi.o
 .bss           0x0000000000000000        0x0 build/spi.o
 .text.HAL_SPI_MspDeInit
                0x0000000000000000       0x80 build/spi.o
 .text          0x0000000000000000        0x0 build/stm32f7xx_it.o
 .data          0x0000000000000000        0x0 build/stm32f7xx_it.o
 .bss           0x0000000000000000        0x0 build/stm32f7xx_it.o
 .text          0x0000000000000000        0x0 build/stm32f7xx_hal_msp.o
 .data          0x0000000000000000        0x0 build/stm32f7xx_hal_msp.o
 .bss           0x0000000000000000        0x0 build/stm32f7xx_hal_msp.o
 .text          0x0000000000000000        0x0 build/stm32f7xx_hal_rcc.o
 .data          0x0000000000000000        0x0 build/stm32f7xx_hal_rcc.o
 .bss           0x0000000000000000        0x0 build/stm32f7xx_hal_rcc.o
 .text.HAL_RCC_DeInit
                0x0000000000000000      0x158 build/stm32f7xx_hal_rcc.o
 .text.HAL_RCC_MCOConfig
                0x0000000000000000       0x98 build/stm32f7xx_hal_rcc.o
 .text.HAL_RCC_EnableCSS
                0x0000000000000000       0x10 build/stm32f7xx_hal_rcc.o
 .text.HAL_RCC_DisableCSS
                0x0000000000000000       0x10 build/stm32f7xx_hal_rcc.o
 .text.HAL_RCC_GetPCLK1Freq
                0x0000000000000000       0x20 build/stm32f7xx_hal_rcc.o
 .text.HAL_RCC_GetPCLK2Freq
                0x0000000000000000       0x20 build/stm32f7xx_hal_rcc.o
 .text.HAL_RCC_GetOscConfig
                0x0000000000000000       0xcc build/stm32f7xx_hal_rcc.o
 .text.HAL_RCC_GetClockConfig
                0x0000000000000000       0x3c build/stm32f7xx_hal_rcc.o
 .text.HAL_RCC_CSSCallback
                0x0000000000000000        0x2 build/stm32f7xx_hal_rcc.o
 .text.HAL_RCC_NMI_IRQHandler
                0x0000000000000000       0x20 build/stm32f7xx_hal_rcc.o
 .text          0x0000000000000000        0x0 build/stm32f7xx_hal_rcc_ex.o
 .data          0x0000000000000000        0x0 build/stm32f7xx_hal_rcc_ex.o
 .bss           0x0000000000000000        0x0 build/stm32f7xx_hal_rcc_ex.o
 .text.HAL_RCCEx_GetPeriphCLKConfig
                0x0000000000000000      0x138 build/stm32f7xx_hal_rcc_ex.o
 .text.HAL_RCCEx_GetPeriphCLKFreq
                0x0000000000000000      0x1a8 build/stm32f7xx_hal_rcc_ex.o
 .text.HAL_RCCEx_EnablePLLI2S
                0x0000000000000000       0x70 build/stm32f7xx_hal_rcc_ex.o
 .text.HAL_RCCEx_DisablePLLI2S
                0x0000000000000000       0x34 build/stm32f7xx_hal_rcc_ex.o
 .text.HAL_RCCEx_EnablePLLSAI
                0x0000000000000000       0x70 build/stm32f7xx_hal_rcc_ex.o
 .text.HAL_RCCEx_DisablePLLSAI
                0x0000000000000000       0x34 build/stm32f7xx_hal_rcc_ex.o
 .text          0x0000000000000000        0x0 build/stm32f7xx_hal_flash.o
 .data          0x0000000000000000        0x0 build/stm32f7xx_hal_flash.o
 .bss           0x0000000000000000        0x0 build/stm32f7xx_hal_flash.o
 .text.FLASH_Program_DoubleWord
                0x0000000000000000       0x34 build/stm32f7xx_hal_flash.o
 .text.FLASH_Program_Word
                0x0000000000000000       0x28 build/stm32f7xx_hal_flash.o
 .text.FLASH_Program_HalfWord
                0x0000000000000000       0x28 build/stm32f7xx_hal_flash.o
 .text.FLASH_Program_Byte
                0x0000000000000000       0x24 build/stm32f7xx_hal_flash.o
 .text.FLASH_SetErrorCode
                0x0000000000000000       0x8c build/stm32f7xx_hal_flash.o
 .text.HAL_FLASH_Program_IT
                0x0000000000000000       0x74 build/stm32f7xx_hal_flash.o
 .text.HAL_FLASH_EndOfOperationCallback
                0x0000000000000000        0x2 build/stm32f7xx_hal_flash.o
 .text.HAL_FLASH_OperationErrorCallback
                0x0000000000000000        0x2 build/stm32f7xx_hal_flash.o
 .text.HAL_FLASH_IRQHandler
                0x0000000000000000      0x108 build/stm32f7xx_hal_flash.o
 .text.HAL_FLASH_Unlock
                0x0000000000000000       0x30 build/stm32f7xx_hal_flash.o
 .text.HAL_FLASH_Lock
                0x0000000000000000       0x14 build/stm32f7xx_hal_flash.o
 .text.HAL_FLASH_OB_Unlock
                0x0000000000000000       0x28 build/stm32f7xx_hal_flash.o
 .text.HAL_FLASH_OB_Lock
                0x0000000000000000       0x14 build/stm32f7xx_hal_flash.o
 .text.HAL_FLASH_GetError
                0x0000000000000000        0xc build/stm32f7xx_hal_flash.o
 .text.FLASH_WaitForLastOperation
                0x0000000000000000       0x64 build/stm32f7xx_hal_flash.o
 .text.HAL_FLASH_Program
                0x0000000000000000       0x7c build/stm32f7xx_hal_flash.o
 .text.HAL_FLASH_OB_Launch
                0x0000000000000000       0x1c build/stm32f7xx_hal_flash.o
 .bss.pFlash    0x0000000000000000       0x1c build/stm32f7xx_hal_flash.o
 .debug_info    0x0000000000000000      0x73f build/stm32f7xx_hal_flash.o
 .debug_abbrev  0x0000000000000000      0x281 build/stm32f7xx_hal_flash.o
 .debug_loclists
                0x0000000000000000      0x2a9 build/stm32f7xx_hal_flash.o
 .debug_aranges
                0x0000000000000000       0xa0 build/stm32f7xx_hal_flash.o
 .debug_rnglists
                0x0000000000000000       0x75 build/stm32f7xx_hal_flash.o
 .debug_line    0x0000000000000000      0x8be build/stm32f7xx_hal_flash.o
 .debug_str     0x0000000000000000      0x50f build/stm32f7xx_hal_flash.o
 .comment       0x0000000000000000       0x3a build/stm32f7xx_hal_flash.o
 .debug_frame   0x0000000000000000      0x168 build/stm32f7xx_hal_flash.o
 .ARM.attributes
                0x0000000000000000       0x34 build/stm32f7xx_hal_flash.o
 .text          0x0000000000000000        0x0 build/stm32f7xx_hal_flash_ex.o
 .data          0x0000000000000000        0x0 build/stm32f7xx_hal_flash_ex.o
 .bss           0x0000000000000000        0x0 build/stm32f7xx_hal_flash_ex.o
 .text.FLASH_MassErase
                0x0000000000000000       0x28 build/stm32f7xx_hal_flash_ex.o
 .text.FLASH_OB_GetWRP
                0x0000000000000000       0x10 build/stm32f7xx_hal_flash_ex.o
 .text.FLASH_OB_GetUser
                0x0000000000000000       0x1c build/stm32f7xx_hal_flash_ex.o
 .text.FLASH_OB_BOR_LevelConfig
                0x0000000000000000       0x14 build/stm32f7xx_hal_flash_ex.o
 .text.FLASH_OB_GetRDP
                0x0000000000000000       0x1c build/stm32f7xx_hal_flash_ex.o
 .text.FLASH_OB_GetBOR
                0x0000000000000000       0x10 build/stm32f7xx_hal_flash_ex.o
 .text.FLASH_OB_GetBootAddress
                0x0000000000000000       0x18 build/stm32f7xx_hal_flash_ex.o
 .text.FLASH_OB_GetPCROP
                0x0000000000000000        0xc build/stm32f7xx_hal_flash_ex.o
 .text.FLASH_OB_GetPCROPRDP
                0x0000000000000000       0x10 build/stm32f7xx_hal_flash_ex.o
 .text.FLASH_OB_EnableWRP
                0x0000000000000000       0x20 build/stm32f7xx_hal_flash_ex.o
 .text.FLASH_OB_DisableWRP
                0x0000000000000000       0x1c build/stm32f7xx_hal_flash_ex.o
 .text.FLASH_OB_RDP_LevelConfig
                0x0000000000000000       0x18 build/stm32f7xx_hal_flash_ex.o
 .text.FLASH_OB_UserConfig
                0x0000000000000000       0x40 build/stm32f7xx_hal_flash_ex.o
 .text.FLASH_OB_BootAddressConfig
                0x0000000000000000       0x38 build/stm32f7xx_hal_flash_ex.o
 .text.FLASH_OB_PCROP_Config
                0x0000000000000000       0x20 build/stm32f7xx_hal_flash_ex.o
 .text.FLASH_OB_PCROP_RDP_Config
                0x0000000000000000       0x20 build/stm32f7xx_hal_flash_ex.o
 .text.HAL_FLASHEx_OBProgram
                0x0000000000000000       0xd8 build/stm32f7xx_hal_flash_ex.o
 .text.HAL_FLASHEx_OBGetConfig
                0x0000000000000000       0x3e build/stm32f7xx_hal_flash_ex.o
 .text.FLASH_Erase_Sector
                0x0000000000000000       0x50 build/stm32f7xx_hal_flash_ex.o
 .text.HAL_FLASHEx_Erase
                0x0000000000000000       0x90 build/stm32f7xx_hal_flash_ex.o
 .text.HAL_FLASHEx_Erase_IT
                0x0000000000000000       0x64 build/stm32f7xx_hal_flash_ex.o
 .debug_info    0x0000000000000000      0xa08 build/stm32f7xx_hal_flash_ex.o
 .debug_abbrev  0x0000000000000000      0x26d build/stm32f7xx_hal_flash_ex.o
 .debug_loclists
                0x0000000000000000      0x4b2 build/stm32f7xx_hal_flash_ex.o
 .debug_aranges
                0x0000000000000000       0xc0 build/stm32f7xx_hal_flash_ex.o
 .debug_rnglists
                0x0000000000000000       0x8d build/stm32f7xx_hal_flash_ex.o
 .debug_line    0x0000000000000000      0x907 build/stm32f7xx_hal_flash_ex.o
 .debug_str     0x0000000000000000      0x63a build/stm32f7xx_hal_flash_ex.o
 .comment       0x0000000000000000       0x3a build/stm32f7xx_hal_flash_ex.o
 .debug_frame   0x0000000000000000      0x1e0 build/stm32f7xx_hal_flash_ex.o
 .ARM.attributes
                0x0000000000000000       0x34 build/stm32f7xx_hal_flash_ex.o
 .text          0x0000000000000000        0x0 build/stm32f7xx_hal_gpio.o
 .data          0x0000000000000000        0x0 build/stm32f7xx_hal_gpio.o
 .bss           0x0000000000000000        0x0 build/stm32f7xx_hal_gpio.o
 .text.HAL_GPIO_DeInit
                0x0000000000000000      0x134 build/stm32f7xx_hal_gpio.o
 .text.HAL_GPIO_ReadPin
                0x0000000000000000        0xe build/stm32f7xx_hal_gpio.o
 .text.HAL_GPIO_TogglePin
                0x0000000000000000       0x12 build/stm32f7xx_hal_gpio.o
 .text.HAL_GPIO_LockPin
                0x0000000000000000       0x2e build/stm32f7xx_hal_gpio.o
 .text.HAL_GPIO_EXTI_Callback
                0x0000000000000000        0x2 build/stm32f7xx_hal_gpio.o
 .text.HAL_GPIO_EXTI_IRQHandler
                0x0000000000000000       0x1c build/stm32f7xx_hal_gpio.o
 .text          0x0000000000000000        0x0 build/stm32f7xx_hal_dma.o
 .data          0x0000000000000000        0x0 build/stm32f7xx_hal_dma.o
 .bss           0x0000000000000000        0x0 build/stm32f7xx_hal_dma.o
 .text.HAL_DMA_DeInit
                0x0000000000000000       0x64 build/stm32f7xx_hal_dma.o
 .text.HAL_DMA_Start
                0x0000000000000000       0x48 build/stm32f7xx_hal_dma.o
 .text.HAL_DMA_Abort
                0x0000000000000000       0x94 build/stm32f7xx_hal_dma.o
 .text.HAL_DMA_PollForTransfer
                0x0000000000000000      0x128 build/stm32f7xx_hal_dma.o
 .text.HAL_DMA_RegisterCallback
                0x0000000000000000       0x5a build/stm32f7xx_hal_dma.o
 .text.HAL_DMA_UnRegisterCallback
                0x0000000000000000       0x6e build/stm32f7xx_hal_dma.o
 .text          0x0000000000000000        0x0 build/stm32f7xx_hal_dma_ex.o
 .data          0x0000000000000000        0x0 build/stm32f7xx_hal_dma_ex.o
 .bss           0x0000000000000000        0x0 build/stm32f7xx_hal_dma_ex.o
 .text.DMA_MultiBufferSetConfig
                0x0000000000000000       0x24 build/stm32f7xx_hal_dma_ex.o
 .text.HAL_DMAEx_MultiBufferStart
                0x0000000000000000       0x5e build/stm32f7xx_hal_dma_ex.o
 .text.HAL_DMAEx_MultiBufferStart_IT
                0x0000000000000000      0xeec build/stm32f7xx_hal_dma_ex.o
 .text.HAL_DMAEx_ChangeMemory
                0x0000000000000000       0x10 build/stm32f7xx_hal_dma_ex.o
 .debug_info    0x0000000000000000      0x549 build/stm32f7xx_hal_dma_ex.o
 .debug_abbrev  0x0000000000000000      0x1c4 build/stm32f7xx_hal_dma_ex.o
 .debug_loclists
                0x0000000000000000      0x27d build/stm32f7xx_hal_dma_ex.o
 .debug_aranges
                0x0000000000000000       0x38 build/stm32f7xx_hal_dma_ex.o
 .debug_rnglists
                0x0000000000000000       0x26 build/stm32f7xx_hal_dma_ex.o
 .debug_line    0x0000000000000000      0xa47 build/stm32f7xx_hal_dma_ex.o
 .debug_str     0x0000000000000000      0x51e build/stm32f7xx_hal_dma_ex.o
 .comment       0x0000000000000000       0x3a build/stm32f7xx_hal_dma_ex.o
 .debug_frame   0x0000000000000000       0x74 build/stm32f7xx_hal_dma_ex.o
 .ARM.attributes
                0x0000000000000000       0x34 build/stm32f7xx_hal_dma_ex.o
 .text          0x0000000000000000        0x0 build/stm32f7xx_hal_pwr.o
 .data          0x0000000000000000        0x0 build/stm32f7xx_hal_pwr.o
 .bss           0x0000000000000000        0x0 build/stm32f7xx_hal_pwr.o
 .text.HAL_PWR_DeInit
                0x0000000000000000       0x18 build/stm32f7xx_hal_pwr.o
 .text.HAL_PWR_EnableBkUpAccess
                0x0000000000000000       0x10 build/stm32f7xx_hal_pwr.o
 .text.HAL_PWR_DisableBkUpAccess
                0x0000000000000000       0x10 build/stm32f7xx_hal_pwr.o
 .text.HAL_PWR_ConfigPVD
                0x0000000000000000       0x84 build/stm32f7xx_hal_pwr.o
 .text.HAL_PWR_EnablePVD
                0x0000000000000000       0x10 build/stm32f7xx_hal_pwr.o
 .text.HAL_PWR_DisablePVD
                0x0000000000000000       0x10 build/stm32f7xx_hal_pwr.o
 .text.HAL_PWR_EnableWakeUpPin
                0x0000000000000000       0x20 build/stm32f7xx_hal_pwr.o
 .text.HAL_PWR_DisableWakeUpPin
                0x0000000000000000       0x10 build/stm32f7xx_hal_pwr.o
 .text.HAL_PWR_EnterSLEEPMode
                0x0000000000000000       0x28 build/stm32f7xx_hal_pwr.o
 .text.HAL_PWR_EnterSTOPMode
                0x0000000000000000       0x40 build/stm32f7xx_hal_pwr.o
 .text.HAL_PWR_EnterSTANDBYMode
                0x0000000000000000       0x20 build/stm32f7xx_hal_pwr.o
 .text.HAL_PWR_PVDCallback
                0x0000000000000000        0x2 build/stm32f7xx_hal_pwr.o
 .text.HAL_PWR_PVD_IRQHandler
                0x0000000000000000       0x20 build/stm32f7xx_hal_pwr.o
 .text.HAL_PWR_EnableSleepOnExit
                0x0000000000000000       0x10 build/stm32f7xx_hal_pwr.o
 .text.HAL_PWR_DisableSleepOnExit
                0x0000000000000000       0x10 build/stm32f7xx_hal_pwr.o
 .text.HAL_PWR_EnableSEVOnPend
                0x0000000000000000       0x10 build/stm32f7xx_hal_pwr.o
 .text.HAL_PWR_DisableSEVOnPend
                0x0000000000000000       0x10 build/stm32f7xx_hal_pwr.o
 .debug_info    0x0000000000000000      0x92f build/stm32f7xx_hal_pwr.o
 .debug_abbrev  0x0000000000000000      0x1cf build/stm32f7xx_hal_pwr.o
 .debug_loclists
                0x0000000000000000       0x43 build/stm32f7xx_hal_pwr.o
 .debug_aranges
                0x0000000000000000       0xa0 build/stm32f7xx_hal_pwr.o
 .debug_rnglists
                0x0000000000000000       0x74 build/stm32f7xx_hal_pwr.o
 .debug_line    0x0000000000000000      0x4f4 build/stm32f7xx_hal_pwr.o
 .debug_str     0x0000000000000000      0x612 build/stm32f7xx_hal_pwr.o
 .comment       0x0000000000000000       0x3a build/stm32f7xx_hal_pwr.o
 .debug_frame   0x0000000000000000      0x128 build/stm32f7xx_hal_pwr.o
 .ARM.attributes
                0x0000000000000000       0x34 build/stm32f7xx_hal_pwr.o
 .text          0x0000000000000000        0x0 build/stm32f7xx_hal_pwr_ex.o
 .data          0x0000000000000000        0x0 build/stm32f7xx_hal_pwr_ex.o
 .bss           0x0000000000000000        0x0 build/stm32f7xx_hal_pwr_ex.o
 .text.HAL_PWREx_EnableBkUpReg
                0x0000000000000000       0x3c build/stm32f7xx_hal_pwr_ex.o
 .text.HAL_PWREx_DisableBkUpReg
                0x0000000000000000       0x3c build/stm32f7xx_hal_pwr_ex.o
 .text.HAL_PWREx_EnableFlashPowerDown
                0x0000000000000000       0x10 build/stm32f7xx_hal_pwr_ex.o
 .text.HAL_PWREx_DisableFlashPowerDown
                0x0000000000000000       0x10 build/stm32f7xx_hal_pwr_ex.o
 .text.HAL_PWREx_EnableMainRegulatorLowVoltage
                0x0000000000000000       0x10 build/stm32f7xx_hal_pwr_ex.o
 .text.HAL_PWREx_DisableMainRegulatorLowVoltage
                0x0000000000000000       0x10 build/stm32f7xx_hal_pwr_ex.o
 .text.HAL_PWREx_EnableLowRegulatorLowVoltage
                0x0000000000000000       0x10 build/stm32f7xx_hal_pwr_ex.o
 .text.HAL_PWREx_DisableLowRegulatorLowVoltage
                0x0000000000000000       0x10 build/stm32f7xx_hal_pwr_ex.o
 .text.HAL_PWREx_DisableOverDrive
                0x0000000000000000       0x7c build/stm32f7xx_hal_pwr_ex.o
 .text.HAL_PWREx_EnterUnderDriveSTOPMode
                0x0000000000000000       0x98 build/stm32f7xx_hal_pwr_ex.o
 .text.HAL_PWREx_GetVoltageRange
                0x0000000000000000       0x10 build/stm32f7xx_hal_pwr_ex.o
 .text.HAL_PWREx_ControlVoltageScaling
                0x0000000000000000       0xc0 build/stm32f7xx_hal_pwr_ex.o
 .text          0x0000000000000000        0x0 build/stm32f7xx_hal_cortex.o
 .data          0x0000000000000000        0x0 build/stm32f7xx_hal_cortex.o
 .bss           0x0000000000000000        0x0 build/stm32f7xx_hal_cortex.o
 .text.__NVIC_DisableIRQ
                0x0000000000000000       0x24 build/stm32f7xx_hal_cortex.o
 .text.__NVIC_GetPriority
                0x0000000000000000       0x20 build/stm32f7xx_hal_cortex.o
 .text.NVIC_DecodePriority
                0x0000000000000000       0x3e build/stm32f7xx_hal_cortex.o
 .text.__NVIC_SystemReset
                0x0000000000000000       0x24 build/stm32f7xx_hal_cortex.o
 .text.HAL_NVIC_DisableIRQ
                0x0000000000000000        0x8 build/stm32f7xx_hal_cortex.o
 .text.HAL_NVIC_SystemReset
                0x0000000000000000        0x6 build/stm32f7xx_hal_cortex.o
 .text.HAL_MPU_Disable
                0x0000000000000000       0x1c build/stm32f7xx_hal_cortex.o
 .text.HAL_MPU_Enable
                0x0000000000000000       0x20 build/stm32f7xx_hal_cortex.o
 .text.HAL_MPU_ConfigRegion
                0x0000000000000000       0x60 build/stm32f7xx_hal_cortex.o
 .text.HAL_NVIC_GetPriorityGrouping
                0x0000000000000000       0x10 build/stm32f7xx_hal_cortex.o
 .text.HAL_NVIC_GetPriority
                0x0000000000000000       0x18 build/stm32f7xx_hal_cortex.o
 .text.HAL_NVIC_SetPendingIRQ
                0x0000000000000000       0x1c build/stm32f7xx_hal_cortex.o
 .text.HAL_NVIC_GetPendingIRQ
                0x0000000000000000       0x24 build/stm32f7xx_hal_cortex.o
 .text.HAL_NVIC_ClearPendingIRQ
                0x0000000000000000       0x1c build/stm32f7xx_hal_cortex.o
 .text.HAL_NVIC_GetActive
                0x0000000000000000       0x24 build/stm32f7xx_hal_cortex.o
 .text.HAL_SYSTICK_CLKSourceConfig
                0x0000000000000000       0x20 build/stm32f7xx_hal_cortex.o
 .text.HAL_SYSTICK_Callback
                0x0000000000000000        0x2 build/stm32f7xx_hal_cortex.o
 .text.HAL_SYSTICK_IRQHandler
                0x0000000000000000        0x8 build/stm32f7xx_hal_cortex.o
 .text          0x0000000000000000        0x0 build/stm32f7xx_hal.o
 .data          0x0000000000000000        0x0 build/stm32f7xx_hal.o
 .bss           0x0000000000000000        0x0 build/stm32f7xx_hal.o
 .text.HAL_MspInit
                0x0000000000000000        0x2 build/stm32f7xx_hal.o
 .text.HAL_MspDeInit
                0x0000000000000000        0x2 build/stm32f7xx_hal.o
 .text.HAL_DeInit
                0x0000000000000000       0x2c build/stm32f7xx_hal.o
 .text.HAL_GetTickPrio
                0x0000000000000000        0xc build/stm32f7xx_hal.o
 .text.HAL_SetTickFreq
                0x0000000000000000       0x2c build/stm32f7xx_hal.o
 .text.HAL_GetTickFreq
                0x0000000000000000        0xc build/stm32f7xx_hal.o
 .text.HAL_SuspendTick
                0x0000000000000000        0xe build/stm32f7xx_hal.o
 .text.HAL_ResumeTick
                0x0000000000000000        0xe build/stm32f7xx_hal.o
 .text.HAL_GetHalVersion
                0x0000000000000000        0x8 build/stm32f7xx_hal.o
 .text.HAL_GetREVID
                0x0000000000000000        0xc build/stm32f7xx_hal.o
 .text.HAL_GetDEVID
                0x0000000000000000       0x10 build/stm32f7xx_hal.o
 .text.HAL_GetUIDw0
                0x0000000000000000        0xc build/stm32f7xx_hal.o
 .text.HAL_GetUIDw1
                0x0000000000000000        0xc build/stm32f7xx_hal.o
 .text.HAL_GetUIDw2
                0x0000000000000000        0xc build/stm32f7xx_hal.o
 .text.HAL_DBGMCU_EnableDBGSleepMode
                0x0000000000000000       0x10 build/stm32f7xx_hal.o
 .text.HAL_DBGMCU_DisableDBGSleepMode
                0x0000000000000000       0x10 build/stm32f7xx_hal.o
 .text.HAL_DBGMCU_EnableDBGStopMode
                0x0000000000000000       0x10 build/stm32f7xx_hal.o
 .text.HAL_DBGMCU_DisableDBGStopMode
                0x0000000000000000       0x10 build/stm32f7xx_hal.o
 .text.HAL_DBGMCU_EnableDBGStandbyMode
                0x0000000000000000       0x10 build/stm32f7xx_hal.o
 .text.HAL_DBGMCU_DisableDBGStandbyMode
                0x0000000000000000       0x10 build/stm32f7xx_hal.o
 .text.HAL_EnableCompensationCell
                0x0000000000000000       0x10 build/stm32f7xx_hal.o
 .text.HAL_DisableCompensationCell
                0x0000000000000000       0x10 build/stm32f7xx_hal.o
 .text.HAL_EnableFMCMemorySwapping
                0x0000000000000000       0x10 build/stm32f7xx_hal.o
 .text.HAL_DisableFMCMemorySwapping
                0x0000000000000000       0x10 build/stm32f7xx_hal.o
 .text          0x0000000000000000        0x0 build/stm32f7xx_hal_i2c.o
 .data          0x0000000000000000        0x0 build/stm32f7xx_hal_i2c.o
 .bss           0x0000000000000000        0x0 build/stm32f7xx_hal_i2c.o
 .text.I2C_ConvertOtherXferOptions
                0x0000000000000000       0x1e build/stm32f7xx_hal_i2c.o
 .text.I2C_IsErrorOccurred
                0x0000000000000000      0x118 build/stm32f7xx_hal_i2c.o
 .text.I2C_WaitOnTXISFlagUntilTimeout
                0x0000000000000000       0x56 build/stm32f7xx_hal_i2c.o
 .text.I2C_WaitOnFlagUntilTimeout
                0x0000000000000000       0x56 build/stm32f7xx_hal_i2c.o
 .text.I2C_RequestMemoryWrite
                0x0000000000000000       0x7c build/stm32f7xx_hal_i2c.o
 .text.I2C_RequestMemoryRead
                0x0000000000000000       0x78 build/stm32f7xx_hal_i2c.o
 .text.I2C_WaitOnSTOPFlagUntilTimeout
                0x0000000000000000       0x50 build/stm32f7xx_hal_i2c.o
 .text.I2C_WaitOnRXNEFlagUntilTimeout
                0x0000000000000000       0xae build/stm32f7xx_hal_i2c.o
 .text.HAL_I2C_MspInit
                0x0000000000000000        0x2 build/stm32f7xx_hal_i2c.o
 .text.HAL_I2C_MspDeInit
                0x0000000000000000        0x2 build/stm32f7xx_hal_i2c.o
 .text.HAL_I2C_DeInit
                0x0000000000000000       0x32 build/stm32f7xx_hal_i2c.o
 .text.HAL_I2C_Master_Transmit
                0x0000000000000000      0x17c build/stm32f7xx_hal_i2c.o
 .text.HAL_I2C_Master_Receive
                0x0000000000000000      0x17c build/stm32f7xx_hal_i2c.o
 .text.HAL_I2C_Slave_Transmit
                0x0000000000000000      0x1b0 build/stm32f7xx_hal_i2c.o
 .text.HAL_I2C_Slave_Receive
                0x0000000000000000      0x184 build/stm32f7xx_hal_i2c.o
 .text.HAL_I2C_Master_Transmit_IT
                0x0000000000000000       0x98 build/stm32f7xx_hal_i2c.o
 .text.HAL_I2C_Master_Receive_IT
                0x0000000000000000       0x98 build/stm32f7xx_hal_i2c.o
 .text.HAL_I2C_Slave_Transmit_IT
                0x0000000000000000       0x64 build/stm32f7xx_hal_i2c.o
 .text.HAL_I2C_Slave_Receive_IT
                0x0000000000000000       0x64 build/stm32f7xx_hal_i2c.o
 .text.HAL_I2C_Master_Transmit_DMA
                0x0000000000000000      0x154 build/stm32f7xx_hal_i2c.o
 .text.HAL_I2C_Master_Receive_DMA
                0x0000000000000000      0x150 build/stm32f7xx_hal_i2c.o
 .text.HAL_I2C_Slave_Transmit_DMA
                0x0000000000000000       0xf0 build/stm32f7xx_hal_i2c.o
 .text.HAL_I2C_Slave_Receive_DMA
                0x0000000000000000       0xf4 build/stm32f7xx_hal_i2c.o
 .text.HAL_I2C_Mem_Write
                0x0000000000000000      0x1aa build/stm32f7xx_hal_i2c.o
 .text.HAL_I2C_Mem_Read
                0x0000000000000000      0x1b0 build/stm32f7xx_hal_i2c.o
 .text.HAL_I2C_Mem_Write_IT
                0x0000000000000000       0xb8 build/stm32f7xx_hal_i2c.o
 .text.HAL_I2C_Mem_Read_IT
                0x0000000000000000       0xb4 build/stm32f7xx_hal_i2c.o
 .text.HAL_I2C_Mem_Write_DMA
                0x0000000000000000      0x134 build/stm32f7xx_hal_i2c.o
 .text.HAL_I2C_IsDeviceReady
                0x0000000000000000      0x16c build/stm32f7xx_hal_i2c.o
 .text.HAL_I2C_Master_Seq_Transmit_IT
                0x0000000000000000       0xb4 build/stm32f7xx_hal_i2c.o
 .text.HAL_I2C_Master_Seq_Transmit_DMA
                0x0000000000000000      0x174 build/stm32f7xx_hal_i2c.o
 .text.HAL_I2C_Master_Seq_Receive_IT
                0x0000000000000000       0xb4 build/stm32f7xx_hal_i2c.o
 .text.HAL_I2C_Master_Seq_Receive_DMA
                0x0000000000000000      0x174 build/stm32f7xx_hal_i2c.o
 .text.HAL_I2C_Slave_Seq_Transmit_IT
                0x0000000000000000       0xe4 build/stm32f7xx_hal_i2c.o
 .text.HAL_I2C_Slave_Seq_Transmit_DMA
                0x0000000000000000      0x1ac build/stm32f7xx_hal_i2c.o
 .text.HAL_I2C_Slave_Seq_Receive_IT
                0x0000000000000000       0xe4 build/stm32f7xx_hal_i2c.o
 .text.HAL_I2C_Slave_Seq_Receive_DMA
                0x0000000000000000      0x1ac build/stm32f7xx_hal_i2c.o
 .text.HAL_I2C_EnableListen_IT
                0x0000000000000000       0x2c build/stm32f7xx_hal_i2c.o
 .text.HAL_I2C_DisableListen_IT
                0x0000000000000000       0x3a build/stm32f7xx_hal_i2c.o
 .text.HAL_I2C_Master_Abort_IT
                0x0000000000000000       0x84 build/stm32f7xx_hal_i2c.o
 .text.I2C_DMASlaveTransmitCplt
                0x0000000000000000       0x22 build/stm32f7xx_hal_i2c.o
 .text.I2C_DMASlaveReceiveCplt
                0x0000000000000000       0x26 build/stm32f7xx_hal_i2c.o
 .text.HAL_I2C_MemTxCpltCallback
                0x0000000000000000        0x2 build/stm32f7xx_hal_i2c.o
 .text.HAL_I2C_MemRxCpltCallback
                0x0000000000000000        0x2 build/stm32f7xx_hal_i2c.o
 .text.HAL_I2C_ErrorCallback
                0x0000000000000000        0x2 build/stm32f7xx_hal_i2c.o
 .text.I2C_Master_ISR_IT
                0x0000000000000000      0x180 build/stm32f7xx_hal_i2c.o
 .text.I2C_DMAMasterTransmitCplt
                0x0000000000000000       0x5a build/stm32f7xx_hal_i2c.o
 .text.I2C_Mem_ISR_IT
                0x0000000000000000      0x188 build/stm32f7xx_hal_i2c.o
 .text.HAL_I2C_GetState
                0x0000000000000000        0x6 build/stm32f7xx_hal_i2c.o
 .text.HAL_I2C_GetMode
                0x0000000000000000        0x6 build/stm32f7xx_hal_i2c.o
 .text          0x0000000000000000        0x0 build/stm32f7xx_hal_i2c_ex.o
 .data          0x0000000000000000        0x0 build/stm32f7xx_hal_i2c_ex.o
 .bss           0x0000000000000000        0x0 build/stm32f7xx_hal_i2c_ex.o
 .text.HAL_I2CEx_EnableFastModePlus
                0x0000000000000000       0x2c build/stm32f7xx_hal_i2c_ex.o
 .text.HAL_I2CEx_DisableFastModePlus
                0x0000000000000000       0x2c build/stm32f7xx_hal_i2c_ex.o
 .text          0x0000000000000000        0x0 build/stm32f7xx_hal_exti.o
 .data          0x0000000000000000        0x0 build/stm32f7xx_hal_exti.o
 .bss           0x0000000000000000        0x0 build/stm32f7xx_hal_exti.o
 .text.HAL_EXTI_SetConfigLine
                0x0000000000000000       0xd4 build/stm32f7xx_hal_exti.o
 .text.HAL_EXTI_GetConfigLine
                0x0000000000000000       0xa4 build/stm32f7xx_hal_exti.o
 .text.HAL_EXTI_ClearConfigLine
                0x0000000000000000       0x84 build/stm32f7xx_hal_exti.o
 .text.HAL_EXTI_RegisterCallback
                0x0000000000000000        0xe build/stm32f7xx_hal_exti.o
 .text.HAL_EXTI_GetHandle
                0x0000000000000000        0xc build/stm32f7xx_hal_exti.o
 .text.HAL_EXTI_IRQHandler
                0x0000000000000000       0x24 build/stm32f7xx_hal_exti.o
 .text.HAL_EXTI_GetPending
                0x0000000000000000       0x18 build/stm32f7xx_hal_exti.o
 .text.HAL_EXTI_ClearPending
                0x0000000000000000       0x14 build/stm32f7xx_hal_exti.o
 .text.HAL_EXTI_GenerateSWI
                0x0000000000000000       0x14 build/stm32f7xx_hal_exti.o
 .debug_info    0x0000000000000000      0x571 build/stm32f7xx_hal_exti.o
 .debug_abbrev  0x0000000000000000      0x1e2 build/stm32f7xx_hal_exti.o
 .debug_loclists
                0x0000000000000000      0x2e6 build/stm32f7xx_hal_exti.o
 .debug_aranges
                0x0000000000000000       0x60 build/stm32f7xx_hal_exti.o
 .debug_rnglists
                0x0000000000000000       0x46 build/stm32f7xx_hal_exti.o
 .debug_line    0x0000000000000000      0x66e build/stm32f7xx_hal_exti.o
 .debug_str     0x0000000000000000      0x3b6 build/stm32f7xx_hal_exti.o
 .comment       0x0000000000000000       0x3a build/stm32f7xx_hal_exti.o
 .debug_frame   0x0000000000000000       0xd4 build/stm32f7xx_hal_exti.o
 .ARM.attributes
                0x0000000000000000       0x34 build/stm32f7xx_hal_exti.o
 .text          0x0000000000000000        0x0 build/stm32f7xx_hal_rng.o
 .data          0x0000000000000000        0x0 build/stm32f7xx_hal_rng.o
 .bss           0x0000000000000000        0x0 build/stm32f7xx_hal_rng.o
 .text.HAL_RNG_MspInit
                0x0000000000000000        0x2 build/stm32f7xx_hal_rng.o
 .text.HAL_RNG_MspDeInit
                0x0000000000000000        0x2 build/stm32f7xx_hal_rng.o
 .text.HAL_RNG_DeInit
                0x0000000000000000       0x2c build/stm32f7xx_hal_rng.o
 .text.HAL_RNG_GenerateRandomNumber
                0x0000000000000000       0x6e build/stm32f7xx_hal_rng.o
 .text.HAL_RNG_GenerateRandomNumber_IT
                0x0000000000000000       0x34 build/stm32f7xx_hal_rng.o
 .text.HAL_RNG_GetRandomNumber
                0x0000000000000000       0x16 build/stm32f7xx_hal_rng.o
 .text.HAL_RNG_GetRandomNumber_IT
                0x0000000000000000       0x20 build/stm32f7xx_hal_rng.o
 .text.HAL_RNG_ReadLastRandomNumber
                0x0000000000000000        0x4 build/stm32f7xx_hal_rng.o
 .text.HAL_RNG_ReadyDataCallback
                0x0000000000000000        0x2 build/stm32f7xx_hal_rng.o
 .text.HAL_RNG_ErrorCallback
                0x0000000000000000        0x2 build/stm32f7xx_hal_rng.o
 .text.HAL_RNG_IRQHandler
                0x0000000000000000       0x60 build/stm32f7xx_hal_rng.o
 .text.HAL_RNG_GetState
                0x0000000000000000        0x4 build/stm32f7xx_hal_rng.o
 .text.HAL_RNG_GetError
                0x0000000000000000        0x4 build/stm32f7xx_hal_rng.o
 .text          0x0000000000000000        0x0 build/stm32f7xx_hal_spi.o
 .data          0x0000000000000000        0x0 build/stm32f7xx_hal_spi.o
 .bss           0x0000000000000000        0x0 build/stm32f7xx_hal_spi.o
 .text.SPI_WaitFlagStateUntilTimeout
                0x0000000000000000       0xc8 build/stm32f7xx_hal_spi.o
 .text.SPI_WaitFifoStateUntilTimeout
                0x0000000000000000       0xf0 build/stm32f7xx_hal_spi.o
 .text.SPI_EndRxTxTransaction
                0x0000000000000000       0xa0 build/stm32f7xx_hal_spi.o
 .text.SPI_EndRxTransaction
                0x0000000000000000       0xc4 build/stm32f7xx_hal_spi.o
 .text.SPI_AbortRx_ISR
                0x0000000000000000       0x90 build/stm32f7xx_hal_spi.o
 .text.SPI_AbortTx_ISR
                0x0000000000000000       0xf0 build/stm32f7xx_hal_spi.o
 .text.HAL_SPI_MspInit
                0x0000000000000000        0x2 build/stm32f7xx_hal_spi.o
 .text.HAL_SPI_MspDeInit
                0x0000000000000000        0x2 build/stm32f7xx_hal_spi.o
 .text.HAL_SPI_DeInit
                0x0000000000000000       0x2c build/stm32f7xx_hal_spi.o
 .text.HAL_SPI_Transmit
                0x0000000000000000      0x200 build/stm32f7xx_hal_spi.o
 .text.HAL_SPI_TransmitReceive
                0x0000000000000000      0x2d8 build/stm32f7xx_hal_spi.o
 .text.HAL_SPI_Receive
                0x0000000000000000      0x1a8 build/stm32f7xx_hal_spi.o
 .text.HAL_SPI_Transmit_IT
                0x0000000000000000       0xac build/stm32f7xx_hal_spi.o
 .text.HAL_SPI_TransmitReceive_IT
                0x0000000000000000      0x110 build/stm32f7xx_hal_spi.o
 .text.HAL_SPI_Receive_IT
                0x0000000000000000       0xfc build/stm32f7xx_hal_spi.o
 .text.HAL_SPI_Transmit_DMA
                0x0000000000000000      0x134 build/stm32f7xx_hal_spi.o
 .text.HAL_SPI_TransmitReceive_DMA
                0x0000000000000000      0x210 build/stm32f7xx_hal_spi.o
 .text.HAL_SPI_Receive_DMA
                0x0000000000000000      0x180 build/stm32f7xx_hal_spi.o
 .text.HAL_SPI_Abort
                0x0000000000000000      0x190 build/stm32f7xx_hal_spi.o
 .text.HAL_SPI_DMAPause
                0x0000000000000000       0x26 build/stm32f7xx_hal_spi.o
 .text.HAL_SPI_DMAResume
                0x0000000000000000       0x26 build/stm32f7xx_hal_spi.o
 .text.HAL_SPI_DMAStop
                0x0000000000000000       0x46 build/stm32f7xx_hal_spi.o
 .text.HAL_SPI_TxCpltCallback
                0x0000000000000000        0x2 build/stm32f7xx_hal_spi.o
 .text.HAL_SPI_RxCpltCallback
                0x0000000000000000        0x2 build/stm32f7xx_hal_spi.o
 .text.HAL_SPI_TxRxCpltCallback
                0x0000000000000000        0x2 build/stm32f7xx_hal_spi.o
 .text.HAL_SPI_TxHalfCpltCallback
                0x0000000000000000        0x2 build/stm32f7xx_hal_spi.o
 .text.SPI_DMAHalfTransmitCplt
                0x0000000000000000        0xa build/stm32f7xx_hal_spi.o
 .text.HAL_SPI_RxHalfCpltCallback
                0x0000000000000000        0x2 build/stm32f7xx_hal_spi.o
 .text.SPI_DMAHalfReceiveCplt
                0x0000000000000000        0xa build/stm32f7xx_hal_spi.o
 .text.HAL_SPI_TxRxHalfCpltCallback
                0x0000000000000000        0x2 build/stm32f7xx_hal_spi.o
 .text.SPI_DMAHalfTransmitReceiveCplt
                0x0000000000000000        0xa build/stm32f7xx_hal_spi.o
 .text.HAL_SPI_ErrorCallback
                0x0000000000000000        0x2 build/stm32f7xx_hal_spi.o
 .text.SPI_CloseTx_ISR
                0x0000000000000000       0x56 build/stm32f7xx_hal_spi.o
 .text.SPI_TxISR_8BIT
                0x0000000000000000       0x28 build/stm32f7xx_hal_spi.o
 .text.SPI_TxISR_16BIT
                0x0000000000000000       0x28 build/stm32f7xx_hal_spi.o
 .text.SPI_CloseRx_ISR
                0x0000000000000000       0x40 build/stm32f7xx_hal_spi.o
 .text.SPI_RxISR_8BIT
                0x0000000000000000       0x2e build/stm32f7xx_hal_spi.o
 .text.SPI_RxISR_16BIT
                0x0000000000000000       0x2e build/stm32f7xx_hal_spi.o
 .text.SPI_CloseRxTx_ISR
                0x0000000000000000       0x5e build/stm32f7xx_hal_spi.o
 .text.SPI_2linesTxISR_8BIT
                0x0000000000000000       0x5c build/stm32f7xx_hal_spi.o
 .text.SPI_2linesRxISR_8BIT
                0x0000000000000000       0x7a build/stm32f7xx_hal_spi.o
 .text.SPI_2linesTxISR_16BIT
                0x0000000000000000       0x3a build/stm32f7xx_hal_spi.o
 .text.SPI_2linesRxISR_16BIT
                0x0000000000000000       0x3e build/stm32f7xx_hal_spi.o
 .text.SPI_DMAError
                0x0000000000000000       0x22 build/stm32f7xx_hal_spi.o
 .text.SPI_DMATransmitCplt
                0x0000000000000000       0x70 build/stm32f7xx_hal_spi.o
 .text.SPI_DMAReceiveCplt
                0x0000000000000000       0x70 build/stm32f7xx_hal_spi.o
 .text.SPI_DMATransmitReceiveCplt
                0x0000000000000000       0x5e build/stm32f7xx_hal_spi.o
 .text.HAL_SPI_IRQHandler
                0x0000000000000000      0x118 build/stm32f7xx_hal_spi.o
 .text.SPI_DMAAbortOnError
                0x0000000000000000       0x12 build/stm32f7xx_hal_spi.o
 .text.HAL_SPI_AbortCpltCallback
                0x0000000000000000        0x2 build/stm32f7xx_hal_spi.o
 .text.HAL_SPI_Abort_IT
                0x0000000000000000      0x160 build/stm32f7xx_hal_spi.o
 .text.SPI_DMARxAbortCallback
                0x0000000000000000       0x94 build/stm32f7xx_hal_spi.o
 .text.SPI_DMATxAbortCallback
                0x0000000000000000       0x90 build/stm32f7xx_hal_spi.o
 .text.HAL_SPI_GetState
                0x0000000000000000        0x6 build/stm32f7xx_hal_spi.o
 .text.HAL_SPI_GetError
                0x0000000000000000        0x4 build/stm32f7xx_hal_spi.o
 .text          0x0000000000000000        0x0 build/stm32f7xx_hal_spi_ex.o
 .data          0x0000000000000000        0x0 build/stm32f7xx_hal_spi_ex.o
 .bss           0x0000000000000000        0x0 build/stm32f7xx_hal_spi_ex.o
 .text.HAL_SPIEx_FlushRxFifo
                0x0000000000000000       0x36 build/stm32f7xx_hal_spi_ex.o
 .debug_info    0x0000000000000000      0x63f build/stm32f7xx_hal_spi_ex.o
 .debug_abbrev  0x0000000000000000      0x162 build/stm32f7xx_hal_spi_ex.o
 .debug_loclists
                0x0000000000000000       0x61 build/stm32f7xx_hal_spi_ex.o
 .debug_aranges
                0x0000000000000000       0x20 build/stm32f7xx_hal_spi_ex.o
 .debug_rnglists
                0x0000000000000000       0x13 build/stm32f7xx_hal_spi_ex.o
 .debug_line    0x0000000000000000      0x2ad build/stm32f7xx_hal_spi_ex.o
 .debug_str     0x0000000000000000      0x665 build/stm32f7xx_hal_spi_ex.o
 .comment       0x0000000000000000       0x3a build/stm32f7xx_hal_spi_ex.o
 .debug_frame   0x0000000000000000       0x2c build/stm32f7xx_hal_spi_ex.o
 .ARM.attributes
                0x0000000000000000       0x34 build/stm32f7xx_hal_spi_ex.o
 .text          0x0000000000000000        0x0 build/stm32f7xx_hal_tim.o
 .data          0x0000000000000000        0x0 build/stm32f7xx_hal_tim.o
 .bss           0x0000000000000000        0x0 build/stm32f7xx_hal_tim.o
 .text.TIM_TI2_SetConfig
                0x0000000000000000       0x36 build/stm32f7xx_hal_tim.o
 .text.TIM_TI3_SetConfig
                0x0000000000000000       0x36 build/stm32f7xx_hal_tim.o
 .text.TIM_TI4_SetConfig
                0x0000000000000000       0x36 build/stm32f7xx_hal_tim.o
 .text.HAL_TIM_Base_MspInit
                0x0000000000000000        0x2 build/stm32f7xx_hal_tim.o
 .text.HAL_TIM_Base_MspDeInit
                0x0000000000000000        0x2 build/stm32f7xx_hal_tim.o
 .text.HAL_TIM_Base_DeInit
                0x0000000000000000       0x66 build/stm32f7xx_hal_tim.o
 .text.HAL_TIM_Base_Start
                0x0000000000000000       0x88 build/stm32f7xx_hal_tim.o
 .text.HAL_TIM_Base_Stop
                0x0000000000000000       0x28 build/stm32f7xx_hal_tim.o
 .text.HAL_TIM_Base_Stop_IT
                0x0000000000000000       0x32 build/stm32f7xx_hal_tim.o
 .text.HAL_TIM_Base_Start_DMA
                0x0000000000000000       0xdc build/stm32f7xx_hal_tim.o
 .text.HAL_TIM_Base_Stop_DMA
                0x0000000000000000       0x3c build/stm32f7xx_hal_tim.o
 .text.HAL_TIM_OC_MspInit
                0x0000000000000000        0x2 build/stm32f7xx_hal_tim.o
 .text.HAL_TIM_OC_MspDeInit
                0x0000000000000000        0x2 build/stm32f7xx_hal_tim.o
 .text.HAL_TIM_OC_DeInit
                0x0000000000000000       0x66 build/stm32f7xx_hal_tim.o
 .text.HAL_TIM_PWM_MspInit
                0x0000000000000000        0x2 build/stm32f7xx_hal_tim.o
 .text.HAL_TIM_PWM_MspDeInit
                0x0000000000000000        0x2 build/stm32f7xx_hal_tim.o
 .text.HAL_TIM_PWM_DeInit
                0x0000000000000000       0x66 build/stm32f7xx_hal_tim.o
 .text.HAL_TIM_IC_MspInit
                0x0000000000000000        0x2 build/stm32f7xx_hal_tim.o
 .text.HAL_TIM_IC_MspDeInit
                0x0000000000000000        0x2 build/stm32f7xx_hal_tim.o
 .text.HAL_TIM_IC_DeInit
                0x0000000000000000       0x66 build/stm32f7xx_hal_tim.o
 .text.HAL_TIM_OnePulse_MspInit
                0x0000000000000000        0x2 build/stm32f7xx_hal_tim.o
 .text.HAL_TIM_OnePulse_MspDeInit
                0x0000000000000000        0x2 build/stm32f7xx_hal_tim.o
 .text.HAL_TIM_OnePulse_DeInit
                0x0000000000000000       0x4e build/stm32f7xx_hal_tim.o
 .text.HAL_TIM_Encoder_MspInit
                0x0000000000000000        0x2 build/stm32f7xx_hal_tim.o
 .text.HAL_TIM_Encoder_MspDeInit
                0x0000000000000000        0x2 build/stm32f7xx_hal_tim.o
 .text.HAL_TIM_Encoder_DeInit
                0x0000000000000000       0x4e build/stm32f7xx_hal_tim.o
 .text.HAL_TIM_DMABurst_MultiWriteStart
                0x0000000000000000      0x1ac build/stm32f7xx_hal_tim.o
 .text.HAL_TIM_DMABurst_WriteStart
                0x0000000000000000       0x16 build/stm32f7xx_hal_tim.o
 .text.HAL_TIM_DMABurst_WriteStop
                0x0000000000000000       0x84 build/stm32f7xx_hal_tim.o
 .text.HAL_TIM_DMABurst_MultiReadStart
                0x0000000000000000      0x1b0 build/stm32f7xx_hal_tim.o
 .text.HAL_TIM_DMABurst_ReadStart
                0x0000000000000000       0x16 build/stm32f7xx_hal_tim.o
 .text.HAL_TIM_DMABurst_ReadStop
                0x0000000000000000       0x84 build/stm32f7xx_hal_tim.o
 .text.HAL_TIM_GenerateEvent
                0x0000000000000000       0x2a build/stm32f7xx_hal_tim.o
 .text.HAL_TIM_ConfigTI1Input
                0x0000000000000000       0x10 build/stm32f7xx_hal_tim.o
 .text.HAL_TIM_ReadCapturedValue
                0x0000000000000000       0x32 build/stm32f7xx_hal_tim.o
 .text.HAL_TIM_PeriodElapsedCallback
                0x0000000000000000        0x2 build/stm32f7xx_hal_tim.o
 .text.TIM_DMAPeriodElapsedCplt
                0x0000000000000000       0x16 build/stm32f7xx_hal_tim.o
 .text.HAL_TIM_PeriodElapsedHalfCpltCallback
                0x0000000000000000        0x2 build/stm32f7xx_hal_tim.o
 .text.TIM_DMAPeriodElapsedHalfCplt
                0x0000000000000000        0xa build/stm32f7xx_hal_tim.o
 .text.HAL_TIM_OC_DelayElapsedCallback
                0x0000000000000000        0x2 build/stm32f7xx_hal_tim.o
 .text.TIM_DMACaptureCplt
                0x0000000000000000       0x80 build/stm32f7xx_hal_tim.o
 .text.HAL_TIM_IC_CaptureHalfCpltCallback
                0x0000000000000000        0x2 build/stm32f7xx_hal_tim.o
 .text.TIM_DMACaptureHalfCplt
                0x0000000000000000       0x3e build/stm32f7xx_hal_tim.o
 .text.TIM_DMADelayPulseCplt
                0x0000000000000000       0x70 build/stm32f7xx_hal_tim.o
 .text.HAL_TIM_PWM_PulseFinishedHalfCpltCallback
                0x0000000000000000        0x2 build/stm32f7xx_hal_tim.o
 .text.TIM_DMADelayPulseHalfCplt
                0x0000000000000000       0x3e build/stm32f7xx_hal_tim.o
 .text.TIM_DMATriggerCplt
                0x0000000000000000       0x16 build/stm32f7xx_hal_tim.o
 .text.HAL_TIM_TriggerHalfCpltCallback
                0x0000000000000000        0x2 build/stm32f7xx_hal_tim.o
 .text.TIM_DMATriggerHalfCplt
                0x0000000000000000        0xa build/stm32f7xx_hal_tim.o
 .text.HAL_TIM_ErrorCallback
                0x0000000000000000        0x2 build/stm32f7xx_hal_tim.o
 .text.TIM_DMAError
                0x0000000000000000       0x5c build/stm32f7xx_hal_tim.o
 .text.HAL_TIM_Base_GetState
                0x0000000000000000        0x6 build/stm32f7xx_hal_tim.o
 .text.HAL_TIM_OC_GetState
                0x0000000000000000        0x6 build/stm32f7xx_hal_tim.o
 .text.HAL_TIM_PWM_GetState
                0x0000000000000000        0x6 build/stm32f7xx_hal_tim.o
 .text.HAL_TIM_IC_GetState
                0x0000000000000000        0x6 build/stm32f7xx_hal_tim.o
 .text.HAL_TIM_OnePulse_GetState
                0x0000000000000000        0x6 build/stm32f7xx_hal_tim.o
 .text.HAL_TIM_Encoder_GetState
                0x0000000000000000        0x6 build/stm32f7xx_hal_tim.o
 .text.HAL_TIM_GetActiveChannel
                0x0000000000000000        0x4 build/stm32f7xx_hal_tim.o
 .text.HAL_TIM_GetChannelState
                0x0000000000000000       0x4a build/stm32f7xx_hal_tim.o
 .text.HAL_TIM_DMABurstState
                0x0000000000000000        0x6 build/stm32f7xx_hal_tim.o
 .text.HAL_TIM_PWM_Init
                0x0000000000000000       0x60 build/stm32f7xx_hal_tim.o
 .text.HAL_TIM_IC_Init
                0x0000000000000000       0x60 build/stm32f7xx_hal_tim.o
 .text.HAL_TIM_OnePulse_Init
                0x0000000000000000       0x5c build/stm32f7xx_hal_tim.o
 .text.HAL_TIM_Encoder_Init
                0x0000000000000000       0xb0 build/stm32f7xx_hal_tim.o
 .text.HAL_TIM_PWM_ConfigChannel
                0x0000000000000000      0x13a build/stm32f7xx_hal_tim.o
 .text.TIM_TI1_SetConfig
                0x0000000000000000       0x94 build/stm32f7xx_hal_tim.o
 .text.HAL_TIM_IC_ConfigChannel
                0x0000000000000000       0xc4 build/stm32f7xx_hal_tim.o
 .text.HAL_TIM_OnePulse_ConfigChannel
                0x0000000000000000      0x100 build/stm32f7xx_hal_tim.o
 .text.HAL_TIM_ConfigOCrefClear
                0x0000000000000000      0x144 build/stm32f7xx_hal_tim.o
 .text.TIM_SlaveTimer_SetConfig
                0x0000000000000000       0xbc build/stm32f7xx_hal_tim.o
 .text.HAL_TIM_SlaveConfigSynchro
                0x0000000000000000       0x52 build/stm32f7xx_hal_tim.o
 .text.HAL_TIM_SlaveConfigSynchro_IT
                0x0000000000000000       0x52 build/stm32f7xx_hal_tim.o
 .text.HAL_TIM_OC_Start
                0x0000000000000000      0x158 build/stm32f7xx_hal_tim.o
 .text.HAL_TIM_OC_Stop
                0x0000000000000000       0xac build/stm32f7xx_hal_tim.o
 .text.HAL_TIM_OC_Stop_IT
                0x0000000000000000      0x100 build/stm32f7xx_hal_tim.o
 .text.HAL_TIM_OC_Start_DMA
                0x0000000000000000      0x31c build/stm32f7xx_hal_tim.o
 .text.HAL_TIM_OC_Stop_DMA
                0x0000000000000000      0x118 build/stm32f7xx_hal_tim.o
 .text.HAL_TIM_PWM_Start
                0x0000000000000000      0x158 build/stm32f7xx_hal_tim.o
 .text.HAL_TIM_PWM_Stop
                0x0000000000000000       0xac build/stm32f7xx_hal_tim.o
 .text.HAL_TIM_PWM_Start_IT
                0x0000000000000000      0x1c4 build/stm32f7xx_hal_tim.o
 .text.HAL_TIM_PWM_Stop_IT
                0x0000000000000000      0x100 build/stm32f7xx_hal_tim.o
 .text.HAL_TIM_PWM_Start_DMA
                0x0000000000000000      0x31c build/stm32f7xx_hal_tim.o
 .text.HAL_TIM_PWM_Stop_DMA
                0x0000000000000000      0x118 build/stm32f7xx_hal_tim.o
 .text.HAL_TIM_IC_Start
                0x0000000000000000      0x168 build/stm32f7xx_hal_tim.o
 .text.HAL_TIM_IC_Stop
                0x0000000000000000       0x9a build/stm32f7xx_hal_tim.o
 .text.HAL_TIM_IC_Start_IT
                0x0000000000000000      0x1ac build/stm32f7xx_hal_tim.o
 .text.HAL_TIM_IC_Stop_IT
                0x0000000000000000       0xea build/stm32f7xx_hal_tim.o
 .text.HAL_TIM_IC_Start_DMA
                0x0000000000000000      0x27c build/stm32f7xx_hal_tim.o
 .text.HAL_TIM_IC_Stop_DMA
                0x0000000000000000      0x100 build/stm32f7xx_hal_tim.o
 .text.HAL_TIM_OnePulse_Start
                0x0000000000000000       0x84 build/stm32f7xx_hal_tim.o
 .text.HAL_TIM_OnePulse_Stop
                0x0000000000000000       0x80 build/stm32f7xx_hal_tim.o
 .text.HAL_TIM_OnePulse_Start_IT
                0x0000000000000000       0x98 build/stm32f7xx_hal_tim.o
 .text.HAL_TIM_OnePulse_Stop_IT
                0x0000000000000000       0x94 build/stm32f7xx_hal_tim.o
 .text.HAL_TIM_Encoder_Start
                0x0000000000000000       0xc8 build/stm32f7xx_hal_tim.o
 .text.HAL_TIM_Encoder_Stop
                0x0000000000000000       0xe6 build/stm32f7xx_hal_tim.o
 .text.HAL_TIM_Encoder_Start_IT
                0x0000000000000000       0xf4 build/stm32f7xx_hal_tim.o
 .text.HAL_TIM_Encoder_Stop_IT
                0x0000000000000000      0x110 build/stm32f7xx_hal_tim.o
 .text.HAL_TIM_Encoder_Start_DMA
                0x0000000000000000      0x24c build/stm32f7xx_hal_tim.o
 .text.HAL_TIM_Encoder_Stop_DMA
                0x0000000000000000      0x128 build/stm32f7xx_hal_tim.o
 .text          0x0000000000000000        0x0 build/stm32f7xx_hal_tim_ex.o
 .data          0x0000000000000000        0x0 build/stm32f7xx_hal_tim_ex.o
 .bss           0x0000000000000000        0x0 build/stm32f7xx_hal_tim_ex.o
 .text.TIM_CCxNChannelCmd
                0x0000000000000000       0x1e build/stm32f7xx_hal_tim_ex.o
 .text.TIM_DMAErrorCCxN
                0x0000000000000000       0x44 build/stm32f7xx_hal_tim_ex.o
 .text.TIM_DMADelayPulseNCplt
                0x0000000000000000       0x70 build/stm32f7xx_hal_tim_ex.o
 .text.HAL_TIMEx_HallSensor_MspInit
                0x0000000000000000        0x2 build/stm32f7xx_hal_tim_ex.o
 .text.HAL_TIMEx_HallSensor_Init
                0x0000000000000000       0xd8 build/stm32f7xx_hal_tim_ex.o
 .text.HAL_TIMEx_HallSensor_MspDeInit
                0x0000000000000000        0x2 build/stm32f7xx_hal_tim_ex.o
 .text.HAL_TIMEx_HallSensor_DeInit
                0x0000000000000000       0x4e build/stm32f7xx_hal_tim_ex.o
 .text.HAL_TIMEx_HallSensor_Start
                0x0000000000000000       0xc8 build/stm32f7xx_hal_tim_ex.o
 .text.HAL_TIMEx_HallSensor_Stop
                0x0000000000000000       0x42 build/stm32f7xx_hal_tim_ex.o
 .text.HAL_TIMEx_HallSensor_Start_IT
                0x0000000000000000       0xd4 build/stm32f7xx_hal_tim_ex.o
 .text.HAL_TIMEx_HallSensor_Stop_IT
                0x0000000000000000       0x4c build/stm32f7xx_hal_tim_ex.o
 .text.HAL_TIMEx_HallSensor_Start_DMA
                0x0000000000000000       0xfc build/stm32f7xx_hal_tim_ex.o
 .text.HAL_TIMEx_HallSensor_Stop_DMA
                0x0000000000000000       0x4a build/stm32f7xx_hal_tim_ex.o
 .text.HAL_TIMEx_OCN_Start
                0x0000000000000000      0x100 build/stm32f7xx_hal_tim_ex.o
 .text.HAL_TIMEx_OCN_Stop
                0x0000000000000000       0x76 build/stm32f7xx_hal_tim_ex.o
 .text.HAL_TIMEx_OCN_Start_IT
                0x0000000000000000      0x138 build/stm32f7xx_hal_tim_ex.o
 .text.HAL_TIMEx_OCN_Stop_IT
                0x0000000000000000       0xc2 build/stm32f7xx_hal_tim_ex.o
 .text.HAL_TIMEx_OCN_Start_DMA
                0x0000000000000000      0x22c build/stm32f7xx_hal_tim_ex.o
 .text.HAL_TIMEx_OCN_Stop_DMA
                0x0000000000000000       0xc0 build/stm32f7xx_hal_tim_ex.o
 .text.HAL_TIMEx_PWMN_Start
                0x0000000000000000      0x100 build/stm32f7xx_hal_tim_ex.o
 .text.HAL_TIMEx_PWMN_Stop
                0x0000000000000000       0x76 build/stm32f7xx_hal_tim_ex.o
 .text.HAL_TIMEx_PWMN_Start_IT
                0x0000000000000000      0x138 build/stm32f7xx_hal_tim_ex.o
 .text.HAL_TIMEx_PWMN_Stop_IT
                0x0000000000000000       0xc2 build/stm32f7xx_hal_tim_ex.o
 .text.HAL_TIMEx_PWMN_Start_DMA
                0x0000000000000000      0x22c build/stm32f7xx_hal_tim_ex.o
 .text.HAL_TIMEx_PWMN_Stop_DMA
                0x0000000000000000       0xc0 build/stm32f7xx_hal_tim_ex.o
 .text.HAL_TIMEx_OnePulseN_Start
                0x0000000000000000       0x7a build/stm32f7xx_hal_tim_ex.o
 .text.HAL_TIMEx_OnePulseN_Stop
                0x0000000000000000       0x72 build/stm32f7xx_hal_tim_ex.o
 .text.HAL_TIMEx_OnePulseN_Start_IT
                0x0000000000000000       0x90 build/stm32f7xx_hal_tim_ex.o
 .text.HAL_TIMEx_OnePulseN_Stop_IT
                0x0000000000000000       0x86 build/stm32f7xx_hal_tim_ex.o
 .text.HAL_TIMEx_ConfigCommutEvent
                0x0000000000000000       0x7a build/stm32f7xx_hal_tim_ex.o
 .text.HAL_TIMEx_ConfigCommutEvent_IT
                0x0000000000000000       0x7a build/stm32f7xx_hal_tim_ex.o
 .text.HAL_TIMEx_ConfigCommutEvent_DMA
                0x0000000000000000       0x98 build/stm32f7xx_hal_tim_ex.o
 .text.HAL_TIMEx_RemapConfig
                0x0000000000000000       0x24 build/stm32f7xx_hal_tim_ex.o
 .text.HAL_TIMEx_GroupChannel5
                0x0000000000000000       0x3e build/stm32f7xx_hal_tim_ex.o
 .text.TIMEx_DMACommutationCplt
                0x0000000000000000       0x10 build/stm32f7xx_hal_tim_ex.o
 .text.HAL_TIMEx_CommutHalfCpltCallback
                0x0000000000000000        0x2 build/stm32f7xx_hal_tim_ex.o
 .text.TIMEx_DMACommutationHalfCplt
                0x0000000000000000       0x10 build/stm32f7xx_hal_tim_ex.o
 .text.HAL_TIMEx_HallSensor_GetState
                0x0000000000000000        0x6 build/stm32f7xx_hal_tim_ex.o
 .text.HAL_TIMEx_GetChannelNState
                0x0000000000000000       0x2a build/stm32f7xx_hal_tim_ex.o
 .text          0x0000000000000000        0x0 build/system_stm32f7xx.o
 .data          0x0000000000000000        0x0 build/system_stm32f7xx.o
 .bss           0x0000000000000000        0x0 build/system_stm32f7xx.o
 .text.SystemCoreClockUpdate
                0x0000000000000000       0xa0 build/system_stm32f7xx.o
 .rodata.APBPrescTable
                0x0000000000000000        0x8 build/system_stm32f7xx.o
 .text          0x0000000000000000        0x0 build/stm32f7xx_hal_pcd.o
 .data          0x0000000000000000        0x0 build/stm32f7xx_hal_pcd.o
 .bss           0x0000000000000000        0x0 build/stm32f7xx_hal_pcd.o
 .text.HAL_PCD_MspInit
                0x0000000000000000        0x2 build/stm32f7xx_hal_pcd.o
 .text.HAL_PCD_MspDeInit
                0x0000000000000000        0x2 build/stm32f7xx_hal_pcd.o
 .text.HAL_PCD_DeInit
                0x0000000000000000       0x2e build/stm32f7xx_hal_pcd.o
 .text.HAL_PCD_Stop
                0x0000000000000000       0x32 build/stm32f7xx_hal_pcd.o
 .text.HAL_PCD_WKUP_IRQHandler
                0x0000000000000000       0x24 build/stm32f7xx_hal_pcd.o
 .text.HAL_PCD_DataOutStageCallback
                0x0000000000000000        0x2 build/stm32f7xx_hal_pcd.o
 .text.HAL_PCD_DataInStageCallback
                0x0000000000000000        0x2 build/stm32f7xx_hal_pcd.o
 .text.HAL_PCD_SetupStageCallback
                0x0000000000000000        0x2 build/stm32f7xx_hal_pcd.o
 .text.HAL_PCD_SOFCallback
                0x0000000000000000        0x2 build/stm32f7xx_hal_pcd.o
 .text.HAL_PCD_ResetCallback
                0x0000000000000000        0x2 build/stm32f7xx_hal_pcd.o
 .text.HAL_PCD_SuspendCallback
                0x0000000000000000        0x2 build/stm32f7xx_hal_pcd.o
 .text.HAL_PCD_ResumeCallback
                0x0000000000000000        0x2 build/stm32f7xx_hal_pcd.o
 .text.HAL_PCD_ISOOUTIncompleteCallback
                0x0000000000000000        0x2 build/stm32f7xx_hal_pcd.o
 .text.HAL_PCD_ISOINIncompleteCallback
                0x0000000000000000        0x2 build/stm32f7xx_hal_pcd.o
 .text.HAL_PCD_ConnectCallback
                0x0000000000000000        0x2 build/stm32f7xx_hal_pcd.o
 .text.HAL_PCD_DisconnectCallback
                0x0000000000000000        0x2 build/stm32f7xx_hal_pcd.o
 .text.HAL_PCD_DevConnect
                0x0000000000000000       0x24 build/stm32f7xx_hal_pcd.o
 .text.HAL_PCD_DevDisconnect
                0x0000000000000000       0x24 build/stm32f7xx_hal_pcd.o
 .text.HAL_PCD_EP_Flush
                0x0000000000000000       0x36 build/stm32f7xx_hal_pcd.o
 .text.HAL_PCD_ActivateRemoteWakeup
                0x0000000000000000        0xa build/stm32f7xx_hal_pcd.o
 .text.HAL_PCD_DeActivateRemoteWakeup
                0x0000000000000000        0xa build/stm32f7xx_hal_pcd.o
 .text.HAL_PCD_GetState
                0x0000000000000000        0x6 build/stm32f7xx_hal_pcd.o
 .text.HAL_PCD_SetTestMode
                0x0000000000000000       0x18 build/stm32f7xx_hal_pcd.o
 .text          0x0000000000000000        0x0 build/stm32f7xx_hal_pcd_ex.o
 .data          0x0000000000000000        0x0 build/stm32f7xx_hal_pcd_ex.o
 .bss           0x0000000000000000        0x0 build/stm32f7xx_hal_pcd_ex.o
 .text.HAL_PCDEx_DeActivateLPM
                0x0000000000000000       0x20 build/stm32f7xx_hal_pcd_ex.o
 .text.HAL_PCDEx_BCD_Callback
                0x0000000000000000        0x2 build/stm32f7xx_hal_pcd_ex.o
 .text          0x0000000000000000        0x0 build/stm32f7xx_ll_usb.o
 .data          0x0000000000000000        0x0 build/stm32f7xx_ll_usb.o
 .bss           0x0000000000000000        0x0 build/stm32f7xx_ll_usb.o
 .text.USB_ActivateDedicatedEndpoint
                0x0000000000000000       0xa0 build/stm32f7xx_ll_usb.o
 .text.USB_DeactivateDedicatedEndpoint
                0x0000000000000000       0xa0 build/stm32f7xx_ll_usb.o
 .text.USB_StopDevice
                0x0000000000000000       0x40 build/stm32f7xx_ll_usb.o
 .text.USB_ReadChInterrupts
                0x0000000000000000       0x12 build/stm32f7xx_ll_usb.o
 .text.USB_ClearInterrupts
                0x0000000000000000        0x8 build/stm32f7xx_ll_usb.o
 .text.USB_HostInit
                0x0000000000000000       0xe8 build/stm32f7xx_ll_usb.o
 .text.USB_InitFSLSPClkSel
                0x0000000000000000       0x3e build/stm32f7xx_ll_usb.o
 .text.USB_ResetPort
                0x0000000000000000       0x3e build/stm32f7xx_ll_usb.o
 .text.USB_DriveVbus
                0x0000000000000000       0x46 build/stm32f7xx_ll_usb.o
 .text.USB_GetHostSpeed
                0x0000000000000000       0x16 build/stm32f7xx_ll_usb.o
 .text.USB_GetCurrentFrame
                0x0000000000000000        0xa build/stm32f7xx_ll_usb.o
 .text.USB_HC_Init
                0x0000000000000000      0x12c build/stm32f7xx_ll_usb.o
 .text.USB_HC_ReadInterrupt
                0x0000000000000000        0xa build/stm32f7xx_ll_usb.o
 .text.USB_HC_Halt
                0x0000000000000000       0xe8 build/stm32f7xx_ll_usb.o
 .text.USB_DoPing
                0x0000000000000000       0x24 build/stm32f7xx_ll_usb.o
 .text.USB_HC_StartXfer
                0x0000000000000000      0x16c build/stm32f7xx_ll_usb.o
 .text.USB_StopHost
                0x0000000000000000       0x92 build/stm32f7xx_ll_usb.o
 .text.USB_ActivateRemoteWakeup
                0x0000000000000000       0x1a build/stm32f7xx_ll_usb.o
 .text.USB_DeActivateRemoteWakeup
                0x0000000000000000       0x10 build/stm32f7xx_ll_usb.o
 .text          0x0000000000000000        0x0 build/nyan_leds.o
 .data          0x0000000000000000        0x0 build/nyan_leds.o
 .bss           0x0000000000000000        0x0 build/nyan_leds.o
 .rodata.SYSTEM_STATUS_LED_FPS
                0x0000000000000000        0x8 build/nyan_leds.o
 .text          0x0000000000000000        0x0 build/nyan_os.o
 .data          0x0000000000000000        0x0 build/nyan_os.o
 .bss           0x0000000000000000        0x0 build/nyan_os.o
 .text          0x0000000000000000        0x0 build/24xx_eeprom.o
 .data          0x0000000000000000        0x0 build/24xx_eeprom.o
 .bss           0x0000000000000000        0x0 build/24xx_eeprom.o
 .text.EepromFlushTxBuff
                0x0000000000000000       0x10 build/24xx_eeprom.o
 .text.EepromWrite
                0x0000000000000000       0x50 build/24xx_eeprom.o
 .text.EepromAddByteToTXBuf
                0x0000000000000000       0x24 build/24xx_eeprom.o
 .text          0x0000000000000000        0x0 build/tim.o
 .data          0x0000000000000000        0x0 build/tim.o
 .bss           0x0000000000000000        0x0 build/tim.o
 .text.HAL_TIM_OC_MspDeInit
                0x0000000000000000       0x2c build/tim.o
 .text.HAL_TIM_Base_MspDeInit
                0x0000000000000000       0x60 build/tim.o
 .text          0x0000000000000000        0x0 build/usb_otg.o
 .data          0x0000000000000000        0x0 build/usb_otg.o
 .bss           0x0000000000000000        0x0 build/usb_otg.o
 .text.HAL_PCD_MspDeInit
                0x0000000000000000       0x44 build/usb_otg.o
 .text          0x0000000000000000        0x0 build/usbd_composite.o
 .data          0x0000000000000000        0x0 build/usbd_composite.o
 .bss           0x0000000000000000        0x0 build/usbd_composite.o
 .text          0x0000000000000000        0x0 build/usbd_hid_keyboard.o
 .data          0x0000000000000000        0x0 build/usbd_hid_keyboard.o
 .bss           0x0000000000000000        0x0 build/usbd_hid_keyboard.o
 .text.USBD_HID_Keybaord_SendReport
                0x0000000000000000       0x44 build/usbd_hid_keyboard.o
 .text.USBD_HID_Keyboard_GetPollingInterval
                0x0000000000000000        0xc build/usbd_hid_keyboard.o
 .text          0x0000000000000000        0x0 build/usbd_core.o
 .data          0x0000000000000000        0x0 build/usbd_core.o
 .bss           0x0000000000000000        0x0 build/usbd_core.o
 .text.USBD_DeInit
                0x0000000000000000       0x34 build/usbd_core.o
 .text.USBD_Stop
                0x0000000000000000       0x1a build/usbd_core.o
 .text.USBD_RunTestMode
                0x0000000000000000        0x4 build/usbd_core.o
 .text          0x0000000000000000        0x0 build/usbd_ctlreq.o
 .data          0x0000000000000000        0x0 build/usbd_ctlreq.o
 .bss           0x0000000000000000        0x0 build/usbd_ctlreq.o
 .text          0x0000000000000000        0x0 build/usbd_ioreq.o
 .data          0x0000000000000000        0x0 build/usbd_ioreq.o
 .bss           0x0000000000000000        0x0 build/usbd_ioreq.o
 .text.USBD_GetRxCount
                0x0000000000000000        0x8 build/usbd_ioreq.o
 .text          0x0000000000000000        0x0 build/usb_device.o
 .data          0x0000000000000000        0x0 build/usb_device.o
 .bss           0x0000000000000000        0x0 build/usb_device.o
 .text          0x0000000000000000        0x0 build/usbd_desc.o
 .data          0x0000000000000000        0x0 build/usbd_desc.o
 .bss           0x0000000000000000        0x0 build/usbd_desc.o
 .text          0x0000000000000000        0x0 build/usbd_conf.o
 .data          0x0000000000000000        0x0 build/usbd_conf.o
 .bss           0x0000000000000000        0x0 build/usbd_conf.o
 .text.HAL_PCD_MspInit
                0x0000000000000000        0x2 build/usbd_conf.o
 .text.HAL_PCD_MspDeInit
                0x0000000000000000        0x2 build/usbd_conf.o
 .text.USBD_LL_Delay
                0x0000000000000000        0x8 build/usbd_conf.o
 .text.USBD_LL_DeInit
                0x0000000000000000       0x10 build/usbd_conf.o
 .text.USBD_LL_Stop
                0x0000000000000000       0x10 build/usbd_conf.o
 .text.USBD_LL_FlushEP
                0x0000000000000000       0x10 build/usbd_conf.o
 .text          0x0000000000000000        0x0 build/usbd_cdc_acm.o
 .data          0x0000000000000000        0x0 build/usbd_cdc_acm.o
 .bss           0x0000000000000000        0x0 build/usbd_cdc_acm.o
 .text          0x0000000000000000        0x0 build/usbd_cdc_acm_if.o
 .data          0x0000000000000000        0x0 build/usbd_cdc_acm_if.o
 .bss           0x0000000000000000        0x0 build/usbd_cdc_acm_if.o
 .bss.Read_Index
                0x0000000000000000        0x4 build/usbd_cdc_acm_if.o
 .bss.Write_Index
                0x0000000000000000        0x4 build/usbd_cdc_acm_if.o
 .bss.TX_Buffer
                0x0000000000000000       0x80 build/usbd_cdc_acm_if.o
 .text          0x0000000000000000        0x0 build/dma.o
 .data          0x0000000000000000        0x0 build/dma.o
 .bss           0x0000000000000000        0x0 build/dma.o
 .text          0x0000000000000000       0x14 build/startup_stm32f723xx.o
 .data          0x0000000000000000        0x0 build/startup_stm32f723xx.o
 .bss           0x0000000000000000        0x0 build/startup_stm32f723xx.o
 .text          0x0000000000000000        0x0 /opt/gcc-arm-none-eabi-10.3-2021.10/bin/../lib/gcc/arm-none-eabi/10.3.1/../../../../arm-none-eabi/lib/thumb/v7e-m+fp/hard/libc_nano.a(lib_a-exit.o)
 .data          0x0000000000000000        0x0 /opt/gcc-arm-none-eabi-10.3-2021.10/bin/../lib/gcc/arm-none-eabi/10.3.1/../../../../arm-none-eabi/lib/thumb/v7e-m+fp/hard/libc_nano.a(lib_a-exit.o)
 .bss           0x0000000000000000        0x0 /opt/gcc-arm-none-eabi-10.3-2021.10/bin/../lib/gcc/arm-none-eabi/10.3.1/../../../../arm-none-eabi/lib/thumb/v7e-m+fp/hard/libc_nano.a(lib_a-exit.o)
 .text.exit     0x0000000000000000       0x28 /opt/gcc-arm-none-eabi-10.3-2021.10/bin/../lib/gcc/arm-none-eabi/10.3.1/../../../../arm-none-eabi/lib/thumb/v7e-m+fp/hard/libc_nano.a(lib_a-exit.o)
 .debug_frame   0x0000000000000000       0x28 /opt/gcc-arm-none-eabi-10.3-2021.10/bin/../lib/gcc/arm-none-eabi/10.3.1/../../../../arm-none-eabi/lib/thumb/v7e-m+fp/hard/libc_nano.a(lib_a-exit.o)
 .ARM.attributes
                0x0000000000000000       0x34 /opt/gcc-arm-none-eabi-10.3-2021.10/bin/../lib/gcc/arm-none-eabi/10.3.1/../../../../arm-none-eabi/lib/thumb/v7e-m+fp/hard/libc_nano.a(lib_a-exit.o)
 .text          0x0000000000000000        0x0 /opt/gcc-arm-none-eabi-10.3-2021.10/bin/../lib/gcc/arm-none-eabi/10.3.1/../../../../arm-none-eabi/lib/thumb/v7e-m+fp/hard/libc_nano.a(lib_a-impure.o)
 .data          0x0000000000000000        0x0 /opt/gcc-arm-none-eabi-10.3-2021.10/bin/../lib/gcc/arm-none-eabi/10.3.1/../../../../arm-none-eabi/lib/thumb/v7e-m+fp/hard/libc_nano.a(lib_a-impure.o)
 .bss           0x0000000000000000        0x0 /opt/gcc-arm-none-eabi-10.3-2021.10/bin/../lib/gcc/arm-none-eabi/10.3.1/../../../../arm-none-eabi/lib/thumb/v7e-m+fp/hard/libc_nano.a(lib_a-impure.o)
 .rodata._global_impure_ptr
                0x0000000000000000        0x4 /opt/gcc-arm-none-eabi-10.3-2021.10/bin/../lib/gcc/arm-none-eabi/10.3.1/../../../../arm-none-eabi/lib/thumb/v7e-m+fp/hard/libc_nano.a(lib_a-impure.o)
 .text          0x0000000000000000        0x0 /opt/gcc-arm-none-eabi-10.3-2021.10/bin/../lib/gcc/arm-none-eabi/10.3.1/../../../../arm-none-eabi/lib/thumb/v7e-m+fp/hard/libc_nano.a(lib_a-init.o)
 .data          0x0000000000000000        0x0 /opt/gcc-arm-none-eabi-10.3-2021.10/bin/../lib/gcc/arm-none-eabi/10.3.1/../../../../arm-none-eabi/lib/thumb/v7e-m+fp/hard/libc_nano.a(lib_a-init.o)
 .bss           0x0000000000000000        0x0 /opt/gcc-arm-none-eabi-10.3-2021.10/bin/../lib/gcc/arm-none-eabi/10.3.1/../../../../arm-none-eabi/lib/thumb/v7e-m+fp/hard/libc_nano.a(lib_a-init.o)
 .text          0x0000000000000000        0x0 /opt/gcc-arm-none-eabi-10.3-2021.10/bin/../lib/gcc/arm-none-eabi/10.3.1/../../../../arm-none-eabi/lib/thumb/v7e-m+fp/hard/libc_nano.a(lib_a-malloc.o)
 .data          0x0000000000000000        0x0 /opt/gcc-arm-none-eabi-10.3-2021.10/bin/../lib/gcc/arm-none-eabi/10.3.1/../../../../arm-none-eabi/lib/thumb/v7e-m+fp/hard/libc_nano.a(lib_a-malloc.o)
 .bss           0x0000000000000000        0x0 /opt/gcc-arm-none-eabi-10.3-2021.10/bin/../lib/gcc/arm-none-eabi/10.3.1/../../../../arm-none-eabi/lib/thumb/v7e-m+fp/hard/libc_nano.a(lib_a-malloc.o)
 .text          0x0000000000000000        0x0 /opt/gcc-arm-none-eabi-10.3-2021.10/bin/../lib/gcc/arm-none-eabi/10.3.1/../../../../arm-none-eabi/lib/thumb/v7e-m+fp/hard/libc_nano.a(lib_a-memcmp.o)
 .data          0x0000000000000000        0x0 /opt/gcc-arm-none-eabi-10.3-2021.10/bin/../lib/gcc/arm-none-eabi/10.3.1/../../../../arm-none-eabi/lib/thumb/v7e-m+fp/hard/libc_nano.a(lib_a-memcmp.o)
 .bss           0x0000000000000000        0x0 /opt/gcc-arm-none-eabi-10.3-2021.10/bin/../lib/gcc/arm-none-eabi/10.3.1/../../../../arm-none-eabi/lib/thumb/v7e-m+fp/hard/libc_nano.a(lib_a-memcmp.o)
 .text          0x0000000000000000        0x0 /opt/gcc-arm-none-eabi-10.3-2021.10/bin/../lib/gcc/arm-none-eabi/10.3.1/../../../../arm-none-eabi/lib/thumb/v7e-m+fp/hard/libc_nano.a(lib_a-memcpy-stub.o)
 .data          0x0000000000000000        0x0 /opt/gcc-arm-none-eabi-10.3-2021.10/bin/../lib/gcc/arm-none-eabi/10.3.1/../../../../arm-none-eabi/lib/thumb/v7e-m+fp/hard/libc_nano.a(lib_a-memcpy-stub.o)
 .bss           0x0000000000000000        0x0 /opt/gcc-arm-none-eabi-10.3-2021.10/bin/../lib/gcc/arm-none-eabi/10.3.1/../../../../arm-none-eabi/lib/thumb/v7e-m+fp/hard/libc_nano.a(lib_a-memcpy-stub.o)
 .text          0x0000000000000000        0x0 /opt/gcc-arm-none-eabi-10.3-2021.10/bin/../lib/gcc/arm-none-eabi/10.3.1/../../../../arm-none-eabi/lib/thumb/v7e-m+fp/hard/libc_nano.a(lib_a-memset.o)
 .data          0x0000000000000000        0x0 /opt/gcc-arm-none-eabi-10.3-2021.10/bin/../lib/gcc/arm-none-eabi/10.3.1/../../../../arm-none-eabi/lib/thumb/v7e-m+fp/hard/libc_nano.a(lib_a-memset.o)
 .bss           0x0000000000000000        0x0 /opt/gcc-arm-none-eabi-10.3-2021.10/bin/../lib/gcc/arm-none-eabi/10.3.1/../../../../arm-none-eabi/lib/thumb/v7e-m+fp/hard/libc_nano.a(lib_a-memset.o)
 .text          0x0000000000000000        0x0 /opt/gcc-arm-none-eabi-10.3-2021.10/bin/../lib/gcc/arm-none-eabi/10.3.1/../../../../arm-none-eabi/lib/thumb/v7e-m+fp/hard/libc_nano.a(lib_a-nano-freer.o)
 .data          0x0000000000000000        0x0 /opt/gcc-arm-none-eabi-10.3-2021.10/bin/../lib/gcc/arm-none-eabi/10.3.1/../../../../arm-none-eabi/lib/thumb/v7e-m+fp/hard/libc_nano.a(lib_a-nano-freer.o)
 .bss           0x0000000000000000        0x0 /opt/gcc-arm-none-eabi-10.3-2021.10/bin/../lib/gcc/arm-none-eabi/10.3.1/../../../../arm-none-eabi/lib/thumb/v7e-m+fp/hard/libc_nano.a(lib_a-nano-freer.o)
 .text          0x0000000000000000        0x0 /opt/gcc-arm-none-eabi-10.3-2021.10/bin/../lib/gcc/arm-none-eabi/10.3.1/../../../../arm-none-eabi/lib/thumb/v7e-m+fp/hard/libc_nano.a(lib_a-nano-mallocr.o)
 .data          0x0000000000000000        0x0 /opt/gcc-arm-none-eabi-10.3-2021.10/bin/../lib/gcc/arm-none-eabi/10.3.1/../../../../arm-none-eabi/lib/thumb/v7e-m+fp/hard/libc_nano.a(lib_a-nano-mallocr.o)
 .bss           0x0000000000000000        0x0 /opt/gcc-arm-none-eabi-10.3-2021.10/bin/../lib/gcc/arm-none-eabi/10.3.1/../../../../arm-none-eabi/lib/thumb/v7e-m+fp/hard/libc_nano.a(lib_a-nano-mallocr.o)
 .text          0x0000000000000000        0x0 /opt/gcc-arm-none-eabi-10.3-2021.10/bin/../lib/gcc/arm-none-eabi/10.3.1/../../../../arm-none-eabi/lib/thumb/v7e-m+fp/hard/libc_nano.a(lib_a-realloc.o)
 .data          0x0000000000000000        0x0 /opt/gcc-arm-none-eabi-10.3-2021.10/bin/../lib/gcc/arm-none-eabi/10.3.1/../../../../arm-none-eabi/lib/thumb/v7e-m+fp/hard/libc_nano.a(lib_a-realloc.o)
 .bss           0x0000000000000000        0x0 /opt/gcc-arm-none-eabi-10.3-2021.10/bin/../lib/gcc/arm-none-eabi/10.3.1/../../../../arm-none-eabi/lib/thumb/v7e-m+fp/hard/libc_nano.a(lib_a-realloc.o)
 .text          0x0000000000000000        0x0 /opt/gcc-arm-none-eabi-10.3-2021.10/bin/../lib/gcc/arm-none-eabi/10.3.1/../../../../arm-none-eabi/lib/thumb/v7e-m+fp/hard/libc_nano.a(lib_a-sbrkr.o)
 .data          0x0000000000000000        0x0 /opt/gcc-arm-none-eabi-10.3-2021.10/bin/../lib/gcc/arm-none-eabi/10.3.1/../../../../arm-none-eabi/lib/thumb/v7e-m+fp/hard/libc_nano.a(lib_a-sbrkr.o)
 .bss           0x0000000000000000        0x0 /opt/gcc-arm-none-eabi-10.3-2021.10/bin/../lib/gcc/arm-none-eabi/10.3.1/../../../../arm-none-eabi/lib/thumb/v7e-m+fp/hard/libc_nano.a(lib_a-sbrkr.o)
 .text          0x0000000000000000        0x0 /opt/gcc-arm-none-eabi-10.3-2021.10/bin/../lib/gcc/arm-none-eabi/10.3.1/../../../../arm-none-eabi/lib/thumb/v7e-m+fp/hard/libc_nano.a(lib_a-snprintf.o)
 .data          0x0000000000000000        0x0 /opt/gcc-arm-none-eabi-10.3-2021.10/bin/../lib/gcc/arm-none-eabi/10.3.1/../../../../arm-none-eabi/lib/thumb/v7e-m+fp/hard/libc_nano.a(lib_a-snprintf.o)
 .bss           0x0000000000000000        0x0 /opt/gcc-arm-none-eabi-10.3-2021.10/bin/../lib/gcc/arm-none-eabi/10.3.1/../../../../arm-none-eabi/lib/thumb/v7e-m+fp/hard/libc_nano.a(lib_a-snprintf.o)
 .text._snprintf_r
                0x0000000000000000       0x5e /opt/gcc-arm-none-eabi-10.3-2021.10/bin/../lib/gcc/arm-none-eabi/10.3.1/../../../../arm-none-eabi/lib/thumb/v7e-m+fp/hard/libc_nano.a(lib_a-snprintf.o)
 .data          0x0000000000000000        0x0 /opt/gcc-arm-none-eabi-10.3-2021.10/bin/../lib/gcc/arm-none-eabi/10.3.1/../../../../arm-none-eabi/lib/thumb/v7e-m+fp/hard/libc_nano.a(lib_a-strlen.o)
 .bss           0x0000000000000000        0x0 /opt/gcc-arm-none-eabi-10.3-2021.10/bin/../lib/gcc/arm-none-eabi/10.3.1/../../../../arm-none-eabi/lib/thumb/v7e-m+fp/hard/libc_nano.a(lib_a-strlen.o)
 .text          0x0000000000000000        0x0 /opt/gcc-arm-none-eabi-10.3-2021.10/bin/../lib/gcc/arm-none-eabi/10.3.1/../../../../arm-none-eabi/lib/thumb/v7e-m+fp/hard/libc_nano.a(lib_a-mlock.o)
 .data          0x0000000000000000        0x0 /opt/gcc-arm-none-eabi-10.3-2021.10/bin/../lib/gcc/arm-none-eabi/10.3.1/../../../../arm-none-eabi/lib/thumb/v7e-m+fp/hard/libc_nano.a(lib_a-mlock.o)
 .bss           0x0000000000000000        0x0 /opt/gcc-arm-none-eabi-10.3-2021.10/bin/../lib/gcc/arm-none-eabi/10.3.1/../../../../arm-none-eabi/lib/thumb/v7e-m+fp/hard/libc_nano.a(lib_a-mlock.o)
 .text          0x0000000000000000        0x0 /opt/gcc-arm-none-eabi-10.3-2021.10/bin/../lib/gcc/arm-none-eabi/10.3.1/../../../../arm-none-eabi/lib/thumb/v7e-m+fp/hard/libc_nano.a(lib_a-nano-reallocr.o)
 .data          0x0000000000000000        0x0 /opt/gcc-arm-none-eabi-10.3-2021.10/bin/../lib/gcc/arm-none-eabi/10.3.1/../../../../arm-none-eabi/lib/thumb/v7e-m+fp/hard/libc_nano.a(lib_a-nano-reallocr.o)
 .bss           0x0000000000000000        0x0 /opt/gcc-arm-none-eabi-10.3-2021.10/bin/../lib/gcc/arm-none-eabi/10.3.1/../../../../arm-none-eabi/lib/thumb/v7e-m+fp/hard/libc_nano.a(lib_a-nano-reallocr.o)
 .text          0x0000000000000000        0x0 /opt/gcc-arm-none-eabi-10.3-2021.10/bin/../lib/gcc/arm-none-eabi/10.3.1/../../../../arm-none-eabi/lib/thumb/v7e-m+fp/hard/libc_nano.a(lib_a-nano-svfprintf.o)
 .data          0x0000000000000000        0x0 /opt/gcc-arm-none-eabi-10.3-2021.10/bin/../lib/gcc/arm-none-eabi/10.3.1/../../../../arm-none-eabi/lib/thumb/v7e-m+fp/hard/libc_nano.a(lib_a-nano-svfprintf.o)
 .bss           0x0000000000000000        0x0 /opt/gcc-arm-none-eabi-10.3-2021.10/bin/../lib/gcc/arm-none-eabi/10.3.1/../../../../arm-none-eabi/lib/thumb/v7e-m+fp/hard/libc_nano.a(lib_a-nano-svfprintf.o)
 .text.__ssprint_r
                0x0000000000000000       0xf6 /opt/gcc-arm-none-eabi-10.3-2021.10/bin/../lib/gcc/arm-none-eabi/10.3.1/../../../../arm-none-eabi/lib/thumb/v7e-m+fp/hard/libc_nano.a(lib_a-nano-svfprintf.o)
 .text          0x0000000000000000        0x0 /opt/gcc-arm-none-eabi-10.3-2021.10/bin/../lib/gcc/arm-none-eabi/10.3.1/../../../../arm-none-eabi/lib/thumb/v7e-m+fp/hard/libc_nano.a(lib_a-nano-vfprintf_i.o)
 .data          0x0000000000000000        0x0 /opt/gcc-arm-none-eabi-10.3-2021.10/bin/../lib/gcc/arm-none-eabi/10.3.1/../../../../arm-none-eabi/lib/thumb/v7e-m+fp/hard/libc_nano.a(lib_a-nano-vfprintf_i.o)
 .bss           0x0000000000000000        0x0 /opt/gcc-arm-none-eabi-10.3-2021.10/bin/../lib/gcc/arm-none-eabi/10.3.1/../../../../arm-none-eabi/lib/thumb/v7e-m+fp/hard/libc_nano.a(lib_a-nano-vfprintf_i.o)
 .text          0x0000000000000000        0x0 /opt/gcc-arm-none-eabi-10.3-2021.10/bin/../lib/gcc/arm-none-eabi/10.3.1/../../../../arm-none-eabi/lib/thumb/v7e-m+fp/hard/libc_nano.a(lib_a-reent.o)
 .data          0x0000000000000000        0x0 /opt/gcc-arm-none-eabi-10.3-2021.10/bin/../lib/gcc/arm-none-eabi/10.3.1/../../../../arm-none-eabi/lib/thumb/v7e-m+fp/hard/libc_nano.a(lib_a-reent.o)
 .bss           0x0000000000000000        0x0 /opt/gcc-arm-none-eabi-10.3-2021.10/bin/../lib/gcc/arm-none-eabi/10.3.1/../../../../arm-none-eabi/lib/thumb/v7e-m+fp/hard/libc_nano.a(lib_a-reent.o)
 .text.cleanup_glue
                0x0000000000000000       0x1a /opt/gcc-arm-none-eabi-10.3-2021.10/bin/../lib/gcc/arm-none-eabi/10.3.1/../../../../arm-none-eabi/lib/thumb/v7e-m+fp/hard/libc_nano.a(lib_a-reent.o)
 .text._reclaim_reent
                0x0000000000000000       0xb8 /opt/gcc-arm-none-eabi-10.3-2021.10/bin/../lib/gcc/arm-none-eabi/10.3.1/../../../../arm-none-eabi/lib/thumb/v7e-m+fp/hard/libc_nano.a(lib_a-reent.o)
 .text          0x0000000000000000        0x0 /opt/gcc-arm-none-eabi-10.3-2021.10/bin/../lib/gcc/arm-none-eabi/10.3.1/../../../../arm-none-eabi/lib/thumb/v7e-m+fp/hard/libc_nano.a(lib_a-lock.o)
 .data          0x0000000000000000        0x0 /opt/gcc-arm-none-eabi-10.3-2021.10/bin/../lib/gcc/arm-none-eabi/10.3.1/../../../../arm-none-eabi/lib/thumb/v7e-m+fp/hard/libc_nano.a(lib_a-lock.o)
 .bss           0x0000000000000000        0x0 /opt/gcc-arm-none-eabi-10.3-2021.10/bin/../lib/gcc/arm-none-eabi/10.3.1/../../../../arm-none-eabi/lib/thumb/v7e-m+fp/hard/libc_nano.a(lib_a-lock.o)
 .text.__retarget_lock_init
                0x0000000000000000        0x2 /opt/gcc-arm-none-eabi-10.3-2021.10/bin/../lib/gcc/arm-none-eabi/10.3.1/../../../../arm-none-eabi/lib/thumb/v7e-m+fp/hard/libc_nano.a(lib_a-lock.o)
 .text.__retarget_lock_init_recursive
                0x0000000000000000        0x2 /opt/gcc-arm-none-eabi-10.3-2021.10/bin/../lib/gcc/arm-none-eabi/10.3.1/../../../../arm-none-eabi/lib/thumb/v7e-m+fp/hard/libc_nano.a(lib_a-lock.o)
 .text.__retarget_lock_close
                0x0000000000000000        0x2 /opt/gcc-arm-none-eabi-10.3-2021.10/bin/../lib/gcc/arm-none-eabi/10.3.1/../../../../arm-none-eabi/lib/thumb/v7e-m+fp/hard/libc_nano.a(lib_a-lock.o)
 .text.__retarget_lock_close_recursive
                0x0000000000000000        0x2 /opt/gcc-arm-none-eabi-10.3-2021.10/bin/../lib/gcc/arm-none-eabi/10.3.1/../../../../arm-none-eabi/lib/thumb/v7e-m+fp/hard/libc_nano.a(lib_a-lock.o)
 .text.__retarget_lock_acquire
                0x0000000000000000        0x2 /opt/gcc-arm-none-eabi-10.3-2021.10/bin/../lib/gcc/arm-none-eabi/10.3.1/../../../../arm-none-eabi/lib/thumb/v7e-m+fp/hard/libc_nano.a(lib_a-lock.o)
 .text.__retarget_lock_try_acquire
                0x0000000000000000        0x4 /opt/gcc-arm-none-eabi-10.3-2021.10/bin/../lib/gcc/arm-none-eabi/10.3.1/../../../../arm-none-eabi/lib/thumb/v7e-m+fp/hard/libc_nano.a(lib_a-lock.o)
 .text.__retarget_lock_try_acquire_recursive
                0x0000000000000000        0x4 /opt/gcc-arm-none-eabi-10.3-2021.10/bin/../lib/gcc/arm-none-eabi/10.3.1/../../../../arm-none-eabi/lib/thumb/v7e-m+fp/hard/libc_nano.a(lib_a-lock.o)
 .text.__retarget_lock_release
                0x0000000000000000        0x2 /opt/gcc-arm-none-eabi-10.3-2021.10/bin/../lib/gcc/arm-none-eabi/10.3.1/../../../../arm-none-eabi/lib/thumb/v7e-m+fp/hard/libc_nano.a(lib_a-lock.o)
 .bss.__lock___arc4random_mutex
                0x0000000000000000        0x1 /opt/gcc-arm-none-eabi-10.3-2021.10/bin/../lib/gcc/arm-none-eabi/10.3.1/../../../../arm-none-eabi/lib/thumb/v7e-m+fp/hard/libc_nano.a(lib_a-lock.o)
 .bss.__lock___at_quick_exit_mutex
                0x0000000000000000        0x1 /opt/gcc-arm-none-eabi-10.3-2021.10/bin/../lib/gcc/arm-none-eabi/10.3.1/../../../../arm-none-eabi/lib/thumb/v7e-m+fp/hard/libc_nano.a(lib_a-lock.o)
 .bss.__lock___atexit_recursive_mutex
                0x0000000000000000        0x1 /opt/gcc-arm-none-eabi-10.3-2021.10/bin/../lib/gcc/arm-none-eabi/10.3.1/../../../../arm-none-eabi/lib/thumb/v7e-m+fp/hard/libc_nano.a(lib_a-lock.o)
 .bss.__lock___dd_hash_mutex
                0x0000000000000000        0x1 /opt/gcc-arm-none-eabi-10.3-2021.10/bin/../lib/gcc/arm-none-eabi/10.3.1/../../../../arm-none-eabi/lib/thumb/v7e-m+fp/hard/libc_nano.a(lib_a-lock.o)
 .bss.__lock___env_recursive_mutex
                0x0000000000000000        0x1 /opt/gcc-arm-none-eabi-10.3-2021.10/bin/../lib/gcc/arm-none-eabi/10.3.1/../../../../arm-none-eabi/lib/thumb/v7e-m+fp/hard/libc_nano.a(lib_a-lock.o)
 .bss.__lock___sfp_recursive_mutex
                0x0000000000000000        0x1 /opt/gcc-arm-none-eabi-10.3-2021.10/bin/../lib/gcc/arm-none-eabi/10.3.1/../../../../arm-none-eabi/lib/thumb/v7e-m+fp/hard/libc_nano.a(lib_a-lock.o)
 .bss.__lock___sinit_recursive_mutex
                0x0000000000000000        0x1 /opt/gcc-arm-none-eabi-10.3-2021.10/bin/../lib/gcc/arm-none-eabi/10.3.1/../../../../arm-none-eabi/lib/thumb/v7e-m+fp/hard/libc_nano.a(lib_a-lock.o)
 .bss.__lock___tz_mutex
                0x0000000000000000        0x1 /opt/gcc-arm-none-eabi-10.3-2021.10/bin/../lib/gcc/arm-none-eabi/10.3.1/../../../../arm-none-eabi/lib/thumb/v7e-m+fp/hard/libc_nano.a(lib_a-lock.o)
 .data          0x0000000000000000        0x0 /opt/gcc-arm-none-eabi-10.3-2021.10/bin/../lib/gcc/arm-none-eabi/10.3.1/../../../../arm-none-eabi/lib/thumb/v7e-m+fp/hard/libc_nano.a(lib_a-memchr.o)
 .bss           0x0000000000000000        0x0 /opt/gcc-arm-none-eabi-10.3-2021.10/bin/../lib/gcc/arm-none-eabi/10.3.1/../../../../arm-none-eabi/lib/thumb/v7e-m+fp/hard/libc_nano.a(lib_a-memchr.o)
 .text          0x0000000000000000        0x0 /opt/gcc-arm-none-eabi-10.3-2021.10/bin/../lib/gcc/arm-none-eabi/10.3.1/../../../../arm-none-eabi/lib/thumb/v7e-m+fp/hard/libc_nano.a(lib_a-memmove.o)
 .data          0x0000000000000000        0x0 /opt/gcc-arm-none-eabi-10.3-2021.10/bin/../lib/gcc/arm-none-eabi/10.3.1/../../../../arm-none-eabi/lib/thumb/v7e-m+fp/hard/libc_nano.a(lib_a-memmove.o)
 .bss           0x0000000000000000        0x0 /opt/gcc-arm-none-eabi-10.3-2021.10/bin/../lib/gcc/arm-none-eabi/10.3.1/../../../../arm-none-eabi/lib/thumb/v7e-m+fp/hard/libc_nano.a(lib_a-memmove.o)
 .text          0x0000000000000000        0x0 /opt/gcc-arm-none-eabi-10.3-2021.10/bin/../lib/gcc/arm-none-eabi/10.3.1/../../../../arm-none-eabi/lib/thumb/v7e-m+fp/hard/libc_nano.a(lib_a-nano-msizer.o)
 .data          0x0000000000000000        0x0 /opt/gcc-arm-none-eabi-10.3-2021.10/bin/../lib/gcc/arm-none-eabi/10.3.1/../../../../arm-none-eabi/lib/thumb/v7e-m+fp/hard/libc_nano.a(lib_a-nano-msizer.o)
 .bss           0x0000000000000000        0x0 /opt/gcc-arm-none-eabi-10.3-2021.10/bin/../lib/gcc/arm-none-eabi/10.3.1/../../../../arm-none-eabi/lib/thumb/v7e-m+fp/hard/libc_nano.a(lib_a-nano-msizer.o)
 .text          0x0000000000000000        0x0 /opt/gcc-arm-none-eabi-10.3-2021.10/bin/../lib/gcc/arm-none-eabi/10.3.1/../../../../arm-none-eabi/lib/thumb/v7e-m+fp/hard/libm.a(lib_a-s_floor.o)
 .data          0x0000000000000000        0x0 /opt/gcc-arm-none-eabi-10.3-2021.10/bin/../lib/gcc/arm-none-eabi/10.3.1/../../../../arm-none-eabi/lib/thumb/v7e-m+fp/hard/libm.a(lib_a-s_floor.o)
 .bss           0x0000000000000000        0x0 /opt/gcc-arm-none-eabi-10.3-2021.10/bin/../lib/gcc/arm-none-eabi/10.3.1/../../../../arm-none-eabi/lib/thumb/v7e-m+fp/hard/libm.a(lib_a-s_floor.o)
 .text          0x0000000000000000        0x0 /opt/gcc-arm-none-eabi-10.3-2021.10/bin/../lib/gcc/arm-none-eabi/10.3.1/../../../../arm-none-eabi/lib/thumb/v7e-m+fp/hard/libm.a(lib_a-sf_cos.o)
 .data          0x0000000000000000        0x0 /opt/gcc-arm-none-eabi-10.3-2021.10/bin/../lib/gcc/arm-none-eabi/10.3.1/../../../../arm-none-eabi/lib/thumb/v7e-m+fp/hard/libm.a(lib_a-sf_cos.o)
 .bss           0x0000000000000000        0x0 /opt/gcc-arm-none-eabi-10.3-2021.10/bin/../lib/gcc/arm-none-eabi/10.3.1/../../../../arm-none-eabi/lib/thumb/v7e-m+fp/hard/libm.a(lib_a-sf_cos.o)
 .text          0x0000000000000000        0x0 /opt/gcc-arm-none-eabi-10.3-2021.10/bin/../lib/gcc/arm-none-eabi/10.3.1/../../../../arm-none-eabi/lib/thumb/v7e-m+fp/hard/libm.a(lib_a-w_pow.o)
 .data          0x0000000000000000        0x0 /opt/gcc-arm-none-eabi-10.3-2021.10/bin/../lib/gcc/arm-none-eabi/10.3.1/../../../../arm-none-eabi/lib/thumb/v7e-m+fp/hard/libm.a(lib_a-w_pow.o)
 .bss           0x0000000000000000        0x0 /opt/gcc-arm-none-eabi-10.3-2021.10/bin/../lib/gcc/arm-none-eabi/10.3.1/../../../../arm-none-eabi/lib/thumb/v7e-m+fp/hard/libm.a(lib_a-w_pow.o)
 .text          0x0000000000000000        0x0 /opt/gcc-arm-none-eabi-10.3-2021.10/bin/../lib/gcc/arm-none-eabi/10.3.1/../../../../arm-none-eabi/lib/thumb/v7e-m+fp/hard/libm.a(lib_a-e_pow.o)
 .data          0x0000000000000000        0x0 /opt/gcc-arm-none-eabi-10.3-2021.10/bin/../lib/gcc/arm-none-eabi/10.3.1/../../../../arm-none-eabi/lib/thumb/v7e-m+fp/hard/libm.a(lib_a-e_pow.o)
 .bss           0x0000000000000000        0x0 /opt/gcc-arm-none-eabi-10.3-2021.10/bin/../lib/gcc/arm-none-eabi/10.3.1/../../../../arm-none-eabi/lib/thumb/v7e-m+fp/hard/libm.a(lib_a-e_pow.o)
 .text          0x0000000000000000        0x0 /opt/gcc-arm-none-eabi-10.3-2021.10/bin/../lib/gcc/arm-none-eabi/10.3.1/../../../../arm-none-eabi/lib/thumb/v7e-m+fp/hard/libm.a(lib_a-e_sqrt.o)
 .data          0x0000000000000000        0x0 /opt/gcc-arm-none-eabi-10.3-2021.10/bin/../lib/gcc/arm-none-eabi/10.3.1/../../../../arm-none-eabi/lib/thumb/v7e-m+fp/hard/libm.a(lib_a-e_sqrt.o)
 .bss           0x0000000000000000        0x0 /opt/gcc-arm-none-eabi-10.3-2021.10/bin/../lib/gcc/arm-none-eabi/10.3.1/../../../../arm-none-eabi/lib/thumb/v7e-m+fp/hard/libm.a(lib_a-e_sqrt.o)
 .text          0x0000000000000000        0x0 /opt/gcc-arm-none-eabi-10.3-2021.10/bin/../lib/gcc/arm-none-eabi/10.3.1/../../../../arm-none-eabi/lib/thumb/v7e-m+fp/hard/libm.a(lib_a-ef_rem_pio2.o)
 .data          0x0000000000000000        0x0 /opt/gcc-arm-none-eabi-10.3-2021.10/bin/../lib/gcc/arm-none-eabi/10.3.1/../../../../arm-none-eabi/lib/thumb/v7e-m+fp/hard/libm.a(lib_a-ef_rem_pio2.o)
 .bss           0x0000000000000000        0x0 /opt/gcc-arm-none-eabi-10.3-2021.10/bin/../lib/gcc/arm-none-eabi/10.3.1/../../../../arm-none-eabi/lib/thumb/v7e-m+fp/hard/libm.a(lib_a-ef_rem_pio2.o)
 .text          0x0000000000000000        0x0 /opt/gcc-arm-none-eabi-10.3-2021.10/bin/../lib/gcc/arm-none-eabi/10.3.1/../../../../arm-none-eabi/lib/thumb/v7e-m+fp/hard/libm.a(lib_a-kf_cos.o)
 .data          0x0000000000000000        0x0 /opt/gcc-arm-none-eabi-10.3-2021.10/bin/../lib/gcc/arm-none-eabi/10.3.1/../../../../arm-none-eabi/lib/thumb/v7e-m+fp/hard/libm.a(lib_a-kf_cos.o)
 .bss           0x0000000000000000        0x0 /opt/gcc-arm-none-eabi-10.3-2021.10/bin/../lib/gcc/arm-none-eabi/10.3.1/../../../../arm-none-eabi/lib/thumb/v7e-m+fp/hard/libm.a(lib_a-kf_cos.o)
 .text          0x0000000000000000        0x0 /opt/gcc-arm-none-eabi-10.3-2021.10/bin/../lib/gcc/arm-none-eabi/10.3.1/../../../../arm-none-eabi/lib/thumb/v7e-m+fp/hard/libm.a(lib_a-kf_rem_pio2.o)
 .data          0x0000000000000000        0x0 /opt/gcc-arm-none-eabi-10.3-2021.10/bin/../lib/gcc/arm-none-eabi/10.3.1/../../../../arm-none-eabi/lib/thumb/v7e-m+fp/hard/libm.a(lib_a-kf_rem_pio2.o)
 .bss           0x0000000000000000        0x0 /opt/gcc-arm-none-eabi-10.3-2021.10/bin/../lib/gcc/arm-none-eabi/10.3.1/../../../../arm-none-eabi/lib/thumb/v7e-m+fp/hard/libm.a(lib_a-kf_rem_pio2.o)
 .text          0x0000000000000000        0x0 /opt/gcc-arm-none-eabi-10.3-2021.10/bin/../lib/gcc/arm-none-eabi/10.3.1/../../../../arm-none-eabi/lib/thumb/v7e-m+fp/hard/libm.a(lib_a-kf_sin.o)
 .data          0x0000000000000000        0x0 /opt/gcc-arm-none-eabi-10.3-2021.10/bin/../lib/gcc/arm-none-eabi/10.3.1/../../../../arm-none-eabi/lib/thumb/v7e-m+fp/hard/libm.a(lib_a-kf_sin.o)
 .bss           0x0000000000000000        0x0 /opt/gcc-arm-none-eabi-10.3-2021.10/bin/../lib/gcc/arm-none-eabi/10.3.1/../../../../arm-none-eabi/lib/thumb/v7e-m+fp/hard/libm.a(lib_a-kf_sin.o)
 .text          0x0000000000000000        0x0 /opt/gcc-arm-none-eabi-10.3-2021.10/bin/../lib/gcc/arm-none-eabi/10.3.1/../../../../arm-none-eabi/lib/thumb/v7e-m+fp/hard/libm.a(lib_a-math_err.o)
 .data          0x0000000000000000        0x0 /opt/gcc-arm-none-eabi-10.3-2021.10/bin/../lib/gcc/arm-none-eabi/10.3.1/../../../../arm-none-eabi/lib/thumb/v7e-m+fp/hard/libm.a(lib_a-math_err.o)
 .bss           0x0000000000000000        0x0 /opt/gcc-arm-none-eabi-10.3-2021.10/bin/../lib/gcc/arm-none-eabi/10.3.1/../../../../arm-none-eabi/lib/thumb/v7e-m+fp/hard/libm.a(lib_a-math_err.o)
 .text.__math_may_uflow
                0x0000000000000000       0x14 /opt/gcc-arm-none-eabi-10.3-2021.10/bin/../lib/gcc/arm-none-eabi/10.3.1/../../../../arm-none-eabi/lib/thumb/v7e-m+fp/hard/libm.a(lib_a-math_err.o)
 .text.__math_divzero
                0x0000000000000000       0x38 /opt/gcc-arm-none-eabi-10.3-2021.10/bin/../lib/gcc/arm-none-eabi/10.3.1/../../../../arm-none-eabi/lib/thumb/v7e-m+fp/hard/libm.a(lib_a-math_err.o)
 .text.__math_invalid
                0x0000000000000000       0x50 /opt/gcc-arm-none-eabi-10.3-2021.10/bin/../lib/gcc/arm-none-eabi/10.3.1/../../../../arm-none-eabi/lib/thumb/v7e-m+fp/hard/libm.a(lib_a-math_err.o)
 .text.__math_check_uflow
                0x0000000000000000       0x30 /opt/gcc-arm-none-eabi-10.3-2021.10/bin/../lib/gcc/arm-none-eabi/10.3.1/../../../../arm-none-eabi/lib/thumb/v7e-m+fp/hard/libm.a(lib_a-math_err.o)
 .text.__math_check_oflow
                0x0000000000000000       0x4c /opt/gcc-arm-none-eabi-10.3-2021.10/bin/../lib/gcc/arm-none-eabi/10.3.1/../../../../arm-none-eabi/lib/thumb/v7e-m+fp/hard/libm.a(lib_a-math_err.o)
 .text          0x0000000000000000        0x0 /opt/gcc-arm-none-eabi-10.3-2021.10/bin/../lib/gcc/arm-none-eabi/10.3.1/../../../../arm-none-eabi/lib/thumb/v7e-m+fp/hard/libm.a(lib_a-s_fabs.o)
 .data          0x0000000000000000        0x0 /opt/gcc-arm-none-eabi-10.3-2021.10/bin/../lib/gcc/arm-none-eabi/10.3.1/../../../../arm-none-eabi/lib/thumb/v7e-m+fp/hard/libm.a(lib_a-s_fabs.o)
 .bss           0x0000000000000000        0x0 /opt/gcc-arm-none-eabi-10.3-2021.10/bin/../lib/gcc/arm-none-eabi/10.3.1/../../../../arm-none-eabi/lib/thumb/v7e-m+fp/hard/libm.a(lib_a-s_fabs.o)
 .text          0x0000000000000000        0x0 /opt/gcc-arm-none-eabi-10.3-2021.10/bin/../lib/gcc/arm-none-eabi/10.3.1/../../../../arm-none-eabi/lib/thumb/v7e-m+fp/hard/libm.a(lib_a-s_finite.o)
 .data          0x0000000000000000        0x0 /opt/gcc-arm-none-eabi-10.3-2021.10/bin/../lib/gcc/arm-none-eabi/10.3.1/../../../../arm-none-eabi/lib/thumb/v7e-m+fp/hard/libm.a(lib_a-s_finite.o)
 .bss           0x0000000000000000        0x0 /opt/gcc-arm-none-eabi-10.3-2021.10/bin/../lib/gcc/arm-none-eabi/10.3.1/../../../../arm-none-eabi/lib/thumb/v7e-m+fp/hard/libm.a(lib_a-s_finite.o)
 .text          0x0000000000000000        0x0 /opt/gcc-arm-none-eabi-10.3-2021.10/bin/../lib/gcc/arm-none-eabi/10.3.1/../../../../arm-none-eabi/lib/thumb/v7e-m+fp/hard/libm.a(lib_a-s_scalbn.o)
 .data          0x0000000000000000        0x0 /opt/gcc-arm-none-eabi-10.3-2021.10/bin/../lib/gcc/arm-none-eabi/10.3.1/../../../../arm-none-eabi/lib/thumb/v7e-m+fp/hard/libm.a(lib_a-s_scalbn.o)
 .bss           0x0000000000000000        0x0 /opt/gcc-arm-none-eabi-10.3-2021.10/bin/../lib/gcc/arm-none-eabi/10.3.1/../../../../arm-none-eabi/lib/thumb/v7e-m+fp/hard/libm.a(lib_a-s_scalbn.o)
 .text          0x0000000000000000        0x0 /opt/gcc-arm-none-eabi-10.3-2021.10/bin/../lib/gcc/arm-none-eabi/10.3.1/../../../../arm-none-eabi/lib/thumb/v7e-m+fp/hard/libm.a(lib_a-sf_fabs.o)
 .data          0x0000000000000000        0x0 /opt/gcc-arm-none-eabi-10.3-2021.10/bin/../lib/gcc/arm-none-eabi/10.3.1/../../../../arm-none-eabi/lib/thumb/v7e-m+fp/hard/libm.a(lib_a-sf_fabs.o)
 .bss           0x0000000000000000        0x0 /opt/gcc-arm-none-eabi-10.3-2021.10/bin/../lib/gcc/arm-none-eabi/10.3.1/../../../../arm-none-eabi/lib/thumb/v7e-m+fp/hard/libm.a(lib_a-sf_fabs.o)
 .text          0x0000000000000000        0x0 /opt/gcc-arm-none-eabi-10.3-2021.10/bin/../lib/gcc/arm-none-eabi/10.3.1/../../../../arm-none-eabi/lib/thumb/v7e-m+fp/hard/libm.a(lib_a-sf_floor.o)
 .data          0x0000000000000000        0x0 /opt/gcc-arm-none-eabi-10.3-2021.10/bin/../lib/gcc/arm-none-eabi/10.3.1/../../../../arm-none-eabi/lib/thumb/v7e-m+fp/hard/libm.a(lib_a-sf_floor.o)
 .bss           0x0000000000000000        0x0 /opt/gcc-arm-none-eabi-10.3-2021.10/bin/../lib/gcc/arm-none-eabi/10.3.1/../../../../arm-none-eabi/lib/thumb/v7e-m+fp/hard/libm.a(lib_a-sf_floor.o)
 .text          0x0000000000000000        0x0 /opt/gcc-arm-none-eabi-10.3-2021.10/bin/../lib/gcc/arm-none-eabi/10.3.1/../../../../arm-none-eabi/lib/thumb/v7e-m+fp/hard/libm.a(lib_a-sf_scalbn.o)
 .data          0x0000000000000000        0x0 /opt/gcc-arm-none-eabi-10.3-2021.10/bin/../lib/gcc/arm-none-eabi/10.3.1/../../../../arm-none-eabi/lib/thumb/v7e-m+fp/hard/libm.a(lib_a-sf_scalbn.o)
 .bss           0x0000000000000000        0x0 /opt/gcc-arm-none-eabi-10.3-2021.10/bin/../lib/gcc/arm-none-eabi/10.3.1/../../../../arm-none-eabi/lib/thumb/v7e-m+fp/hard/libm.a(lib_a-sf_scalbn.o)
 .text          0x0000000000000000        0x0 /opt/gcc-arm-none-eabi-10.3-2021.10/bin/../lib/gcc/arm-none-eabi/10.3.1/../../../../arm-none-eabi/lib/thumb/v7e-m+fp/hard/libnosys.a(sbrk.o)
 .data          0x0000000000000000        0x0 /opt/gcc-arm-none-eabi-10.3-2021.10/bin/../lib/gcc/arm-none-eabi/10.3.1/../../../../arm-none-eabi/lib/thumb/v7e-m+fp/hard/libnosys.a(sbrk.o)
 .bss           0x0000000000000000        0x0 /opt/gcc-arm-none-eabi-10.3-2021.10/bin/../lib/gcc/arm-none-eabi/10.3.1/../../../../arm-none-eabi/lib/thumb/v7e-m+fp/hard/libnosys.a(sbrk.o)
 .text          0x0000000000000000        0x0 /opt/gcc-arm-none-eabi-10.3-2021.10/bin/../lib/gcc/arm-none-eabi/10.3.1/../../../../arm-none-eabi/lib/thumb/v7e-m+fp/hard/libnosys.a(_exit.o)
 .data          0x0000000000000000        0x0 /opt/gcc-arm-none-eabi-10.3-2021.10/bin/../lib/gcc/arm-none-eabi/10.3.1/../../../../arm-none-eabi/lib/thumb/v7e-m+fp/hard/libnosys.a(_exit.o)
 .bss           0x0000000000000000        0x0 /opt/gcc-arm-none-eabi-10.3-2021.10/bin/../lib/gcc/arm-none-eabi/10.3.1/../../../../arm-none-eabi/lib/thumb/v7e-m+fp/hard/libnosys.a(_exit.o)
 .text._exit    0x0000000000000000        0x4 /opt/gcc-arm-none-eabi-10.3-2021.10/bin/../lib/gcc/arm-none-eabi/10.3.1/../../../../arm-none-eabi/lib/thumb/v7e-m+fp/hard/libnosys.a(_exit.o)
 .debug_frame   0x0000000000000000       0x20 /opt/gcc-arm-none-eabi-10.3-2021.10/bin/../lib/gcc/arm-none-eabi/10.3.1/../../../../arm-none-eabi/lib/thumb/v7e-m+fp/hard/libnosys.a(_exit.o)
 .ARM.attributes
                0x0000000000000000       0x34 /opt/gcc-arm-none-eabi-10.3-2021.10/bin/../lib/gcc/arm-none-eabi/10.3.1/../../../../arm-none-eabi/lib/thumb/v7e-m+fp/hard/libnosys.a(_exit.o)
 .text          0x0000000000000000      0x254 /opt/gcc-arm-none-eabi-10.3-2021.10/bin/../lib/gcc/arm-none-eabi/10.3.1/thumb/v7e-m+fp/hard/libgcc.a(_arm_muldf3.o)
 .data          0x0000000000000000        0x0 /opt/gcc-arm-none-eabi-10.3-2021.10/bin/../lib/gcc/arm-none-eabi/10.3.1/thumb/v7e-m+fp/hard/libgcc.a(_arm_muldf3.o)
 .bss           0x0000000000000000        0x0 /opt/gcc-arm-none-eabi-10.3-2021.10/bin/../lib/gcc/arm-none-eabi/10.3.1/thumb/v7e-m+fp/hard/libgcc.a(_arm_muldf3.o)
 .debug_frame   0x0000000000000000       0x30 /opt/gcc-arm-none-eabi-10.3-2021.10/bin/../lib/gcc/arm-none-eabi/10.3.1/thumb/v7e-m+fp/hard/libgcc.a(_arm_muldf3.o)
 .ARM.attributes
                0x0000000000000000       0x1e /opt/gcc-arm-none-eabi-10.3-2021.10/bin/../lib/gcc/arm-none-eabi/10.3.1/thumb/v7e-m+fp/hard/libgcc.a(_arm_muldf3.o)
 .data          0x0000000000000000        0x0 /opt/gcc-arm-none-eabi-10.3-2021.10/bin/../lib/gcc/arm-none-eabi/10.3.1/thumb/v7e-m+fp/hard/libgcc.a(_arm_addsubdf3.o)
 .bss           0x0000000000000000        0x0 /opt/gcc-arm-none-eabi-10.3-2021.10/bin/../lib/gcc/arm-none-eabi/10.3.1/thumb/v7e-m+fp/hard/libgcc.a(_arm_addsubdf3.o)
 .data          0x0000000000000000        0x0 /opt/gcc-arm-none-eabi-10.3-2021.10/bin/../lib/gcc/arm-none-eabi/10.3.1/thumb/v7e-m+fp/hard/libgcc.a(_arm_muldivdf3.o)
 .bss           0x0000000000000000        0x0 /opt/gcc-arm-none-eabi-10.3-2021.10/bin/../lib/gcc/arm-none-eabi/10.3.1/thumb/v7e-m+fp/hard/libgcc.a(_arm_muldivdf3.o)
 .data          0x0000000000000000        0x0 /opt/gcc-arm-none-eabi-10.3-2021.10/bin/../lib/gcc/arm-none-eabi/10.3.1/thumb/v7e-m+fp/hard/libgcc.a(_arm_cmpdf2.o)
 .bss           0x0000000000000000        0x0 /opt/gcc-arm-none-eabi-10.3-2021.10/bin/../lib/gcc/arm-none-eabi/10.3.1/thumb/v7e-m+fp/hard/libgcc.a(_arm_cmpdf2.o)
 .data          0x0000000000000000        0x0 /opt/gcc-arm-none-eabi-10.3-2021.10/bin/../lib/gcc/arm-none-eabi/10.3.1/thumb/v7e-m+fp/hard/libgcc.a(_arm_unorddf2.o)
 .bss           0x0000000000000000        0x0 /opt/gcc-arm-none-eabi-10.3-2021.10/bin/../lib/gcc/arm-none-eabi/10.3.1/thumb/v7e-m+fp/hard/libgcc.a(_arm_unorddf2.o)
 .data          0x0000000000000000        0x0 /opt/gcc-arm-none-eabi-10.3-2021.10/bin/../lib/gcc/arm-none-eabi/10.3.1/thumb/v7e-m+fp/hard/libgcc.a(_arm_fixunsdfsi.o)
 .bss           0x0000000000000000        0x0 /opt/gcc-arm-none-eabi-10.3-2021.10/bin/../lib/gcc/arm-none-eabi/10.3.1/thumb/v7e-m+fp/hard/libgcc.a(_arm_fixunsdfsi.o)
 .data          0x0000000000000000        0x0 /opt/gcc-arm-none-eabi-10.3-2021.10/bin/../lib/gcc/arm-none-eabi/10.3.1/thumb/v7e-m+fp/hard/libgcc.a(_arm_truncdfsf2.o)
 .bss           0x0000000000000000        0x0 /opt/gcc-arm-none-eabi-10.3-2021.10/bin/../lib/gcc/arm-none-eabi/10.3.1/thumb/v7e-m+fp/hard/libgcc.a(_arm_truncdfsf2.o)
 .data          0x0000000000000000        0x0 /opt/gcc-arm-none-eabi-10.3-2021.10/bin/../lib/gcc/arm-none-eabi/10.3.1/thumb/v7e-m+fp/hard/libgcc.a(_aeabi_uldivmod.o)
 .bss           0x0000000000000000        0x0 /opt/gcc-arm-none-eabi-10.3-2021.10/bin/../lib/gcc/arm-none-eabi/10.3.1/thumb/v7e-m+fp/hard/libgcc.a(_aeabi_uldivmod.o)
 .data          0x0000000000000000        0x0 /opt/gcc-arm-none-eabi-10.3-2021.10/bin/../lib/gcc/arm-none-eabi/10.3.1/thumb/v7e-m+fp/hard/libgcc.a(_udivmoddi4.o)
 .bss           0x0000000000000000        0x0 /opt/gcc-arm-none-eabi-10.3-2021.10/bin/../lib/gcc/arm-none-eabi/10.3.1/thumb/v7e-m+fp/hard/libgcc.a(_udivmoddi4.o)
 .ARM.extab     0x0000000000000000        0x0 /opt/gcc-arm-none-eabi-10.3-2021.10/bin/../lib/gcc/arm-none-eabi/10.3.1/thumb/v7e-m+fp/hard/libgcc.a(_udivmoddi4.o)
 .data          0x0000000000000000        0x0 /opt/gcc-arm-none-eabi-10.3-2021.10/bin/../lib/gcc/arm-none-eabi/10.3.1/thumb/v7e-m+fp/hard/libgcc.a(_dvmd_tls.o)
 .bss           0x0000000000000000        0x0 /opt/gcc-arm-none-eabi-10.3-2021.10/bin/../lib/gcc/arm-none-eabi/10.3.1/thumb/v7e-m+fp/hard/libgcc.a(_dvmd_tls.o)
 .text          0x0000000000000000        0x0 /opt/gcc-arm-none-eabi-10.3-2021.10/bin/../lib/gcc/arm-none-eabi/10.3.1/../../../../arm-none-eabi/lib/thumb/v7e-m+fp/hard/libc_nano.a(lib_a-errno.o)
 .data          0x0000000000000000        0x0 /opt/gcc-arm-none-eabi-10.3-2021.10/bin/../lib/gcc/arm-none-eabi/10.3.1/../../../../arm-none-eabi/lib/thumb/v7e-m+fp/hard/libc_nano.a(lib_a-errno.o)
 .bss           0x0000000000000000        0x0 /opt/gcc-arm-none-eabi-10.3-2021.10/bin/../lib/gcc/arm-none-eabi/10.3.1/../../../../arm-none-eabi/lib/thumb/v7e-m+fp/hard/libc_nano.a(lib_a-errno.o)
 .text          0x0000000000000000        0x0 /opt/gcc-arm-none-eabi-10.3-2021.10/bin/../lib/gcc/arm-none-eabi/10.3.1/thumb/v7e-m+fp/hard/crtend.o
 .data          0x0000000000000000        0x0 /opt/gcc-arm-none-eabi-10.3-2021.10/bin/../lib/gcc/arm-none-eabi/10.3.1/thumb/v7e-m+fp/hard/crtend.o
 .bss           0x0000000000000000        0x0 /opt/gcc-arm-none-eabi-10.3-2021.10/bin/../lib/gcc/arm-none-eabi/10.3.1/thumb/v7e-m+fp/hard/crtend.o
 .rodata        0x0000000000000000       0x24 /opt/gcc-arm-none-eabi-10.3-2021.10/bin/../lib/gcc/arm-none-eabi/10.3.1/thumb/v7e-m+fp/hard/crtend.o
 .eh_frame      0x0000000000000000        0x4 /opt/gcc-arm-none-eabi-10.3-2021.10/bin/../lib/gcc/arm-none-eabi/10.3.1/thumb/v7e-m+fp/hard/crtend.o
 .ARM.attributes
                0x0000000000000000       0x34 /opt/gcc-arm-none-eabi-10.3-2021.10/bin/../lib/gcc/arm-none-eabi/10.3.1/thumb/v7e-m+fp/hard/crtend.o
 .text          0x0000000000000000        0x0 /opt/gcc-arm-none-eabi-10.3-2021.10/bin/../lib/gcc/arm-none-eabi/10.3.1/thumb/v7e-m+fp/hard/crtn.o
 .data          0x0000000000000000        0x0 /opt/gcc-arm-none-eabi-10.3-2021.10/bin/../lib/gcc/arm-none-eabi/10.3.1/thumb/v7e-m+fp/hard/crtn.o
 .bss           0x0000000000000000        0x0 /opt/gcc-arm-none-eabi-10.3-2021.10/bin/../lib/gcc/arm-none-eabi/10.3.1/thumb/v7e-m+fp/hard/crtn.o

Memory Configuration

Name             Origin             Length             Attributes
RAM              0x0000000020000000 0x0000000000040000 xrw
FLASH            0x0000000008000000 0x0000000000080000 xr
*default*        0x0000000000000000 0xffffffffffffffff

Linker script and memory map

LOAD /opt/gcc-arm-none-eabi-10.3-2021.10/bin/../lib/gcc/arm-none-eabi/10.3.1/thumb/v7e-m+fp/hard/crti.o
LOAD /opt/gcc-arm-none-eabi-10.3-2021.10/bin/../lib/gcc/arm-none-eabi/10.3.1/thumb/v7e-m+fp/hard/crtbegin.o
LOAD /opt/gcc-arm-none-eabi-10.3-2021.10/bin/../lib/gcc/arm-none-eabi/10.3.1/../../../../arm-none-eabi/lib/thumb/v7e-m+fp/hard/crt0.o
LOAD build/main.o
LOAD build/gpio.o
LOAD build/i2c.o
LOAD build/rng.o
LOAD build/spi.o
LOAD build/stm32f7xx_it.o
LOAD build/stm32f7xx_hal_msp.o
LOAD build/stm32f7xx_hal_rcc.o
LOAD build/stm32f7xx_hal_rcc_ex.o
LOAD build/stm32f7xx_hal_flash.o
LOAD build/stm32f7xx_hal_flash_ex.o
LOAD build/stm32f7xx_hal_gpio.o
LOAD build/stm32f7xx_hal_dma.o
LOAD build/stm32f7xx_hal_dma_ex.o
LOAD build/stm32f7xx_hal_pwr.o
LOAD build/stm32f7xx_hal_pwr_ex.o
LOAD build/stm32f7xx_hal_cortex.o
LOAD build/stm32f7xx_hal.o
LOAD build/stm32f7xx_hal_i2c.o
LOAD build/stm32f7xx_hal_i2c_ex.o
LOAD build/stm32f7xx_hal_exti.o
LOAD build/stm32f7xx_hal_rng.o
LOAD build/stm32f7xx_hal_spi.o
LOAD build/stm32f7xx_hal_spi_ex.o
LOAD build/stm32f7xx_hal_tim.o
LOAD build/stm32f7xx_hal_tim_ex.o
LOAD build/system_stm32f7xx.o
LOAD build/stm32f7xx_hal_pcd.o
LOAD build/stm32f7xx_hal_pcd_ex.o
LOAD build/stm32f7xx_ll_usb.o
LOAD build/nyan_leds.o
LOAD build/nyan_os.o
LOAD build/24xx_eeprom.o
LOAD build/tim.o
LOAD build/usb_otg.o
LOAD build/usbd_composite.o
LOAD build/usbd_hid_keyboard.o
LOAD build/usbd_core.o
LOAD build/usbd_ctlreq.o
LOAD build/usbd_ioreq.o
LOAD build/usb_device.o
LOAD build/usbd_desc.o
LOAD build/usbd_conf.o
LOAD build/usbd_cdc_acm.o
LOAD build/usbd_cdc_acm_if.o
LOAD build/dma.o
LOAD build/startup_stm32f723xx.o
LOAD /opt/gcc-arm-none-eabi-10.3-2021.10/bin/../lib/gcc/arm-none-eabi/10.3.1/../../../../arm-none-eabi/lib/thumb/v7e-m+fp/hard/libc_nano.a
LOAD /opt/gcc-arm-none-eabi-10.3-2021.10/bin/../lib/gcc/arm-none-eabi/10.3.1/../../../../arm-none-eabi/lib/thumb/v7e-m+fp/hard/libm.a
LOAD /opt/gcc-arm-none-eabi-10.3-2021.10/bin/../lib/gcc/arm-none-eabi/10.3.1/../../../../arm-none-eabi/lib/thumb/v7e-m+fp/hard/libnosys.a
START GROUP
LOAD /opt/gcc-arm-none-eabi-10.3-2021.10/bin/../lib/gcc/arm-none-eabi/10.3.1/thumb/v7e-m+fp/hard/libgcc.a
LOAD /opt/gcc-arm-none-eabi-10.3-2021.10/bin/../lib/gcc/arm-none-eabi/10.3.1/../../../../arm-none-eabi/lib/thumb/v7e-m+fp/hard/libc_nano.a
END GROUP
START GROUP
LOAD /opt/gcc-arm-none-eabi-10.3-2021.10/bin/../lib/gcc/arm-none-eabi/10.3.1/thumb/v7e-m+fp/hard/libgcc.a
LOAD /opt/gcc-arm-none-eabi-10.3-2021.10/bin/../lib/gcc/arm-none-eabi/10.3.1/../../../../arm-none-eabi/lib/thumb/v7e-m+fp/hard/libc_nano.a
END GROUP
LOAD /opt/gcc-arm-none-eabi-10.3-2021.10/bin/../lib/gcc/arm-none-eabi/10.3.1/thumb/v7e-m+fp/hard/crtend.o
LOAD /opt/gcc-arm-none-eabi-10.3-2021.10/bin/../lib/gcc/arm-none-eabi/10.3.1/thumb/v7e-m+fp/hard/crtn.o
                0x0000000020040000                _estack = (ORIGIN (RAM) + LENGTH (RAM))
                0x0000000000000800                _Min_Heap_Size = 0x800
                0x0000000000000800                _Min_Stack_Size = 0x800

.isr_vector     0x0000000008000000      0x1e0
                0x0000000008000000                . = ALIGN (0x4)
 *(.isr_vector)
 .isr_vector    0x0000000008000000      0x1e0 build/startup_stm32f723xx.o
                0x0000000008000000                g_pfnVectors
                0x00000000080001e0                . = ALIGN (0x4)

.text           0x00000000080001e0     0xabac
                0x00000000080001e0                . = ALIGN (0x4)
 *(.text)
 .text          0x00000000080001e0       0x40 /opt/gcc-arm-none-eabi-10.3-2021.10/bin/../lib/gcc/arm-none-eabi/10.3.1/thumb/v7e-m+fp/hard/crtbegin.o
 .text          0x0000000008000220       0x10 /opt/gcc-arm-none-eabi-10.3-2021.10/bin/../lib/gcc/arm-none-eabi/10.3.1/../../../../arm-none-eabi/lib/thumb/v7e-m+fp/hard/libc_nano.a(lib_a-strlen.o)
                0x0000000008000220                strlen
 .text          0x0000000008000230       0xa0 /opt/gcc-arm-none-eabi-10.3-2021.10/bin/../lib/gcc/arm-none-eabi/10.3.1/../../../../arm-none-eabi/lib/thumb/v7e-m+fp/hard/libc_nano.a(lib_a-memchr.o)
                0x0000000008000230                memchr
 .text          0x00000000080002d0      0x378 /opt/gcc-arm-none-eabi-10.3-2021.10/bin/../lib/gcc/arm-none-eabi/10.3.1/thumb/v7e-m+fp/hard/libgcc.a(_arm_addsubdf3.o)
                0x00000000080002d0                __aeabi_drsub
                0x00000000080002d8                __aeabi_dsub
                0x00000000080002d8                __subdf3
                0x00000000080002dc                __adddf3
                0x00000000080002dc                __aeabi_dadd
                0x0000000008000554                __aeabi_ui2d
                0x0000000008000554                __floatunsidf
                0x0000000008000574                __floatsidf
                0x0000000008000574                __aeabi_i2d
                0x0000000008000598                __extendsfdf2
                0x0000000008000598                __aeabi_f2d
                0x00000000080005dc                __aeabi_ul2d
                0x00000000080005dc                __floatundidf
                0x00000000080005ec                __floatdidf
                0x00000000080005ec                __aeabi_l2d
 .text          0x0000000008000648      0x424 /opt/gcc-arm-none-eabi-10.3-2021.10/bin/../lib/gcc/arm-none-eabi/10.3.1/thumb/v7e-m+fp/hard/libgcc.a(_arm_muldivdf3.o)
                0x0000000008000648                __aeabi_dmul
                0x0000000008000648                __muldf3
                0x000000000800089c                __aeabi_ddiv
                0x000000000800089c                __divdf3
 .text          0x0000000008000a6c      0x110 /opt/gcc-arm-none-eabi-10.3-2021.10/bin/../lib/gcc/arm-none-eabi/10.3.1/thumb/v7e-m+fp/hard/libgcc.a(_arm_cmpdf2.o)
                0x0000000008000a6c                __gtdf2
                0x0000000008000a6c                __gedf2
                0x0000000008000a74                __ltdf2
                0x0000000008000a74                __ledf2
                0x0000000008000a7c                __cmpdf2
                0x0000000008000a7c                __eqdf2
                0x0000000008000a7c                __nedf2
                0x0000000008000af8                __aeabi_cdrcmple
                0x0000000008000b08                __aeabi_cdcmple
                0x0000000008000b08                __aeabi_cdcmpeq
                0x0000000008000b18                __aeabi_dcmpeq
                0x0000000008000b2c                __aeabi_dcmplt
                0x0000000008000b40                __aeabi_dcmple
                0x0000000008000b54                __aeabi_dcmpge
                0x0000000008000b68                __aeabi_dcmpgt
 .text          0x0000000008000b7c       0x2c /opt/gcc-arm-none-eabi-10.3-2021.10/bin/../lib/gcc/arm-none-eabi/10.3.1/thumb/v7e-m+fp/hard/libgcc.a(_arm_unorddf2.o)
                0x0000000008000b7c                __aeabi_dcmpun
                0x0000000008000b7c                __unorddf2
 .text          0x0000000008000ba8       0x40 /opt/gcc-arm-none-eabi-10.3-2021.10/bin/../lib/gcc/arm-none-eabi/10.3.1/thumb/v7e-m+fp/hard/libgcc.a(_arm_fixunsdfsi.o)
                0x0000000008000ba8                __fixunsdfsi
                0x0000000008000ba8                __aeabi_d2uiz
 .text          0x0000000008000be8       0xa0 /opt/gcc-arm-none-eabi-10.3-2021.10/bin/../lib/gcc/arm-none-eabi/10.3.1/thumb/v7e-m+fp/hard/libgcc.a(_arm_truncdfsf2.o)
                0x0000000008000be8                __aeabi_d2f
                0x0000000008000be8                __truncdfsf2
 .text          0x0000000008000c88       0x30 /opt/gcc-arm-none-eabi-10.3-2021.10/bin/../lib/gcc/arm-none-eabi/10.3.1/thumb/v7e-m+fp/hard/libgcc.a(_aeabi_uldivmod.o)
                0x0000000008000c88                __aeabi_uldivmod
 .text          0x0000000008000cb8      0x2d0 /opt/gcc-arm-none-eabi-10.3-2021.10/bin/../lib/gcc/arm-none-eabi/10.3.1/thumb/v7e-m+fp/hard/libgcc.a(_udivmoddi4.o)
                0x0000000008000cb8                __udivmoddi4
 .text          0x0000000008000f88        0x4 /opt/gcc-arm-none-eabi-10.3-2021.10/bin/../lib/gcc/arm-none-eabi/10.3.1/thumb/v7e-m+fp/hard/libgcc.a(_dvmd_tls.o)
                0x0000000008000f88                __aeabi_ldiv0
                0x0000000008000f88                __aeabi_idiv0
 *(.text*)
 .text.HAL_I2C_MemTxCpltCallback
                0x0000000008000f8c        0xc build/main.o
                0x0000000008000f8c                HAL_I2C_MemTxCpltCallback
 .text.HAL_I2C_MemRxCpltCallback
                0x0000000008000f98        0xc build/main.o
                0x0000000008000f98                HAL_I2C_MemRxCpltCallback
 .text.HAL_TIM_PeriodElapsedCallback
                0x0000000008000fa4       0x20 build/main.o
                0x0000000008000fa4                HAL_TIM_PeriodElapsedCallback
 .text.HAL_TIM_OC_DelayElapsedCallback
                0x0000000008000fc4       0xa0 build/main.o
                0x0000000008000fc4                HAL_TIM_OC_DelayElapsedCallback
 .text.Error_Handler
                0x0000000008001064       0x28 build/main.o
                0x0000000008001064                Error_Handler
 .text.SystemClock_Config
                0x000000000800108c       0xb0 build/main.o
                0x000000000800108c                SystemClock_Config
 .text.main     0x000000000800113c       0xc4 build/main.o
                0x000000000800113c                main
 .text.HAL_I2C_ErrorCallback
                0x0000000008001200        0xa build/main.o
                0x0000000008001200                HAL_I2C_ErrorCallback
 *fill*         0x000000000800120a        0x2 
 .text.MX_GPIO_Init
                0x000000000800120c       0xac build/gpio.o
                0x000000000800120c                MX_GPIO_Init
 .text.MX_I2C1_Init
                0x00000000080012b8       0x5c build/i2c.o
                0x00000000080012b8                MX_I2C1_Init
 .text.HAL_I2C_MspInit
                0x0000000008001314      0x130 build/i2c.o
                0x0000000008001314                HAL_I2C_MspInit
 .text.MX_RNG_Init
                0x0000000008001444       0x20 build/rng.o
                0x0000000008001444                MX_RNG_Init
 .text.HAL_RNG_MspInit
                0x0000000008001464       0x50 build/rng.o
                0x0000000008001464                HAL_RNG_MspInit
 .text.MX_SPI1_Init
                0x00000000080014b4       0x4c build/spi.o
                0x00000000080014b4                MX_SPI1_Init
 .text.MX_SPI2_Init
                0x0000000008001500       0x4c build/spi.o
                0x0000000008001500                MX_SPI2_Init
 .text.MX_SPI4_Init
                0x000000000800154c       0x4c build/spi.o
                0x000000000800154c                MX_SPI4_Init
 .text.HAL_SPI_MspInit
                0x0000000008001598      0x134 build/spi.o
                0x0000000008001598                HAL_SPI_MspInit
 .text.NMI_Handler
                0x00000000080016cc        0x2 build/stm32f7xx_it.o
                0x00000000080016cc                NMI_Handler
 *fill*         0x00000000080016ce        0x2 
 .text.HardFault_Handler
                0x00000000080016d0       0x3c build/stm32f7xx_it.o
                0x00000000080016d0                HardFault_Handler
 .text.MemManage_Handler
                0x000000000800170c        0x2 build/stm32f7xx_it.o
                0x000000000800170c                MemManage_Handler
 .text.BusFault_Handler
                0x000000000800170e        0x2 build/stm32f7xx_it.o
                0x000000000800170e                BusFault_Handler
 .text.UsageFault_Handler
                0x0000000008001710        0x2 build/stm32f7xx_it.o
                0x0000000008001710                UsageFault_Handler
 .text.SVC_Handler
                0x0000000008001712        0x2 build/stm32f7xx_it.o
                0x0000000008001712                SVC_Handler
 .text.DebugMon_Handler
                0x0000000008001714        0x2 build/stm32f7xx_it.o
                0x0000000008001714                DebugMon_Handler
 .text.PendSV_Handler
                0x0000000008001716        0x2 build/stm32f7xx_it.o
                0x0000000008001716                PendSV_Handler
 .text.SysTick_Handler
                0x0000000008001718        0x8 build/stm32f7xx_it.o
                0x0000000008001718                SysTick_Handler
 .text.DMA1_Stream0_IRQHandler
                0x0000000008001720       0x10 build/stm32f7xx_it.o
                0x0000000008001720                DMA1_Stream0_IRQHandler
 .text.DMA1_Stream6_IRQHandler
                0x0000000008001730       0x10 build/stm32f7xx_it.o
                0x0000000008001730                DMA1_Stream6_IRQHandler
 .text.TIM1_UP_TIM10_IRQHandler
                0x0000000008001740       0x10 build/stm32f7xx_it.o
                0x0000000008001740                TIM1_UP_TIM10_IRQHandler
 .text.TIM1_CC_IRQHandler
                0x0000000008001750       0x10 build/stm32f7xx_it.o
                0x0000000008001750                TIM1_CC_IRQHandler
 .text.I2C1_EV_IRQHandler
                0x0000000008001760       0x10 build/stm32f7xx_it.o
                0x0000000008001760                I2C1_EV_IRQHandler
 .text.I2C1_ER_IRQHandler
                0x0000000008001770       0x10 build/stm32f7xx_it.o
                0x0000000008001770                I2C1_ER_IRQHandler
 .text.TIM8_CC_IRQHandler
                0x0000000008001780       0x10 build/stm32f7xx_it.o
                0x0000000008001780                TIM8_CC_IRQHandler
 .text.TIM6_DAC_IRQHandler
                0x0000000008001790       0x2c build/stm32f7xx_it.o
                0x0000000008001790                TIM6_DAC_IRQHandler
 .text.TIM7_IRQHandler
                0x00000000080017bc       0x10 build/stm32f7xx_it.o
                0x00000000080017bc                TIM7_IRQHandler
 .text.OTG_HS_IRQHandler
                0x00000000080017cc       0x10 build/stm32f7xx_it.o
                0x00000000080017cc                OTG_HS_IRQHandler
 .text.HAL_MspInit
                0x00000000080017dc       0x30 build/stm32f7xx_hal_msp.o
                0x00000000080017dc                HAL_MspInit
 .text.HAL_RCC_OscConfig
                0x000000000800180c      0x434 build/stm32f7xx_hal_rcc.o
                0x000000000800180c                HAL_RCC_OscConfig
 .text.HAL_RCC_GetSysClockFreq
                0x0000000008001c40       0xa8 build/stm32f7xx_hal_rcc.o
                0x0000000008001c40                HAL_RCC_GetSysClockFreq
 .text.HAL_RCC_ClockConfig
                0x0000000008001ce8      0x16c build/stm32f7xx_hal_rcc.o
                0x0000000008001ce8                HAL_RCC_ClockConfig
 .text.HAL_RCC_GetHCLKFreq
                0x0000000008001e54        0xc build/stm32f7xx_hal_rcc.o
                0x0000000008001e54                HAL_RCC_GetHCLKFreq
 .text.HAL_RCCEx_PeriphCLKConfig
                0x0000000008001e60      0x4e4 build/stm32f7xx_hal_rcc_ex.o
                0x0000000008001e60                HAL_RCCEx_PeriphCLKConfig
 .text.HAL_GPIO_Init
                0x0000000008002344      0x1e8 build/stm32f7xx_hal_gpio.o
                0x0000000008002344                HAL_GPIO_Init
 .text.HAL_GPIO_WritePin
                0x000000000800252c        0xc build/stm32f7xx_hal_gpio.o
                0x000000000800252c                HAL_GPIO_WritePin
 .text.DMA_SetConfig
                0x0000000008002538       0x2c build/stm32f7xx_hal_dma.o
 .text.DMA_CalcBaseAndBitshift
                0x0000000008002564       0x40 build/stm32f7xx_hal_dma.o
 .text.DMA_CheckFifoParam
                0x00000000080025a4       0x8e build/stm32f7xx_hal_dma.o
 *fill*         0x0000000008002632        0x2 
 .text.HAL_DMA_Init
                0x0000000008002634       0xcc build/stm32f7xx_hal_dma.o
                0x0000000008002634                HAL_DMA_Init
 .text.HAL_DMA_Start_IT
                0x0000000008002700       0x74 build/stm32f7xx_hal_dma.o
                0x0000000008002700                HAL_DMA_Start_IT
 .text.HAL_DMA_Abort_IT
                0x0000000008002774       0x26 build/stm32f7xx_hal_dma.o
                0x0000000008002774                HAL_DMA_Abort_IT
 *fill*         0x000000000800279a        0x2 
 .text.HAL_DMA_IRQHandler
                0x000000000800279c      0x1dc build/stm32f7xx_hal_dma.o
                0x000000000800279c                HAL_DMA_IRQHandler
 .text.HAL_DMA_GetState
                0x0000000008002978        0x6 build/stm32f7xx_hal_dma.o
                0x0000000008002978                HAL_DMA_GetState
 .text.HAL_DMA_GetError
                0x000000000800297e        0x4 build/stm32f7xx_hal_dma.o
                0x000000000800297e                HAL_DMA_GetError
 *fill*         0x0000000008002982        0x2 
 .text.HAL_PWREx_EnableOverDrive
                0x0000000008002984       0x7c build/stm32f7xx_hal_pwr_ex.o
                0x0000000008002984                HAL_PWREx_EnableOverDrive
 .text.__NVIC_SetPriority
                0x0000000008002a00       0x24 build/stm32f7xx_hal_cortex.o
 .text.NVIC_EncodePriority
                0x0000000008002a24       0x3e build/stm32f7xx_hal_cortex.o
 *fill*         0x0000000008002a62        0x2 
 .text.HAL_NVIC_SetPriorityGrouping
                0x0000000008002a64       0x24 build/stm32f7xx_hal_cortex.o
                0x0000000008002a64                HAL_NVIC_SetPriorityGrouping
 .text.HAL_NVIC_SetPriority
                0x0000000008002a88       0x20 build/stm32f7xx_hal_cortex.o
                0x0000000008002a88                HAL_NVIC_SetPriority
 .text.HAL_NVIC_EnableIRQ
                0x0000000008002aa8       0x1c build/stm32f7xx_hal_cortex.o
                0x0000000008002aa8                HAL_NVIC_EnableIRQ
 .text.HAL_SYSTICK_Config
                0x0000000008002ac4       0x28 build/stm32f7xx_hal_cortex.o
                0x0000000008002ac4                HAL_SYSTICK_Config
 .text.HAL_InitTick
                0x0000000008002aec       0x4c build/stm32f7xx_hal.o
                0x0000000008002aec                HAL_InitTick
 .text.HAL_Init
                0x0000000008002b38       0x24 build/stm32f7xx_hal.o
                0x0000000008002b38                HAL_Init
 .text.HAL_IncTick
                0x0000000008002b5c       0x18 build/stm32f7xx_hal.o
                0x0000000008002b5c                HAL_IncTick
 .text.HAL_GetTick
                0x0000000008002b74        0xc build/stm32f7xx_hal.o
                0x0000000008002b74                HAL_GetTick
 .text.HAL_Delay
                0x0000000008002b80       0x28 build/stm32f7xx_hal.o
                0x0000000008002b80                HAL_Delay
 .text.I2C_Flush_TXDR
                0x0000000008002ba8       0x22 build/stm32f7xx_hal_i2c.o
 .text.I2C_TransferConfig
                0x0000000008002bca       0x3c build/stm32f7xx_hal_i2c.o
 *fill*         0x0000000008002c06        0x2 
 .text.I2C_Enable_IRQ
                0x0000000008002c08       0x7c build/stm32f7xx_hal_i2c.o
 .text.I2C_Disable_IRQ
                0x0000000008002c84       0x70 build/stm32f7xx_hal_i2c.o
 .text.HAL_I2C_Init
                0x0000000008002cf4       0xbc build/stm32f7xx_hal_i2c.o
                0x0000000008002cf4                HAL_I2C_Init
 .text.HAL_I2C_Mem_Read_DMA
                0x0000000008002db0      0x134 build/stm32f7xx_hal_i2c.o
                0x0000000008002db0                HAL_I2C_Mem_Read_DMA
 .text.HAL_I2C_EV_IRQHandler
                0x0000000008002ee4       0x10 build/stm32f7xx_hal_i2c.o
                0x0000000008002ee4                HAL_I2C_EV_IRQHandler
 .text.HAL_I2C_MasterTxCpltCallback
                0x0000000008002ef4        0x2 build/stm32f7xx_hal_i2c.o
                0x0000000008002ef4                HAL_I2C_MasterTxCpltCallback
 .text.HAL_I2C_MasterRxCpltCallback
                0x0000000008002ef6        0x2 build/stm32f7xx_hal_i2c.o
                0x0000000008002ef6                HAL_I2C_MasterRxCpltCallback
 .text.I2C_ITMasterSeqCplt
                0x0000000008002ef8       0x54 build/stm32f7xx_hal_i2c.o
 .text.HAL_I2C_SlaveTxCpltCallback
                0x0000000008002f4c        0x2 build/stm32f7xx_hal_i2c.o
                0x0000000008002f4c                HAL_I2C_SlaveTxCpltCallback
 .text.HAL_I2C_SlaveRxCpltCallback
                0x0000000008002f4e        0x2 build/stm32f7xx_hal_i2c.o
                0x0000000008002f4e                HAL_I2C_SlaveRxCpltCallback
 .text.I2C_ITSlaveSeqCplt
                0x0000000008002f50       0x82 build/stm32f7xx_hal_i2c.o
 .text.HAL_I2C_AddrCallback
                0x0000000008002fd2        0x2 build/stm32f7xx_hal_i2c.o
                0x0000000008002fd2                HAL_I2C_AddrCallback
 .text.I2C_ITAddrCplt
                0x0000000008002fd4       0xa0 build/stm32f7xx_hal_i2c.o
 .text.HAL_I2C_ListenCpltCallback
                0x0000000008003074        0x2 build/stm32f7xx_hal_i2c.o
                0x0000000008003074                HAL_I2C_ListenCpltCallback
 *fill*         0x0000000008003076        0x2 
 .text.I2C_ITListenCplt
                0x0000000008003078       0x68 build/stm32f7xx_hal_i2c.o
 .text.HAL_I2C_AbortCpltCallback
                0x00000000080030e0        0x2 build/stm32f7xx_hal_i2c.o
                0x00000000080030e0                HAL_I2C_AbortCpltCallback
 .text.I2C_TreatErrorCallback
                0x00000000080030e2       0x2e build/stm32f7xx_hal_i2c.o
 .text.I2C_ITError
                0x0000000008003110      0x108 build/stm32f7xx_hal_i2c.o
 .text.I2C_ITSlaveCplt
                0x0000000008003218      0x168 build/stm32f7xx_hal_i2c.o
 .text.I2C_Slave_ISR_IT
                0x0000000008003380      0x150 build/stm32f7xx_hal_i2c.o
 .text.I2C_ITMasterCplt
                0x00000000080034d0      0x12e build/stm32f7xx_hal_i2c.o
 .text.I2C_Slave_ISR_DMA
                0x00000000080035fe      0x122 build/stm32f7xx_hal_i2c.o
 .text.I2C_Master_ISR_DMA
                0x0000000008003720      0x142 build/stm32f7xx_hal_i2c.o
 .text.I2C_DMAError
                0x0000000008003862       0x44 build/stm32f7xx_hal_i2c.o
 .text.I2C_DMAMasterReceiveCplt
                0x00000000080038a6       0x5a build/stm32f7xx_hal_i2c.o
 .text.I2C_Mem_ISR_DMA
                0x0000000008003900      0x194 build/stm32f7xx_hal_i2c.o
 .text.HAL_I2C_ER_IRQHandler
                0x0000000008003a94       0x6a build/stm32f7xx_hal_i2c.o
                0x0000000008003a94                HAL_I2C_ER_IRQHandler
 .text.I2C_DMAAbort
                0x0000000008003afe       0x1a build/stm32f7xx_hal_i2c.o
 .text.HAL_I2C_GetError
                0x0000000008003b18        0x4 build/stm32f7xx_hal_i2c.o
                0x0000000008003b18                HAL_I2C_GetError
 .text.HAL_I2CEx_ConfigAnalogFilter
                0x0000000008003b1c       0x5c build/stm32f7xx_hal_i2c_ex.o
                0x0000000008003b1c                HAL_I2CEx_ConfigAnalogFilter
 .text.HAL_I2CEx_ConfigDigitalFilter
                0x0000000008003b78       0x58 build/stm32f7xx_hal_i2c_ex.o
                0x0000000008003b78                HAL_I2CEx_ConfigDigitalFilter
 .text.HAL_RNG_Init
                0x0000000008003bd0       0x2e build/stm32f7xx_hal_rng.o
                0x0000000008003bd0                HAL_RNG_Init
 .text.HAL_SPI_Init
                0x0000000008003bfe       0xe8 build/stm32f7xx_hal_spi.o
                0x0000000008003bfe                HAL_SPI_Init
 *fill*         0x0000000008003ce6        0x2 
 .text.TIM_OC1_SetConfig
                0x0000000008003ce8       0x68 build/stm32f7xx_hal_tim.o
 .text.TIM_OC3_SetConfig
                0x0000000008003d50       0x70 build/stm32f7xx_hal_tim.o
 .text.TIM_OC4_SetConfig
                0x0000000008003dc0       0x54 build/stm32f7xx_hal_tim.o
 .text.TIM_OC5_SetConfig
                0x0000000008003e14       0x54 build/stm32f7xx_hal_tim.o
 .text.TIM_OC6_SetConfig
                0x0000000008003e68       0x54 build/stm32f7xx_hal_tim.o
 .text.TIM_TI1_ConfigInputStage
                0x0000000008003ebc       0x26 build/stm32f7xx_hal_tim.o
 .text.TIM_TI2_ConfigInputStage
                0x0000000008003ee2       0x28 build/stm32f7xx_hal_tim.o
 .text.TIM_ITRx_SetConfig
                0x0000000008003f0a       0x10 build/stm32f7xx_hal_tim.o
 *fill*         0x0000000008003f1a        0x2 
 .text.HAL_TIM_Base_Start_IT
                0x0000000008003f1c       0x90 build/stm32f7xx_hal_tim.o
                0x0000000008003f1c                HAL_TIM_Base_Start_IT
 .text.HAL_TIM_IC_CaptureCallback
                0x0000000008003fac        0x2 build/stm32f7xx_hal_tim.o
                0x0000000008003fac                HAL_TIM_IC_CaptureCallback
 .text.HAL_TIM_PWM_PulseFinishedCallback
                0x0000000008003fae        0x2 build/stm32f7xx_hal_tim.o
                0x0000000008003fae                HAL_TIM_PWM_PulseFinishedCallback
 .text.HAL_TIM_TriggerCallback
                0x0000000008003fb0        0x2 build/stm32f7xx_hal_tim.o
                0x0000000008003fb0                HAL_TIM_TriggerCallback
 .text.HAL_TIM_IRQHandler
                0x0000000008003fb2      0x19a build/stm32f7xx_hal_tim.o
                0x0000000008003fb2                HAL_TIM_IRQHandler
 .text.TIM_Base_SetConfig
                0x000000000800414c      0x110 build/stm32f7xx_hal_tim.o
                0x000000000800414c                TIM_Base_SetConfig
 .text.HAL_TIM_Base_Init
                0x000000000800425c       0x60 build/stm32f7xx_hal_tim.o
                0x000000000800425c                HAL_TIM_Base_Init
 .text.HAL_TIM_OC_Init
                0x00000000080042bc       0x60 build/stm32f7xx_hal_tim.o
                0x00000000080042bc                HAL_TIM_OC_Init
 .text.TIM_OC2_SetConfig
                0x000000000800431c       0x70 build/stm32f7xx_hal_tim.o
                0x000000000800431c                TIM_OC2_SetConfig
 .text.HAL_TIM_OC_ConfigChannel
                0x000000000800438c       0x7a build/stm32f7xx_hal_tim.o
                0x000000000800438c                HAL_TIM_OC_ConfigChannel
 .text.TIM_ETR_SetConfig
                0x0000000008004406       0x1a build/stm32f7xx_hal_tim.o
                0x0000000008004406                TIM_ETR_SetConfig
 .text.HAL_TIM_ConfigClockSource
                0x0000000008004420      0x100 build/stm32f7xx_hal_tim.o
                0x0000000008004420                HAL_TIM_ConfigClockSource
 .text.TIM_CCxChannelCmd
                0x0000000008004520       0x1e build/stm32f7xx_hal_tim.o
                0x0000000008004520                TIM_CCxChannelCmd
 *fill*         0x000000000800453e        0x2 
 .text.HAL_TIM_OC_Start_IT
                0x0000000008004540      0x1c4 build/stm32f7xx_hal_tim.o
                0x0000000008004540                HAL_TIM_OC_Start_IT
 .text.HAL_TIMEx_MasterConfigSynchronization
                0x0000000008004704       0xa0 build/stm32f7xx_hal_tim_ex.o
                0x0000000008004704                HAL_TIMEx_MasterConfigSynchronization
 .text.HAL_TIMEx_ConfigBreakDeadTime
                0x00000000080047a4       0x90 build/stm32f7xx_hal_tim_ex.o
                0x00000000080047a4                HAL_TIMEx_ConfigBreakDeadTime
 .text.HAL_TIMEx_CommutCallback
                0x0000000008004834        0x2 build/stm32f7xx_hal_tim_ex.o
                0x0000000008004834                HAL_TIMEx_CommutCallback
 .text.HAL_TIMEx_BreakCallback
                0x0000000008004836        0x2 build/stm32f7xx_hal_tim_ex.o
                0x0000000008004836                HAL_TIMEx_BreakCallback
 .text.HAL_TIMEx_Break2Callback
                0x0000000008004838        0x2 build/stm32f7xx_hal_tim_ex.o
                0x0000000008004838                HAL_TIMEx_Break2Callback
 *fill*         0x000000000800483a        0x2 
 .text.SystemInit
                0x000000000800483c       0x14 build/system_stm32f7xx.o
                0x000000000800483c                SystemInit
 .text.PCD_WriteEmptyTxFifo
                0x0000000008004850       0xd0 build/stm32f7xx_hal_pcd.o
 .text.HAL_PCD_Init
                0x0000000008004920      0x13c build/stm32f7xx_hal_pcd.o
                0x0000000008004920                HAL_PCD_Init
 .text.HAL_PCD_Start
                0x0000000008004a5c       0x2a build/stm32f7xx_hal_pcd.o
                0x0000000008004a5c                HAL_PCD_Start
 *fill*         0x0000000008004a86        0x2 
 .text.PCD_EP_OutXfrComplete_int
                0x0000000008004a88      0x104 build/stm32f7xx_hal_pcd.o
 .text.PCD_EP_OutSetupPacket_int
                0x0000000008004b8c       0x50 build/stm32f7xx_hal_pcd.o
 .text.HAL_PCD_SetAddress
                0x0000000008004bdc       0x28 build/stm32f7xx_hal_pcd.o
                0x0000000008004bdc                HAL_PCD_SetAddress
 .text.HAL_PCD_EP_Open
                0x0000000008004c04       0x8a build/stm32f7xx_hal_pcd.o
                0x0000000008004c04                HAL_PCD_EP_Open
 .text.HAL_PCD_EP_Close
                0x0000000008004c8e       0x72 build/stm32f7xx_hal_pcd.o
                0x0000000008004c8e                HAL_PCD_EP_Close
 .text.HAL_PCD_EP_Receive
                0x0000000008004d00       0x5e build/stm32f7xx_hal_pcd.o
                0x0000000008004d00                HAL_PCD_EP_Receive
 .text.HAL_PCD_EP_GetRxCount
                0x0000000008004d5e       0x12 build/stm32f7xx_hal_pcd.o
                0x0000000008004d5e                HAL_PCD_EP_GetRxCount
 .text.HAL_PCD_EP_Transmit
                0x0000000008004d70       0x5e build/stm32f7xx_hal_pcd.o
                0x0000000008004d70                HAL_PCD_EP_Transmit
 .text.HAL_PCD_EP_SetStall
                0x0000000008004dce       0x88 build/stm32f7xx_hal_pcd.o
                0x0000000008004dce                HAL_PCD_EP_SetStall
 .text.HAL_PCD_EP_ClrStall
                0x0000000008004e56       0x76 build/stm32f7xx_hal_pcd.o
                0x0000000008004e56                HAL_PCD_EP_ClrStall
 .text.HAL_PCD_EP_Abort
                0x0000000008004ecc       0x34 build/stm32f7xx_hal_pcd.o
                0x0000000008004ecc                HAL_PCD_EP_Abort
 .text.HAL_PCD_IRQHandler
                0x0000000008004f00      0x606 build/stm32f7xx_hal_pcd.o
                0x0000000008004f00                HAL_PCD_IRQHandler
 .text.HAL_PCDEx_SetTxFiFo
                0x0000000008005506       0x4c build/stm32f7xx_hal_pcd_ex.o
                0x0000000008005506                HAL_PCDEx_SetTxFiFo
 .text.HAL_PCDEx_SetRxFiFo
                0x0000000008005552        0x8 build/stm32f7xx_hal_pcd_ex.o
                0x0000000008005552                HAL_PCDEx_SetRxFiFo
 *fill*         0x000000000800555a        0x2 
 .text.HAL_PCDEx_ActivateLPM
                0x000000000800555c       0x28 build/stm32f7xx_hal_pcd_ex.o
                0x000000000800555c                HAL_PCDEx_ActivateLPM
 .text.HAL_PCDEx_LPM_Callback
                0x0000000008005584        0x2 build/stm32f7xx_hal_pcd_ex.o
                0x0000000008005584                HAL_PCDEx_LPM_Callback
 *fill*         0x0000000008005586        0x2 
 .text.USB_CoreReset
                0x0000000008005588       0x50 build/stm32f7xx_ll_usb.o
 .text.USB_HS_PHYCInit
                0x00000000080055d8       0x5c build/stm32f7xx_ll_usb.o
 .text.USB_CoreInit
                0x0000000008005634       0xd4 build/stm32f7xx_ll_usb.o
                0x0000000008005634                USB_CoreInit
 .text.USB_SetTurnaroundTime
                0x0000000008005708       0xe4 build/stm32f7xx_ll_usb.o
                0x0000000008005708                USB_SetTurnaroundTime
 .text.USB_EnableGlobalInt
                0x00000000080057ec        0xc build/stm32f7xx_ll_usb.o
                0x00000000080057ec                USB_EnableGlobalInt
 .text.USB_DisableGlobalInt
                0x00000000080057f8        0xc build/stm32f7xx_ll_usb.o
                0x00000000080057f8                USB_DisableGlobalInt
 .text.USB_FlushTxFifo
                0x0000000008005804       0x50 build/stm32f7xx_ll_usb.o
                0x0000000008005804                USB_FlushTxFifo
 .text.USB_FlushRxFifo
                0x0000000008005854       0x4c build/stm32f7xx_ll_usb.o
                0x0000000008005854                USB_FlushRxFifo
 .text.USB_SetDevSpeed
                0x00000000080058a0        0xe build/stm32f7xx_ll_usb.o
                0x00000000080058a0                USB_SetDevSpeed
 *fill*         0x00000000080058ae        0x2 
 .text.USB_DevInit
                0x00000000080058b0      0x1a4 build/stm32f7xx_ll_usb.o
                0x00000000080058b0                USB_DevInit
 .text.USB_GetDevSpeed
                0x0000000008005a54       0x1e build/stm32f7xx_ll_usb.o
                0x0000000008005a54                USB_GetDevSpeed
 *fill*         0x0000000008005a72        0x2 
 .text.USB_ActivateEndpoint
                0x0000000008005a74       0x98 build/stm32f7xx_ll_usb.o
                0x0000000008005a74                USB_ActivateEndpoint
 .text.USB_DeactivateEndpoint
                0x0000000008005b0c       0xe0 build/stm32f7xx_ll_usb.o
                0x0000000008005b0c                USB_DeactivateEndpoint
 .text.USB_EP0StartXfer
                0x0000000008005bec      0x120 build/stm32f7xx_ll_usb.o
                0x0000000008005bec                USB_EP0StartXfer
 .text.USB_EPStopXfer
                0x0000000008005d0c       0xbe build/stm32f7xx_ll_usb.o
                0x0000000008005d0c                USB_EPStopXfer
 .text.USB_WritePacket
                0x0000000008005dca       0x2e build/stm32f7xx_ll_usb.o
                0x0000000008005dca                USB_WritePacket
 .text.USB_EPStartXfer
                0x0000000008005df8      0x230 build/stm32f7xx_ll_usb.o
                0x0000000008005df8                USB_EPStartXfer
 .text.USB_ReadPacket
                0x0000000008006028       0x46 build/stm32f7xx_ll_usb.o
                0x0000000008006028                USB_ReadPacket
 .text.USB_EPSetStall
                0x000000000800606e       0x5a build/stm32f7xx_ll_usb.o
                0x000000000800606e                USB_EPSetStall
 .text.USB_EPClearStall
                0x00000000080060c8       0x5c build/stm32f7xx_ll_usb.o
                0x00000000080060c8                USB_EPClearStall
 .text.USB_SetDevAddress
                0x0000000008006124       0x20 build/stm32f7xx_ll_usb.o
                0x0000000008006124                USB_SetDevAddress
 .text.USB_DevConnect
                0x0000000008006144       0x1c build/stm32f7xx_ll_usb.o
                0x0000000008006144                USB_DevConnect
 .text.USB_DevDisconnect
                0x0000000008006160       0x1c build/stm32f7xx_ll_usb.o
                0x0000000008006160                USB_DevDisconnect
 .text.USB_ReadInterrupts
                0x000000000800617c        0x8 build/stm32f7xx_ll_usb.o
                0x000000000800617c                USB_ReadInterrupts
 .text.USB_ReadDevAllOutEpInterrupt
                0x0000000008006184       0x10 build/stm32f7xx_ll_usb.o
                0x0000000008006184                USB_ReadDevAllOutEpInterrupt
 .text.USB_ReadDevAllInEpInterrupt
                0x0000000008006194       0x10 build/stm32f7xx_ll_usb.o
                0x0000000008006194                USB_ReadDevAllInEpInterrupt
 .text.USB_ReadDevOutEPInterrupt
                0x00000000080061a4       0x12 build/stm32f7xx_ll_usb.o
                0x00000000080061a4                USB_ReadDevOutEPInterrupt
 .text.USB_ReadDevInEPInterrupt
                0x00000000080061b6       0x24 build/stm32f7xx_ll_usb.o
                0x00000000080061b6                USB_ReadDevInEPInterrupt
 .text.USB_GetMode
                0x00000000080061da        0x8 build/stm32f7xx_ll_usb.o
                0x00000000080061da                USB_GetMode
 .text.USB_SetCurrentMode
                0x00000000080061e2       0x62 build/stm32f7xx_ll_usb.o
                0x00000000080061e2                USB_SetCurrentMode
 .text.USB_ActivateSetup
                0x0000000008006244       0x20 build/stm32f7xx_ll_usb.o
                0x0000000008006244                USB_ActivateSetup
 .text.USB_EP0_OutStart
                0x0000000008006264       0x60 build/stm32f7xx_ll_usb.o
                0x0000000008006264                USB_EP0_OutStart
 *fill*         0x00000000080062c4        0x4 
 .text.getSystemStatusOCRValue
                0x00000000080062c8       0x60 build/nyan_leds.o
                0x00000000080062c8                getSystemStatusOCRValue
 .text.NyanOsInit
                0x0000000008006328       0x40 build/nyan_os.o
                0x0000000008006328                NyanOsInit
 .text.NyanPrint
                0x0000000008006368       0x7a build/nyan_os.o
                0x0000000008006368                NyanPrint
 *fill*         0x00000000080063e2        0x2 
 .text.NyanWelcomeDisplay
                0x00000000080063e4       0x34 build/nyan_os.o
                0x00000000080063e4                NyanWelcomeDisplay
 .text.FreeNyanString
                0x0000000008006418       0x24 build/nyan_os.o
                0x0000000008006418                FreeNyanString
 .text.NyanDecode
                0x000000000800643c       0x40 build/nyan_os.o
                0x000000000800643c                NyanDecode
 .text.NyanAddInputBuffer
                0x000000000800647c       0xc0 build/nyan_os.o
                0x000000000800647c                NyanAddInputBuffer
 .text.NyanExeGetinfo
                0x000000000800653c       0x10 build/nyan_os.o
                0x000000000800653c                NyanExeGetinfo
 .text.NyanExecute
                0x000000000800654c       0x7c build/nyan_os.o
                0x000000000800654c                NyanExecute
 .text.EepromInit
                0x00000000080065c8       0x2c build/24xx_eeprom.o
                0x00000000080065c8                EepromInit
 .text.EepromCreateControlByte
                0x00000000080065f4       0x26 build/24xx_eeprom.o
                0x00000000080065f4                EepromCreateControlByte
 *fill*         0x000000000800661a        0x2 
 .text.EepromRead
                0x000000000800661c       0x44 build/24xx_eeprom.o
                0x000000000800661c                EepromRead
 .text.MX_TIM1_Init
                0x0000000008006660       0xc8 build/tim.o
                0x0000000008006660                MX_TIM1_Init
 .text.MX_TIM6_Init
                0x0000000008006728       0x50 build/tim.o
                0x0000000008006728                MX_TIM6_Init
 .text.MX_TIM7_Init
                0x0000000008006778       0x54 build/tim.o
                0x0000000008006778                MX_TIM7_Init
 .text.MX_TIM8_Init
                0x00000000080067cc       0xf8 build/tim.o
                0x00000000080067cc                MX_TIM8_Init
 .text.HAL_TIM_OC_MspInit
                0x00000000080068c4       0x50 build/tim.o
                0x00000000080068c4                HAL_TIM_OC_MspInit
 .text.HAL_TIM_Base_MspInit
                0x0000000008006914       0xa0 build/tim.o
                0x0000000008006914                HAL_TIM_Base_MspInit
 .text.MX_USB_OTG_HS_PCD_Init
                0x00000000080069b4       0x38 build/usb_otg.o
                0x00000000080069b4                MX_USB_OTG_HS_PCD_Init
 .text.HAL_PCD_MspInit
                0x00000000080069ec       0xc4 build/usb_otg.o
                0x00000000080069ec                HAL_PCD_MspInit
 .text.USBD_COMPOSITE_Init
                0x0000000008006ab0       0x24 build/usbd_composite.o
 .text.USBD_COMPOSITE_DeInit
                0x0000000008006ad4       0x24 build/usbd_composite.o
 .text.USBD_COMPOSITE_Setup
                0x0000000008006af8       0x54 build/usbd_composite.o
 .text.USBD_COMPOSITE_DataIn
                0x0000000008006b4c       0x58 build/usbd_composite.o
 .text.USBD_COMPOSITE_EP0_RxReady
                0x0000000008006ba4       0x10 build/usbd_composite.o
 .text.USBD_COMPOSITE_EP0_TxReady
                0x0000000008006bb4        0x4 build/usbd_composite.o
 .text.USBD_COMPOSITE_SOF
                0x0000000008006bb8        0x4 build/usbd_composite.o
 .text.USBD_COMPOSITE_IsoINIncomplete
                0x0000000008006bbc        0x4 build/usbd_composite.o
 .text.USBD_COMPOSITE_IsoOutIncomplete
                0x0000000008006bc0        0x4 build/usbd_composite.o
 .text.USBD_COMPOSITE_DataOut
                0x0000000008006bc4       0x28 build/usbd_composite.o
 .text.USBD_COMPOSITE_GetHSCfgDesc
                0x0000000008006bec        0xc build/usbd_composite.o
 .text.USBD_COMPOSITE_GetFSCfgDesc
                0x0000000008006bf8        0xc build/usbd_composite.o
 .text.USBD_COMPOSITE_GetOtherSpeedCfgDesc
                0x0000000008006c04        0xc build/usbd_composite.o
 .text.USBD_COMPOSITE_GetDeviceQualifierDesc
                0x0000000008006c10        0xc build/usbd_composite.o
 .text.USBD_COMPOSITE_GetUsrStringDesc
                0x0000000008006c1c       0x7c build/usbd_composite.o
 .text.USBD_COMPOSITE_Mount_Class
                0x0000000008006c98      0x150 build/usbd_composite.o
                0x0000000008006c98                USBD_COMPOSITE_Mount_Class
 .text.USBD_HID_GetFSCfgDesc
                0x0000000008006de8        0xc build/usbd_hid_keyboard.o
 .text.USBD_HID_GetHSCfgDesc
                0x0000000008006df4        0xc build/usbd_hid_keyboard.o
 .text.USBD_HID_GetOtherSpeedCfgDesc
                0x0000000008006e00        0xc build/usbd_hid_keyboard.o
 .text.USBD_HID_DataIn
                0x0000000008006e0c        0xa build/usbd_hid_keyboard.o
 *fill*         0x0000000008006e16        0x2 
 .text.USBD_HID_GetDeviceQualifierDesc
                0x0000000008006e18        0xc build/usbd_hid_keyboard.o
 .text.USBD_HID_Setup
                0x0000000008006e24      0x124 build/usbd_hid_keyboard.o
 .text.USBD_HID_DeInit
                0x0000000008006f48       0x34 build/usbd_hid_keyboard.o
 .text.USBD_HID_Init
                0x0000000008006f7c       0x68 build/usbd_hid_keyboard.o
 .text.USBD_Update_HID_KBD_DESC
                0x0000000008006fe4       0x20 build/usbd_hid_keyboard.o
                0x0000000008006fe4                USBD_Update_HID_KBD_DESC
 .text.USBD_Init
                0x0000000008007004       0x2a build/usbd_core.o
                0x0000000008007004                USBD_Init
 .text.USBD_RegisterClass
                0x000000000800702e       0x44 build/usbd_core.o
                0x000000000800702e                USBD_RegisterClass
 .text.USBD_Start
                0x0000000008007072        0x8 build/usbd_core.o
                0x0000000008007072                USBD_Start
 .text.USBD_SetClassConfig
                0x000000000800707a       0x12 build/usbd_core.o
                0x000000000800707a                USBD_SetClassConfig
 .text.USBD_ClrClassConfig
                0x000000000800708c       0x10 build/usbd_core.o
                0x000000000800708c                USBD_ClrClassConfig
 .text.USBD_LL_SetupStage
                0x000000000800709c       0x58 build/usbd_core.o
                0x000000000800709c                USBD_LL_SetupStage
 .text.USBD_LL_DataOutStage
                0x00000000080070f4       0x78 build/usbd_core.o
                0x00000000080070f4                USBD_LL_DataOutStage
 .text.USBD_LL_DataInStage
                0x000000000800716c       0xbe build/usbd_core.o
                0x000000000800716c                USBD_LL_DataInStage
 .text.USBD_LL_Reset
                0x000000000800722a       0x54 build/usbd_core.o
                0x000000000800722a                USBD_LL_Reset
 .text.USBD_LL_SetSpeed
                0x000000000800727e        0x6 build/usbd_core.o
                0x000000000800727e                USBD_LL_SetSpeed
 .text.USBD_LL_Suspend
                0x0000000008007284       0x14 build/usbd_core.o
                0x0000000008007284                USBD_LL_Suspend
 .text.USBD_LL_Resume
                0x0000000008007298       0x1a build/usbd_core.o
                0x0000000008007298                USBD_LL_Resume
 .text.USBD_LL_SOF
                0x00000000080072b2       0x28 build/usbd_core.o
                0x00000000080072b2                USBD_LL_SOF
 .text.USBD_LL_IsoINIncomplete
                0x00000000080072da       0x28 build/usbd_core.o
                0x00000000080072da                USBD_LL_IsoINIncomplete
 .text.USBD_LL_IsoOUTIncomplete
                0x0000000008007302       0x28 build/usbd_core.o
                0x0000000008007302                USBD_LL_IsoOUTIncomplete
 .text.USBD_LL_DevConnected
                0x000000000800732a        0x4 build/usbd_core.o
                0x000000000800732a                USBD_LL_DevConnected
 .text.USBD_LL_DevDisconnected
                0x000000000800732e       0x18 build/usbd_core.o
                0x000000000800732e                USBD_LL_DevDisconnected
 .text.USBD_GetLen
                0x0000000008007346       0x14 build/usbd_ctlreq.o
 .text.USBD_SetFeature
                0x000000000800735a       0x14 build/usbd_ctlreq.o
 .text.USBD_ParseSetupRequest
                0x000000000800736e       0x28 build/usbd_ctlreq.o
                0x000000000800736e                USBD_ParseSetupRequest
 .text.USBD_CtlError
                0x0000000008007396       0x14 build/usbd_ctlreq.o
                0x0000000008007396                USBD_CtlError
 .text.USBD_GetDescriptor
                0x00000000080073aa      0x19a build/usbd_ctlreq.o
 .text.USBD_SetAddress
                0x0000000008007544       0x50 build/usbd_ctlreq.o
 .text.USBD_SetConfig
                0x0000000008007594       0xc8 build/usbd_ctlreq.o
 .text.USBD_GetConfig
                0x000000000800765c       0x40 build/usbd_ctlreq.o
 .text.USBD_GetStatus
                0x000000000800769c       0x38 build/usbd_ctlreq.o
 .text.USBD_ClrFeature
                0x00000000080076d4       0x26 build/usbd_ctlreq.o
 .text.USBD_StdDevReq
                0x00000000080076fa       0x70 build/usbd_ctlreq.o
                0x00000000080076fa                USBD_StdDevReq
 .text.USBD_StdItfReq
                0x000000000800776a       0x68 build/usbd_ctlreq.o
                0x000000000800776a                USBD_StdItfReq
 .text.USBD_StdEPReq
                0x00000000080077d2      0x1f2 build/usbd_ctlreq.o
                0x00000000080077d2                USBD_StdEPReq
 .text.USBD_GetString
                0x00000000080079c4       0x3a build/usbd_ctlreq.o
                0x00000000080079c4                USBD_GetString
 .text.USBD_CtlSendData
                0x00000000080079fe       0x1a build/usbd_ioreq.o
                0x00000000080079fe                USBD_CtlSendData
 .text.USBD_CtlContinueSendData
                0x0000000008007a18       0x10 build/usbd_ioreq.o
                0x0000000008007a18                USBD_CtlContinueSendData
 .text.USBD_CtlPrepareRx
                0x0000000008007a28       0x1e build/usbd_ioreq.o
                0x0000000008007a28                USBD_CtlPrepareRx
 .text.USBD_CtlContinueRx
                0x0000000008007a46       0x10 build/usbd_ioreq.o
                0x0000000008007a46                USBD_CtlContinueRx
 .text.USBD_CtlSendStatus
                0x0000000008007a56       0x16 build/usbd_ioreq.o
                0x0000000008007a56                USBD_CtlSendStatus
 .text.USBD_CtlReceiveStatus
                0x0000000008007a6c       0x16 build/usbd_ioreq.o
                0x0000000008007a6c                USBD_CtlReceiveStatus
 *fill*         0x0000000008007a82        0x2 
 .text.MX_USB_DEVICE_Init
                0x0000000008007a84       0x58 build/usb_device.o
                0x0000000008007a84                MX_USB_DEVICE_Init
 .text.USBD_DeviceDescriptor
                0x0000000008007adc        0xc build/usbd_desc.o
                0x0000000008007adc                USBD_DeviceDescriptor
 .text.USBD_LangIDStrDescriptor
                0x0000000008007ae8        0xc build/usbd_desc.o
                0x0000000008007ae8                USBD_LangIDStrDescriptor
 .text.IntToUnicode
                0x0000000008007af4       0x46 build/usbd_desc.o
 *fill*         0x0000000008007b3a        0x2 
 .text.Get_SerialNum
                0x0000000008007b3c       0x38 build/usbd_desc.o
 .text.USBD_SerialStrDescriptor
                0x0000000008007b74       0x14 build/usbd_desc.o
                0x0000000008007b74                USBD_SerialStrDescriptor
 .text.USBD_ProductStrDescriptor
                0x0000000008007b88       0x24 build/usbd_desc.o
                0x0000000008007b88                USBD_ProductStrDescriptor
 .text.USBD_ManufacturerStrDescriptor
                0x0000000008007bac       0x1c build/usbd_desc.o
                0x0000000008007bac                USBD_ManufacturerStrDescriptor
 .text.USBD_ConfigStrDescriptor
                0x0000000008007bc8       0x24 build/usbd_desc.o
                0x0000000008007bc8                USBD_ConfigStrDescriptor
 .text.USBD_InterfaceStrDescriptor
                0x0000000008007bec       0x24 build/usbd_desc.o
                0x0000000008007bec                USBD_InterfaceStrDescriptor
 .text.HAL_PCDEx_SetTxFiFoInBytes
                0x0000000008007c10        0xa build/usbd_conf.o
                0x0000000008007c10                HAL_PCDEx_SetTxFiFoInBytes
 .text.HAL_PCDEx_SetRxFiFoInBytes
                0x0000000008007c1a        0xa build/usbd_conf.o
                0x0000000008007c1a                HAL_PCDEx_SetRxFiFoInBytes
 .text.HAL_PCD_SetupStageCallback
                0x0000000008007c24       0x10 build/usbd_conf.o
                0x0000000008007c24                HAL_PCD_SetupStageCallback
 .text.HAL_PCD_DataOutStageCallback
                0x0000000008007c34       0x18 build/usbd_conf.o
                0x0000000008007c34                HAL_PCD_DataOutStageCallback
 .text.HAL_PCD_DataInStageCallback
                0x0000000008007c4c       0x16 build/usbd_conf.o
                0x0000000008007c4c                HAL_PCD_DataInStageCallback
 .text.HAL_PCD_SOFCallback
                0x0000000008007c62        0xc build/usbd_conf.o
                0x0000000008007c62                HAL_PCD_SOFCallback
 .text.HAL_PCD_ResetCallback
                0x0000000008007c6e       0x2c build/usbd_conf.o
                0x0000000008007c6e                HAL_PCD_ResetCallback
 *fill*         0x0000000008007c9a        0x2 
 .text.HAL_PCD_SuspendCallback
                0x0000000008007c9c       0x30 build/usbd_conf.o
                0x0000000008007c9c                HAL_PCD_SuspendCallback
 .text.HAL_PCD_ResumeCallback
                0x0000000008007ccc        0xc build/usbd_conf.o
                0x0000000008007ccc                HAL_PCD_ResumeCallback
 .text.HAL_PCD_ISOOUTIncompleteCallback
                0x0000000008007cd8        0xc build/usbd_conf.o
                0x0000000008007cd8                HAL_PCD_ISOOUTIncompleteCallback
 .text.HAL_PCD_ISOINIncompleteCallback
                0x0000000008007ce4        0xc build/usbd_conf.o
                0x0000000008007ce4                HAL_PCD_ISOINIncompleteCallback
 .text.HAL_PCD_ConnectCallback
                0x0000000008007cf0        0xc build/usbd_conf.o
                0x0000000008007cf0                HAL_PCD_ConnectCallback
 .text.HAL_PCD_DisconnectCallback
                0x0000000008007cfc        0xc build/usbd_conf.o
                0x0000000008007cfc                HAL_PCD_DisconnectCallback
 .text.USBD_LL_Init
                0x0000000008007d08       0x84 build/usbd_conf.o
                0x0000000008007d08                USBD_LL_Init
 .text.USBD_LL_IsStallEP
                0x0000000008007d8c       0x2e build/usbd_conf.o
                0x0000000008007d8c                USBD_LL_IsStallEP
 .text.USBD_LL_GetRxDataSize
                0x0000000008007dba        0xc build/usbd_conf.o
                0x0000000008007dba                USBD_LL_GetRxDataSize
 .text.USBD_Get_USB_Status
                0x0000000008007dc6       0x14 build/usbd_conf.o
                0x0000000008007dc6                USBD_Get_USB_Status
 .text.USBD_LL_Start
                0x0000000008007dda       0x10 build/usbd_conf.o
                0x0000000008007dda                USBD_LL_Start
 .text.USBD_LL_OpenEP
                0x0000000008007dea       0x16 build/usbd_conf.o
                0x0000000008007dea                USBD_LL_OpenEP
 .text.USBD_LL_CloseEP
                0x0000000008007e00       0x10 build/usbd_conf.o
                0x0000000008007e00                USBD_LL_CloseEP
 .text.USBD_LL_StallEP
                0x0000000008007e10       0x10 build/usbd_conf.o
                0x0000000008007e10                USBD_LL_StallEP
 .text.USBD_LL_ClearStallEP
                0x0000000008007e20       0x10 build/usbd_conf.o
                0x0000000008007e20                USBD_LL_ClearStallEP
 .text.USBD_LL_SetUSBAddress
                0x0000000008007e30       0x10 build/usbd_conf.o
                0x0000000008007e30                USBD_LL_SetUSBAddress
 .text.USBD_LL_Transmit
                0x0000000008007e40       0x10 build/usbd_conf.o
                0x0000000008007e40                USBD_LL_Transmit
 .text.USBD_LL_PrepareReceive
                0x0000000008007e50       0x10 build/usbd_conf.o
                0x0000000008007e50                USBD_LL_PrepareReceive
 .text.USBD_CDC_EP0_RxReady
                0x0000000008007e60       0x4c build/usbd_cdc_acm.o
 .text.USBD_CDC_GetFSCfgDesc
                0x0000000008007eac        0xc build/usbd_cdc_acm.o
 .text.USBD_CDC_GetHSCfgDesc
                0x0000000008007eb8        0xc build/usbd_cdc_acm.o
 .text.USBD_CDC_GetOtherSpeedCfgDesc
                0x0000000008007ec4        0xc build/usbd_cdc_acm.o
 .text.USBD_CDC_GetDeviceQualifierDescriptor
                0x0000000008007ed0        0xc build/usbd_cdc_acm.o
 .text.USBD_CDC_DataOut
                0x0000000008007edc       0x50 build/usbd_cdc_acm.o
 .text.USBD_CDC_DataIn
                0x0000000008007f2c       0x98 build/usbd_cdc_acm.o
 .text.USBD_CDC_Setup
                0x0000000008007fc4      0x150 build/usbd_cdc_acm.o
 .text.USBD_CDC_DeInit
                0x0000000008008114       0x7c build/usbd_cdc_acm.o
 .text.USBD_CDC_Init
                0x0000000008008190      0x164 build/usbd_cdc_acm.o
 .text.USBD_CDC_ACM_RegisterInterface
                0x00000000080082f4        0xe build/usbd_cdc_acm.o
                0x00000000080082f4                USBD_CDC_ACM_RegisterInterface
 *fill*         0x0000000008008302        0x2 
 .text.USBD_CDC_SetTxBuffer
                0x0000000008008304       0x1c build/usbd_cdc_acm.o
                0x0000000008008304                USBD_CDC_SetTxBuffer
 .text.USBD_CDC_SetRxBuffer
                0x0000000008008320       0x18 build/usbd_cdc_acm.o
                0x0000000008008320                USBD_CDC_SetRxBuffer
 .text.USBD_CDC_TransmitPacket
                0x0000000008008338       0x50 build/usbd_cdc_acm.o
                0x0000000008008338                USBD_CDC_TransmitPacket
 .text.USBD_CDC_ReceivePacket
                0x0000000008008388       0x50 build/usbd_cdc_acm.o
                0x0000000008008388                USBD_CDC_ReceivePacket
 .text.USBD_Update_CDC_ACM_DESC
                0x00000000080083d8       0x98 build/usbd_cdc_acm.o
                0x00000000080083d8                USBD_Update_CDC_ACM_DESC
 .text.CDC_DeInit
                0x0000000008008470        0x4 build/usbd_cdc_acm_if.o
 .text.CDC_TransmitCplt
                0x0000000008008474       0x18 build/usbd_cdc_acm_if.o
 .text.CDC_Init
                0x000000000800848c       0x1c build/usbd_cdc_acm_if.o
 .text.CDC_Receive
                0x00000000080084a8       0x74 build/usbd_cdc_acm_if.o
 .text.CDC_Control
                0x000000000800851c       0x90 build/usbd_cdc_acm_if.o
 .text.CDC_Transmit
                0x00000000080085ac       0x44 build/usbd_cdc_acm_if.o
                0x00000000080085ac                CDC_Transmit
 .text.MX_DMA_Init
                0x00000000080085f0       0x44 build/dma.o
                0x00000000080085f0                MX_DMA_Init
 .text.Reset_Handler
                0x0000000008008634       0x50 build/startup_stm32f723xx.o
                0x0000000008008634                Reset_Handler
 .text.Default_Handler
                0x0000000008008684        0x2 build/startup_stm32f723xx.o
                0x0000000008008684                RTC_Alarm_IRQHandler
                0x0000000008008684                EXTI2_IRQHandler
                0x0000000008008684                UART8_IRQHandler
                0x0000000008008684                SPI4_IRQHandler
                0x0000000008008684                DMA2_Stream5_IRQHandler
                0x0000000008008684                DMA1_Stream5_IRQHandler
                0x0000000008008684                PVD_IRQHandler
                0x0000000008008684                TAMP_STAMP_IRQHandler
                0x0000000008008684                EXTI3_IRQHandler
                0x0000000008008684                TIM8_TRG_COM_TIM14_IRQHandler
                0x0000000008008684                TIM8_UP_TIM13_IRQHandler
                0x0000000008008684                I2C3_ER_IRQHandler
                0x0000000008008684                EXTI0_IRQHandler
                0x0000000008008684                I2C2_EV_IRQHandler
                0x0000000008008684                DMA1_Stream2_IRQHandler
                0x0000000008008684                CAN1_RX0_IRQHandler
                0x0000000008008684                FPU_IRQHandler
                0x0000000008008684                OTG_HS_WKUP_IRQHandler
                0x0000000008008684                DMA2_Stream2_IRQHandler
                0x0000000008008684                SPI1_IRQHandler
                0x0000000008008684                TIM1_BRK_TIM9_IRQHandler
                0x0000000008008684                DMA2_Stream3_IRQHandler
                0x0000000008008684                SAI2_IRQHandler
                0x0000000008008684                USART6_IRQHandler
                0x0000000008008684                USART3_IRQHandler
                0x0000000008008684                CAN1_RX1_IRQHandler
                0x0000000008008684                UART5_IRQHandler
                0x0000000008008684                DMA2_Stream0_IRQHandler
                0x0000000008008684                TIM4_IRQHandler
                0x0000000008008684                QUADSPI_IRQHandler
                0x0000000008008684                DMA1_Stream1_IRQHandler
                0x0000000008008684                UART4_IRQHandler
                0x0000000008008684                TIM3_IRQHandler
                0x0000000008008684                RCC_IRQHandler
                0x0000000008008684                TIM8_BRK_TIM12_IRQHandler
                0x0000000008008684                Default_Handler
                0x0000000008008684                EXTI15_10_IRQHandler
                0x0000000008008684                ADC_IRQHandler
                0x0000000008008684                DMA1_Stream7_IRQHandler
                0x0000000008008684                SPI5_IRQHandler
                0x0000000008008684                SDMMC1_IRQHandler
                0x0000000008008684                TIM5_IRQHandler
                0x0000000008008684                DMA2_Stream7_IRQHandler
                0x0000000008008684                I2C3_EV_IRQHandler
                0x0000000008008684                EXTI9_5_IRQHandler
                0x0000000008008684                RTC_WKUP_IRQHandler
                0x0000000008008684                SPI2_IRQHandler
                0x0000000008008684                OTG_HS_EP1_IN_IRQHandler
                0x0000000008008684                CAN1_TX_IRQHandler
                0x0000000008008684                EXTI4_IRQHandler
                0x0000000008008684                RNG_IRQHandler
                0x0000000008008684                OTG_HS_EP1_OUT_IRQHandler
                0x0000000008008684                WWDG_IRQHandler
                0x0000000008008684                TIM2_IRQHandler
                0x0000000008008684                OTG_FS_WKUP_IRQHandler
                0x0000000008008684                TIM1_TRG_COM_TIM11_IRQHandler
                0x0000000008008684                EXTI1_IRQHandler
                0x0000000008008684                SDMMC2_IRQHandler
                0x0000000008008684                UART7_IRQHandler
                0x0000000008008684                USART2_IRQHandler
                0x0000000008008684                I2C2_ER_IRQHandler
                0x0000000008008684                DMA2_Stream1_IRQHandler
                0x0000000008008684                CAN1_SCE_IRQHandler
                0x0000000008008684                FLASH_IRQHandler
                0x0000000008008684                DMA2_Stream4_IRQHandler
                0x0000000008008684                USART1_IRQHandler
                0x0000000008008684                OTG_FS_IRQHandler
                0x0000000008008684                SPI3_IRQHandler
                0x0000000008008684                DMA1_Stream4_IRQHandler
                0x0000000008008684                FMC_IRQHandler
                0x0000000008008684                LPTIM1_IRQHandler
                0x0000000008008684                DMA2_Stream6_IRQHandler
                0x0000000008008684                SAI1_IRQHandler
                0x0000000008008684                DMA1_Stream3_IRQHandler
 *fill*         0x0000000008008686        0x2 
 .text.__libc_init_array
                0x0000000008008688       0x48 /opt/gcc-arm-none-eabi-10.3-2021.10/bin/../lib/gcc/arm-none-eabi/10.3.1/../../../../arm-none-eabi/lib/thumb/v7e-m+fp/hard/libc_nano.a(lib_a-init.o)
                0x0000000008008688                __libc_init_array
 .text.malloc   0x00000000080086d0       0x10 /opt/gcc-arm-none-eabi-10.3-2021.10/bin/../lib/gcc/arm-none-eabi/10.3.1/../../../../arm-none-eabi/lib/thumb/v7e-m+fp/hard/libc_nano.a(lib_a-malloc.o)
                0x00000000080086d0                malloc
 .text.free     0x00000000080086e0       0x10 /opt/gcc-arm-none-eabi-10.3-2021.10/bin/../lib/gcc/arm-none-eabi/10.3.1/../../../../arm-none-eabi/lib/thumb/v7e-m+fp/hard/libc_nano.a(lib_a-malloc.o)
                0x00000000080086e0                free
 .text.memcmp   0x00000000080086f0       0x20 /opt/gcc-arm-none-eabi-10.3-2021.10/bin/../lib/gcc/arm-none-eabi/10.3.1/../../../../arm-none-eabi/lib/thumb/v7e-m+fp/hard/libc_nano.a(lib_a-memcmp.o)
                0x00000000080086f0                memcmp
 .text.memcpy   0x0000000008008710       0x1c /opt/gcc-arm-none-eabi-10.3-2021.10/bin/../lib/gcc/arm-none-eabi/10.3.1/../../../../arm-none-eabi/lib/thumb/v7e-m+fp/hard/libc_nano.a(lib_a-memcpy-stub.o)
                0x0000000008008710                memcpy
 .text.memset   0x000000000800872c       0x10 /opt/gcc-arm-none-eabi-10.3-2021.10/bin/../lib/gcc/arm-none-eabi/10.3.1/../../../../arm-none-eabi/lib/thumb/v7e-m+fp/hard/libc_nano.a(lib_a-memset.o)
                0x000000000800872c                memset
 .text._free_r  0x000000000800873c       0x98 /opt/gcc-arm-none-eabi-10.3-2021.10/bin/../lib/gcc/arm-none-eabi/10.3.1/../../../../arm-none-eabi/lib/thumb/v7e-m+fp/hard/libc_nano.a(lib_a-nano-freer.o)
                0x000000000800873c                _free_r
 .text.sbrk_aligned
                0x00000000080087d4       0x40 /opt/gcc-arm-none-eabi-10.3-2021.10/bin/../lib/gcc/arm-none-eabi/10.3.1/../../../../arm-none-eabi/lib/thumb/v7e-m+fp/hard/libc_nano.a(lib_a-nano-mallocr.o)
 .text._malloc_r
                0x0000000008008814       0xe8 /opt/gcc-arm-none-eabi-10.3-2021.10/bin/../lib/gcc/arm-none-eabi/10.3.1/../../../../arm-none-eabi/lib/thumb/v7e-m+fp/hard/libc_nano.a(lib_a-nano-mallocr.o)
                0x0000000008008814                _malloc_r
 .text.realloc  0x00000000080088fc       0x10 /opt/gcc-arm-none-eabi-10.3-2021.10/bin/../lib/gcc/arm-none-eabi/10.3.1/../../../../arm-none-eabi/lib/thumb/v7e-m+fp/hard/libc_nano.a(lib_a-realloc.o)
                0x00000000080088fc                realloc
 .text._sbrk_r  0x000000000800890c       0x20 /opt/gcc-arm-none-eabi-10.3-2021.10/bin/../lib/gcc/arm-none-eabi/10.3.1/../../../../arm-none-eabi/lib/thumb/v7e-m+fp/hard/libc_nano.a(lib_a-sbrkr.o)
                0x000000000800890c                _sbrk_r
 .text.snprintf
                0x000000000800892c       0x68 /opt/gcc-arm-none-eabi-10.3-2021.10/bin/../lib/gcc/arm-none-eabi/10.3.1/../../../../arm-none-eabi/lib/thumb/v7e-m+fp/hard/libc_nano.a(lib_a-snprintf.o)
                0x000000000800892c                snprintf
                0x000000000800892c                sniprintf
 .text.__malloc_lock
                0x0000000008008994        0xc /opt/gcc-arm-none-eabi-10.3-2021.10/bin/../lib/gcc/arm-none-eabi/10.3.1/../../../../arm-none-eabi/lib/thumb/v7e-m+fp/hard/libc_nano.a(lib_a-mlock.o)
                0x0000000008008994                __malloc_lock
 .text.__malloc_unlock
                0x00000000080089a0        0xc /opt/gcc-arm-none-eabi-10.3-2021.10/bin/../lib/gcc/arm-none-eabi/10.3.1/../../../../arm-none-eabi/lib/thumb/v7e-m+fp/hard/libc_nano.a(lib_a-mlock.o)
                0x00000000080089a0                __malloc_unlock
 .text._realloc_r
                0x00000000080089ac       0x5e /opt/gcc-arm-none-eabi-10.3-2021.10/bin/../lib/gcc/arm-none-eabi/10.3.1/../../../../arm-none-eabi/lib/thumb/v7e-m+fp/hard/libc_nano.a(lib_a-nano-reallocr.o)
                0x00000000080089ac                _realloc_r
 .text.__ssputs_r
                0x0000000008008a0a       0xb6 /opt/gcc-arm-none-eabi-10.3-2021.10/bin/../lib/gcc/arm-none-eabi/10.3.1/../../../../arm-none-eabi/lib/thumb/v7e-m+fp/hard/libc_nano.a(lib_a-nano-svfprintf.o)
                0x0000000008008a0a                __ssputs_r
 .text._svfprintf_r
                0x0000000008008ac0      0x200 /opt/gcc-arm-none-eabi-10.3-2021.10/bin/../lib/gcc/arm-none-eabi/10.3.1/../../../../arm-none-eabi/lib/thumb/v7e-m+fp/hard/libc_nano.a(lib_a-nano-svfprintf.o)
                0x0000000008008ac0                _svfprintf_r
                0x0000000008008ac0                _svfiprintf_r
 .text._printf_common
                0x0000000008008cc0       0xda /opt/gcc-arm-none-eabi-10.3-2021.10/bin/../lib/gcc/arm-none-eabi/10.3.1/../../../../arm-none-eabi/lib/thumb/v7e-m+fp/hard/libc_nano.a(lib_a-nano-vfprintf_i.o)
                0x0000000008008cc0                _printf_common
 *fill*         0x0000000008008d9a        0x2 
 .text._printf_i
                0x0000000008008d9c      0x24c /opt/gcc-arm-none-eabi-10.3-2021.10/bin/../lib/gcc/arm-none-eabi/10.3.1/../../../../arm-none-eabi/lib/thumb/v7e-m+fp/hard/libc_nano.a(lib_a-nano-vfprintf_i.o)
                0x0000000008008d9c                _printf_i
 .text.__retarget_lock_acquire_recursive
                0x0000000008008fe8        0x2 /opt/gcc-arm-none-eabi-10.3-2021.10/bin/../lib/gcc/arm-none-eabi/10.3.1/../../../../arm-none-eabi/lib/thumb/v7e-m+fp/hard/libc_nano.a(lib_a-lock.o)
                0x0000000008008fe8                __retarget_lock_acquire_recursive
 .text.__retarget_lock_release_recursive
                0x0000000008008fea        0x2 /opt/gcc-arm-none-eabi-10.3-2021.10/bin/../lib/gcc/arm-none-eabi/10.3.1/../../../../arm-none-eabi/lib/thumb/v7e-m+fp/hard/libc_nano.a(lib_a-lock.o)
                0x0000000008008fea                __retarget_lock_release_recursive
 .text.memmove  0x0000000008008fec       0x34 /opt/gcc-arm-none-eabi-10.3-2021.10/bin/../lib/gcc/arm-none-eabi/10.3.1/../../../../arm-none-eabi/lib/thumb/v7e-m+fp/hard/libc_nano.a(lib_a-memmove.o)
                0x0000000008008fec                memmove
 .text._malloc_usable_size_r
                0x0000000008009020       0x10 /opt/gcc-arm-none-eabi-10.3-2021.10/bin/../lib/gcc/arm-none-eabi/10.3.1/../../../../arm-none-eabi/lib/thumb/v7e-m+fp/hard/libc_nano.a(lib_a-nano-msizer.o)
                0x0000000008009020                _malloc_usable_size_r
 .text.floor    0x0000000008009030      0x108 /opt/gcc-arm-none-eabi-10.3-2021.10/bin/../lib/gcc/arm-none-eabi/10.3.1/../../../../arm-none-eabi/lib/thumb/v7e-m+fp/hard/libm.a(lib_a-s_floor.o)
                0x0000000008009030                floor
 .text.cosf     0x0000000008009138       0x70 /opt/gcc-arm-none-eabi-10.3-2021.10/bin/../lib/gcc/arm-none-eabi/10.3.1/../../../../arm-none-eabi/lib/thumb/v7e-m+fp/hard/libm.a(lib_a-sf_cos.o)
                0x0000000008009138                cosf
 .text.pow      0x00000000080091a8       0xf0 /opt/gcc-arm-none-eabi-10.3-2021.10/bin/../lib/gcc/arm-none-eabi/10.3.1/../../../../arm-none-eabi/lib/thumb/v7e-m+fp/hard/libm.a(lib_a-w_pow.o)
                0x00000000080091a8                pow
 .text.__ieee754_pow
                0x0000000008009298      0xb74 /opt/gcc-arm-none-eabi-10.3-2021.10/bin/../lib/gcc/arm-none-eabi/10.3.1/../../../../arm-none-eabi/lib/thumb/v7e-m+fp/hard/libm.a(lib_a-e_pow.o)
                0x0000000008009298                __ieee754_pow
 .text.__ieee754_sqrt
                0x0000000008009e0c      0x198 /opt/gcc-arm-none-eabi-10.3-2021.10/bin/../lib/gcc/arm-none-eabi/10.3.1/../../../../arm-none-eabi/lib/thumb/v7e-m+fp/hard/libm.a(lib_a-e_sqrt.o)
                0x0000000008009e0c                __ieee754_sqrt
 .text.__ieee754_rem_pio2f
                0x0000000008009fa4      0x264 /opt/gcc-arm-none-eabi-10.3-2021.10/bin/../lib/gcc/arm-none-eabi/10.3.1/../../../../arm-none-eabi/lib/thumb/v7e-m+fp/hard/libm.a(lib_a-ef_rem_pio2.o)
                0x0000000008009fa4                __ieee754_rem_pio2f
 .text.__kernel_cosf
                0x000000000800a208      0x104 /opt/gcc-arm-none-eabi-10.3-2021.10/bin/../lib/gcc/arm-none-eabi/10.3.1/../../../../arm-none-eabi/lib/thumb/v7e-m+fp/hard/libm.a(lib_a-kf_cos.o)
                0x000000000800a208                __kernel_cosf
 .text.__kernel_rem_pio2f
                0x000000000800a30c      0x674 /opt/gcc-arm-none-eabi-10.3-2021.10/bin/../lib/gcc/arm-none-eabi/10.3.1/../../../../arm-none-eabi/lib/thumb/v7e-m+fp/hard/libm.a(lib_a-kf_rem_pio2.o)
                0x000000000800a30c                __kernel_rem_pio2f
 .text.__kernel_sinf
                0x000000000800a980       0x90 /opt/gcc-arm-none-eabi-10.3-2021.10/bin/../lib/gcc/arm-none-eabi/10.3.1/../../../../arm-none-eabi/lib/thumb/v7e-m+fp/hard/libm.a(lib_a-kf_sin.o)
                0x000000000800a980                __kernel_sinf
 .text.with_errno
                0x000000000800aa10       0x18 /opt/gcc-arm-none-eabi-10.3-2021.10/bin/../lib/gcc/arm-none-eabi/10.3.1/../../../../arm-none-eabi/lib/thumb/v7e-m+fp/hard/libm.a(lib_a-math_err.o)
 .text.xflow    0x000000000800aa28       0x2c /opt/gcc-arm-none-eabi-10.3-2021.10/bin/../lib/gcc/arm-none-eabi/10.3.1/../../../../arm-none-eabi/lib/thumb/v7e-m+fp/hard/libm.a(lib_a-math_err.o)
 .text.__math_uflow
                0x000000000800aa54       0x14 /opt/gcc-arm-none-eabi-10.3-2021.10/bin/../lib/gcc/arm-none-eabi/10.3.1/../../../../arm-none-eabi/lib/thumb/v7e-m+fp/hard/libm.a(lib_a-math_err.o)
                0x000000000800aa54                __math_uflow
 .text.__math_oflow
                0x000000000800aa68       0x14 /opt/gcc-arm-none-eabi-10.3-2021.10/bin/../lib/gcc/arm-none-eabi/10.3.1/../../../../arm-none-eabi/lib/thumb/v7e-m+fp/hard/libm.a(lib_a-math_err.o)
                0x000000000800aa68                __math_oflow
 .text.fabs     0x000000000800aa7c       0x14 /opt/gcc-arm-none-eabi-10.3-2021.10/bin/../lib/gcc/arm-none-eabi/10.3.1/../../../../arm-none-eabi/lib/thumb/v7e-m+fp/hard/libm.a(lib_a-s_fabs.o)
                0x000000000800aa7c                fabs
 .text.finite   0x000000000800aa90       0x18 /opt/gcc-arm-none-eabi-10.3-2021.10/bin/../lib/gcc/arm-none-eabi/10.3.1/../../../../arm-none-eabi/lib/thumb/v7e-m+fp/hard/libm.a(lib_a-s_finite.o)
                0x000000000800aa90                finite
 .text.scalbn   0x000000000800aaa8      0x124 /opt/gcc-arm-none-eabi-10.3-2021.10/bin/../lib/gcc/arm-none-eabi/10.3.1/../../../../arm-none-eabi/lib/thumb/v7e-m+fp/hard/libm.a(lib_a-s_scalbn.o)
                0x000000000800aaa8                scalbn
 .text.fabsf    0x000000000800abcc       0x10 /opt/gcc-arm-none-eabi-10.3-2021.10/bin/../lib/gcc/arm-none-eabi/10.3.1/../../../../arm-none-eabi/lib/thumb/v7e-m+fp/hard/libm.a(lib_a-sf_fabs.o)
                0x000000000800abcc                fabsf
 .text.floorf   0x000000000800abdc       0x8c /opt/gcc-arm-none-eabi-10.3-2021.10/bin/../lib/gcc/arm-none-eabi/10.3.1/../../../../arm-none-eabi/lib/thumb/v7e-m+fp/hard/libm.a(lib_a-sf_floor.o)
                0x000000000800abdc                floorf
 .text.scalbnf  0x000000000800ac68       0xe4 /opt/gcc-arm-none-eabi-10.3-2021.10/bin/../lib/gcc/arm-none-eabi/10.3.1/../../../../arm-none-eabi/lib/thumb/v7e-m+fp/hard/libm.a(lib_a-sf_scalbn.o)
                0x000000000800ac68                scalbnf
 .text._sbrk    0x000000000800ad4c       0x1c /opt/gcc-arm-none-eabi-10.3-2021.10/bin/../lib/gcc/arm-none-eabi/10.3.1/../../../../arm-none-eabi/lib/thumb/v7e-m+fp/hard/libnosys.a(sbrk.o)
                0x000000000800ad4c                _sbrk
 .text.__errno  0x000000000800ad68        0xc /opt/gcc-arm-none-eabi-10.3-2021.10/bin/../lib/gcc/arm-none-eabi/10.3.1/../../../../arm-none-eabi/lib/thumb/v7e-m+fp/hard/libc_nano.a(lib_a-errno.o)
                0x000000000800ad68                __errno
 *(.glue_7)
 .glue_7        0x000000000800ad74        0x0 linker stubs
 *(.glue_7t)
 .glue_7t       0x000000000800ad74        0x0 linker stubs
 *(.eh_frame)
 .eh_frame      0x000000000800ad74        0x0 /opt/gcc-arm-none-eabi-10.3-2021.10/bin/../lib/gcc/arm-none-eabi/10.3.1/thumb/v7e-m+fp/hard/crtbegin.o
 *(.init)
 .init          0x000000000800ad74        0x4 /opt/gcc-arm-none-eabi-10.3-2021.10/bin/../lib/gcc/arm-none-eabi/10.3.1/thumb/v7e-m+fp/hard/crti.o
                0x000000000800ad74                _init
 .init          0x000000000800ad78        0x8 /opt/gcc-arm-none-eabi-10.3-2021.10/bin/../lib/gcc/arm-none-eabi/10.3.1/thumb/v7e-m+fp/hard/crtn.o
 *(.fini)
 .fini          0x000000000800ad80        0x4 /opt/gcc-arm-none-eabi-10.3-2021.10/bin/../lib/gcc/arm-none-eabi/10.3.1/thumb/v7e-m+fp/hard/crti.o
                0x000000000800ad80                _fini
 .fini          0x000000000800ad84        0x8 /opt/gcc-arm-none-eabi-10.3-2021.10/bin/../lib/gcc/arm-none-eabi/10.3.1/thumb/v7e-m+fp/hard/crtn.o
                0x000000000800ad8c                . = ALIGN (0x4)
                0x000000000800ad8c                _etext = .

.vfp11_veneer   0x000000000800ad8c        0x0
 .vfp11_veneer  0x000000000800ad8c        0x0 linker stubs

.v4_bx          0x000000000800ad8c        0x0
 .v4_bx         0x000000000800ad8c        0x0 linker stubs

.iplt           0x000000000800ad8c        0x0
 .iplt          0x000000000800ad8c        0x0 /opt/gcc-arm-none-eabi-10.3-2021.10/bin/../lib/gcc/arm-none-eabi/10.3.1/thumb/v7e-m+fp/hard/crtbegin.o

.rodata         0x000000000800ad90      0x4d4
                0x000000000800ad90                . = ALIGN (0x4)
 *(.rodata)
 *(.rodata*)
 .rodata.main.str1.4
                0x000000000800ad90       0x1c build/main.o
 .rodata.flagBitshiftOffset.0
                0x000000000800adac        0x8 build/stm32f7xx_hal_dma.o
 .rodata.AHBPrescTable
                0x000000000800adb4       0x10 build/system_stm32f7xx.o
                0x000000000800adb4                AHBPrescTable
 *fill*         0x000000000800adc4        0x4 
 .rodata.SYSTEM_STATUS_DEGREE_INCREMENT
                0x000000000800adc8        0x8 build/nyan_leds.o
                0x000000000800adc8                SYSTEM_STATUS_DEGREE_INCREMENT
 .rodata.NyanAddInputBuffer.str1.4
                0x000000000800add0        0x4 build/nyan_os.o
 .rodata.str1.4
                0x000000000800add4        0xe build/nyan_os.o
 *fill*         0x000000000800ade2        0x2 
 .rodata.nyan_commands
                0x000000000800ade4        0x8 build/nyan_os.o
 .rodata.USBD_COMPOSITE_GetUsrStringDesc.str1.4
                0x000000000800adec       0x23 build/usbd_composite.o
 *fill*         0x000000000800ae0f        0x1 
 .rodata.USBD_ProductStrDescriptor.str1.4
                0x000000000800ae10       0x17 build/usbd_desc.o
 *fill*         0x000000000800ae27        0x1 
 .rodata.USBD_ManufacturerStrDescriptor.str1.4
                0x000000000800ae28       0x13 build/usbd_desc.o
 *fill*         0x000000000800ae3b        0x1 
 .rodata.USBD_ConfigStrDescriptor.str1.4
                0x000000000800ae3c       0x10 build/usbd_desc.o
 .rodata.USBD_InterfaceStrDescriptor.str1.4
                0x000000000800ae4c       0x14 build/usbd_desc.o
 .rodata._svfprintf_r.str1.1
                0x000000000800ae60       0x11 /opt/gcc-arm-none-eabi-10.3-2021.10/bin/../lib/gcc/arm-none-eabi/10.3.1/../../../../arm-none-eabi/lib/thumb/v7e-m+fp/hard/libc_nano.a(lib_a-nano-svfprintf.o)
 .rodata._printf_i.str1.1
                0x000000000800ae71       0x22 /opt/gcc-arm-none-eabi-10.3-2021.10/bin/../lib/gcc/arm-none-eabi/10.3.1/../../../../arm-none-eabi/lib/thumb/v7e-m+fp/hard/libc_nano.a(lib_a-nano-vfprintf_i.o)
 *fill*         0x000000000800ae93        0x1 
 .rodata.npio2_hw
                0x000000000800ae94       0x80 /opt/gcc-arm-none-eabi-10.3-2021.10/bin/../lib/gcc/arm-none-eabi/10.3.1/../../../../arm-none-eabi/lib/thumb/v7e-m+fp/hard/libm.a(lib_a-ef_rem_pio2.o)
 .rodata.two_over_pi
                0x000000000800af14      0x318 /opt/gcc-arm-none-eabi-10.3-2021.10/bin/../lib/gcc/arm-none-eabi/10.3.1/../../../../arm-none-eabi/lib/thumb/v7e-m+fp/hard/libm.a(lib_a-ef_rem_pio2.o)
 .rodata.PIo2   0x000000000800b22c       0x2c /opt/gcc-arm-none-eabi-10.3-2021.10/bin/../lib/gcc/arm-none-eabi/10.3.1/../../../../arm-none-eabi/lib/thumb/v7e-m+fp/hard/libm.a(lib_a-kf_rem_pio2.o)
 .rodata.init_jk
                0x000000000800b258        0xc /opt/gcc-arm-none-eabi-10.3-2021.10/bin/../lib/gcc/arm-none-eabi/10.3.1/../../../../arm-none-eabi/lib/thumb/v7e-m+fp/hard/libm.a(lib_a-kf_rem_pio2.o)
                0x000000000800b264                . = ALIGN (0x4)

.ARM.extab
 *(.ARM.extab* .gnu.linkonce.armextab.*)

.ARM            0x000000000800b264        0x8
                0x000000000800b264                __exidx_start = .
 *(.ARM.exidx*)
 .ARM.exidx     0x000000000800b264        0x8 /opt/gcc-arm-none-eabi-10.3-2021.10/bin/../lib/gcc/arm-none-eabi/10.3.1/thumb/v7e-m+fp/hard/libgcc.a(_udivmoddi4.o)
                0x000000000800b26c                __exidx_end = .

.rel.dyn        0x000000000800b26c        0x0
 .rel.iplt      0x000000000800b26c        0x0 /opt/gcc-arm-none-eabi-10.3-2021.10/bin/../lib/gcc/arm-none-eabi/10.3.1/thumb/v7e-m+fp/hard/crtbegin.o

.preinit_array  0x000000000800b26c        0x0
                0x000000000800b26c                PROVIDE (__preinit_array_start = .)
 *(.preinit_array*)
                0x000000000800b26c                PROVIDE (__preinit_array_end = .)

.init_array     0x000000000800b26c        0x4
                0x000000000800b26c                PROVIDE (__init_array_start = .)
 *(SORT_BY_NAME(.init_array.*))
 *(.init_array*)
 .init_array    0x000000000800b26c        0x4 /opt/gcc-arm-none-eabi-10.3-2021.10/bin/../lib/gcc/arm-none-eabi/10.3.1/thumb/v7e-m+fp/hard/crtbegin.o
                0x000000000800b270                PROVIDE (__init_array_end = .)

.fini_array     0x000000000800b270        0x4
                [!provide]                        PROVIDE (__fini_array_start = .)
 *(SORT_BY_NAME(.fini_array.*))
 *(.fini_array*)
 .fini_array    0x000000000800b270        0x4 /opt/gcc-arm-none-eabi-10.3-2021.10/bin/../lib/gcc/arm-none-eabi/10.3.1/thumb/v7e-m+fp/hard/crtbegin.o
                [!provide]                        PROVIDE (__fini_array_end = .)
                0x000000000800b274                _sidata = LOADADDR (.data)

.data           0x0000000020000000      0x408 load address 0x000000000800b274
                0x0000000020000000                . = ALIGN (0x4)
                0x0000000020000000                _sdata = .
 *(.data)
 *(.data*)
 .data.uwTickFreq
                0x0000000020000000        0x1 build/stm32f7xx_hal.o
                0x0000000020000000                uwTickFreq
 *fill*         0x0000000020000001        0x3 
 .data.uwTickPrio
                0x0000000020000004        0x4 build/stm32f7xx_hal.o
                0x0000000020000004                uwTickPrio
 .data.SystemCoreClock
                0x0000000020000008        0x4 build/system_stm32f7xx.o
                0x0000000020000008                SystemCoreClock
 .data.nyan_keys_unknown_command
                0x000000002000000c       0x20 build/nyan_os.o
 .data.nyan_keys_getinfo
                0x000000002000002c       0x38 build/nyan_os.o
 .data.nyan_keys_path_text
                0x0000000020000064        0xf build/nyan_os.o
 *fill*         0x0000000020000073        0x1 
 .data.nyan_keys_newline
                0x0000000020000074        0x3 build/nyan_os.o
 *fill*         0x0000000020000077        0x1 
 .data.nyan_keys_welcome_text
                0x0000000020000078       0x42 build/nyan_os.o
 *fill*         0x00000000200000ba        0x2 
 .data.USBD_COMPOSITE_DeviceQualifierDesc
                0x00000000200000bc        0xa build/usbd_composite.o
 .data.USBD_Track_String_Index
                0x00000000200000c6        0x1 build/usbd_composite.o
                0x00000000200000c6                USBD_Track_String_Index
 *fill*         0x00000000200000c7        0x1 
 .data.USBD_COMPOSITE
                0x00000000200000c8       0x3c build/usbd_composite.o
                0x00000000200000c8                USBD_COMPOSITE
 .data.HID_KEYBOARD_ReportDesc
                0x0000000020000104       0xbb build/usbd_hid_keyboard.o
 *fill*         0x00000000200001bf        0x1 
 .data.USBD_HID_DeviceQualifierDesc
                0x00000000200001c0        0xa build/usbd_hid_keyboard.o
 *fill*         0x00000000200001ca        0x2 
 .data.USBD_HID_KEYBOARD_Desc
                0x00000000200001cc        0x9 build/usbd_hid_keyboard.o
 *fill*         0x00000000200001d5        0x3 
 .data.USBD_HID_KEYBOARD_CfgHSDesc
                0x00000000200001d8       0x22 build/usbd_hid_keyboard.o
 *fill*         0x00000000200001fa        0x2 
 .data.USBD_HID_KEYBOARD_CfgFSDesc
                0x00000000200001fc       0x22 build/usbd_hid_keyboard.o
 *fill*         0x000000002000021e        0x2 
 .data.USBD_HID_KEYBOARD
                0x0000000020000220       0x3c build/usbd_hid_keyboard.o
                0x0000000020000220                USBD_HID_KEYBOARD
 .data.HID_KEYBOARD_IN_EP
                0x000000002000025c        0x1 build/usbd_hid_keyboard.o
                0x000000002000025c                HID_KEYBOARD_IN_EP
 *fill*         0x000000002000025d        0x3 
 .data.USBD_StringSerial
                0x0000000020000260       0x1a build/usbd_desc.o
                0x0000000020000260                USBD_StringSerial
 *fill*         0x000000002000027a        0x2 
 .data.USBD_LangIDDesc
                0x000000002000027c        0x4 build/usbd_desc.o
                0x000000002000027c                USBD_LangIDDesc
 .data.USBD_DeviceDesc
                0x0000000020000280       0x12 build/usbd_desc.o
                0x0000000020000280                USBD_DeviceDesc
 *fill*         0x0000000020000292        0x2 
 .data.USBD_Desc
                0x0000000020000294       0x1c build/usbd_desc.o
                0x0000000020000294                USBD_Desc
 .data.USBD_CDC_CfgFSDesc
                0x00000000200002b0       0x4b build/usbd_cdc_acm.o
 *fill*         0x00000000200002fb        0x1 
 .data.USBD_CDC_CfgHSDesc
                0x00000000200002fc       0x4b build/usbd_cdc_acm.o
 *fill*         0x0000000020000347        0x1 
 .data.USBD_CDC_ACM
                0x0000000020000348       0x3c build/usbd_cdc_acm.o
                0x0000000020000348                USBD_CDC_ACM
 .data.USBD_CDC_DeviceQualifierDesc
                0x0000000020000384        0xa build/usbd_cdc_acm.o
 *fill*         0x000000002000038e        0x2 
 .data.USBD_CDC_ACM_fops
                0x0000000020000390       0x14 build/usbd_cdc_acm_if.o
                0x0000000020000390                USBD_CDC_ACM_fops
 .data._impure_ptr
                0x00000000200003a4        0x4 /opt/gcc-arm-none-eabi-10.3-2021.10/bin/../lib/gcc/arm-none-eabi/10.3.1/../../../../arm-none-eabi/lib/thumb/v7e-m+fp/hard/libc_nano.a(lib_a-impure.o)
                0x00000000200003a4                _impure_ptr
 .data.impure_data
                0x00000000200003a8       0x60 /opt/gcc-arm-none-eabi-10.3-2021.10/bin/../lib/gcc/arm-none-eabi/10.3.1/../../../../arm-none-eabi/lib/thumb/v7e-m+fp/hard/libc_nano.a(lib_a-impure.o)
                0x0000000020000408                . = ALIGN (0x4)
                0x0000000020000408                _edata = .

.igot.plt       0x0000000020000408        0x0 load address 0x000000000800b67c
 .igot.plt      0x0000000020000408        0x0 /opt/gcc-arm-none-eabi-10.3-2021.10/bin/../lib/gcc/arm-none-eabi/10.3.1/thumb/v7e-m+fp/hard/crtbegin.o
                0x0000000020000408                . = ALIGN (0x4)

.bss            0x0000000020000408     0x16e0 load address 0x000000000800b67c
                0x0000000020000408                _sbss = .
                0x0000000020000408                __bss_start__ = _sbss
 *(.bss)
 .bss           0x0000000020000408       0x1c /opt/gcc-arm-none-eabi-10.3-2021.10/bin/../lib/gcc/arm-none-eabi/10.3.1/thumb/v7e-m+fp/hard/crtbegin.o
 *(.bss*)
 .bss.nos       0x0000000020000424       0x98 build/main.o
                0x0000000020000424                nos
 .bss.nos_eeprom
                0x00000000200004bc      0x488 build/main.o
                0x00000000200004bc                nos_eeprom
 *fill*         0x0000000020000944        0x4 
 .bss.system_status_led_angle
                0x0000000020000948        0x8 build/main.o
                0x0000000020000948                system_status_led_angle
 .bss.hdma_i2c1_tx
                0x0000000020000950       0x60 build/i2c.o
                0x0000000020000950                hdma_i2c1_tx
 .bss.hdma_i2c1_rx
                0x00000000200009b0       0x60 build/i2c.o
                0x00000000200009b0                hdma_i2c1_rx
 .bss.hi2c1     0x0000000020000a10       0x54 build/i2c.o
                0x0000000020000a10                hi2c1
 .bss.hrng      0x0000000020000a64       0x10 build/rng.o
                0x0000000020000a64                hrng
 .bss.hspi4     0x0000000020000a74       0x64 build/spi.o
                0x0000000020000a74                hspi4
 .bss.hspi2     0x0000000020000ad8       0x64 build/spi.o
                0x0000000020000ad8                hspi2
 .bss.hspi1     0x0000000020000b3c       0x64 build/spi.o
                0x0000000020000b3c                hspi1
 .bss.uwTick    0x0000000020000ba0        0x4 build/stm32f7xx_hal.o
                0x0000000020000ba0                uwTick
 .bss.htim8     0x0000000020000ba4       0x4c build/tim.o
                0x0000000020000ba4                htim8
 .bss.htim7     0x0000000020000bf0       0x4c build/tim.o
                0x0000000020000bf0                htim7
 .bss.htim6     0x0000000020000c3c       0x4c build/tim.o
                0x0000000020000c3c                htim6
 .bss.htim1     0x0000000020000c88       0x4c build/tim.o
                0x0000000020000c88                htim1
 .bss.hpcd_USB_OTG_HS
                0x0000000020000cd4      0x508 build/usb_otg.o
                0x0000000020000cd4                hpcd_USB_OTG_HS
 .bss.USBD_StrDesc.0
                0x00000000200011dc       0x40 build/usbd_composite.o
 .bss.USBD_COMPOSITE_HSCfgDesc
                0x000000002000121c       0x64 build/usbd_composite.o
                0x000000002000121c                USBD_COMPOSITE_HSCfgDesc
 .bss.USBD_COMPOSITE_FSCfgDesc
                0x0000000020001280       0x64 build/usbd_composite.o
                0x0000000020001280                USBD_COMPOSITE_FSCfgDesc
 .bss.USBD_HID_KBD_Instace
                0x00000000200012e4       0x10 build/usbd_hid_keyboard.o
 .bss.HID_KEYBOARD_STR_DESC_IDX
                0x00000000200012f4        0x1 build/usbd_hid_keyboard.o
                0x00000000200012f4                HID_KEYBOARD_STR_DESC_IDX
 .bss.HID_KEYBOARD_ITF_NBR
                0x00000000200012f5        0x1 build/usbd_hid_keyboard.o
                0x00000000200012f5                HID_KEYBOARD_ITF_NBR
 .bss.cfgidx.0  0x00000000200012f6        0x1 build/usbd_ctlreq.o
 *fill*         0x00000000200012f7        0x1 
 .bss.hUsbDevice
                0x00000000200012f8      0x31c build/usb_device.o
                0x00000000200012f8                hUsbDevice
 .bss.USBD_StrDesc
                0x0000000020001614      0x200 build/usbd_desc.o
                0x0000000020001614                USBD_StrDesc
 .bss.hpcd_USB_OTG_PTR
                0x0000000020001814        0x4 build/usbd_conf.o
                0x0000000020001814                hpcd_USB_OTG_PTR
 .bss.CDC_ACM_Class_Data
                0x0000000020001818      0x21c build/usbd_cdc_acm.o
                0x0000000020001818                CDC_ACM_Class_Data
 .bss.CDC_STR_DESC_IDX
                0x0000000020001a34        0x1 build/usbd_cdc_acm.o
                0x0000000020001a34                CDC_STR_DESC_IDX
 *fill*         0x0000000020001a35        0x3 
 .bss.CDC_COM_ITF_NBR
                0x0000000020001a38        0x1 build/usbd_cdc_acm.o
                0x0000000020001a38                CDC_COM_ITF_NBR
 *fill*         0x0000000020001a39        0x3 
 .bss.CDC_CMD_ITF_NBR
                0x0000000020001a3c        0x1 build/usbd_cdc_acm.o
                0x0000000020001a3c                CDC_CMD_ITF_NBR
 *fill*         0x0000000020001a3d        0x3 
 .bss.CDC_CMD_EP
                0x0000000020001a40        0x1 build/usbd_cdc_acm.o
                0x0000000020001a40                CDC_CMD_EP
 *fill*         0x0000000020001a41        0x3 
 .bss.CDC_OUT_EP
                0x0000000020001a44        0x1 build/usbd_cdc_acm.o
                0x0000000020001a44                CDC_OUT_EP
 *fill*         0x0000000020001a45        0x3 
 .bss.CDC_IN_EP
                0x0000000020001a48        0x1 build/usbd_cdc_acm.o
                0x0000000020001a48                CDC_IN_EP
 *fill*         0x0000000020001a49        0x3 
 .bss.Line_Coding
                0x0000000020001a4c        0x8 build/usbd_cdc_acm_if.o
                0x0000000020001a4c                Line_Coding
 .bss.RX_Buffer
                0x0000000020001a54       0x80 build/usbd_cdc_acm_if.o
                0x0000000020001a54                RX_Buffer
 .bss.__malloc_free_list
                0x0000000020001ad4        0x4 /opt/gcc-arm-none-eabi-10.3-2021.10/bin/../lib/gcc/arm-none-eabi/10.3.1/../../../../arm-none-eabi/lib/thumb/v7e-m+fp/hard/libc_nano.a(lib_a-nano-mallocr.o)
                0x0000000020001ad4                __malloc_free_list
 .bss.__malloc_sbrk_start
                0x0000000020001ad8        0x4 /opt/gcc-arm-none-eabi-10.3-2021.10/bin/../lib/gcc/arm-none-eabi/10.3.1/../../../../arm-none-eabi/lib/thumb/v7e-m+fp/hard/libc_nano.a(lib_a-nano-mallocr.o)
                0x0000000020001ad8                __malloc_sbrk_start
 .bss.errno     0x0000000020001adc        0x4 /opt/gcc-arm-none-eabi-10.3-2021.10/bin/../lib/gcc/arm-none-eabi/10.3.1/../../../../arm-none-eabi/lib/thumb/v7e-m+fp/hard/libc_nano.a(lib_a-reent.o)
                0x0000000020001adc                errno
 .bss.__lock___malloc_recursive_mutex
                0x0000000020001ae0        0x1 /opt/gcc-arm-none-eabi-10.3-2021.10/bin/../lib/gcc/arm-none-eabi/10.3.1/../../../../arm-none-eabi/lib/thumb/v7e-m+fp/hard/libc_nano.a(lib_a-lock.o)
                0x0000000020001ae0                __lock___malloc_recursive_mutex
 *fill*         0x0000000020001ae1        0x3 
 .bss.heap_end.0
                0x0000000020001ae4        0x4 /opt/gcc-arm-none-eabi-10.3-2021.10/bin/../lib/gcc/arm-none-eabi/10.3.1/../../../../arm-none-eabi/lib/thumb/v7e-m+fp/hard/libnosys.a(sbrk.o)
 *(COMMON)
                0x0000000020001ae8                . = ALIGN (0x4)
                0x0000000020001ae8                _ebss = .
                0x0000000020001ae8                __bss_end__ = _ebss

._user_heap_stack
                0x0000000020001ae8     0x1000 load address 0x000000000800b67c
                0x0000000020001ae8                . = ALIGN (0x8)
                0x0000000020001ae8                PROVIDE (end = .)
                [!provide]                        PROVIDE (_end = .)
                0x00000000200022e8                . = (. + _Min_Heap_Size)
 *fill*         0x0000000020001ae8      0x800 
                0x0000000020002ae8                . = (. + _Min_Stack_Size)
 *fill*         0x00000000200022e8      0x800 
                0x0000000020002ae8                . = ALIGN (0x8)

/DISCARD/
 libc.a(*)
 libm.a(*)
 libgcc.a(*)

.ARM.attributes
                0x0000000000000000       0x30
 *(.ARM.attributes)
 .ARM.attributes
                0x0000000000000000       0x1e /opt/gcc-arm-none-eabi-10.3-2021.10/bin/../lib/gcc/arm-none-eabi/10.3.1/thumb/v7e-m+fp/hard/crti.o
 .ARM.attributes
                0x000000000000001e       0x34 /opt/gcc-arm-none-eabi-10.3-2021.10/bin/../lib/gcc/arm-none-eabi/10.3.1/thumb/v7e-m+fp/hard/crtbegin.o
 .ARM.attributes
                0x0000000000000052       0x34 build/main.o
 .ARM.attributes
                0x0000000000000086       0x34 build/gpio.o
 .ARM.attributes
                0x00000000000000ba       0x34 build/i2c.o
 .ARM.attributes
                0x00000000000000ee       0x34 build/rng.o
 .ARM.attributes
                0x0000000000000122       0x34 build/spi.o
 .ARM.attributes
                0x0000000000000156       0x34 build/stm32f7xx_it.o
 .ARM.attributes
                0x000000000000018a       0x34 build/stm32f7xx_hal_msp.o
 .ARM.attributes
                0x00000000000001be       0x34 build/stm32f7xx_hal_rcc.o
 .ARM.attributes
                0x00000000000001f2       0x34 build/stm32f7xx_hal_rcc_ex.o
 .ARM.attributes
                0x0000000000000226       0x34 build/stm32f7xx_hal_gpio.o
 .ARM.attributes
                0x000000000000025a       0x34 build/stm32f7xx_hal_dma.o
 .ARM.attributes
                0x000000000000028e       0x34 build/stm32f7xx_hal_pwr_ex.o
 .ARM.attributes
                0x00000000000002c2       0x34 build/stm32f7xx_hal_cortex.o
 .ARM.attributes
                0x00000000000002f6       0x34 build/stm32f7xx_hal.o
 .ARM.attributes
                0x000000000000032a       0x34 build/stm32f7xx_hal_i2c.o
 .ARM.attributes
                0x000000000000035e       0x34 build/stm32f7xx_hal_i2c_ex.o
 .ARM.attributes
                0x0000000000000392       0x34 build/stm32f7xx_hal_rng.o
 .ARM.attributes
                0x00000000000003c6       0x34 build/stm32f7xx_hal_spi.o
 .ARM.attributes
                0x00000000000003fa       0x34 build/stm32f7xx_hal_tim.o
 .ARM.attributes
                0x000000000000042e       0x34 build/stm32f7xx_hal_tim_ex.o
 .ARM.attributes
                0x0000000000000462       0x34 build/system_stm32f7xx.o
 .ARM.attributes
                0x0000000000000496       0x34 build/stm32f7xx_hal_pcd.o
 .ARM.attributes
                0x00000000000004ca       0x34 build/stm32f7xx_hal_pcd_ex.o
 .ARM.attributes
                0x00000000000004fe       0x34 build/stm32f7xx_ll_usb.o
 .ARM.attributes
                0x0000000000000532       0x34 build/nyan_leds.o
 .ARM.attributes
                0x0000000000000566       0x34 build/nyan_os.o
 .ARM.attributes
                0x000000000000059a       0x34 build/24xx_eeprom.o
 .ARM.attributes
                0x00000000000005ce       0x34 build/tim.o
 .ARM.attributes
                0x0000000000000602       0x34 build/usb_otg.o
 .ARM.attributes
                0x0000000000000636       0x34 build/usbd_composite.o
 .ARM.attributes
                0x000000000000066a       0x34 build/usbd_hid_keyboard.o
 .ARM.attributes
                0x000000000000069e       0x34 build/usbd_core.o
 .ARM.attributes
                0x00000000000006d2       0x34 build/usbd_ctlreq.o
 .ARM.attributes
                0x0000000000000706       0x34 build/usbd_ioreq.o
 .ARM.attributes
                0x000000000000073a       0x34 build/usb_device.o
 .ARM.attributes
                0x000000000000076e       0x34 build/usbd_desc.o
 .ARM.attributes
                0x00000000000007a2       0x34 build/usbd_conf.o
 .ARM.attributes
                0x00000000000007d6       0x34 build/usbd_cdc_acm.o
 .ARM.attributes
                0x000000000000080a       0x34 build/usbd_cdc_acm_if.o
 .ARM.attributes
                0x000000000000083e       0x34 build/dma.o
 .ARM.attributes
                0x0000000000000872       0x21 build/startup_stm32f723xx.o
 .ARM.attributes
                0x0000000000000893       0x34 /opt/gcc-arm-none-eabi-10.3-2021.10/bin/../lib/gcc/arm-none-eabi/10.3.1/../../../../arm-none-eabi/lib/thumb/v7e-m+fp/hard/libc_nano.a(lib_a-impure.o)
 .ARM.attributes
                0x00000000000008c7       0x34 /opt/gcc-arm-none-eabi-10.3-2021.10/bin/../lib/gcc/arm-none-eabi/10.3.1/../../../../arm-none-eabi/lib/thumb/v7e-m+fp/hard/libc_nano.a(lib_a-init.o)
 .ARM.attributes
                0x00000000000008fb       0x34 /opt/gcc-arm-none-eabi-10.3-2021.10/bin/../lib/gcc/arm-none-eabi/10.3.1/../../../../arm-none-eabi/lib/thumb/v7e-m+fp/hard/libc_nano.a(lib_a-malloc.o)
 .ARM.attributes
                0x000000000000092f       0x34 /opt/gcc-arm-none-eabi-10.3-2021.10/bin/../lib/gcc/arm-none-eabi/10.3.1/../../../../arm-none-eabi/lib/thumb/v7e-m+fp/hard/libc_nano.a(lib_a-memcmp.o)
 .ARM.attributes
                0x0000000000000963       0x34 /opt/gcc-arm-none-eabi-10.3-2021.10/bin/../lib/gcc/arm-none-eabi/10.3.1/../../../../arm-none-eabi/lib/thumb/v7e-m+fp/hard/libc_nano.a(lib_a-memcpy-stub.o)
 .ARM.attributes
                0x0000000000000997       0x34 /opt/gcc-arm-none-eabi-10.3-2021.10/bin/../lib/gcc/arm-none-eabi/10.3.1/../../../../arm-none-eabi/lib/thumb/v7e-m+fp/hard/libc_nano.a(lib_a-memset.o)
 .ARM.attributes
                0x00000000000009cb       0x34 /opt/gcc-arm-none-eabi-10.3-2021.10/bin/../lib/gcc/arm-none-eabi/10.3.1/../../../../arm-none-eabi/lib/thumb/v7e-m+fp/hard/libc_nano.a(lib_a-nano-freer.o)
 .ARM.attributes
                0x00000000000009ff       0x34 /opt/gcc-arm-none-eabi-10.3-2021.10/bin/../lib/gcc/arm-none-eabi/10.3.1/../../../../arm-none-eabi/lib/thumb/v7e-m+fp/hard/libc_nano.a(lib_a-nano-mallocr.o)
 .ARM.attributes
                0x0000000000000a33       0x34 /opt/gcc-arm-none-eabi-10.3-2021.10/bin/../lib/gcc/arm-none-eabi/10.3.1/../../../../arm-none-eabi/lib/thumb/v7e-m+fp/hard/libc_nano.a(lib_a-realloc.o)
 .ARM.attributes
                0x0000000000000a67       0x34 /opt/gcc-arm-none-eabi-10.3-2021.10/bin/../lib/gcc/arm-none-eabi/10.3.1/../../../../arm-none-eabi/lib/thumb/v7e-m+fp/hard/libc_nano.a(lib_a-sbrkr.o)
 .ARM.attributes
                0x0000000000000a9b       0x34 /opt/gcc-arm-none-eabi-10.3-2021.10/bin/../lib/gcc/arm-none-eabi/10.3.1/../../../../arm-none-eabi/lib/thumb/v7e-m+fp/hard/libc_nano.a(lib_a-snprintf.o)
 .ARM.attributes
                0x0000000000000acf       0x17 /opt/gcc-arm-none-eabi-10.3-2021.10/bin/../lib/gcc/arm-none-eabi/10.3.1/../../../../arm-none-eabi/lib/thumb/v7e-m+fp/hard/libc_nano.a(lib_a-strlen.o)
 .ARM.attributes
                0x0000000000000ae6       0x34 /opt/gcc-arm-none-eabi-10.3-2021.10/bin/../lib/gcc/arm-none-eabi/10.3.1/../../../../arm-none-eabi/lib/thumb/v7e-m+fp/hard/libc_nano.a(lib_a-mlock.o)
 .ARM.attributes
                0x0000000000000b1a       0x34 /opt/gcc-arm-none-eabi-10.3-2021.10/bin/../lib/gcc/arm-none-eabi/10.3.1/../../../../arm-none-eabi/lib/thumb/v7e-m+fp/hard/libc_nano.a(lib_a-nano-reallocr.o)
 .ARM.attributes
                0x0000000000000b4e       0x34 /opt/gcc-arm-none-eabi-10.3-2021.10/bin/../lib/gcc/arm-none-eabi/10.3.1/../../../../arm-none-eabi/lib/thumb/v7e-m+fp/hard/libc_nano.a(lib_a-nano-svfprintf.o)
 .ARM.attributes
                0x0000000000000b82       0x34 /opt/gcc-arm-none-eabi-10.3-2021.10/bin/../lib/gcc/arm-none-eabi/10.3.1/../../../../arm-none-eabi/lib/thumb/v7e-m+fp/hard/libc_nano.a(lib_a-nano-vfprintf_i.o)
 .ARM.attributes
                0x0000000000000bb6       0x34 /opt/gcc-arm-none-eabi-10.3-2021.10/bin/../lib/gcc/arm-none-eabi/10.3.1/../../../../arm-none-eabi/lib/thumb/v7e-m+fp/hard/libc_nano.a(lib_a-reent.o)
 .ARM.attributes
                0x0000000000000bea       0x34 /opt/gcc-arm-none-eabi-10.3-2021.10/bin/../lib/gcc/arm-none-eabi/10.3.1/../../../../arm-none-eabi/lib/thumb/v7e-m+fp/hard/libc_nano.a(lib_a-lock.o)
 .ARM.attributes
                0x0000000000000c1e       0x1c /opt/gcc-arm-none-eabi-10.3-2021.10/bin/../lib/gcc/arm-none-eabi/10.3.1/../../../../arm-none-eabi/lib/thumb/v7e-m+fp/hard/libc_nano.a(lib_a-memchr.o)
 .ARM.attributes
                0x0000000000000c3a       0x34 /opt/gcc-arm-none-eabi-10.3-2021.10/bin/../lib/gcc/arm-none-eabi/10.3.1/../../../../arm-none-eabi/lib/thumb/v7e-m+fp/hard/libc_nano.a(lib_a-memmove.o)
 .ARM.attributes
                0x0000000000000c6e       0x34 /opt/gcc-arm-none-eabi-10.3-2021.10/bin/../lib/gcc/arm-none-eabi/10.3.1/../../../../arm-none-eabi/lib/thumb/v7e-m+fp/hard/libc_nano.a(lib_a-nano-msizer.o)
 .ARM.attributes
                0x0000000000000ca2       0x34 /opt/gcc-arm-none-eabi-10.3-2021.10/bin/../lib/gcc/arm-none-eabi/10.3.1/../../../../arm-none-eabi/lib/thumb/v7e-m+fp/hard/libm.a(lib_a-s_floor.o)
 .ARM.attributes
                0x0000000000000cd6       0x34 /opt/gcc-arm-none-eabi-10.3-2021.10/bin/../lib/gcc/arm-none-eabi/10.3.1/../../../../arm-none-eabi/lib/thumb/v7e-m+fp/hard/libm.a(lib_a-sf_cos.o)
 .ARM.attributes
                0x0000000000000d0a       0x34 /opt/gcc-arm-none-eabi-10.3-2021.10/bin/../lib/gcc/arm-none-eabi/10.3.1/../../../../arm-none-eabi/lib/thumb/v7e-m+fp/hard/libm.a(lib_a-w_pow.o)
 .ARM.attributes
                0x0000000000000d3e       0x34 /opt/gcc-arm-none-eabi-10.3-2021.10/bin/../lib/gcc/arm-none-eabi/10.3.1/../../../../arm-none-eabi/lib/thumb/v7e-m+fp/hard/libm.a(lib_a-e_pow.o)
 .ARM.attributes
                0x0000000000000d72       0x34 /opt/gcc-arm-none-eabi-10.3-2021.10/bin/../lib/gcc/arm-none-eabi/10.3.1/../../../../arm-none-eabi/lib/thumb/v7e-m+fp/hard/libm.a(lib_a-e_sqrt.o)
 .ARM.attributes
                0x0000000000000da6       0x34 /opt/gcc-arm-none-eabi-10.3-2021.10/bin/../lib/gcc/arm-none-eabi/10.3.1/../../../../arm-none-eabi/lib/thumb/v7e-m+fp/hard/libm.a(lib_a-ef_rem_pio2.o)
 .ARM.attributes
                0x0000000000000dda       0x34 /opt/gcc-arm-none-eabi-10.3-2021.10/bin/../lib/gcc/arm-none-eabi/10.3.1/../../../../arm-none-eabi/lib/thumb/v7e-m+fp/hard/libm.a(lib_a-kf_cos.o)
 .ARM.attributes
                0x0000000000000e0e       0x34 /opt/gcc-arm-none-eabi-10.3-2021.10/bin/../lib/gcc/arm-none-eabi/10.3.1/../../../../arm-none-eabi/lib/thumb/v7e-m+fp/hard/libm.a(lib_a-kf_rem_pio2.o)
 .ARM.attributes
                0x0000000000000e42       0x34 /opt/gcc-arm-none-eabi-10.3-2021.10/bin/../lib/gcc/arm-none-eabi/10.3.1/../../../../arm-none-eabi/lib/thumb/v7e-m+fp/hard/libm.a(lib_a-kf_sin.o)
 .ARM.attributes
                0x0000000000000e76       0x34 /opt/gcc-arm-none-eabi-10.3-2021.10/bin/../lib/gcc/arm-none-eabi/10.3.1/../../../../arm-none-eabi/lib/thumb/v7e-m+fp/hard/libm.a(lib_a-math_err.o)
 .ARM.attributes
                0x0000000000000eaa       0x34 /opt/gcc-arm-none-eabi-10.3-2021.10/bin/../lib/gcc/arm-none-eabi/10.3.1/../../../../arm-none-eabi/lib/thumb/v7e-m+fp/hard/libm.a(lib_a-s_fabs.o)
 .ARM.attributes
                0x0000000000000ede       0x34 /opt/gcc-arm-none-eabi-10.3-2021.10/bin/../lib/gcc/arm-none-eabi/10.3.1/../../../../arm-none-eabi/lib/thumb/v7e-m+fp/hard/libm.a(lib_a-s_finite.o)
 .ARM.attributes
                0x0000000000000f12       0x34 /opt/gcc-arm-none-eabi-10.3-2021.10/bin/../lib/gcc/arm-none-eabi/10.3.1/../../../../arm-none-eabi/lib/thumb/v7e-m+fp/hard/libm.a(lib_a-s_scalbn.o)
 .ARM.attributes
                0x0000000000000f46       0x34 /opt/gcc-arm-none-eabi-10.3-2021.10/bin/../lib/gcc/arm-none-eabi/10.3.1/../../../../arm-none-eabi/lib/thumb/v7e-m+fp/hard/libm.a(lib_a-sf_fabs.o)
 .ARM.attributes
                0x0000000000000f7a       0x34 /opt/gcc-arm-none-eabi-10.3-2021.10/bin/../lib/gcc/arm-none-eabi/10.3.1/../../../../arm-none-eabi/lib/thumb/v7e-m+fp/hard/libm.a(lib_a-sf_floor.o)
 .ARM.attributes
                0x0000000000000fae       0x34 /opt/gcc-arm-none-eabi-10.3-2021.10/bin/../lib/gcc/arm-none-eabi/10.3.1/../../../../arm-none-eabi/lib/thumb/v7e-m+fp/hard/libm.a(lib_a-sf_scalbn.o)
 .ARM.attributes
                0x0000000000000fe2       0x34 /opt/gcc-arm-none-eabi-10.3-2021.10/bin/../lib/gcc/arm-none-eabi/10.3.1/../../../../arm-none-eabi/lib/thumb/v7e-m+fp/hard/libnosys.a(sbrk.o)
 .ARM.attributes
                0x0000000000001016       0x1e /opt/gcc-arm-none-eabi-10.3-2021.10/bin/../lib/gcc/arm-none-eabi/10.3.1/thumb/v7e-m+fp/hard/libgcc.a(_arm_addsubdf3.o)
 .ARM.attributes
                0x0000000000001034       0x1e /opt/gcc-arm-none-eabi-10.3-2021.10/bin/../lib/gcc/arm-none-eabi/10.3.1/thumb/v7e-m+fp/hard/libgcc.a(_arm_muldivdf3.o)
 .ARM.attributes
                0x0000000000001052       0x1e /opt/gcc-arm-none-eabi-10.3-2021.10/bin/../lib/gcc/arm-none-eabi/10.3.1/thumb/v7e-m+fp/hard/libgcc.a(_arm_cmpdf2.o)
 .ARM.attributes
                0x0000000000001070       0x1e /opt/gcc-arm-none-eabi-10.3-2021.10/bin/../lib/gcc/arm-none-eabi/10.3.1/thumb/v7e-m+fp/hard/libgcc.a(_arm_unorddf2.o)
 .ARM.attributes
                0x000000000000108e       0x1e /opt/gcc-arm-none-eabi-10.3-2021.10/bin/../lib/gcc/arm-none-eabi/10.3.1/thumb/v7e-m+fp/hard/libgcc.a(_arm_fixunsdfsi.o)
 .ARM.attributes
                0x00000000000010ac       0x1e /opt/gcc-arm-none-eabi-10.3-2021.10/bin/../lib/gcc/arm-none-eabi/10.3.1/thumb/v7e-m+fp/hard/libgcc.a(_arm_truncdfsf2.o)
 .ARM.attributes
                0x00000000000010ca       0x1e /opt/gcc-arm-none-eabi-10.3-2021.10/bin/../lib/gcc/arm-none-eabi/10.3.1/thumb/v7e-m+fp/hard/libgcc.a(_aeabi_uldivmod.o)
 .ARM.attributes
                0x00000000000010e8       0x34 /opt/gcc-arm-none-eabi-10.3-2021.10/bin/../lib/gcc/arm-none-eabi/10.3.1/thumb/v7e-m+fp/hard/libgcc.a(_udivmoddi4.o)
 .ARM.attributes
                0x000000000000111c       0x1e /opt/gcc-arm-none-eabi-10.3-2021.10/bin/../lib/gcc/arm-none-eabi/10.3.1/thumb/v7e-m+fp/hard/libgcc.a(_dvmd_tls.o)
 .ARM.attributes
                0x000000000000113a       0x34 /opt/gcc-arm-none-eabi-10.3-2021.10/bin/../lib/gcc/arm-none-eabi/10.3.1/../../../../arm-none-eabi/lib/thumb/v7e-m+fp/hard/libc_nano.a(lib_a-errno.o)
 .ARM.attributes
                0x000000000000116e       0x1e /opt/gcc-arm-none-eabi-10.3-2021.10/bin/../lib/gcc/arm-none-eabi/10.3.1/thumb/v7e-m+fp/hard/crtn.o
OUTPUT(build/nyan_keys.elf elf32-littlearm)
LOAD linker stubs
LOAD /opt/gcc-arm-none-eabi-10.3-2021.10/bin/../lib/gcc/arm-none-eabi/10.3.1/../../../../arm-none-eabi/lib/thumb/v7e-m+fp/hard/libc.a
LOAD /opt/gcc-arm-none-eabi-10.3-2021.10/bin/../lib/gcc/arm-none-eabi/10.3.1/../../../../arm-none-eabi/lib/thumb/v7e-m+fp/hard/libm.a
LOAD /opt/gcc-arm-none-eabi-10.3-2021.10/bin/../lib/gcc/arm-none-eabi/10.3.1/thumb/v7e-m+fp/hard/libgcc.a

.debug_info     0x0000000000000000    0x28ff5
 .debug_info    0x0000000000000000     0x1985 build/main.o
 .debug_info    0x0000000000001985      0x499 build/gpio.o
 .debug_info    0x0000000000001e1e     0x10e2 build/i2c.o
 .debug_info    0x0000000000002f00      0x6a6 build/rng.o
 .debug_info    0x00000000000035a6      0xbb7 build/spi.o
 .debug_info    0x000000000000415d     0x12ee build/stm32f7xx_it.o
 .debug_info    0x000000000000544b      0x289 build/stm32f7xx_hal_msp.o
 .debug_info    0x00000000000056d4      0xb22 build/stm32f7xx_hal_rcc.o
 .debug_info    0x00000000000061f6      0x7d6 build/stm32f7xx_hal_rcc_ex.o
 .debug_info    0x00000000000069cc      0x728 build/stm32f7xx_hal_gpio.o
 .debug_info    0x00000000000070f4      0xad9 build/stm32f7xx_hal_dma.o
 .debug_info    0x0000000000007bcd      0x9ba build/stm32f7xx_hal_pwr_ex.o
 .debug_info    0x0000000000008587     0x1138 build/stm32f7xx_hal_cortex.o
 .debug_info    0x00000000000096bf      0xab3 build/stm32f7xx_hal.o
 .debug_info    0x000000000000a172     0x40a1 build/stm32f7xx_hal_i2c.o
 .debug_info    0x000000000000e213      0x940 build/stm32f7xx_hal_i2c_ex.o
 .debug_info    0x000000000000eb53      0x530 build/stm32f7xx_hal_rng.o
 .debug_info    0x000000000000f083     0x20ef build/stm32f7xx_hal_spi.o
 .debug_info    0x0000000000011172     0x3cb0 build/stm32f7xx_hal_tim.o
 .debug_info    0x0000000000014e22     0x1bb7 build/stm32f7xx_hal_tim_ex.o
 .debug_info    0x00000000000169d9      0x702 build/system_stm32f7xx.o
 .debug_info    0x00000000000170db     0x1c4a build/stm32f7xx_hal_pcd.o
 .debug_info    0x0000000000018d25      0x7ae build/stm32f7xx_hal_pcd_ex.o
 .debug_info    0x00000000000194d3     0x1fd4 build/stm32f7xx_ll_usb.o
 .debug_info    0x000000000001b4a7      0x1d5 build/nyan_leds.o
 .debug_info    0x000000000001b67c      0x8b0 build/nyan_os.o
 .debug_info    0x000000000001bf2c      0xb0f build/24xx_eeprom.o
 .debug_info    0x000000000001ca3b     0x1353 build/tim.o
 .debug_info    0x000000000001dd8e      0xf6f build/usb_otg.o
 .debug_info    0x000000000001ecfd      0xf46 build/usbd_composite.o
 .debug_info    0x000000000001fc43      0xc90 build/usbd_hid_keyboard.o
 .debug_info    0x00000000000208d3      0xfa2 build/usbd_core.o
 .debug_info    0x0000000000021875     0x1400 build/usbd_ctlreq.o
 .debug_info    0x0000000000022c75      0x974 build/usbd_ioreq.o
 .debug_info    0x00000000000235e9      0x8a9 build/usb_device.o
 .debug_info    0x0000000000023e92      0x5bc build/usbd_desc.o
 .debug_info    0x000000000002444e     0x1d8e build/usbd_conf.o
 .debug_info    0x00000000000261dc     0x188e build/usbd_cdc_acm.o
 .debug_info    0x0000000000027a6a     0x1016 build/usbd_cdc_acm_if.o
 .debug_info    0x0000000000028a80      0x545 build/dma.o
 .debug_info    0x0000000000028fc5       0x30 build/startup_stm32f723xx.o

.debug_abbrev   0x0000000000000000     0x5c37
 .debug_abbrev  0x0000000000000000      0x2f4 build/main.o
 .debug_abbrev  0x00000000000002f4      0x164 build/gpio.o
 .debug_abbrev  0x0000000000000458      0x261 build/i2c.o
 .debug_abbrev  0x00000000000006b9      0x1c5 build/rng.o
 .debug_abbrev  0x000000000000087e      0x215 build/spi.o
 .debug_abbrev  0x0000000000000a93      0x26d build/stm32f7xx_it.o
 .debug_abbrev  0x0000000000000d00       0xd6 build/stm32f7xx_hal_msp.o
 .debug_abbrev  0x0000000000000dd6      0x28e build/stm32f7xx_hal_rcc.o
 .debug_abbrev  0x0000000000001064      0x1b9 build/stm32f7xx_hal_rcc_ex.o
 .debug_abbrev  0x000000000000121d      0x202 build/stm32f7xx_hal_gpio.o
 .debug_abbrev  0x000000000000141f      0x2c0 build/stm32f7xx_hal_dma.o
 .debug_abbrev  0x00000000000016df      0x1ef build/stm32f7xx_hal_pwr_ex.o
 .debug_abbrev  0x00000000000018ce      0x39d build/stm32f7xx_hal_cortex.o
 .debug_abbrev  0x0000000000001c6b      0x23f build/stm32f7xx_hal.o
 .debug_abbrev  0x0000000000001eaa      0x292 build/stm32f7xx_hal_i2c.o
 .debug_abbrev  0x000000000000213c      0x1c4 build/stm32f7xx_hal_i2c_ex.o
 .debug_abbrev  0x0000000000002300      0x1c2 build/stm32f7xx_hal_rng.o
 .debug_abbrev  0x00000000000024c2      0x27c build/stm32f7xx_hal_spi.o
 .debug_abbrev  0x000000000000273e      0x271 build/stm32f7xx_hal_tim.o
 .debug_abbrev  0x00000000000029af      0x26f build/stm32f7xx_hal_tim_ex.o
 .debug_abbrev  0x0000000000002c1e      0x13f build/system_stm32f7xx.o
 .debug_abbrev  0x0000000000002d5d      0x309 build/stm32f7xx_hal_pcd.o
 .debug_abbrev  0x0000000000003066      0x1e3 build/stm32f7xx_hal_pcd_ex.o
 .debug_abbrev  0x0000000000003249      0x321 build/stm32f7xx_ll_usb.o
 .debug_abbrev  0x000000000000356a      0x112 build/nyan_leds.o
 .debug_abbrev  0x000000000000367c      0x205 build/nyan_os.o
 .debug_abbrev  0x0000000000003881      0x24b build/24xx_eeprom.o
 .debug_abbrev  0x0000000000003acc      0x260 build/tim.o
 .debug_abbrev  0x0000000000003d2c      0x265 build/usb_otg.o
 .debug_abbrev  0x0000000000003f91      0x379 build/usbd_composite.o
 .debug_abbrev  0x000000000000430a      0x2e9 build/usbd_hid_keyboard.o
 .debug_abbrev  0x00000000000045f3      0x28f build/usbd_core.o
 .debug_abbrev  0x0000000000004882      0x351 build/usbd_ctlreq.o
 .debug_abbrev  0x0000000000004bd3      0x1bf build/usbd_ioreq.o
 .debug_abbrev  0x0000000000004d92      0x1b7 build/usb_device.o
 .debug_abbrev  0x0000000000004f49      0x230 build/usbd_desc.o
 .debug_abbrev  0x0000000000005179      0x32e build/usbd_conf.o
 .debug_abbrev  0x00000000000054a7      0x33f build/usbd_cdc_acm.o
 .debug_abbrev  0x00000000000057e6      0x302 build/usbd_cdc_acm_if.o
 .debug_abbrev  0x0000000000005ae8      0x12b build/dma.o
 .debug_abbrev  0x0000000000005c13       0x24 build/startup_stm32f723xx.o

.debug_loc      0x0000000000000000      0x651
 .debug_loc     0x0000000000000000      0x1e7 build/main.o
 .debug_loc     0x00000000000001e7      0x46a build/24xx_eeprom.o

.debug_aranges  0x0000000000000000     0x1a90
 .debug_aranges
                0x0000000000000000       0x58 build/main.o
 .debug_aranges
                0x0000000000000058       0x20 build/gpio.o
 .debug_aranges
                0x0000000000000078       0x30 build/i2c.o
 .debug_aranges
                0x00000000000000a8       0x30 build/rng.o
 .debug_aranges
                0x00000000000000d8       0x40 build/spi.o
 .debug_aranges
                0x0000000000000118       0xb0 build/stm32f7xx_it.o
 .debug_aranges
                0x00000000000001c8       0x20 build/stm32f7xx_hal_msp.o
 .debug_aranges
                0x00000000000001e8       0x88 build/stm32f7xx_hal_rcc.o
 .debug_aranges
                0x0000000000000270       0x50 build/stm32f7xx_hal_rcc_ex.o
 .debug_aranges
                0x00000000000002c0       0x58 build/stm32f7xx_hal_gpio.o
 .debug_aranges
                0x0000000000000318       0x90 build/stm32f7xx_hal_dma.o
 .debug_aranges
                0x00000000000003a8       0x80 build/stm32f7xx_hal_pwr_ex.o
 .debug_aranges
                0x0000000000000428       0xd8 build/stm32f7xx_hal_cortex.o
 .debug_aranges
                0x0000000000000500      0x100 build/stm32f7xx_hal.o
 .debug_aranges
                0x0000000000000600      0x2a0 build/stm32f7xx_hal_i2c.o
 .debug_aranges
                0x00000000000008a0       0x38 build/stm32f7xx_hal_i2c_ex.o
 .debug_aranges
                0x00000000000008d8       0x88 build/stm32f7xx_hal_rng.o
 .debug_aranges
                0x0000000000000960      0x1d8 build/stm32f7xx_hal_spi.o
 .debug_aranges
                0x0000000000000b38      0x3e0 build/stm32f7xx_hal_tim.o
 .debug_aranges
                0x0000000000000f18      0x178 build/stm32f7xx_hal_tim_ex.o
 .debug_aranges
                0x0000000000001090       0x28 build/system_stm32f7xx.o
 .debug_aranges
                0x00000000000010b8      0x148 build/stm32f7xx_hal_pcd.o
 .debug_aranges
                0x0000000000001200       0x48 build/stm32f7xx_hal_pcd_ex.o
 .debug_aranges
                0x0000000000001248      0x1b0 build/stm32f7xx_ll_usb.o
 .debug_aranges
                0x00000000000013f8       0x20 build/nyan_leds.o
 .debug_aranges
                0x0000000000001418       0x58 build/nyan_os.o
 .debug_aranges
                0x0000000000001470       0x48 build/24xx_eeprom.o
 .debug_aranges
                0x00000000000014b8       0x58 build/tim.o
 .debug_aranges
                0x0000000000001510       0x30 build/usb_otg.o
 .debug_aranges
                0x0000000000001540       0x98 build/usbd_composite.o
 .debug_aranges
                0x00000000000015d8       0x70 build/usbd_hid_keyboard.o
 .debug_aranges
                0x0000000000001648       0xb8 build/usbd_core.o
 .debug_aranges
                0x0000000000001700       0x88 build/usbd_ctlreq.o
 .debug_aranges
                0x0000000000001788       0x50 build/usbd_ioreq.o
 .debug_aranges
                0x00000000000017d8       0x20 build/usb_device.o
 .debug_aranges
                0x00000000000017f8       0x60 build/usbd_desc.o
 .debug_aranges
                0x0000000000001858      0x110 build/usbd_conf.o
 .debug_aranges
                0x0000000000001968       0x98 build/usbd_cdc_acm.o
 .debug_aranges
                0x0000000000001a00       0x48 build/usbd_cdc_acm_if.o
 .debug_aranges
                0x0000000000001a48       0x20 build/dma.o
 .debug_aranges
                0x0000000000001a68       0x28 build/startup_stm32f723xx.o

.debug_ranges   0x0000000000000000       0x80
 .debug_ranges  0x0000000000000000       0x48 build/main.o
 .debug_ranges  0x0000000000000048       0x38 build/24xx_eeprom.o

.debug_line     0x0000000000000000    0x1f0a7
 .debug_line    0x0000000000000000      0x5ed build/main.o
 .debug_line    0x00000000000005ed      0x258 build/gpio.o
 .debug_line    0x0000000000000845      0x4c8 build/i2c.o
 .debug_line    0x0000000000000d0d      0x2fc build/rng.o
 .debug_line    0x0000000000001009      0x584 build/spi.o
 .debug_line    0x000000000000158d      0x4dd build/stm32f7xx_it.o
 .debug_line    0x0000000000001a6a      0x1eb build/stm32f7xx_hal_msp.o
 .debug_line    0x0000000000001c55      0xd1a build/stm32f7xx_hal_rcc.o
 .debug_line    0x000000000000296f      0xb57 build/stm32f7xx_hal_rcc_ex.o
 .debug_line    0x00000000000034c6      0x752 build/stm32f7xx_hal_gpio.o
 .debug_line    0x0000000000003c18      0xeff build/stm32f7xx_hal_dma.o
 .debug_line    0x0000000000004b17      0x5f5 build/stm32f7xx_hal_pwr_ex.o
 .debug_line    0x000000000000510c      0x8a6 build/stm32f7xx_hal_cortex.o
 .debug_line    0x00000000000059b2      0x62e build/stm32f7xx_hal.o
 .debug_line    0x0000000000005fe0     0x4f13 build/stm32f7xx_hal_i2c.o
 .debug_line    0x000000000000aef3      0x435 build/stm32f7xx_hal_i2c_ex.o
 .debug_line    0x000000000000b328      0x61e build/stm32f7xx_hal_rng.o
 .debug_line    0x000000000000b946     0x29cf build/stm32f7xx_hal_spi.o
 .debug_line    0x000000000000e315     0x4c87 build/stm32f7xx_hal_tim.o
 .debug_line    0x0000000000012f9c     0x1e41 build/stm32f7xx_hal_tim_ex.o
 .debug_line    0x0000000000014ddd      0x2e1 build/system_stm32f7xx.o
 .debug_line    0x00000000000150be     0x15f4 build/stm32f7xx_hal_pcd.o
 .debug_line    0x00000000000166b2      0x3ce build/stm32f7xx_hal_pcd_ex.o
 .debug_line    0x0000000000016a80     0x2089 build/stm32f7xx_ll_usb.o
 .debug_line    0x0000000000018b09      0x126 build/nyan_leds.o
 .debug_line    0x0000000000018c2f      0x6be build/nyan_os.o
 .debug_line    0x00000000000192ed      0x3da build/24xx_eeprom.o
 .debug_line    0x00000000000196c7      0x73e build/tim.o
 .debug_line    0x0000000000019e05      0x3f7 build/usb_otg.o
 .debug_line    0x000000000001a1fc      0x946 build/usbd_composite.o
 .debug_line    0x000000000001ab42      0x672 build/usbd_hid_keyboard.o
 .debug_line    0x000000000001b1b4      0x90f build/usbd_core.o
 .debug_line    0x000000000001bac3      0xd39 build/usbd_ctlreq.o
 .debug_line    0x000000000001c7fc      0x354 build/usbd_ioreq.o
 .debug_line    0x000000000001cb50      0x353 build/usb_device.o
 .debug_line    0x000000000001cea3      0x411 build/usbd_desc.o
 .debug_line    0x000000000001d2b4      0x904 build/usbd_conf.o
 .debug_line    0x000000000001dbb8      0xc33 build/usbd_cdc_acm.o
 .debug_line    0x000000000001e7eb      0x631 build/usbd_cdc_acm_if.o
 .debug_line    0x000000000001ee1c      0x215 build/dma.o
 .debug_line    0x000000000001f031       0x76 build/startup_stm32f723xx.o

.debug_str      0x0000000000000000     0x8086
 .debug_str     0x0000000000000000     0x10d7 build/main.o
                                       0x120c (size before relaxing)
 .debug_str     0x00000000000010d7       0xfd build/gpio.o
                                        0x36c (size before relaxing)
 .debug_str     0x00000000000011d4      0x8af build/i2c.o
                                       0x1145 (size before relaxing)
 .debug_str     0x0000000000001a83       0xe5 build/rng.o
                                        0x6bd (size before relaxing)
 .debug_str     0x0000000000001b68      0x208 build/spi.o
                                        0x83a (size before relaxing)
 .debug_str     0x0000000000001d70      0x585 build/stm32f7xx_it.o
                                       0x1050 (size before relaxing)
 .debug_str     0x00000000000022f5       0x29 build/stm32f7xx_hal_msp.o
                                        0x2ad (size before relaxing)
 .debug_str     0x000000000000231e      0x22c build/stm32f7xx_hal_rcc.o
                                        0x6fa (size before relaxing)
 .debug_str     0x000000000000254a      0x144 build/stm32f7xx_hal_rcc_ex.o
                                        0x6c7 (size before relaxing)
 .debug_str     0x000000000000268e      0x117 build/stm32f7xx_hal_gpio.o
                                        0x4d2 (size before relaxing)
 .debug_str     0x00000000000027a5      0x2d4 build/stm32f7xx_hal_dma.o
                                        0x74b (size before relaxing)
 .debug_str     0x0000000000002a79      0x2f0 build/stm32f7xx_hal_pwr_ex.o
                                        0x621 (size before relaxing)
 .debug_str     0x0000000000002d69      0x466 build/stm32f7xx_hal_cortex.o
                                        0xcf2 (size before relaxing)
 .debug_str     0x00000000000031cf      0x2ce build/stm32f7xx_hal.o
                                        0xbd6 (size before relaxing)
 .debug_str     0x000000000000349d      0x805 build/stm32f7xx_hal_i2c.o
                                       0x1045 (size before relaxing)
 .debug_str     0x0000000000003ca2       0x86 build/stm32f7xx_hal_i2c_ex.o
                                        0x8ec (size before relaxing)
 .debug_str     0x0000000000003d28      0x150 build/stm32f7xx_hal_rng.o
                                        0x42e (size before relaxing)
 .debug_str     0x0000000000003e78      0x54f build/stm32f7xx_hal_spi.o
                                        0xc31 (size before relaxing)
 .debug_str     0x00000000000043c7      0xef6 build/stm32f7xx_hal_tim.o
                                       0x1743 (size before relaxing)
 .debug_str     0x00000000000052bd      0x5b9 build/stm32f7xx_hal_tim_ex.o
                                        0xf99 (size before relaxing)
 .debug_str     0x0000000000005876       0x47 build/system_stm32f7xx.o
                                        0x430 (size before relaxing)
 .debug_str     0x00000000000058bd      0x82a build/stm32f7xx_hal_pcd.o
                                        0xdff (size before relaxing)
 .debug_str     0x00000000000060e7      0x152 build/stm32f7xx_hal_pcd_ex.o
                                        0x74e (size before relaxing)
 .debug_str     0x0000000000006239      0x4d9 build/stm32f7xx_ll_usb.o
                                        0xd4f (size before relaxing)
 .debug_str     0x0000000000006712       0x76 build/nyan_leds.o
                                        0x21c (size before relaxing)
 .debug_str     0x0000000000006788      0x12e build/nyan_os.o
                                        0x4ac (size before relaxing)
 .debug_str     0x00000000000068b6       0xab build/24xx_eeprom.o
                                        0x833 (size before relaxing)
 .debug_str     0x0000000000006961       0x35 build/tim.o
                                       0x10e8 (size before relaxing)
 .debug_str     0x0000000000006996       0x1d build/usb_otg.o
                                        0xfca (size before relaxing)
 .debug_str     0x00000000000069b3      0x8d4 build/usbd_composite.o
                                        0xb38 (size before relaxing)
 .debug_str     0x0000000000007287      0x2f4 build/usbd_hid_keyboard.o
                                        0xa6f (size before relaxing)
 .debug_str     0x000000000000757b      0x2ae build/usbd_core.o
                                        0x9ca (size before relaxing)
 .debug_str     0x0000000000007829      0x134 build/usbd_ctlreq.o
                                        0x91c (size before relaxing)
 .debug_str     0x000000000000795d       0x83 build/usbd_ioreq.o
                                        0x811 (size before relaxing)
 .debug_str     0x00000000000079e0       0xbb build/usb_device.o
                                        0x840 (size before relaxing)
 .debug_str     0x0000000000007a9b      0x172 build/usbd_desc.o
                                        0x447 (size before relaxing)
 .debug_str     0x0000000000007c0d       0xd7 build/usbd_conf.o
                                       0x119b (size before relaxing)
 .debug_str     0x0000000000007ce4      0x268 build/usbd_cdc_acm.o
                                        0xed8 (size before relaxing)
 .debug_str     0x0000000000007f4c       0xf9 build/usbd_cdc_acm_if.o
                                        0xb7e (size before relaxing)
 .debug_str     0x0000000000008045        0xf build/dma.o
                                        0x7e2 (size before relaxing)
 .debug_str     0x0000000000008054       0x32 build/startup_stm32f723xx.o
                                         0x51 (size before relaxing)

.comment        0x0000000000000000       0x82
 .comment       0x0000000000000000       0x49 build/main.o
                                         0x4a (size before relaxing)
 .comment       0x0000000000000049       0x39 build/gpio.o
                                         0x3a (size before relaxing)
 .comment       0x0000000000000082       0x3a build/i2c.o
 .comment       0x0000000000000082       0x3a build/rng.o
 .comment       0x0000000000000082       0x3a build/spi.o
 .comment       0x0000000000000082       0x3a build/stm32f7xx_it.o
 .comment       0x0000000000000082       0x3a build/stm32f7xx_hal_msp.o
 .comment       0x0000000000000082       0x3a build/stm32f7xx_hal_rcc.o
 .comment       0x0000000000000082       0x3a build/stm32f7xx_hal_rcc_ex.o
 .comment       0x0000000000000082       0x3a build/stm32f7xx_hal_gpio.o
 .comment       0x0000000000000082       0x3a build/stm32f7xx_hal_dma.o
 .comment       0x0000000000000082       0x3a build/stm32f7xx_hal_pwr_ex.o
 .comment       0x0000000000000082       0x3a build/stm32f7xx_hal_cortex.o
 .comment       0x0000000000000082       0x3a build/stm32f7xx_hal.o
 .comment       0x0000000000000082       0x3a build/stm32f7xx_hal_i2c.o
 .comment       0x0000000000000082       0x3a build/stm32f7xx_hal_i2c_ex.o
 .comment       0x0000000000000082       0x3a build/stm32f7xx_hal_rng.o
 .comment       0x0000000000000082       0x3a build/stm32f7xx_hal_spi.o
 .comment       0x0000000000000082       0x3a build/stm32f7xx_hal_tim.o
 .comment       0x0000000000000082       0x3a build/stm32f7xx_hal_tim_ex.o
 .comment       0x0000000000000082       0x3a build/system_stm32f7xx.o
 .comment       0x0000000000000082       0x3a build/stm32f7xx_hal_pcd.o
 .comment       0x0000000000000082       0x3a build/stm32f7xx_hal_pcd_ex.o
 .comment       0x0000000000000082       0x3a build/stm32f7xx_ll_usb.o
 .comment       0x0000000000000082       0x3a build/nyan_leds.o
 .comment       0x0000000000000082       0x3a build/nyan_os.o
 .comment       0x0000000000000082       0x4a build/24xx_eeprom.o
 .comment       0x0000000000000082       0x3a build/tim.o
 .comment       0x0000000000000082       0x3a build/usb_otg.o
 .comment       0x0000000000000082       0x3a build/usbd_composite.o
 .comment       0x0000000000000082       0x3a build/usbd_hid_keyboard.o
 .comment       0x0000000000000082       0x3a build/usbd_core.o
 .comment       0x0000000000000082       0x3a build/usbd_ctlreq.o
 .comment       0x0000000000000082       0x3a build/usbd_ioreq.o
 .comment       0x0000000000000082       0x3a build/usb_device.o
 .comment       0x0000000000000082       0x3a build/usbd_desc.o
 .comment       0x0000000000000082       0x3a build/usbd_conf.o
 .comment       0x0000000000000082       0x3a build/usbd_cdc_acm.o
 .comment       0x0000000000000082       0x3a build/usbd_cdc_acm_if.o
 .comment       0x0000000000000082       0x3a build/dma.o

.debug_frame    0x0000000000000000     0x5430
 .debug_frame   0x0000000000000000       0xc8 build/main.o
 .debug_frame   0x00000000000000c8       0x30 build/gpio.o
 .debug_frame   0x00000000000000f8       0x6c build/i2c.o
 .debug_frame   0x0000000000000164       0x5c build/rng.o
 .debug_frame   0x00000000000001c0       0x94 build/spi.o
 .debug_frame   0x0000000000000254      0x1a0 build/stm32f7xx_it.o
 .debug_frame   0x00000000000003f4       0x28 build/stm32f7xx_hal_msp.o
 .debug_frame   0x000000000000041c      0x178 build/stm32f7xx_hal_rcc.o
 .debug_frame   0x0000000000000594       0xc0 build/stm32f7xx_hal_rcc_ex.o
 .debug_frame   0x0000000000000654       0xd8 build/stm32f7xx_hal_gpio.o
 .debug_frame   0x000000000000072c      0x188 build/stm32f7xx_hal_dma.o
 .debug_frame   0x00000000000008b4      0x134 build/stm32f7xx_hal_pwr_ex.o
 .debug_frame   0x00000000000009e8      0x1cc build/stm32f7xx_hal_cortex.o
 .debug_frame   0x0000000000000bb4      0x20c build/stm32f7xx_hal.o
 .debug_frame   0x0000000000000dc0      0x97c build/stm32f7xx_hal_i2c.o
 .debug_frame   0x000000000000173c       0x60 build/stm32f7xx_hal_i2c_ex.o
 .debug_frame   0x000000000000179c      0x128 build/stm32f7xx_hal_rng.o
 .debug_frame   0x00000000000018c4      0x5d8 build/stm32f7xx_hal_spi.o
 .debug_frame   0x0000000000001e9c      0xb68 build/stm32f7xx_hal_tim.o
 .debug_frame   0x0000000000002a04      0x444 build/stm32f7xx_hal_tim_ex.o
 .debug_frame   0x0000000000002e48       0x30 build/system_stm32f7xx.o
 .debug_frame   0x0000000000002e78      0x388 build/stm32f7xx_hal_pcd.o
 .debug_frame   0x0000000000003200       0x7c build/stm32f7xx_hal_pcd_ex.o
 .debug_frame   0x000000000000327c      0x4cc build/stm32f7xx_ll_usb.o
 .debug_frame   0x0000000000003748       0x28 build/nyan_leds.o
 .debug_frame   0x0000000000003770      0x114 build/nyan_os.o
 .debug_frame   0x0000000000003884       0xac build/24xx_eeprom.o
 .debug_frame   0x0000000000003930      0x104 build/tim.o
 .debug_frame   0x0000000000003a34       0x64 build/usb_otg.o
 .debug_frame   0x0000000000003a98      0x180 build/usbd_composite.o
 .debug_frame   0x0000000000003c18       0xf8 build/usbd_hid_keyboard.o
 .debug_frame   0x0000000000003d10      0x214 build/usbd_core.o
 .debug_frame   0x0000000000003f24      0x180 build/usbd_ctlreq.o
 .debug_frame   0x00000000000040a4       0xb8 build/usbd_ioreq.o
 .debug_frame   0x000000000000415c       0x28 build/usb_device.o
 .debug_frame   0x0000000000004184       0xe0 build/usbd_desc.o
 .debug_frame   0x0000000000004264      0x2dc build/usbd_conf.o
 .debug_frame   0x0000000000004540      0x188 build/usbd_cdc_acm.o
 .debug_frame   0x00000000000046c8       0xbc build/usbd_cdc_acm_if.o
 .debug_frame   0x0000000000004784       0x2c build/dma.o
 .debug_frame   0x00000000000047b0       0x2c /opt/gcc-arm-none-eabi-10.3-2021.10/bin/../lib/gcc/arm-none-eabi/10.3.1/../../../../arm-none-eabi/lib/thumb/v7e-m+fp/hard/libc_nano.a(lib_a-init.o)
 .debug_frame   0x00000000000047dc       0x30 /opt/gcc-arm-none-eabi-10.3-2021.10/bin/../lib/gcc/arm-none-eabi/10.3.1/../../../../arm-none-eabi/lib/thumb/v7e-m+fp/hard/libc_nano.a(lib_a-malloc.o)
 .debug_frame   0x000000000000480c       0x28 /opt/gcc-arm-none-eabi-10.3-2021.10/bin/../lib/gcc/arm-none-eabi/10.3.1/../../../../arm-none-eabi/lib/thumb/v7e-m+fp/hard/libc_nano.a(lib_a-memcmp.o)
 .debug_frame   0x0000000000004834       0x28 /opt/gcc-arm-none-eabi-10.3-2021.10/bin/../lib/gcc/arm-none-eabi/10.3.1/../../../../arm-none-eabi/lib/thumb/v7e-m+fp/hard/libc_nano.a(lib_a-memcpy-stub.o)
 .debug_frame   0x000000000000485c       0x20 /opt/gcc-arm-none-eabi-10.3-2021.10/bin/../lib/gcc/arm-none-eabi/10.3.1/../../../../arm-none-eabi/lib/thumb/v7e-m+fp/hard/libc_nano.a(lib_a-memset.o)
 .debug_frame   0x000000000000487c       0x38 /opt/gcc-arm-none-eabi-10.3-2021.10/bin/../lib/gcc/arm-none-eabi/10.3.1/../../../../arm-none-eabi/lib/thumb/v7e-m+fp/hard/libc_nano.a(lib_a-nano-freer.o)
 .debug_frame   0x00000000000048b4       0x4c /opt/gcc-arm-none-eabi-10.3-2021.10/bin/../lib/gcc/arm-none-eabi/10.3.1/../../../../arm-none-eabi/lib/thumb/v7e-m+fp/hard/libc_nano.a(lib_a-nano-mallocr.o)
 .debug_frame   0x0000000000004900       0x20 /opt/gcc-arm-none-eabi-10.3-2021.10/bin/../lib/gcc/arm-none-eabi/10.3.1/../../../../arm-none-eabi/lib/thumb/v7e-m+fp/hard/libc_nano.a(lib_a-realloc.o)
 .debug_frame   0x0000000000004920       0x2c /opt/gcc-arm-none-eabi-10.3-2021.10/bin/../lib/gcc/arm-none-eabi/10.3.1/../../../../arm-none-eabi/lib/thumb/v7e-m+fp/hard/libc_nano.a(lib_a-sbrkr.o)
 .debug_frame   0x000000000000494c       0x7c /opt/gcc-arm-none-eabi-10.3-2021.10/bin/../lib/gcc/arm-none-eabi/10.3.1/../../../../arm-none-eabi/lib/thumb/v7e-m+fp/hard/libc_nano.a(lib_a-snprintf.o)
 .debug_frame   0x00000000000049c8       0x30 /opt/gcc-arm-none-eabi-10.3-2021.10/bin/../lib/gcc/arm-none-eabi/10.3.1/../../../../arm-none-eabi/lib/thumb/v7e-m+fp/hard/libc_nano.a(lib_a-mlock.o)
 .debug_frame   0x00000000000049f8       0x3c /opt/gcc-arm-none-eabi-10.3-2021.10/bin/../lib/gcc/arm-none-eabi/10.3.1/../../../../arm-none-eabi/lib/thumb/v7e-m+fp/hard/libc_nano.a(lib_a-nano-reallocr.o)
 .debug_frame   0x0000000000004a34       0x90 /opt/gcc-arm-none-eabi-10.3-2021.10/bin/../lib/gcc/arm-none-eabi/10.3.1/../../../../arm-none-eabi/lib/thumb/v7e-m+fp/hard/libc_nano.a(lib_a-nano-svfprintf.o)
 .debug_frame   0x0000000000004ac4       0x60 /opt/gcc-arm-none-eabi-10.3-2021.10/bin/../lib/gcc/arm-none-eabi/10.3.1/../../../../arm-none-eabi/lib/thumb/v7e-m+fp/hard/libc_nano.a(lib_a-nano-vfprintf_i.o)
 .debug_frame   0x0000000000004b24       0x5c /opt/gcc-arm-none-eabi-10.3-2021.10/bin/../lib/gcc/arm-none-eabi/10.3.1/../../../../arm-none-eabi/lib/thumb/v7e-m+fp/hard/libc_nano.a(lib_a-reent.o)
 .debug_frame   0x0000000000004b80       0xb0 /opt/gcc-arm-none-eabi-10.3-2021.10/bin/../lib/gcc/arm-none-eabi/10.3.1/../../../../arm-none-eabi/lib/thumb/v7e-m+fp/hard/libc_nano.a(lib_a-lock.o)
 .debug_frame   0x0000000000004c30       0x28 /opt/gcc-arm-none-eabi-10.3-2021.10/bin/../lib/gcc/arm-none-eabi/10.3.1/../../../../arm-none-eabi/lib/thumb/v7e-m+fp/hard/libc_nano.a(lib_a-memmove.o)
 .debug_frame   0x0000000000004c58       0x20 /opt/gcc-arm-none-eabi-10.3-2021.10/bin/../lib/gcc/arm-none-eabi/10.3.1/../../../../arm-none-eabi/lib/thumb/v7e-m+fp/hard/libc_nano.a(lib_a-nano-msizer.o)
 .debug_frame   0x0000000000004c78       0x30 /opt/gcc-arm-none-eabi-10.3-2021.10/bin/../lib/gcc/arm-none-eabi/10.3.1/../../../../arm-none-eabi/lib/thumb/v7e-m+fp/hard/libm.a(lib_a-s_floor.o)
 .debug_frame   0x0000000000004ca8       0x34 /opt/gcc-arm-none-eabi-10.3-2021.10/bin/../lib/gcc/arm-none-eabi/10.3.1/../../../../arm-none-eabi/lib/thumb/v7e-m+fp/hard/libm.a(lib_a-sf_cos.o)
 .debug_frame   0x0000000000004cdc       0x44 /opt/gcc-arm-none-eabi-10.3-2021.10/bin/../lib/gcc/arm-none-eabi/10.3.1/../../../../arm-none-eabi/lib/thumb/v7e-m+fp/hard/libm.a(lib_a-w_pow.o)
 .debug_frame   0x0000000000004d20      0x12c /opt/gcc-arm-none-eabi-10.3-2021.10/bin/../lib/gcc/arm-none-eabi/10.3.1/../../../../arm-none-eabi/lib/thumb/v7e-m+fp/hard/libm.a(lib_a-e_pow.o)
 .debug_frame   0x0000000000004e4c       0x30 /opt/gcc-arm-none-eabi-10.3-2021.10/bin/../lib/gcc/arm-none-eabi/10.3.1/../../../../arm-none-eabi/lib/thumb/v7e-m+fp/hard/libm.a(lib_a-e_sqrt.o)
 .debug_frame   0x0000000000004e7c       0x3c /opt/gcc-arm-none-eabi-10.3-2021.10/bin/../lib/gcc/arm-none-eabi/10.3.1/../../../../arm-none-eabi/lib/thumb/v7e-m+fp/hard/libm.a(lib_a-ef_rem_pio2.o)
 .debug_frame   0x0000000000004eb8       0x20 /opt/gcc-arm-none-eabi-10.3-2021.10/bin/../lib/gcc/arm-none-eabi/10.3.1/../../../../arm-none-eabi/lib/thumb/v7e-m+fp/hard/libm.a(lib_a-kf_cos.o)
 .debug_frame   0x0000000000004ed8       0x5c /opt/gcc-arm-none-eabi-10.3-2021.10/bin/../lib/gcc/arm-none-eabi/10.3.1/../../../../arm-none-eabi/lib/thumb/v7e-m+fp/hard/libm.a(lib_a-kf_rem_pio2.o)
 .debug_frame   0x0000000000004f34       0x20 /opt/gcc-arm-none-eabi-10.3-2021.10/bin/../lib/gcc/arm-none-eabi/10.3.1/../../../../arm-none-eabi/lib/thumb/v7e-m+fp/hard/libm.a(lib_a-kf_sin.o)
 .debug_frame   0x0000000000004f54      0x124 /opt/gcc-arm-none-eabi-10.3-2021.10/bin/../lib/gcc/arm-none-eabi/10.3.1/../../../../arm-none-eabi/lib/thumb/v7e-m+fp/hard/libm.a(lib_a-math_err.o)
 .debug_frame   0x0000000000005078       0x20 /opt/gcc-arm-none-eabi-10.3-2021.10/bin/../lib/gcc/arm-none-eabi/10.3.1/../../../../arm-none-eabi/lib/thumb/v7e-m+fp/hard/libm.a(lib_a-s_fabs.o)
 .debug_frame   0x0000000000005098       0x28 /opt/gcc-arm-none-eabi-10.3-2021.10/bin/../lib/gcc/arm-none-eabi/10.3.1/../../../../arm-none-eabi/lib/thumb/v7e-m+fp/hard/libm.a(lib_a-s_finite.o)
 .debug_frame   0x00000000000050c0       0x2c /opt/gcc-arm-none-eabi-10.3-2021.10/bin/../lib/gcc/arm-none-eabi/10.3.1/../../../../arm-none-eabi/lib/thumb/v7e-m+fp/hard/libm.a(lib_a-s_scalbn.o)
 .debug_frame   0x00000000000050ec       0x20 /opt/gcc-arm-none-eabi-10.3-2021.10/bin/../lib/gcc/arm-none-eabi/10.3.1/../../../../arm-none-eabi/lib/thumb/v7e-m+fp/hard/libm.a(lib_a-sf_fabs.o)
 .debug_frame   0x000000000000510c       0x20 /opt/gcc-arm-none-eabi-10.3-2021.10/bin/../lib/gcc/arm-none-eabi/10.3.1/../../../../arm-none-eabi/lib/thumb/v7e-m+fp/hard/libm.a(lib_a-sf_floor.o)
 .debug_frame   0x000000000000512c       0x3c /opt/gcc-arm-none-eabi-10.3-2021.10/bin/../lib/gcc/arm-none-eabi/10.3.1/../../../../arm-none-eabi/lib/thumb/v7e-m+fp/hard/libm.a(lib_a-sf_scalbn.o)
 .debug_frame   0x0000000000005168       0x20 /opt/gcc-arm-none-eabi-10.3-2021.10/bin/../lib/gcc/arm-none-eabi/10.3.1/../../../../arm-none-eabi/lib/thumb/v7e-m+fp/hard/libnosys.a(sbrk.o)
 .debug_frame   0x0000000000005188       0xac /opt/gcc-arm-none-eabi-10.3-2021.10/bin/../lib/gcc/arm-none-eabi/10.3.1/thumb/v7e-m+fp/hard/libgcc.a(_arm_addsubdf3.o)
 .debug_frame   0x0000000000005234       0x50 /opt/gcc-arm-none-eabi-10.3-2021.10/bin/../lib/gcc/arm-none-eabi/10.3.1/thumb/v7e-m+fp/hard/libgcc.a(_arm_muldivdf3.o)
 .debug_frame   0x0000000000005284       0xc4 /opt/gcc-arm-none-eabi-10.3-2021.10/bin/../lib/gcc/arm-none-eabi/10.3.1/thumb/v7e-m+fp/hard/libgcc.a(_arm_cmpdf2.o)
 .debug_frame   0x0000000000005348       0x20 /opt/gcc-arm-none-eabi-10.3-2021.10/bin/../lib/gcc/arm-none-eabi/10.3.1/thumb/v7e-m+fp/hard/libgcc.a(_arm_unorddf2.o)
 .debug_frame   0x0000000000005368       0x24 /opt/gcc-arm-none-eabi-10.3-2021.10/bin/../lib/gcc/arm-none-eabi/10.3.1/thumb/v7e-m+fp/hard/libgcc.a(_arm_fixunsdfsi.o)
 .debug_frame   0x000000000000538c       0x24 /opt/gcc-arm-none-eabi-10.3-2021.10/bin/../lib/gcc/arm-none-eabi/10.3.1/thumb/v7e-m+fp/hard/libgcc.a(_arm_truncdfsf2.o)
 .debug_frame   0x00000000000053b0       0x2c /opt/gcc-arm-none-eabi-10.3-2021.10/bin/../lib/gcc/arm-none-eabi/10.3.1/thumb/v7e-m+fp/hard/libgcc.a(_aeabi_uldivmod.o)
 .debug_frame   0x00000000000053dc       0x34 /opt/gcc-arm-none-eabi-10.3-2021.10/bin/../lib/gcc/arm-none-eabi/10.3.1/thumb/v7e-m+fp/hard/libgcc.a(_udivmoddi4.o)
 .debug_frame   0x0000000000005410       0x20 /opt/gcc-arm-none-eabi-10.3-2021.10/bin/../lib/gcc/arm-none-eabi/10.3.1/../../../../arm-none-eabi/lib/thumb/v7e-m+fp/hard/libc_nano.a(lib_a-errno.o)

.debug_rnglists
                0x0000000000000000     0x1431
 .debug_rnglists
                0x0000000000000000       0x14 build/gpio.o
 .debug_rnglists
                0x0000000000000014       0x20 build/i2c.o
 .debug_rnglists
                0x0000000000000034       0x1f build/rng.o
 .debug_rnglists
                0x0000000000000053       0x2d build/spi.o
 .debug_rnglists
                0x0000000000000080       0x7f build/stm32f7xx_it.o
 .debug_rnglists
                0x00000000000000ff       0x13 build/stm32f7xx_hal_msp.o
 .debug_rnglists
                0x0000000000000112       0x67 build/stm32f7xx_hal_rcc.o
 .debug_rnglists
                0x0000000000000179       0x3a build/stm32f7xx_hal_rcc_ex.o
 .debug_rnglists
                0x00000000000001b3       0x3f build/stm32f7xx_hal_gpio.o
 .debug_rnglists
                0x00000000000001f2       0x6c build/stm32f7xx_hal_dma.o
 .debug_rnglists
                0x000000000000025e       0x5d build/stm32f7xx_hal_pwr_ex.o
 .debug_rnglists
                0x00000000000002bb       0x9d build/stm32f7xx_hal_cortex.o
 .debug_rnglists
                0x0000000000000358       0xbb build/stm32f7xx_hal.o
 .debug_rnglists
                0x0000000000000413      0x21b build/stm32f7xx_hal_i2c.o
 .debug_rnglists
                0x000000000000062e       0x25 build/stm32f7xx_hal_i2c_ex.o
 .debug_rnglists
                0x0000000000000653       0x61 build/stm32f7xx_hal_rng.o
 .debug_rnglists
                0x00000000000006b4      0x172 build/stm32f7xx_hal_spi.o
 .debug_rnglists
                0x0000000000000826      0x311 build/stm32f7xx_hal_tim.o
 .debug_rnglists
                0x0000000000000b37      0x128 build/stm32f7xx_hal_tim_ex.o
 .debug_rnglists
                0x0000000000000c5f       0x1a build/system_stm32f7xx.o
 .debug_rnglists
                0x0000000000000c79       0xf7 build/stm32f7xx_hal_pcd.o
 .debug_rnglists
                0x0000000000000d70       0x31 build/stm32f7xx_hal_pcd_ex.o
 .debug_rnglists
                0x0000000000000da1      0x14e build/stm32f7xx_ll_usb.o
 .debug_rnglists
                0x0000000000000eef       0x13 build/nyan_leds.o
 .debug_rnglists
                0x0000000000000f02       0x65 build/nyan_os.o
 .debug_rnglists
                0x0000000000000f67       0x40 build/tim.o
 .debug_rnglists
                0x0000000000000fa7       0x20 build/usb_otg.o
 .debug_rnglists
                0x0000000000000fc7       0xaa build/usbd_composite.o
 .debug_rnglists
                0x0000000000001071       0x50 build/usbd_hid_keyboard.o
 .debug_rnglists
                0x00000000000010c1       0x86 build/usbd_core.o
 .debug_rnglists
                0x0000000000001147       0x64 build/usbd_ctlreq.o
 .debug_rnglists
                0x00000000000011ab       0x37 build/usbd_ioreq.o
 .debug_rnglists
                0x00000000000011e2       0x13 build/usb_device.o
 .debug_rnglists
                0x00000000000011f5       0x43 build/usbd_desc.o
 .debug_rnglists
                0x0000000000001238       0xc8 build/usbd_conf.o
 .debug_rnglists
                0x0000000000001300       0xc7 build/usbd_cdc_acm.o
 .debug_rnglists
                0x00000000000013c7       0x3e build/usbd_cdc_acm_if.o
 .debug_rnglists
                0x0000000000001405       0x13 build/dma.o
 .debug_rnglists
                0x0000000000001418       0x19 build/startup_stm32f723xx.o

.debug_loclists
                0x0000000000000000    0x10f50
 .debug_loclists
                0x0000000000000000       0x46 build/i2c.o
 .debug_loclists
                0x0000000000000046       0x20 build/rng.o
 .debug_loclists
                0x0000000000000066       0xa8 build/spi.o
 .debug_loclists
                0x000000000000010e      0x442 build/stm32f7xx_hal_rcc.o
 .debug_loclists
                0x0000000000000550      0x4d7 build/stm32f7xx_hal_rcc_ex.o
 .debug_loclists
                0x0000000000000a27      0x356 build/stm32f7xx_hal_gpio.o
 .debug_loclists
                0x0000000000000d7d      0x763 build/stm32f7xx_hal_dma.o
 .debug_loclists
                0x00000000000014e0      0x19b build/stm32f7xx_hal_pwr_ex.o
 .debug_loclists
                0x000000000000167b      0x439 build/stm32f7xx_hal_cortex.o
 .debug_loclists
                0x0000000000001ab4       0xc9 build/stm32f7xx_hal.o
 .debug_loclists
                0x0000000000001b7d     0x3190 build/stm32f7xx_hal_i2c.o
 .debug_loclists
                0x0000000000004d0d       0xbd build/stm32f7xx_hal_i2c_ex.o
 .debug_loclists
                0x0000000000004dca      0x247 build/stm32f7xx_hal_rng.o
 .debug_loclists
                0x0000000000005011     0x1546 build/stm32f7xx_hal_spi.o
 .debug_loclists
                0x0000000000006557     0x3479 build/stm32f7xx_hal_tim.o
 .debug_loclists
                0x00000000000099d0     0x157a build/stm32f7xx_hal_tim_ex.o
 .debug_loclists
                0x000000000000af4a       0xdb build/system_stm32f7xx.o
 .debug_loclists
                0x000000000000b025      0xc6b build/stm32f7xx_hal_pcd.o
 .debug_loclists
                0x000000000000bc90       0xe4 build/stm32f7xx_hal_pcd_ex.o
 .debug_loclists
                0x000000000000bd74     0x16bd build/stm32f7xx_ll_usb.o
 .debug_loclists
                0x000000000000d431       0x56 build/nyan_leds.o
 .debug_loclists
                0x000000000000d487      0x22d build/nyan_os.o
 .debug_loclists
                0x000000000000d6b4       0xe2 build/tim.o
 .debug_loclists
                0x000000000000d796       0x6d build/usb_otg.o
 .debug_loclists
                0x000000000000d803      0x426 build/usbd_composite.o
 .debug_loclists
                0x000000000000dc29      0x4ea build/usbd_hid_keyboard.o
 .debug_loclists
                0x000000000000e113      0x701 build/usbd_core.o
 .debug_loclists
                0x000000000000e814      0xe5d build/usbd_ctlreq.o
 .debug_loclists
                0x000000000000f671      0x1b4 build/usbd_ioreq.o
 .debug_loclists
                0x000000000000f825      0x22d build/usbd_desc.o
 .debug_loclists
                0x000000000000fa52      0x78a build/usbd_conf.o
 .debug_loclists
                0x00000000000101dc      0xa6c build/usbd_cdc_acm.o
 .debug_loclists
                0x0000000000010c48      0x308 build/usbd_cdc_acm_if.o

.debug_line_str
                0x0000000000000000       0x35
 .debug_line_str
                0x0000000000000000       0x35 build/startup_stm32f723xx.o

Cross Reference Table

Symbol                                            File
ADC_IRQHandler                                    build/startup_stm32f723xx.o
AHBPrescTable                                     build/system_stm32f7xx.o
                                                  build/stm32f7xx_hal_rcc.o
APBPrescTable                                     build/system_stm32f7xx.o
                                                  build/stm32f7xx_hal_rcc.o
BusFault_Handler                                  build/stm32f7xx_it.o
CAN1_RX0_IRQHandler                               build/startup_stm32f723xx.o
CAN1_RX1_IRQHandler                               build/startup_stm32f723xx.o
CAN1_SCE_IRQHandler                               build/startup_stm32f723xx.o
CAN1_TX_IRQHandler                                build/startup_stm32f723xx.o
CDC_ACM_Class_Data                                build/usbd_cdc_acm.o
                                                  build/usbd_cdc_acm_if.o
CDC_CMD_EP                                        build/usbd_cdc_acm.o
                                                  build/usbd_conf.o
                                                  build/usbd_composite.o
CDC_CMD_ITF_NBR                                   build/usbd_cdc_acm.o
                                                  build/usbd_composite.o
CDC_COM_ITF_NBR                                   build/usbd_cdc_acm.o
                                                  build/usbd_composite.o
CDC_IN_EP                                         build/usbd_cdc_acm.o
                                                  build/usbd_conf.o
                                                  build/usbd_composite.o
CDC_OUT_EP                                        build/usbd_cdc_acm.o
                                                  build/usbd_composite.o
CDC_STR_DESC_IDX                                  build/usbd_cdc_acm.o
                                                  build/usbd_composite.o
CDC_Transmit                                      build/usbd_cdc_acm_if.o
                                                  build/main.o
DMA1_Stream0_IRQHandler                           build/stm32f7xx_it.o
DMA1_Stream1_IRQHandler                           build/startup_stm32f723xx.o
DMA1_Stream2_IRQHandler                           build/startup_stm32f723xx.o
DMA1_Stream3_IRQHandler                           build/startup_stm32f723xx.o
DMA1_Stream4_IRQHandler                           build/startup_stm32f723xx.o
DMA1_Stream5_IRQHandler                           build/startup_stm32f723xx.o
DMA1_Stream6_IRQHandler                           build/stm32f7xx_it.o
DMA1_Stream7_IRQHandler                           build/startup_stm32f723xx.o
DMA2_Stream0_IRQHandler                           build/startup_stm32f723xx.o
DMA2_Stream1_IRQHandler                           build/startup_stm32f723xx.o
DMA2_Stream2_IRQHandler                           build/startup_stm32f723xx.o
DMA2_Stream3_IRQHandler                           build/startup_stm32f723xx.o
DMA2_Stream4_IRQHandler                           build/startup_stm32f723xx.o
DMA2_Stream5_IRQHandler                           build/startup_stm32f723xx.o
DMA2_Stream6_IRQHandler                           build/startup_stm32f723xx.o
DMA2_Stream7_IRQHandler                           build/startup_stm32f723xx.o
DebugMon_Handler                                  build/stm32f7xx_it.o
Default_Handler                                   build/startup_stm32f723xx.o
EXTI0_IRQHandler                                  build/startup_stm32f723xx.o
EXTI15_10_IRQHandler                              build/startup_stm32f723xx.o
EXTI1_IRQHandler                                  build/startup_stm32f723xx.o
EXTI2_IRQHandler                                  build/startup_stm32f723xx.o
EXTI3_IRQHandler                                  build/startup_stm32f723xx.o
EXTI4_IRQHandler                                  build/startup_stm32f723xx.o
EXTI9_5_IRQHandler                                build/startup_stm32f723xx.o
EepromAddByteToTXBuf                              build/24xx_eeprom.o
EepromCreateControlByte                           build/24xx_eeprom.o
EepromFlushTxBuff                                 build/24xx_eeprom.o
EepromInit                                        build/24xx_eeprom.o
                                                  build/main.o
EepromRead                                        build/24xx_eeprom.o
                                                  build/main.o
EepromWrite                                       build/24xx_eeprom.o
Error_Handler                                     build/main.o
                                                  build/usbd_conf.o
                                                  build/usb_device.o
                                                  build/usb_otg.o
                                                  build/tim.o
                                                  build/24xx_eeprom.o
                                                  build/spi.o
                                                  build/rng.o
                                                  build/i2c.o
FLASH_Erase_Sector                                build/stm32f7xx_hal_flash_ex.o
                                                  build/stm32f7xx_hal_flash.o
FLASH_IRQHandler                                  build/startup_stm32f723xx.o
FLASH_WaitForLastOperation                        build/stm32f7xx_hal_flash.o
                                                  build/stm32f7xx_hal_flash_ex.o
FMC_IRQHandler                                    build/startup_stm32f723xx.o
FPU_IRQHandler                                    build/startup_stm32f723xx.o
FreeNyanString                                    build/nyan_os.o
                                                  build/usbd_cdc_acm_if.o
HAL_DBGMCU_DisableDBGSleepMode                    build/stm32f7xx_hal.o
HAL_DBGMCU_DisableDBGStandbyMode                  build/stm32f7xx_hal.o
HAL_DBGMCU_DisableDBGStopMode                     build/stm32f7xx_hal.o
HAL_DBGMCU_EnableDBGSleepMode                     build/stm32f7xx_hal.o
HAL_DBGMCU_EnableDBGStandbyMode                   build/stm32f7xx_hal.o
HAL_DBGMCU_EnableDBGStopMode                      build/stm32f7xx_hal.o
HAL_DMAEx_ChangeMemory                            build/stm32f7xx_hal_dma_ex.o
HAL_DMAEx_MultiBufferStart                        build/stm32f7xx_hal_dma_ex.o
HAL_DMAEx_MultiBufferStart_IT                     build/stm32f7xx_hal_dma_ex.o
HAL_DMA_Abort                                     build/stm32f7xx_hal_dma.o
                                                  build/stm32f7xx_hal_spi.o
HAL_DMA_Abort_IT                                  build/stm32f7xx_hal_dma.o
                                                  build/stm32f7xx_hal_tim_ex.o
                                                  build/stm32f7xx_hal_tim.o
                                                  build/stm32f7xx_hal_spi.o
                                                  build/stm32f7xx_hal_i2c.o
HAL_DMA_DeInit                                    build/stm32f7xx_hal_dma.o
                                                  build/i2c.o
HAL_DMA_GetError                                  build/stm32f7xx_hal_dma.o
                                                  build/stm32f7xx_hal_i2c.o
HAL_DMA_GetState                                  build/stm32f7xx_hal_dma.o
                                                  build/stm32f7xx_hal_i2c.o
HAL_DMA_IRQHandler                                build/stm32f7xx_hal_dma.o
                                                  build/stm32f7xx_it.o
HAL_DMA_Init                                      build/stm32f7xx_hal_dma.o
                                                  build/i2c.o
HAL_DMA_PollForTransfer                           build/stm32f7xx_hal_dma.o
HAL_DMA_RegisterCallback                          build/stm32f7xx_hal_dma.o
HAL_DMA_Start                                     build/stm32f7xx_hal_dma.o
HAL_DMA_Start_IT                                  build/stm32f7xx_hal_dma.o
                                                  build/stm32f7xx_hal_tim_ex.o
                                                  build/stm32f7xx_hal_tim.o
                                                  build/stm32f7xx_hal_spi.o
                                                  build/stm32f7xx_hal_i2c.o
HAL_DMA_UnRegisterCallback                        build/stm32f7xx_hal_dma.o
HAL_DeInit                                        build/stm32f7xx_hal.o
HAL_Delay                                         build/stm32f7xx_hal.o
                                                  build/usbd_conf.o
                                                  build/stm32f7xx_ll_usb.o
                                                  build/main.o
HAL_DisableCompensationCell                       build/stm32f7xx_hal.o
HAL_DisableFMCMemorySwapping                      build/stm32f7xx_hal.o
HAL_EXTI_ClearConfigLine                          build/stm32f7xx_hal_exti.o
HAL_EXTI_ClearPending                             build/stm32f7xx_hal_exti.o
HAL_EXTI_GenerateSWI                              build/stm32f7xx_hal_exti.o
HAL_EXTI_GetConfigLine                            build/stm32f7xx_hal_exti.o
HAL_EXTI_GetHandle                                build/stm32f7xx_hal_exti.o
HAL_EXTI_GetPending                               build/stm32f7xx_hal_exti.o
HAL_EXTI_IRQHandler                               build/stm32f7xx_hal_exti.o
HAL_EXTI_RegisterCallback                         build/stm32f7xx_hal_exti.o
HAL_EXTI_SetConfigLine                            build/stm32f7xx_hal_exti.o
HAL_EnableCompensationCell                        build/stm32f7xx_hal.o
HAL_EnableFMCMemorySwapping                       build/stm32f7xx_hal.o
HAL_FLASHEx_Erase                                 build/stm32f7xx_hal_flash_ex.o
HAL_FLASHEx_Erase_IT                              build/stm32f7xx_hal_flash_ex.o
HAL_FLASHEx_OBGetConfig                           build/stm32f7xx_hal_flash_ex.o
HAL_FLASHEx_OBProgram                             build/stm32f7xx_hal_flash_ex.o
HAL_FLASH_EndOfOperationCallback                  build/stm32f7xx_hal_flash.o
HAL_FLASH_GetError                                build/stm32f7xx_hal_flash.o
HAL_FLASH_IRQHandler                              build/stm32f7xx_hal_flash.o
HAL_FLASH_Lock                                    build/stm32f7xx_hal_flash.o
HAL_FLASH_OB_Launch                               build/stm32f7xx_hal_flash.o
HAL_FLASH_OB_Lock                                 build/stm32f7xx_hal_flash.o
HAL_FLASH_OB_Unlock                               build/stm32f7xx_hal_flash.o
HAL_FLASH_OperationErrorCallback                  build/stm32f7xx_hal_flash.o
HAL_FLASH_Program                                 build/stm32f7xx_hal_flash.o
HAL_FLASH_Program_IT                              build/stm32f7xx_hal_flash.o
HAL_FLASH_Unlock                                  build/stm32f7xx_hal_flash.o
HAL_GPIO_DeInit                                   build/stm32f7xx_hal_gpio.o
                                                  build/usb_otg.o
                                                  build/spi.o
                                                  build/i2c.o
HAL_GPIO_EXTI_Callback                            build/stm32f7xx_hal_gpio.o
HAL_GPIO_EXTI_IRQHandler                          build/stm32f7xx_hal_gpio.o
HAL_GPIO_Init                                     build/stm32f7xx_hal_gpio.o
                                                  build/usb_otg.o
                                                  build/stm32f7xx_hal_rcc.o
                                                  build/spi.o
                                                  build/i2c.o
                                                  build/gpio.o
HAL_GPIO_LockPin                                  build/stm32f7xx_hal_gpio.o
HAL_GPIO_ReadPin                                  build/stm32f7xx_hal_gpio.o
HAL_GPIO_TogglePin                                build/stm32f7xx_hal_gpio.o
HAL_GPIO_WritePin                                 build/stm32f7xx_hal_gpio.o
                                                  build/usbd_cdc_acm_if.o
                                                  build/stm32f7xx_it.o
                                                  build/gpio.o
                                                  build/main.o
HAL_GetDEVID                                      build/stm32f7xx_hal.o
HAL_GetHalVersion                                 build/stm32f7xx_hal.o
HAL_GetREVID                                      build/stm32f7xx_hal.o
HAL_GetTick                                       build/stm32f7xx_hal.o
                                                  build/stm32f7xx_hal_spi.o
                                                  build/stm32f7xx_hal_rng.o
                                                  build/stm32f7xx_hal_i2c.o
                                                  build/stm32f7xx_hal_pwr_ex.o
                                                  build/stm32f7xx_hal_dma.o
                                                  build/stm32f7xx_hal_flash.o
                                                  build/stm32f7xx_hal_rcc_ex.o
                                                  build/stm32f7xx_hal_rcc.o
HAL_GetTickFreq                                   build/stm32f7xx_hal.o
HAL_GetTickPrio                                   build/stm32f7xx_hal.o
HAL_GetUIDw0                                      build/stm32f7xx_hal.o
HAL_GetUIDw1                                      build/stm32f7xx_hal.o
HAL_GetUIDw2                                      build/stm32f7xx_hal.o
HAL_I2CEx_ConfigAnalogFilter                      build/stm32f7xx_hal_i2c_ex.o
                                                  build/i2c.o
HAL_I2CEx_ConfigDigitalFilter                     build/stm32f7xx_hal_i2c_ex.o
                                                  build/i2c.o
HAL_I2CEx_DisableFastModePlus                     build/stm32f7xx_hal_i2c_ex.o
HAL_I2CEx_EnableFastModePlus                      build/stm32f7xx_hal_i2c_ex.o
HAL_I2C_AbortCpltCallback                         build/stm32f7xx_hal_i2c.o
HAL_I2C_AddrCallback                              build/stm32f7xx_hal_i2c.o
HAL_I2C_DeInit                                    build/stm32f7xx_hal_i2c.o
HAL_I2C_DisableListen_IT                          build/stm32f7xx_hal_i2c.o
HAL_I2C_ER_IRQHandler                             build/stm32f7xx_hal_i2c.o
                                                  build/stm32f7xx_it.o
HAL_I2C_EV_IRQHandler                             build/stm32f7xx_hal_i2c.o
                                                  build/stm32f7xx_it.o
HAL_I2C_EnableListen_IT                           build/stm32f7xx_hal_i2c.o
HAL_I2C_ErrorCallback                             build/main.o
HAL_I2C_GetError                                  build/stm32f7xx_hal_i2c.o
                                                  build/main.o
HAL_I2C_GetMode                                   build/stm32f7xx_hal_i2c.o
HAL_I2C_GetState                                  build/stm32f7xx_hal_i2c.o
HAL_I2C_Init                                      build/stm32f7xx_hal_i2c.o
                                                  build/i2c.o
HAL_I2C_IsDeviceReady                             build/stm32f7xx_hal_i2c.o
HAL_I2C_ListenCpltCallback                        build/stm32f7xx_hal_i2c.o
HAL_I2C_MasterRxCpltCallback                      build/stm32f7xx_hal_i2c.o
HAL_I2C_MasterTxCpltCallback                      build/stm32f7xx_hal_i2c.o
HAL_I2C_Master_Abort_IT                           build/stm32f7xx_hal_i2c.o
HAL_I2C_Master_Receive                            build/stm32f7xx_hal_i2c.o
HAL_I2C_Master_Receive_DMA                        build/stm32f7xx_hal_i2c.o
HAL_I2C_Master_Receive_IT                         build/stm32f7xx_hal_i2c.o
HAL_I2C_Master_Seq_Receive_DMA                    build/stm32f7xx_hal_i2c.o
HAL_I2C_Master_Seq_Receive_IT                     build/stm32f7xx_hal_i2c.o
HAL_I2C_Master_Seq_Transmit_DMA                   build/stm32f7xx_hal_i2c.o
HAL_I2C_Master_Seq_Transmit_IT                    build/stm32f7xx_hal_i2c.o
HAL_I2C_Master_Transmit                           build/stm32f7xx_hal_i2c.o
HAL_I2C_Master_Transmit_DMA                       build/stm32f7xx_hal_i2c.o
HAL_I2C_Master_Transmit_IT                        build/stm32f7xx_hal_i2c.o
HAL_I2C_MemRxCpltCallback                         build/main.o
HAL_I2C_MemTxCpltCallback                         build/main.o
HAL_I2C_Mem_Read                                  build/stm32f7xx_hal_i2c.o
HAL_I2C_Mem_Read_DMA                              build/stm32f7xx_hal_i2c.o
                                                  build/24xx_eeprom.o
HAL_I2C_Mem_Read_IT                               build/stm32f7xx_hal_i2c.o
HAL_I2C_Mem_Write                                 build/stm32f7xx_hal_i2c.o
HAL_I2C_Mem_Write_DMA                             build/stm32f7xx_hal_i2c.o
                                                  build/24xx_eeprom.o
HAL_I2C_Mem_Write_IT                              build/stm32f7xx_hal_i2c.o
HAL_I2C_MspDeInit                                 build/i2c.o
HAL_I2C_MspInit                                   build/i2c.o
HAL_I2C_SlaveRxCpltCallback                       build/stm32f7xx_hal_i2c.o
HAL_I2C_SlaveTxCpltCallback                       build/stm32f7xx_hal_i2c.o
HAL_I2C_Slave_Receive                             build/stm32f7xx_hal_i2c.o
HAL_I2C_Slave_Receive_DMA                         build/stm32f7xx_hal_i2c.o
HAL_I2C_Slave_Receive_IT                          build/stm32f7xx_hal_i2c.o
HAL_I2C_Slave_Seq_Receive_DMA                     build/stm32f7xx_hal_i2c.o
HAL_I2C_Slave_Seq_Receive_IT                      build/stm32f7xx_hal_i2c.o
HAL_I2C_Slave_Seq_Transmit_DMA                    build/stm32f7xx_hal_i2c.o
HAL_I2C_Slave_Seq_Transmit_IT                     build/stm32f7xx_hal_i2c.o
HAL_I2C_Slave_Transmit                            build/stm32f7xx_hal_i2c.o
HAL_I2C_Slave_Transmit_DMA                        build/stm32f7xx_hal_i2c.o
HAL_I2C_Slave_Transmit_IT                         build/stm32f7xx_hal_i2c.o
HAL_IncTick                                       build/stm32f7xx_hal.o
                                                  build/stm32f7xx_it.o
HAL_Init                                          build/stm32f7xx_hal.o
                                                  build/main.o
HAL_InitTick                                      build/stm32f7xx_hal.o
                                                  build/stm32f7xx_hal_rcc.o
HAL_MPU_ConfigRegion                              build/stm32f7xx_hal_cortex.o
HAL_MPU_Disable                                   build/stm32f7xx_hal_cortex.o
HAL_MPU_Enable                                    build/stm32f7xx_hal_cortex.o
HAL_MspDeInit                                     build/stm32f7xx_hal.o
HAL_MspInit                                       build/stm32f7xx_hal_msp.o
HAL_NVIC_ClearPendingIRQ                          build/stm32f7xx_hal_cortex.o
HAL_NVIC_DisableIRQ                               build/stm32f7xx_hal_cortex.o
                                                  build/usb_otg.o
                                                  build/tim.o
                                                  build/i2c.o
HAL_NVIC_EnableIRQ                                build/stm32f7xx_hal_cortex.o
                                                  build/dma.o
                                                  build/usb_otg.o
                                                  build/tim.o
                                                  build/i2c.o
HAL_NVIC_GetActive                                build/stm32f7xx_hal_cortex.o
HAL_NVIC_GetPendingIRQ                            build/stm32f7xx_hal_cortex.o
HAL_NVIC_GetPriority                              build/stm32f7xx_hal_cortex.o
HAL_NVIC_GetPriorityGrouping                      build/stm32f7xx_hal_cortex.o
HAL_NVIC_SetPendingIRQ                            build/stm32f7xx_hal_cortex.o
HAL_NVIC_SetPriority                              build/stm32f7xx_hal_cortex.o
                                                  build/dma.o
                                                  build/usb_otg.o
                                                  build/tim.o
                                                  build/stm32f7xx_hal.o
                                                  build/i2c.o
HAL_NVIC_SetPriorityGrouping                      build/stm32f7xx_hal_cortex.o
                                                  build/stm32f7xx_hal.o
HAL_NVIC_SystemReset                              build/stm32f7xx_hal_cortex.o
HAL_PCDEx_ActivateLPM                             build/stm32f7xx_hal_pcd_ex.o
                                                  build/stm32f7xx_hal_pcd.o
HAL_PCDEx_BCD_Callback                            build/stm32f7xx_hal_pcd_ex.o
HAL_PCDEx_DeActivateLPM                           build/stm32f7xx_hal_pcd_ex.o
HAL_PCDEx_LPM_Callback                            build/stm32f7xx_hal_pcd_ex.o
                                                  build/stm32f7xx_hal_pcd.o
HAL_PCDEx_SetRxFiFo                               build/stm32f7xx_hal_pcd_ex.o
                                                  build/usbd_conf.o
HAL_PCDEx_SetRxFiFoInBytes                        build/usbd_conf.o
HAL_PCDEx_SetTxFiFo                               build/stm32f7xx_hal_pcd_ex.o
                                                  build/usbd_conf.o
HAL_PCDEx_SetTxFiFoInBytes                        build/usbd_conf.o
HAL_PCD_ActivateRemoteWakeup                      build/stm32f7xx_hal_pcd.o
HAL_PCD_ConnectCallback                           build/usbd_conf.o
                                                  build/stm32f7xx_hal_pcd.o
HAL_PCD_DataInStageCallback                       build/usbd_conf.o
                                                  build/stm32f7xx_hal_pcd.o
HAL_PCD_DataOutStageCallback                      build/usbd_conf.o
                                                  build/stm32f7xx_hal_pcd.o
HAL_PCD_DeActivateRemoteWakeup                    build/stm32f7xx_hal_pcd.o
HAL_PCD_DeInit                                    build/stm32f7xx_hal_pcd.o
                                                  build/usbd_conf.o
HAL_PCD_DevConnect                                build/stm32f7xx_hal_pcd.o
HAL_PCD_DevDisconnect                             build/stm32f7xx_hal_pcd.o
HAL_PCD_DisconnectCallback                        build/usbd_conf.o
                                                  build/stm32f7xx_hal_pcd.o
HAL_PCD_EP_Abort                                  build/stm32f7xx_hal_pcd.o
HAL_PCD_EP_Close                                  build/stm32f7xx_hal_pcd.o
                                                  build/usbd_conf.o
HAL_PCD_EP_ClrStall                               build/stm32f7xx_hal_pcd.o
                                                  build/usbd_conf.o
HAL_PCD_EP_Flush                                  build/stm32f7xx_hal_pcd.o
                                                  build/usbd_conf.o
HAL_PCD_EP_GetRxCount                             build/stm32f7xx_hal_pcd.o
                                                  build/usbd_conf.o
HAL_PCD_EP_Open                                   build/stm32f7xx_hal_pcd.o
                                                  build/usbd_conf.o
HAL_PCD_EP_Receive                                build/stm32f7xx_hal_pcd.o
                                                  build/usbd_conf.o
HAL_PCD_EP_SetStall                               build/stm32f7xx_hal_pcd.o
                                                  build/usbd_conf.o
HAL_PCD_EP_Transmit                               build/stm32f7xx_hal_pcd.o
                                                  build/usbd_conf.o
HAL_PCD_GetState                                  build/stm32f7xx_hal_pcd.o
HAL_PCD_IRQHandler                                build/stm32f7xx_hal_pcd.o
                                                  build/stm32f7xx_it.o
HAL_PCD_ISOINIncompleteCallback                   build/usbd_conf.o
                                                  build/stm32f7xx_hal_pcd.o
HAL_PCD_ISOOUTIncompleteCallback                  build/usbd_conf.o
                                                  build/stm32f7xx_hal_pcd.o
HAL_PCD_Init                                      build/stm32f7xx_hal_pcd.o
                                                  build/usb_otg.o
HAL_PCD_MspDeInit                                 build/usb_otg.o
                                                  build/stm32f7xx_hal_pcd.o
HAL_PCD_MspInit                                   build/usb_otg.o
                                                  build/stm32f7xx_hal_pcd.o
HAL_PCD_ResetCallback                             build/usbd_conf.o
                                                  build/stm32f7xx_hal_pcd.o
HAL_PCD_ResumeCallback                            build/usbd_conf.o
                                                  build/stm32f7xx_hal_pcd.o
HAL_PCD_SOFCallback                               build/usbd_conf.o
                                                  build/stm32f7xx_hal_pcd.o
HAL_PCD_SetAddress                                build/stm32f7xx_hal_pcd.o
                                                  build/usbd_conf.o
HAL_PCD_SetTestMode                               build/stm32f7xx_hal_pcd.o
HAL_PCD_SetupStageCallback                        build/usbd_conf.o
                                                  build/stm32f7xx_hal_pcd.o
HAL_PCD_Start                                     build/stm32f7xx_hal_pcd.o
                                                  build/usbd_conf.o
HAL_PCD_Stop                                      build/stm32f7xx_hal_pcd.o
                                                  build/usbd_conf.o
HAL_PCD_SuspendCallback                           build/usbd_conf.o
                                                  build/stm32f7xx_hal_pcd.o
HAL_PCD_WKUP_IRQHandler                           build/stm32f7xx_hal_pcd.o
HAL_PWREx_ControlVoltageScaling                   build/stm32f7xx_hal_pwr_ex.o
HAL_PWREx_DisableBkUpReg                          build/stm32f7xx_hal_pwr_ex.o
HAL_PWREx_DisableFlashPowerDown                   build/stm32f7xx_hal_pwr_ex.o
HAL_PWREx_DisableLowRegulatorLowVoltage           build/stm32f7xx_hal_pwr_ex.o
HAL_PWREx_DisableMainRegulatorLowVoltage          build/stm32f7xx_hal_pwr_ex.o
HAL_PWREx_DisableOverDrive                        build/stm32f7xx_hal_pwr_ex.o
HAL_PWREx_EnableBkUpReg                           build/stm32f7xx_hal_pwr_ex.o
HAL_PWREx_EnableFlashPowerDown                    build/stm32f7xx_hal_pwr_ex.o
HAL_PWREx_EnableLowRegulatorLowVoltage            build/stm32f7xx_hal_pwr_ex.o
HAL_PWREx_EnableMainRegulatorLowVoltage           build/stm32f7xx_hal_pwr_ex.o
HAL_PWREx_EnableOverDrive                         build/stm32f7xx_hal_pwr_ex.o
                                                  build/main.o
HAL_PWREx_EnterUnderDriveSTOPMode                 build/stm32f7xx_hal_pwr_ex.o
HAL_PWREx_GetVoltageRange                         build/stm32f7xx_hal_pwr_ex.o
HAL_PWR_ConfigPVD                                 build/stm32f7xx_hal_pwr.o
HAL_PWR_DeInit                                    build/stm32f7xx_hal_pwr.o
HAL_PWR_DisableBkUpAccess                         build/stm32f7xx_hal_pwr.o
HAL_PWR_DisablePVD                                build/stm32f7xx_hal_pwr.o
HAL_PWR_DisableSEVOnPend                          build/stm32f7xx_hal_pwr.o
HAL_PWR_DisableSleepOnExit                        build/stm32f7xx_hal_pwr.o
HAL_PWR_DisableWakeUpPin                          build/stm32f7xx_hal_pwr.o
HAL_PWR_EnableBkUpAccess                          build/stm32f7xx_hal_pwr.o
HAL_PWR_EnablePVD                                 build/stm32f7xx_hal_pwr.o
HAL_PWR_EnableSEVOnPend                           build/stm32f7xx_hal_pwr.o
HAL_PWR_EnableSleepOnExit                         build/stm32f7xx_hal_pwr.o
HAL_PWR_EnableWakeUpPin                           build/stm32f7xx_hal_pwr.o
HAL_PWR_EnterSLEEPMode                            build/stm32f7xx_hal_pwr.o
HAL_PWR_EnterSTANDBYMode                          build/stm32f7xx_hal_pwr.o
HAL_PWR_EnterSTOPMode                             build/stm32f7xx_hal_pwr.o
HAL_PWR_PVDCallback                               build/stm32f7xx_hal_pwr.o
HAL_PWR_PVD_IRQHandler                            build/stm32f7xx_hal_pwr.o
HAL_RCCEx_DisablePLLI2S                           build/stm32f7xx_hal_rcc_ex.o
HAL_RCCEx_DisablePLLSAI                           build/stm32f7xx_hal_rcc_ex.o
HAL_RCCEx_EnablePLLI2S                            build/stm32f7xx_hal_rcc_ex.o
HAL_RCCEx_EnablePLLSAI                            build/stm32f7xx_hal_rcc_ex.o
HAL_RCCEx_GetPeriphCLKConfig                      build/stm32f7xx_hal_rcc_ex.o
HAL_RCCEx_GetPeriphCLKFreq                        build/stm32f7xx_hal_rcc_ex.o
HAL_RCCEx_PeriphCLKConfig                         build/stm32f7xx_hal_rcc_ex.o
                                                  build/usb_otg.o
                                                  build/rng.o
                                                  build/i2c.o
HAL_RCC_CSSCallback                               build/stm32f7xx_hal_rcc.o
HAL_RCC_ClockConfig                               build/stm32f7xx_hal_rcc.o
                                                  build/main.o
HAL_RCC_DeInit                                    build/stm32f7xx_hal_rcc.o
HAL_RCC_DisableCSS                                build/stm32f7xx_hal_rcc.o
HAL_RCC_EnableCSS                                 build/stm32f7xx_hal_rcc.o
HAL_RCC_GetClockConfig                            build/stm32f7xx_hal_rcc.o
HAL_RCC_GetHCLKFreq                               build/stm32f7xx_hal_rcc.o
                                                  build/stm32f7xx_hal_pcd.o
HAL_RCC_GetOscConfig                              build/stm32f7xx_hal_rcc.o
HAL_RCC_GetPCLK1Freq                              build/stm32f7xx_hal_rcc.o
HAL_RCC_GetPCLK2Freq                              build/stm32f7xx_hal_rcc.o
HAL_RCC_GetSysClockFreq                           build/stm32f7xx_hal_rcc.o
HAL_RCC_MCOConfig                                 build/stm32f7xx_hal_rcc.o
HAL_RCC_NMI_IRQHandler                            build/stm32f7xx_hal_rcc.o
HAL_RCC_OscConfig                                 build/stm32f7xx_hal_rcc.o
                                                  build/main.o
HAL_RNG_DeInit                                    build/stm32f7xx_hal_rng.o
HAL_RNG_ErrorCallback                             build/stm32f7xx_hal_rng.o
HAL_RNG_GenerateRandomNumber                      build/stm32f7xx_hal_rng.o
HAL_RNG_GenerateRandomNumber_IT                   build/stm32f7xx_hal_rng.o
HAL_RNG_GetError                                  build/stm32f7xx_hal_rng.o
HAL_RNG_GetRandomNumber                           build/stm32f7xx_hal_rng.o
HAL_RNG_GetRandomNumber_IT                        build/stm32f7xx_hal_rng.o
HAL_RNG_GetState                                  build/stm32f7xx_hal_rng.o
HAL_RNG_IRQHandler                                build/stm32f7xx_hal_rng.o
HAL_RNG_Init                                      build/stm32f7xx_hal_rng.o
                                                  build/rng.o
HAL_RNG_MspDeInit                                 build/rng.o
HAL_RNG_MspInit                                   build/rng.o
HAL_RNG_ReadLastRandomNumber                      build/stm32f7xx_hal_rng.o
HAL_RNG_ReadyDataCallback                         build/stm32f7xx_hal_rng.o
HAL_ResumeTick                                    build/stm32f7xx_hal.o
HAL_SPIEx_FlushRxFifo                             build/stm32f7xx_hal_spi_ex.o
HAL_SPI_Abort                                     build/stm32f7xx_hal_spi.o
HAL_SPI_AbortCpltCallback                         build/stm32f7xx_hal_spi.o
HAL_SPI_Abort_IT                                  build/stm32f7xx_hal_spi.o
HAL_SPI_DMAPause                                  build/stm32f7xx_hal_spi.o
HAL_SPI_DMAResume                                 build/stm32f7xx_hal_spi.o
HAL_SPI_DMAStop                                   build/stm32f7xx_hal_spi.o
HAL_SPI_DeInit                                    build/stm32f7xx_hal_spi.o
HAL_SPI_ErrorCallback                             build/stm32f7xx_hal_spi.o
HAL_SPI_GetError                                  build/stm32f7xx_hal_spi.o
HAL_SPI_GetState                                  build/stm32f7xx_hal_spi.o
HAL_SPI_IRQHandler                                build/stm32f7xx_hal_spi.o
HAL_SPI_Init                                      build/stm32f7xx_hal_spi.o
                                                  build/spi.o
HAL_SPI_MspDeInit                                 build/spi.o
HAL_SPI_MspInit                                   build/spi.o
HAL_SPI_Receive                                   build/stm32f7xx_hal_spi.o
HAL_SPI_Receive_DMA                               build/stm32f7xx_hal_spi.o
HAL_SPI_Receive_IT                                build/stm32f7xx_hal_spi.o
HAL_SPI_RxCpltCallback                            build/stm32f7xx_hal_spi.o
HAL_SPI_RxHalfCpltCallback                        build/stm32f7xx_hal_spi.o
HAL_SPI_Transmit                                  build/stm32f7xx_hal_spi.o
HAL_SPI_TransmitReceive                           build/stm32f7xx_hal_spi.o
HAL_SPI_TransmitReceive_DMA                       build/stm32f7xx_hal_spi.o
HAL_SPI_TransmitReceive_IT                        build/stm32f7xx_hal_spi.o
HAL_SPI_Transmit_DMA                              build/stm32f7xx_hal_spi.o
HAL_SPI_Transmit_IT                               build/stm32f7xx_hal_spi.o
HAL_SPI_TxCpltCallback                            build/stm32f7xx_hal_spi.o
HAL_SPI_TxHalfCpltCallback                        build/stm32f7xx_hal_spi.o
HAL_SPI_TxRxCpltCallback                          build/stm32f7xx_hal_spi.o
HAL_SPI_TxRxHalfCpltCallback                      build/stm32f7xx_hal_spi.o
HAL_SYSTICK_CLKSourceConfig                       build/stm32f7xx_hal_cortex.o
HAL_SYSTICK_Callback                              build/stm32f7xx_hal_cortex.o
HAL_SYSTICK_Config                                build/stm32f7xx_hal_cortex.o
                                                  build/stm32f7xx_hal.o
HAL_SYSTICK_IRQHandler                            build/stm32f7xx_hal_cortex.o
HAL_SetTickFreq                                   build/stm32f7xx_hal.o
HAL_SuspendTick                                   build/stm32f7xx_hal.o
HAL_TIMEx_Break2Callback                          build/stm32f7xx_hal_tim_ex.o
                                                  build/stm32f7xx_hal_tim.o
HAL_TIMEx_BreakCallback                           build/stm32f7xx_hal_tim_ex.o
                                                  build/stm32f7xx_hal_tim.o
HAL_TIMEx_CommutCallback                          build/stm32f7xx_hal_tim_ex.o
                                                  build/stm32f7xx_hal_tim.o
HAL_TIMEx_CommutHalfCpltCallback                  build/stm32f7xx_hal_tim_ex.o
HAL_TIMEx_ConfigBreakDeadTime                     build/stm32f7xx_hal_tim_ex.o
                                                  build/tim.o
HAL_TIMEx_ConfigCommutEvent                       build/stm32f7xx_hal_tim_ex.o
HAL_TIMEx_ConfigCommutEvent_DMA                   build/stm32f7xx_hal_tim_ex.o
HAL_TIMEx_ConfigCommutEvent_IT                    build/stm32f7xx_hal_tim_ex.o
HAL_TIMEx_GetChannelNState                        build/stm32f7xx_hal_tim_ex.o
HAL_TIMEx_GroupChannel5                           build/stm32f7xx_hal_tim_ex.o
HAL_TIMEx_HallSensor_DeInit                       build/stm32f7xx_hal_tim_ex.o
HAL_TIMEx_HallSensor_GetState                     build/stm32f7xx_hal_tim_ex.o
HAL_TIMEx_HallSensor_Init                         build/stm32f7xx_hal_tim_ex.o
HAL_TIMEx_HallSensor_MspDeInit                    build/stm32f7xx_hal_tim_ex.o
HAL_TIMEx_HallSensor_MspInit                      build/stm32f7xx_hal_tim_ex.o
HAL_TIMEx_HallSensor_Start                        build/stm32f7xx_hal_tim_ex.o
HAL_TIMEx_HallSensor_Start_DMA                    build/stm32f7xx_hal_tim_ex.o
HAL_TIMEx_HallSensor_Start_IT                     build/stm32f7xx_hal_tim_ex.o
HAL_TIMEx_HallSensor_Stop                         build/stm32f7xx_hal_tim_ex.o
HAL_TIMEx_HallSensor_Stop_DMA                     build/stm32f7xx_hal_tim_ex.o
HAL_TIMEx_HallSensor_Stop_IT                      build/stm32f7xx_hal_tim_ex.o
HAL_TIMEx_MasterConfigSynchronization             build/stm32f7xx_hal_tim_ex.o
                                                  build/tim.o
HAL_TIMEx_OCN_Start                               build/stm32f7xx_hal_tim_ex.o
HAL_TIMEx_OCN_Start_DMA                           build/stm32f7xx_hal_tim_ex.o
HAL_TIMEx_OCN_Start_IT                            build/stm32f7xx_hal_tim_ex.o
HAL_TIMEx_OCN_Stop                                build/stm32f7xx_hal_tim_ex.o
HAL_TIMEx_OCN_Stop_DMA                            build/stm32f7xx_hal_tim_ex.o
HAL_TIMEx_OCN_Stop_IT                             build/stm32f7xx_hal_tim_ex.o
HAL_TIMEx_OnePulseN_Start                         build/stm32f7xx_hal_tim_ex.o
HAL_TIMEx_OnePulseN_Start_IT                      build/stm32f7xx_hal_tim_ex.o
HAL_TIMEx_OnePulseN_Stop                          build/stm32f7xx_hal_tim_ex.o
HAL_TIMEx_OnePulseN_Stop_IT                       build/stm32f7xx_hal_tim_ex.o
HAL_TIMEx_PWMN_Start                              build/stm32f7xx_hal_tim_ex.o
HAL_TIMEx_PWMN_Start_DMA                          build/stm32f7xx_hal_tim_ex.o
HAL_TIMEx_PWMN_Start_IT                           build/stm32f7xx_hal_tim_ex.o
HAL_TIMEx_PWMN_Stop                               build/stm32f7xx_hal_tim_ex.o
HAL_TIMEx_PWMN_Stop_DMA                           build/stm32f7xx_hal_tim_ex.o
HAL_TIMEx_PWMN_Stop_IT                            build/stm32f7xx_hal_tim_ex.o
HAL_TIMEx_RemapConfig                             build/stm32f7xx_hal_tim_ex.o
HAL_TIM_Base_DeInit                               build/stm32f7xx_hal_tim.o
HAL_TIM_Base_GetState                             build/stm32f7xx_hal_tim.o
HAL_TIM_Base_Init                                 build/stm32f7xx_hal_tim.o
                                                  build/tim.o
HAL_TIM_Base_MspDeInit                            build/tim.o
                                                  build/stm32f7xx_hal_tim.o
HAL_TIM_Base_MspInit                              build/tim.o
                                                  build/stm32f7xx_hal_tim.o
HAL_TIM_Base_Start                                build/stm32f7xx_hal_tim.o
HAL_TIM_Base_Start_DMA                            build/stm32f7xx_hal_tim.o
HAL_TIM_Base_Start_IT                             build/stm32f7xx_hal_tim.o
                                                  build/main.o
HAL_TIM_Base_Stop                                 build/stm32f7xx_hal_tim.o
HAL_TIM_Base_Stop_DMA                             build/stm32f7xx_hal_tim.o
HAL_TIM_Base_Stop_IT                              build/stm32f7xx_hal_tim.o
HAL_TIM_ConfigClockSource                         build/stm32f7xx_hal_tim.o
                                                  build/tim.o
HAL_TIM_ConfigOCrefClear                          build/stm32f7xx_hal_tim.o
HAL_TIM_ConfigTI1Input                            build/stm32f7xx_hal_tim.o
HAL_TIM_DMABurstState                             build/stm32f7xx_hal_tim.o
HAL_TIM_DMABurst_MultiReadStart                   build/stm32f7xx_hal_tim.o
HAL_TIM_DMABurst_MultiWriteStart                  build/stm32f7xx_hal_tim.o
HAL_TIM_DMABurst_ReadStart                        build/stm32f7xx_hal_tim.o
HAL_TIM_DMABurst_ReadStop                         build/stm32f7xx_hal_tim.o
HAL_TIM_DMABurst_WriteStart                       build/stm32f7xx_hal_tim.o
HAL_TIM_DMABurst_WriteStop                        build/stm32f7xx_hal_tim.o
HAL_TIM_Encoder_DeInit                            build/stm32f7xx_hal_tim.o
HAL_TIM_Encoder_GetState                          build/stm32f7xx_hal_tim.o
HAL_TIM_Encoder_Init                              build/stm32f7xx_hal_tim.o
HAL_TIM_Encoder_MspDeInit                         build/stm32f7xx_hal_tim.o
HAL_TIM_Encoder_MspInit                           build/stm32f7xx_hal_tim.o
HAL_TIM_Encoder_Start                             build/stm32f7xx_hal_tim.o
HAL_TIM_Encoder_Start_DMA                         build/stm32f7xx_hal_tim.o
HAL_TIM_Encoder_Start_IT                          build/stm32f7xx_hal_tim.o
HAL_TIM_Encoder_Stop                              build/stm32f7xx_hal_tim.o
HAL_TIM_Encoder_Stop_DMA                          build/stm32f7xx_hal_tim.o
HAL_TIM_Encoder_Stop_IT                           build/stm32f7xx_hal_tim.o
HAL_TIM_ErrorCallback                             build/stm32f7xx_hal_tim.o
                                                  build/stm32f7xx_hal_tim_ex.o
HAL_TIM_GenerateEvent                             build/stm32f7xx_hal_tim.o
HAL_TIM_GetActiveChannel                          build/stm32f7xx_hal_tim.o
HAL_TIM_GetChannelState                           build/stm32f7xx_hal_tim.o
HAL_TIM_IC_CaptureCallback                        build/stm32f7xx_hal_tim.o
HAL_TIM_IC_CaptureHalfCpltCallback                build/stm32f7xx_hal_tim.o
HAL_TIM_IC_ConfigChannel                          build/stm32f7xx_hal_tim.o
HAL_TIM_IC_DeInit                                 build/stm32f7xx_hal_tim.o
HAL_TIM_IC_GetState                               build/stm32f7xx_hal_tim.o
HAL_TIM_IC_Init                                   build/stm32f7xx_hal_tim.o
HAL_TIM_IC_MspDeInit                              build/stm32f7xx_hal_tim.o
HAL_TIM_IC_MspInit                                build/stm32f7xx_hal_tim.o
HAL_TIM_IC_Start                                  build/stm32f7xx_hal_tim.o
HAL_TIM_IC_Start_DMA                              build/stm32f7xx_hal_tim.o
HAL_TIM_IC_Start_IT                               build/stm32f7xx_hal_tim.o
HAL_TIM_IC_Stop                                   build/stm32f7xx_hal_tim.o
HAL_TIM_IC_Stop_DMA                               build/stm32f7xx_hal_tim.o
HAL_TIM_IC_Stop_IT                                build/stm32f7xx_hal_tim.o
HAL_TIM_IRQHandler                                build/stm32f7xx_hal_tim.o
                                                  build/stm32f7xx_it.o
HAL_TIM_OC_ConfigChannel                          build/stm32f7xx_hal_tim.o
                                                  build/tim.o
HAL_TIM_OC_DeInit                                 build/stm32f7xx_hal_tim.o
HAL_TIM_OC_DelayElapsedCallback                   build/main.o
HAL_TIM_OC_GetState                               build/stm32f7xx_hal_tim.o
HAL_TIM_OC_Init                                   build/stm32f7xx_hal_tim.o
                                                  build/tim.o
HAL_TIM_OC_MspDeInit                              build/tim.o
                                                  build/stm32f7xx_hal_tim.o
HAL_TIM_OC_MspInit                                build/tim.o
                                                  build/stm32f7xx_hal_tim.o
HAL_TIM_OC_Start                                  build/stm32f7xx_hal_tim.o
HAL_TIM_OC_Start_DMA                              build/stm32f7xx_hal_tim.o
HAL_TIM_OC_Start_IT                               build/stm32f7xx_hal_tim.o
                                                  build/main.o
HAL_TIM_OC_Stop                                   build/stm32f7xx_hal_tim.o
HAL_TIM_OC_Stop_DMA                               build/stm32f7xx_hal_tim.o
HAL_TIM_OC_Stop_IT                                build/stm32f7xx_hal_tim.o
HAL_TIM_OnePulse_ConfigChannel                    build/stm32f7xx_hal_tim.o
HAL_TIM_OnePulse_DeInit                           build/stm32f7xx_hal_tim.o
HAL_TIM_OnePulse_GetState                         build/stm32f7xx_hal_tim.o
HAL_TIM_OnePulse_Init                             build/stm32f7xx_hal_tim.o
HAL_TIM_OnePulse_MspDeInit                        build/stm32f7xx_hal_tim.o
HAL_TIM_OnePulse_MspInit                          build/stm32f7xx_hal_tim.o
HAL_TIM_OnePulse_Start                            build/stm32f7xx_hal_tim.o
HAL_TIM_OnePulse_Start_IT                         build/stm32f7xx_hal_tim.o
HAL_TIM_OnePulse_Stop                             build/stm32f7xx_hal_tim.o
HAL_TIM_OnePulse_Stop_IT                          build/stm32f7xx_hal_tim.o
HAL_TIM_PWM_ConfigChannel                         build/stm32f7xx_hal_tim.o
HAL_TIM_PWM_DeInit                                build/stm32f7xx_hal_tim.o
HAL_TIM_PWM_GetState                              build/stm32f7xx_hal_tim.o
HAL_TIM_PWM_Init                                  build/stm32f7xx_hal_tim.o
HAL_TIM_PWM_MspDeInit                             build/stm32f7xx_hal_tim.o
HAL_TIM_PWM_MspInit                               build/stm32f7xx_hal_tim.o
HAL_TIM_PWM_PulseFinishedCallback                 build/stm32f7xx_hal_tim.o
                                                  build/stm32f7xx_hal_tim_ex.o
HAL_TIM_PWM_PulseFinishedHalfCpltCallback         build/stm32f7xx_hal_tim.o
HAL_TIM_PWM_Start                                 build/stm32f7xx_hal_tim.o
HAL_TIM_PWM_Start_DMA                             build/stm32f7xx_hal_tim.o
HAL_TIM_PWM_Start_IT                              build/stm32f7xx_hal_tim.o
HAL_TIM_PWM_Stop                                  build/stm32f7xx_hal_tim.o
HAL_TIM_PWM_Stop_DMA                              build/stm32f7xx_hal_tim.o
HAL_TIM_PWM_Stop_IT                               build/stm32f7xx_hal_tim.o
HAL_TIM_PeriodElapsedCallback                     build/main.o
HAL_TIM_PeriodElapsedHalfCpltCallback             build/stm32f7xx_hal_tim.o
HAL_TIM_ReadCapturedValue                         build/stm32f7xx_hal_tim.o
HAL_TIM_SlaveConfigSynchro                        build/stm32f7xx_hal_tim.o
HAL_TIM_SlaveConfigSynchro_IT                     build/stm32f7xx_hal_tim.o
HAL_TIM_TriggerCallback                           build/stm32f7xx_hal_tim.o
HAL_TIM_TriggerHalfCpltCallback                   build/stm32f7xx_hal_tim.o
HID_KEYBOARD_IN_EP                                build/usbd_hid_keyboard.o
                                                  build/usbd_conf.o
                                                  build/usbd_composite.o
HID_KEYBOARD_ITF_NBR                              build/usbd_hid_keyboard.o
                                                  build/usbd_composite.o
HID_KEYBOARD_STR_DESC_IDX                         build/usbd_hid_keyboard.o
                                                  build/usbd_composite.o
HardFault_Handler                                 build/stm32f7xx_it.o
I2C1_ER_IRQHandler                                build/stm32f7xx_it.o
I2C1_EV_IRQHandler                                build/stm32f7xx_it.o
I2C2_ER_IRQHandler                                build/startup_stm32f723xx.o
I2C2_EV_IRQHandler                                build/startup_stm32f723xx.o
I2C3_ER_IRQHandler                                build/startup_stm32f723xx.o
I2C3_EV_IRQHandler                                build/startup_stm32f723xx.o
LPTIM1_IRQHandler                                 build/startup_stm32f723xx.o
Line_Coding                                       build/usbd_cdc_acm_if.o
MX_DMA_Init                                       build/dma.o
                                                  build/main.o
MX_GPIO_Init                                      build/gpio.o
                                                  build/main.o
MX_I2C1_Init                                      build/i2c.o
                                                  build/main.o
MX_RNG_Init                                       build/rng.o
                                                  build/main.o
MX_SPI1_Init                                      build/spi.o
                                                  build/main.o
MX_SPI2_Init                                      build/spi.o
                                                  build/main.o
MX_SPI4_Init                                      build/spi.o
                                                  build/main.o
MX_TIM1_Init                                      build/tim.o
                                                  build/main.o
MX_TIM6_Init                                      build/tim.o
                                                  build/main.o
MX_TIM7_Init                                      build/tim.o
                                                  build/main.o
MX_TIM8_Init                                      build/tim.o
                                                  build/main.o
MX_USB_DEVICE_Init                                build/usb_device.o
                                                  build/main.o
MX_USB_OTG_HS_PCD_Init                            build/usb_otg.o
                                                  build/main.o
MemManage_Handler                                 build/stm32f7xx_it.o
NMI_Handler                                       build/stm32f7xx_it.o
NyanAddInputBuffer                                build/nyan_os.o
                                                  build/usbd_cdc_acm_if.o
NyanDecode                                        build/nyan_os.o
NyanExeGetinfo                                    build/nyan_os.o
NyanExecute                                       build/nyan_os.o
                                                  build/main.o
NyanOsInit                                        build/nyan_os.o
                                                  build/usbd_cdc_acm_if.o
                                                  build/main.o
NyanPrint                                         build/nyan_os.o
NyanWelcomeDisplay                                build/nyan_os.o
                                                  build/main.o
OTG_FS_IRQHandler                                 build/startup_stm32f723xx.o
OTG_FS_WKUP_IRQHandler                            build/startup_stm32f723xx.o
OTG_HS_EP1_IN_IRQHandler                          build/startup_stm32f723xx.o
OTG_HS_EP1_OUT_IRQHandler                         build/startup_stm32f723xx.o
OTG_HS_IRQHandler                                 build/stm32f7xx_it.o
OTG_HS_WKUP_IRQHandler                            build/startup_stm32f723xx.o
PVD_IRQHandler                                    build/startup_stm32f723xx.o
PendSV_Handler                                    build/stm32f7xx_it.o
QUADSPI_IRQHandler                                build/startup_stm32f723xx.o
RCC_IRQHandler                                    build/startup_stm32f723xx.o
RNG_IRQHandler                                    build/startup_stm32f723xx.o
RTC_Alarm_IRQHandler                              build/startup_stm32f723xx.o
RTC_WKUP_IRQHandler                               build/startup_stm32f723xx.o
RX_Buffer                                         build/usbd_cdc_acm_if.o
Read_Index                                        build/usbd_cdc_acm_if.o
Reset_Handler                                     build/startup_stm32f723xx.o
SAI1_IRQHandler                                   build/startup_stm32f723xx.o
SAI2_IRQHandler                                   build/startup_stm32f723xx.o
SDMMC1_IRQHandler                                 build/startup_stm32f723xx.o
SDMMC2_IRQHandler                                 build/startup_stm32f723xx.o
SPI1_IRQHandler                                   build/startup_stm32f723xx.o
SPI2_IRQHandler                                   build/startup_stm32f723xx.o
SPI3_IRQHandler                                   build/startup_stm32f723xx.o
SPI4_IRQHandler                                   build/startup_stm32f723xx.o
SPI5_IRQHandler                                   build/startup_stm32f723xx.o
SVC_Handler                                       build/stm32f7xx_it.o
SYSTEM_STATUS_DEGREE_INCREMENT                    build/nyan_leds.o
                                                  build/stm32f7xx_it.o
SYSTEM_STATUS_LED_FPS                             build/nyan_leds.o
SysTick_Handler                                   build/stm32f7xx_it.o
SystemClock_Config                                build/main.o
SystemCoreClock                                   build/system_stm32f7xx.o
                                                  build/stm32f7xx_hal_spi.o
                                                  build/stm32f7xx_hal.o
                                                  build/stm32f7xx_hal_dma.o
                                                  build/stm32f7xx_hal_rcc.o
SystemCoreClockUpdate                             build/system_stm32f7xx.o
SystemInit                                        build/system_stm32f7xx.o
                                                  build/startup_stm32f723xx.o
TAMP_STAMP_IRQHandler                             build/startup_stm32f723xx.o
TIM1_BRK_TIM9_IRQHandler                          build/startup_stm32f723xx.o
TIM1_CC_IRQHandler                                build/stm32f7xx_it.o
TIM1_TRG_COM_TIM11_IRQHandler                     build/startup_stm32f723xx.o
TIM1_UP_TIM10_IRQHandler                          build/stm32f7xx_it.o
TIM2_IRQHandler                                   build/startup_stm32f723xx.o
TIM3_IRQHandler                                   build/startup_stm32f723xx.o
TIM4_IRQHandler                                   build/startup_stm32f723xx.o
TIM5_IRQHandler                                   build/startup_stm32f723xx.o
TIM6_DAC_IRQHandler                               build/stm32f7xx_it.o
TIM7_IRQHandler                                   build/stm32f7xx_it.o
TIM8_BRK_TIM12_IRQHandler                         build/startup_stm32f723xx.o
TIM8_CC_IRQHandler                                build/stm32f7xx_it.o
TIM8_TRG_COM_TIM14_IRQHandler                     build/startup_stm32f723xx.o
TIM8_UP_TIM13_IRQHandler                          build/startup_stm32f723xx.o
TIMEx_DMACommutationCplt                          build/stm32f7xx_hal_tim_ex.o
                                                  build/stm32f7xx_hal_tim.o
TIMEx_DMACommutationHalfCplt                      build/stm32f7xx_hal_tim_ex.o
                                                  build/stm32f7xx_hal_tim.o
TIM_Base_SetConfig                                build/stm32f7xx_hal_tim.o
                                                  build/stm32f7xx_hal_tim_ex.o
TIM_CCxChannelCmd                                 build/stm32f7xx_hal_tim.o
                                                  build/stm32f7xx_hal_tim_ex.o
TIM_DMACaptureCplt                                build/stm32f7xx_hal_tim.o
                                                  build/stm32f7xx_hal_tim_ex.o
TIM_DMACaptureHalfCplt                            build/stm32f7xx_hal_tim.o
                                                  build/stm32f7xx_hal_tim_ex.o
TIM_DMADelayPulseHalfCplt                         build/stm32f7xx_hal_tim.o
                                                  build/stm32f7xx_hal_tim_ex.o
TIM_DMAError                                      build/stm32f7xx_hal_tim.o
                                                  build/stm32f7xx_hal_tim_ex.o
TIM_ETR_SetConfig                                 build/stm32f7xx_hal_tim.o
TIM_OC2_SetConfig                                 build/stm32f7xx_hal_tim.o
                                                  build/stm32f7xx_hal_tim_ex.o
TIM_TI1_SetConfig                                 build/stm32f7xx_hal_tim.o
                                                  build/stm32f7xx_hal_tim_ex.o
TX_Buffer                                         build/usbd_cdc_acm_if.o
UART4_IRQHandler                                  build/startup_stm32f723xx.o
UART5_IRQHandler                                  build/startup_stm32f723xx.o
UART7_IRQHandler                                  build/startup_stm32f723xx.o
UART8_IRQHandler                                  build/startup_stm32f723xx.o
USART1_IRQHandler                                 build/startup_stm32f723xx.o
USART2_IRQHandler                                 build/startup_stm32f723xx.o
USART3_IRQHandler                                 build/startup_stm32f723xx.o
USART6_IRQHandler                                 build/startup_stm32f723xx.o
USBD_CDC_ACM                                      build/usbd_cdc_acm.o
                                                  build/usbd_composite.o
USBD_CDC_ACM_RegisterInterface                    build/usbd_cdc_acm.o
                                                  build/usb_device.o
USBD_CDC_ACM_fops                                 build/usbd_cdc_acm_if.o
                                                  build/usb_device.o
USBD_CDC_ReceivePacket                            build/usbd_cdc_acm.o
                                                  build/usbd_cdc_acm_if.o
USBD_CDC_SetRxBuffer                              build/usbd_cdc_acm.o
                                                  build/usbd_cdc_acm_if.o
USBD_CDC_SetTxBuffer                              build/usbd_cdc_acm.o
                                                  build/usbd_cdc_acm_if.o
USBD_CDC_TransmitPacket                           build/usbd_cdc_acm.o
                                                  build/usbd_cdc_acm_if.o
USBD_COMPOSITE                                    build/usbd_composite.o
                                                  build/usb_device.o
USBD_COMPOSITE_FSCfgDesc                          build/usbd_composite.o
USBD_COMPOSITE_HSCfgDesc                          build/usbd_composite.o
USBD_COMPOSITE_Mount_Class                        build/usbd_composite.o
                                                  build/usb_device.o
USBD_ClrClassConfig                               build/usbd_core.o
                                                  build/usbd_ctlreq.o
USBD_ConfigStrDescriptor                          build/usbd_desc.o
USBD_CtlContinueRx                                build/usbd_ioreq.o
                                                  build/usbd_core.o
USBD_CtlContinueSendData                          build/usbd_ioreq.o
                                                  build/usbd_core.o
USBD_CtlError                                     build/usbd_ctlreq.o
                                                  build/usbd_cdc_acm.o
                                                  build/usbd_hid_keyboard.o
USBD_CtlPrepareRx                                 build/usbd_ioreq.o
                                                  build/usbd_cdc_acm.o
USBD_CtlReceiveStatus                             build/usbd_ioreq.o
                                                  build/usbd_core.o
USBD_CtlSendData                                  build/usbd_ioreq.o
                                                  build/usbd_cdc_acm.o
                                                  build/usbd_ctlreq.o
                                                  build/usbd_hid_keyboard.o
USBD_CtlSendStatus                                build/usbd_ioreq.o
                                                  build/usbd_ctlreq.o
                                                  build/usbd_core.o
USBD_DeInit                                       build/usbd_core.o
USBD_Desc                                         build/usbd_desc.o
                                                  build/usb_device.o
USBD_DeviceDesc                                   build/usbd_desc.o
USBD_DeviceDescriptor                             build/usbd_desc.o
USBD_GetRxCount                                   build/usbd_ioreq.o
USBD_GetString                                    build/usbd_ctlreq.o
                                                  build/usbd_desc.o
                                                  build/usbd_composite.o
USBD_Get_USB_Status                               build/usbd_conf.o
USBD_HID_KEYBOARD                                 build/usbd_hid_keyboard.o
                                                  build/usbd_composite.o
USBD_HID_Keybaord_SendReport                      build/usbd_hid_keyboard.o
USBD_HID_Keyboard_GetPollingInterval              build/usbd_hid_keyboard.o
USBD_Init                                         build/usbd_core.o
                                                  build/usb_device.o
USBD_InterfaceStrDescriptor                       build/usbd_desc.o
USBD_LL_ClearStallEP                              build/usbd_conf.o
                                                  build/usbd_ctlreq.o
USBD_LL_CloseEP                                   build/usbd_conf.o
                                                  build/usbd_cdc_acm.o
                                                  build/usbd_hid_keyboard.o
USBD_LL_DataInStage                               build/usbd_core.o
                                                  build/usbd_conf.o
USBD_LL_DataOutStage                              build/usbd_core.o
                                                  build/usbd_conf.o
USBD_LL_DeInit                                    build/usbd_conf.o
                                                  build/usbd_core.o
USBD_LL_Delay                                     build/usbd_conf.o
USBD_LL_DevConnected                              build/usbd_core.o
                                                  build/usbd_conf.o
USBD_LL_DevDisconnected                           build/usbd_core.o
                                                  build/usbd_conf.o
USBD_LL_FlushEP                                   build/usbd_conf.o
USBD_LL_GetRxDataSize                             build/usbd_conf.o
                                                  build/usbd_cdc_acm.o
                                                  build/usbd_ioreq.o
USBD_LL_Init                                      build/usbd_conf.o
                                                  build/usbd_core.o
USBD_LL_IsStallEP                                 build/usbd_conf.o
                                                  build/usbd_ctlreq.o
USBD_LL_IsoINIncomplete                           build/usbd_core.o
                                                  build/usbd_conf.o
USBD_LL_IsoOUTIncomplete                          build/usbd_core.o
                                                  build/usbd_conf.o
USBD_LL_OpenEP                                    build/usbd_conf.o
                                                  build/usbd_cdc_acm.o
                                                  build/usbd_core.o
                                                  build/usbd_hid_keyboard.o
USBD_LL_PrepareReceive                            build/usbd_conf.o
                                                  build/usbd_cdc_acm.o
                                                  build/usbd_ioreq.o
                                                  build/usbd_core.o
USBD_LL_Reset                                     build/usbd_core.o
                                                  build/usbd_conf.o
USBD_LL_Resume                                    build/usbd_core.o
                                                  build/usbd_conf.o
USBD_LL_SOF                                       build/usbd_core.o
                                                  build/usbd_conf.o
USBD_LL_SetSpeed                                  build/usbd_core.o
                                                  build/usbd_conf.o
USBD_LL_SetUSBAddress                             build/usbd_conf.o
                                                  build/usbd_ctlreq.o
USBD_LL_SetupStage                                build/usbd_core.o
                                                  build/usbd_conf.o
USBD_LL_StallEP                                   build/usbd_conf.o
                                                  build/usbd_ctlreq.o
                                                  build/usbd_core.o
USBD_LL_Start                                     build/usbd_conf.o
                                                  build/usbd_core.o
USBD_LL_Stop                                      build/usbd_conf.o
                                                  build/usbd_core.o
USBD_LL_Suspend                                   build/usbd_core.o
                                                  build/usbd_conf.o
USBD_LL_Transmit                                  build/usbd_conf.o
                                                  build/usbd_cdc_acm.o
                                                  build/usbd_ioreq.o
                                                  build/usbd_hid_keyboard.o
USBD_LangIDDesc                                   build/usbd_desc.o
USBD_LangIDStrDescriptor                          build/usbd_desc.o
USBD_ManufacturerStrDescriptor                    build/usbd_desc.o
USBD_ParseSetupRequest                            build/usbd_ctlreq.o
                                                  build/usbd_core.o
USBD_ProductStrDescriptor                         build/usbd_desc.o
USBD_RegisterClass                                build/usbd_core.o
                                                  build/usb_device.o
USBD_RunTestMode                                  build/usbd_core.o
USBD_SerialStrDescriptor                          build/usbd_desc.o
USBD_SetClassConfig                               build/usbd_core.o
                                                  build/usbd_ctlreq.o
USBD_Start                                        build/usbd_core.o
                                                  build/usb_device.o
USBD_StdDevReq                                    build/usbd_ctlreq.o
                                                  build/usbd_core.o
USBD_StdEPReq                                     build/usbd_ctlreq.o
                                                  build/usbd_core.o
USBD_StdItfReq                                    build/usbd_ctlreq.o
                                                  build/usbd_core.o
USBD_Stop                                         build/usbd_core.o
USBD_StrDesc                                      build/usbd_desc.o
USBD_StringSerial                                 build/usbd_desc.o
USBD_Track_String_Index                           build/usbd_composite.o
USBD_Update_CDC_ACM_DESC                          build/usbd_cdc_acm.o
                                                  build/usbd_composite.o
USBD_Update_HID_KBD_DESC                          build/usbd_hid_keyboard.o
                                                  build/usbd_composite.o
USB_ActivateDedicatedEndpoint                     build/stm32f7xx_ll_usb.o
USB_ActivateEndpoint                              build/stm32f7xx_ll_usb.o
                                                  build/stm32f7xx_hal_pcd.o
USB_ActivateRemoteWakeup                          build/stm32f7xx_ll_usb.o
                                                  build/stm32f7xx_hal_pcd.o
USB_ActivateSetup                                 build/stm32f7xx_ll_usb.o
                                                  build/stm32f7xx_hal_pcd.o
USB_ClearInterrupts                               build/stm32f7xx_ll_usb.o
USB_CoreInit                                      build/stm32f7xx_ll_usb.o
                                                  build/stm32f7xx_hal_pcd.o
USB_DeActivateRemoteWakeup                        build/stm32f7xx_ll_usb.o
                                                  build/stm32f7xx_hal_pcd.o
USB_DeactivateDedicatedEndpoint                   build/stm32f7xx_ll_usb.o
USB_DeactivateEndpoint                            build/stm32f7xx_ll_usb.o
                                                  build/stm32f7xx_hal_pcd.o
USB_DevConnect                                    build/stm32f7xx_ll_usb.o
                                                  build/stm32f7xx_hal_pcd.o
USB_DevDisconnect                                 build/stm32f7xx_ll_usb.o
                                                  build/stm32f7xx_hal_pcd.o
USB_DevInit                                       build/stm32f7xx_ll_usb.o
                                                  build/stm32f7xx_hal_pcd.o
USB_DisableGlobalInt                              build/stm32f7xx_ll_usb.o
                                                  build/stm32f7xx_hal_pcd.o
USB_DoPing                                        build/stm32f7xx_ll_usb.o
USB_DriveVbus                                     build/stm32f7xx_ll_usb.o
USB_EP0StartXfer                                  build/stm32f7xx_ll_usb.o
                                                  build/stm32f7xx_hal_pcd.o
USB_EP0_OutStart                                  build/stm32f7xx_ll_usb.o
                                                  build/stm32f7xx_hal_pcd.o
USB_EPClearStall                                  build/stm32f7xx_ll_usb.o
                                                  build/stm32f7xx_hal_pcd.o
USB_EPSetStall                                    build/stm32f7xx_ll_usb.o
                                                  build/stm32f7xx_hal_pcd.o
USB_EPStartXfer                                   build/stm32f7xx_ll_usb.o
                                                  build/stm32f7xx_hal_pcd.o
USB_EPStopXfer                                    build/stm32f7xx_ll_usb.o
                                                  build/stm32f7xx_hal_pcd.o
USB_EnableGlobalInt                               build/stm32f7xx_ll_usb.o
                                                  build/stm32f7xx_hal_pcd.o
USB_FlushRxFifo                                   build/stm32f7xx_ll_usb.o
                                                  build/stm32f7xx_hal_pcd.o
USB_FlushTxFifo                                   build/stm32f7xx_ll_usb.o
                                                  build/stm32f7xx_hal_pcd.o
USB_GetCurrentFrame                               build/stm32f7xx_ll_usb.o
USB_GetDevSpeed                                   build/stm32f7xx_ll_usb.o
                                                  build/stm32f7xx_hal_pcd.o
USB_GetHostSpeed                                  build/stm32f7xx_ll_usb.o
USB_GetMode                                       build/stm32f7xx_ll_usb.o
                                                  build/stm32f7xx_hal_pcd.o
USB_HC_Halt                                       build/stm32f7xx_ll_usb.o
USB_HC_Init                                       build/stm32f7xx_ll_usb.o
USB_HC_ReadInterrupt                              build/stm32f7xx_ll_usb.o
USB_HC_StartXfer                                  build/stm32f7xx_ll_usb.o
USB_HostInit                                      build/stm32f7xx_ll_usb.o
USB_InitFSLSPClkSel                               build/stm32f7xx_ll_usb.o
USB_ReadChInterrupts                              build/stm32f7xx_ll_usb.o
USB_ReadDevAllInEpInterrupt                       build/stm32f7xx_ll_usb.o
                                                  build/stm32f7xx_hal_pcd.o
USB_ReadDevAllOutEpInterrupt                      build/stm32f7xx_ll_usb.o
                                                  build/stm32f7xx_hal_pcd.o
USB_ReadDevInEPInterrupt                          build/stm32f7xx_ll_usb.o
                                                  build/stm32f7xx_hal_pcd.o
USB_ReadDevOutEPInterrupt                         build/stm32f7xx_ll_usb.o
                                                  build/stm32f7xx_hal_pcd.o
USB_ReadInterrupts                                build/stm32f7xx_ll_usb.o
                                                  build/stm32f7xx_hal_pcd.o
USB_ReadPacket                                    build/stm32f7xx_ll_usb.o
                                                  build/stm32f7xx_hal_pcd.o
USB_ResetPort                                     build/stm32f7xx_ll_usb.o
USB_SetCurrentMode                                build/stm32f7xx_ll_usb.o
                                                  build/stm32f7xx_hal_pcd.o
USB_SetDevAddress                                 build/stm32f7xx_ll_usb.o
                                                  build/stm32f7xx_hal_pcd.o
USB_SetDevSpeed                                   build/stm32f7xx_ll_usb.o
USB_SetTurnaroundTime                             build/stm32f7xx_ll_usb.o
                                                  build/stm32f7xx_hal_pcd.o
USB_StopDevice                                    build/stm32f7xx_ll_usb.o
                                                  build/stm32f7xx_hal_pcd.o
USB_StopHost                                      build/stm32f7xx_ll_usb.o
USB_WritePacket                                   build/stm32f7xx_ll_usb.o
                                                  build/stm32f7xx_hal_pcd.o
UsageFault_Handler                                build/stm32f7xx_it.o
WWDG_IRQHandler                                   build/startup_stm32f723xx.o
Write_Index                                       build/usbd_cdc_acm_if.o
__adddf3                                          /opt/gcc-arm-none-eabi-10.3-2021.10/bin/../lib/gcc/arm-none-eabi/10.3.1/thumb/v7e-m+fp/hard/libgcc.a(_arm_addsubdf3.o)
__aeabi_cdcmpeq                                   /opt/gcc-arm-none-eabi-10.3-2021.10/bin/../lib/gcc/arm-none-eabi/10.3.1/thumb/v7e-m+fp/hard/libgcc.a(_arm_cmpdf2.o)
__aeabi_cdcmple                                   /opt/gcc-arm-none-eabi-10.3-2021.10/bin/../lib/gcc/arm-none-eabi/10.3.1/thumb/v7e-m+fp/hard/libgcc.a(_arm_cmpdf2.o)
__aeabi_cdrcmple                                  /opt/gcc-arm-none-eabi-10.3-2021.10/bin/../lib/gcc/arm-none-eabi/10.3.1/thumb/v7e-m+fp/hard/libgcc.a(_arm_cmpdf2.o)
__aeabi_d2f                                       /opt/gcc-arm-none-eabi-10.3-2021.10/bin/../lib/gcc/arm-none-eabi/10.3.1/thumb/v7e-m+fp/hard/libgcc.a(_arm_truncdfsf2.o)
                                                  build/nyan_leds.o
__aeabi_d2uiz                                     /opt/gcc-arm-none-eabi-10.3-2021.10/bin/../lib/gcc/arm-none-eabi/10.3.1/thumb/v7e-m+fp/hard/libgcc.a(_arm_fixunsdfsi.o)
                                                  build/nyan_leds.o
__aeabi_dadd                                      /opt/gcc-arm-none-eabi-10.3-2021.10/bin/../lib/gcc/arm-none-eabi/10.3.1/thumb/v7e-m+fp/hard/libgcc.a(_arm_addsubdf3.o)
                                                  /opt/gcc-arm-none-eabi-10.3-2021.10/bin/../lib/gcc/arm-none-eabi/10.3.1/../../../../arm-none-eabi/lib/thumb/v7e-m+fp/hard/libm.a(lib_a-s_scalbn.o)
                                                  /opt/gcc-arm-none-eabi-10.3-2021.10/bin/../lib/gcc/arm-none-eabi/10.3.1/../../../../arm-none-eabi/lib/thumb/v7e-m+fp/hard/libm.a(lib_a-e_sqrt.o)
                                                  /opt/gcc-arm-none-eabi-10.3-2021.10/bin/../lib/gcc/arm-none-eabi/10.3.1/../../../../arm-none-eabi/lib/thumb/v7e-m+fp/hard/libm.a(lib_a-e_pow.o)
                                                  /opt/gcc-arm-none-eabi-10.3-2021.10/bin/../lib/gcc/arm-none-eabi/10.3.1/../../../../arm-none-eabi/lib/thumb/v7e-m+fp/hard/libm.a(lib_a-s_floor.o)
                                                  build/nyan_leds.o
                                                  build/stm32f7xx_it.o
__aeabi_dcmpeq                                    /opt/gcc-arm-none-eabi-10.3-2021.10/bin/../lib/gcc/arm-none-eabi/10.3.1/thumb/v7e-m+fp/hard/libgcc.a(_arm_cmpdf2.o)
                                                  /opt/gcc-arm-none-eabi-10.3-2021.10/bin/../lib/gcc/arm-none-eabi/10.3.1/../../../../arm-none-eabi/lib/thumb/v7e-m+fp/hard/libm.a(lib_a-math_err.o)
                                                  /opt/gcc-arm-none-eabi-10.3-2021.10/bin/../lib/gcc/arm-none-eabi/10.3.1/../../../../arm-none-eabi/lib/thumb/v7e-m+fp/hard/libm.a(lib_a-w_pow.o)
__aeabi_dcmpge                                    /opt/gcc-arm-none-eabi-10.3-2021.10/bin/../lib/gcc/arm-none-eabi/10.3.1/thumb/v7e-m+fp/hard/libgcc.a(_arm_cmpdf2.o)
                                                  /opt/gcc-arm-none-eabi-10.3-2021.10/bin/../lib/gcc/arm-none-eabi/10.3.1/../../../../arm-none-eabi/lib/thumb/v7e-m+fp/hard/libm.a(lib_a-e_pow.o)
__aeabi_dcmpgt                                    /opt/gcc-arm-none-eabi-10.3-2021.10/bin/../lib/gcc/arm-none-eabi/10.3.1/thumb/v7e-m+fp/hard/libgcc.a(_arm_cmpdf2.o)
                                                  /opt/gcc-arm-none-eabi-10.3-2021.10/bin/../lib/gcc/arm-none-eabi/10.3.1/../../../../arm-none-eabi/lib/thumb/v7e-m+fp/hard/libm.a(lib_a-e_pow.o)
                                                  /opt/gcc-arm-none-eabi-10.3-2021.10/bin/../lib/gcc/arm-none-eabi/10.3.1/../../../../arm-none-eabi/lib/thumb/v7e-m+fp/hard/libm.a(lib_a-s_floor.o)
__aeabi_dcmple                                    /opt/gcc-arm-none-eabi-10.3-2021.10/bin/../lib/gcc/arm-none-eabi/10.3.1/thumb/v7e-m+fp/hard/libgcc.a(_arm_cmpdf2.o)
                                                  /opt/gcc-arm-none-eabi-10.3-2021.10/bin/../lib/gcc/arm-none-eabi/10.3.1/../../../../arm-none-eabi/lib/thumb/v7e-m+fp/hard/libm.a(lib_a-math_err.o)
__aeabi_dcmplt                                    /opt/gcc-arm-none-eabi-10.3-2021.10/bin/../lib/gcc/arm-none-eabi/10.3.1/thumb/v7e-m+fp/hard/libgcc.a(_arm_cmpdf2.o)
                                                  /opt/gcc-arm-none-eabi-10.3-2021.10/bin/../lib/gcc/arm-none-eabi/10.3.1/../../../../arm-none-eabi/lib/thumb/v7e-m+fp/hard/libm.a(lib_a-e_pow.o)
                                                  /opt/gcc-arm-none-eabi-10.3-2021.10/bin/../lib/gcc/arm-none-eabi/10.3.1/../../../../arm-none-eabi/lib/thumb/v7e-m+fp/hard/libm.a(lib_a-w_pow.o)
__aeabi_dcmpun                                    /opt/gcc-arm-none-eabi-10.3-2021.10/bin/../lib/gcc/arm-none-eabi/10.3.1/thumb/v7e-m+fp/hard/libgcc.a(_arm_unorddf2.o)
                                                  /opt/gcc-arm-none-eabi-10.3-2021.10/bin/../lib/gcc/arm-none-eabi/10.3.1/../../../../arm-none-eabi/lib/thumb/v7e-m+fp/hard/libm.a(lib_a-math_err.o)
                                                  /opt/gcc-arm-none-eabi-10.3-2021.10/bin/../lib/gcc/arm-none-eabi/10.3.1/../../../../arm-none-eabi/lib/thumb/v7e-m+fp/hard/libm.a(lib_a-w_pow.o)
__aeabi_ddiv                                      /opt/gcc-arm-none-eabi-10.3-2021.10/bin/../lib/gcc/arm-none-eabi/10.3.1/thumb/v7e-m+fp/hard/libgcc.a(_arm_muldivdf3.o)
                                                  /opt/gcc-arm-none-eabi-10.3-2021.10/bin/../lib/gcc/arm-none-eabi/10.3.1/../../../../arm-none-eabi/lib/thumb/v7e-m+fp/hard/libm.a(lib_a-math_err.o)
                                                  /opt/gcc-arm-none-eabi-10.3-2021.10/bin/../lib/gcc/arm-none-eabi/10.3.1/../../../../arm-none-eabi/lib/thumb/v7e-m+fp/hard/libm.a(lib_a-e_sqrt.o)
                                                  /opt/gcc-arm-none-eabi-10.3-2021.10/bin/../lib/gcc/arm-none-eabi/10.3.1/../../../../arm-none-eabi/lib/thumb/v7e-m+fp/hard/libm.a(lib_a-e_pow.o)
__aeabi_dmul                                      /opt/gcc-arm-none-eabi-10.3-2021.10/bin/../lib/gcc/arm-none-eabi/10.3.1/thumb/v7e-m+fp/hard/libgcc.a(_arm_muldivdf3.o)
                                                  /opt/gcc-arm-none-eabi-10.3-2021.10/bin/../lib/gcc/arm-none-eabi/10.3.1/thumb/v7e-m+fp/hard/libgcc.a(_arm_muldf3.o)
                                                  /opt/gcc-arm-none-eabi-10.3-2021.10/bin/../lib/gcc/arm-none-eabi/10.3.1/../../../../arm-none-eabi/lib/thumb/v7e-m+fp/hard/libm.a(lib_a-s_scalbn.o)
                                                  /opt/gcc-arm-none-eabi-10.3-2021.10/bin/../lib/gcc/arm-none-eabi/10.3.1/../../../../arm-none-eabi/lib/thumb/v7e-m+fp/hard/libm.a(lib_a-math_err.o)
                                                  /opt/gcc-arm-none-eabi-10.3-2021.10/bin/../lib/gcc/arm-none-eabi/10.3.1/../../../../arm-none-eabi/lib/thumb/v7e-m+fp/hard/libm.a(lib_a-e_sqrt.o)
                                                  /opt/gcc-arm-none-eabi-10.3-2021.10/bin/../lib/gcc/arm-none-eabi/10.3.1/../../../../arm-none-eabi/lib/thumb/v7e-m+fp/hard/libm.a(lib_a-e_pow.o)
                                                  build/nyan_leds.o
__aeabi_drsub                                     /opt/gcc-arm-none-eabi-10.3-2021.10/bin/../lib/gcc/arm-none-eabi/10.3.1/thumb/v7e-m+fp/hard/libgcc.a(_arm_addsubdf3.o)
__aeabi_dsub                                      /opt/gcc-arm-none-eabi-10.3-2021.10/bin/../lib/gcc/arm-none-eabi/10.3.1/thumb/v7e-m+fp/hard/libgcc.a(_arm_addsubdf3.o)
                                                  /opt/gcc-arm-none-eabi-10.3-2021.10/bin/../lib/gcc/arm-none-eabi/10.3.1/../../../../arm-none-eabi/lib/thumb/v7e-m+fp/hard/libm.a(lib_a-math_err.o)
                                                  /opt/gcc-arm-none-eabi-10.3-2021.10/bin/../lib/gcc/arm-none-eabi/10.3.1/../../../../arm-none-eabi/lib/thumb/v7e-m+fp/hard/libm.a(lib_a-e_sqrt.o)
                                                  /opt/gcc-arm-none-eabi-10.3-2021.10/bin/../lib/gcc/arm-none-eabi/10.3.1/../../../../arm-none-eabi/lib/thumb/v7e-m+fp/hard/libm.a(lib_a-e_pow.o)
__aeabi_f2d                                       /opt/gcc-arm-none-eabi-10.3-2021.10/bin/../lib/gcc/arm-none-eabi/10.3.1/thumb/v7e-m+fp/hard/libgcc.a(_arm_addsubdf3.o)
                                                  build/nyan_leds.o
__aeabi_i2d                                       /opt/gcc-arm-none-eabi-10.3-2021.10/bin/../lib/gcc/arm-none-eabi/10.3.1/thumb/v7e-m+fp/hard/libgcc.a(_arm_addsubdf3.o)
                                                  /opt/gcc-arm-none-eabi-10.3-2021.10/bin/../lib/gcc/arm-none-eabi/10.3.1/../../../../arm-none-eabi/lib/thumb/v7e-m+fp/hard/libm.a(lib_a-e_pow.o)
__aeabi_idiv0                                     /opt/gcc-arm-none-eabi-10.3-2021.10/bin/../lib/gcc/arm-none-eabi/10.3.1/thumb/v7e-m+fp/hard/libgcc.a(_dvmd_tls.o)
__aeabi_l2d                                       /opt/gcc-arm-none-eabi-10.3-2021.10/bin/../lib/gcc/arm-none-eabi/10.3.1/thumb/v7e-m+fp/hard/libgcc.a(_arm_addsubdf3.o)
__aeabi_ldiv0                                     /opt/gcc-arm-none-eabi-10.3-2021.10/bin/../lib/gcc/arm-none-eabi/10.3.1/thumb/v7e-m+fp/hard/libgcc.a(_dvmd_tls.o)
                                                  /opt/gcc-arm-none-eabi-10.3-2021.10/bin/../lib/gcc/arm-none-eabi/10.3.1/thumb/v7e-m+fp/hard/libgcc.a(_aeabi_uldivmod.o)
__aeabi_ui2d                                      /opt/gcc-arm-none-eabi-10.3-2021.10/bin/../lib/gcc/arm-none-eabi/10.3.1/thumb/v7e-m+fp/hard/libgcc.a(_arm_addsubdf3.o)
__aeabi_ul2d                                      /opt/gcc-arm-none-eabi-10.3-2021.10/bin/../lib/gcc/arm-none-eabi/10.3.1/thumb/v7e-m+fp/hard/libgcc.a(_arm_addsubdf3.o)
__aeabi_uldivmod                                  /opt/gcc-arm-none-eabi-10.3-2021.10/bin/../lib/gcc/arm-none-eabi/10.3.1/thumb/v7e-m+fp/hard/libgcc.a(_aeabi_uldivmod.o)
                                                  build/stm32f7xx_hal_rcc.o
__bss_end__                                       /opt/gcc-arm-none-eabi-10.3-2021.10/bin/../lib/gcc/arm-none-eabi/10.3.1/../../../../arm-none-eabi/lib/thumb/v7e-m+fp/hard/crt0.o
__bss_start__                                     /opt/gcc-arm-none-eabi-10.3-2021.10/bin/../lib/gcc/arm-none-eabi/10.3.1/../../../../arm-none-eabi/lib/thumb/v7e-m+fp/hard/crt0.o
__call_exitprocs                                  /opt/gcc-arm-none-eabi-10.3-2021.10/bin/../lib/gcc/arm-none-eabi/10.3.1/../../../../arm-none-eabi/lib/thumb/v7e-m+fp/hard/libc_nano.a(lib_a-exit.o)
__cmpdf2                                          /opt/gcc-arm-none-eabi-10.3-2021.10/bin/../lib/gcc/arm-none-eabi/10.3.1/thumb/v7e-m+fp/hard/libgcc.a(_arm_cmpdf2.o)
__deregister_frame_info                           /opt/gcc-arm-none-eabi-10.3-2021.10/bin/../lib/gcc/arm-none-eabi/10.3.1/thumb/v7e-m+fp/hard/crtbegin.o
__divdf3                                          /opt/gcc-arm-none-eabi-10.3-2021.10/bin/../lib/gcc/arm-none-eabi/10.3.1/thumb/v7e-m+fp/hard/libgcc.a(_arm_muldivdf3.o)
__dso_handle                                      /opt/gcc-arm-none-eabi-10.3-2021.10/bin/../lib/gcc/arm-none-eabi/10.3.1/thumb/v7e-m+fp/hard/crtbegin.o
__eqdf2                                           /opt/gcc-arm-none-eabi-10.3-2021.10/bin/../lib/gcc/arm-none-eabi/10.3.1/thumb/v7e-m+fp/hard/libgcc.a(_arm_cmpdf2.o)
__errno                                           /opt/gcc-arm-none-eabi-10.3-2021.10/bin/../lib/gcc/arm-none-eabi/10.3.1/../../../../arm-none-eabi/lib/thumb/v7e-m+fp/hard/libc_nano.a(lib_a-errno.o)
                                                  /opt/gcc-arm-none-eabi-10.3-2021.10/bin/../lib/gcc/arm-none-eabi/10.3.1/../../../../arm-none-eabi/lib/thumb/v7e-m+fp/hard/libm.a(lib_a-math_err.o)
                                                  /opt/gcc-arm-none-eabi-10.3-2021.10/bin/../lib/gcc/arm-none-eabi/10.3.1/../../../../arm-none-eabi/lib/thumb/v7e-m+fp/hard/libm.a(lib_a-w_pow.o)
__extendsfdf2                                     /opt/gcc-arm-none-eabi-10.3-2021.10/bin/../lib/gcc/arm-none-eabi/10.3.1/thumb/v7e-m+fp/hard/libgcc.a(_arm_addsubdf3.o)
__fixunsdfsi                                      /opt/gcc-arm-none-eabi-10.3-2021.10/bin/../lib/gcc/arm-none-eabi/10.3.1/thumb/v7e-m+fp/hard/libgcc.a(_arm_fixunsdfsi.o)
__floatdidf                                       /opt/gcc-arm-none-eabi-10.3-2021.10/bin/../lib/gcc/arm-none-eabi/10.3.1/thumb/v7e-m+fp/hard/libgcc.a(_arm_addsubdf3.o)
__floatsidf                                       /opt/gcc-arm-none-eabi-10.3-2021.10/bin/../lib/gcc/arm-none-eabi/10.3.1/thumb/v7e-m+fp/hard/libgcc.a(_arm_addsubdf3.o)
__floatundidf                                     /opt/gcc-arm-none-eabi-10.3-2021.10/bin/../lib/gcc/arm-none-eabi/10.3.1/thumb/v7e-m+fp/hard/libgcc.a(_arm_addsubdf3.o)
__floatunsidf                                     /opt/gcc-arm-none-eabi-10.3-2021.10/bin/../lib/gcc/arm-none-eabi/10.3.1/thumb/v7e-m+fp/hard/libgcc.a(_arm_addsubdf3.o)
__gedf2                                           /opt/gcc-arm-none-eabi-10.3-2021.10/bin/../lib/gcc/arm-none-eabi/10.3.1/thumb/v7e-m+fp/hard/libgcc.a(_arm_cmpdf2.o)
__gtdf2                                           /opt/gcc-arm-none-eabi-10.3-2021.10/bin/../lib/gcc/arm-none-eabi/10.3.1/thumb/v7e-m+fp/hard/libgcc.a(_arm_cmpdf2.o)
__ieee754_pow                                     /opt/gcc-arm-none-eabi-10.3-2021.10/bin/../lib/gcc/arm-none-eabi/10.3.1/../../../../arm-none-eabi/lib/thumb/v7e-m+fp/hard/libm.a(lib_a-e_pow.o)
                                                  /opt/gcc-arm-none-eabi-10.3-2021.10/bin/../lib/gcc/arm-none-eabi/10.3.1/../../../../arm-none-eabi/lib/thumb/v7e-m+fp/hard/libm.a(lib_a-w_pow.o)
__ieee754_rem_pio2f                               /opt/gcc-arm-none-eabi-10.3-2021.10/bin/../lib/gcc/arm-none-eabi/10.3.1/../../../../arm-none-eabi/lib/thumb/v7e-m+fp/hard/libm.a(lib_a-ef_rem_pio2.o)
                                                  /opt/gcc-arm-none-eabi-10.3-2021.10/bin/../lib/gcc/arm-none-eabi/10.3.1/../../../../arm-none-eabi/lib/thumb/v7e-m+fp/hard/libm.a(lib_a-sf_cos.o)
__ieee754_sqrt                                    /opt/gcc-arm-none-eabi-10.3-2021.10/bin/../lib/gcc/arm-none-eabi/10.3.1/../../../../arm-none-eabi/lib/thumb/v7e-m+fp/hard/libm.a(lib_a-e_sqrt.o)
                                                  /opt/gcc-arm-none-eabi-10.3-2021.10/bin/../lib/gcc/arm-none-eabi/10.3.1/../../../../arm-none-eabi/lib/thumb/v7e-m+fp/hard/libm.a(lib_a-e_pow.o)
__init_array_end                                  /opt/gcc-arm-none-eabi-10.3-2021.10/bin/../lib/gcc/arm-none-eabi/10.3.1/../../../../arm-none-eabi/lib/thumb/v7e-m+fp/hard/libc_nano.a(lib_a-init.o)
__init_array_start                                /opt/gcc-arm-none-eabi-10.3-2021.10/bin/../lib/gcc/arm-none-eabi/10.3.1/../../../../arm-none-eabi/lib/thumb/v7e-m+fp/hard/libc_nano.a(lib_a-init.o)
__kernel_cosf                                     /opt/gcc-arm-none-eabi-10.3-2021.10/bin/../lib/gcc/arm-none-eabi/10.3.1/../../../../arm-none-eabi/lib/thumb/v7e-m+fp/hard/libm.a(lib_a-kf_cos.o)
                                                  /opt/gcc-arm-none-eabi-10.3-2021.10/bin/../lib/gcc/arm-none-eabi/10.3.1/../../../../arm-none-eabi/lib/thumb/v7e-m+fp/hard/libm.a(lib_a-sf_cos.o)
__kernel_rem_pio2f                                /opt/gcc-arm-none-eabi-10.3-2021.10/bin/../lib/gcc/arm-none-eabi/10.3.1/../../../../arm-none-eabi/lib/thumb/v7e-m+fp/hard/libm.a(lib_a-kf_rem_pio2.o)
                                                  /opt/gcc-arm-none-eabi-10.3-2021.10/bin/../lib/gcc/arm-none-eabi/10.3.1/../../../../arm-none-eabi/lib/thumb/v7e-m+fp/hard/libm.a(lib_a-ef_rem_pio2.o)
__kernel_sinf                                     /opt/gcc-arm-none-eabi-10.3-2021.10/bin/../lib/gcc/arm-none-eabi/10.3.1/../../../../arm-none-eabi/lib/thumb/v7e-m+fp/hard/libm.a(lib_a-kf_sin.o)
                                                  /opt/gcc-arm-none-eabi-10.3-2021.10/bin/../lib/gcc/arm-none-eabi/10.3.1/../../../../arm-none-eabi/lib/thumb/v7e-m+fp/hard/libm.a(lib_a-sf_cos.o)
__ledf2                                           /opt/gcc-arm-none-eabi-10.3-2021.10/bin/../lib/gcc/arm-none-eabi/10.3.1/thumb/v7e-m+fp/hard/libgcc.a(_arm_cmpdf2.o)
__libc_fini_array                                 /opt/gcc-arm-none-eabi-10.3-2021.10/bin/../lib/gcc/arm-none-eabi/10.3.1/../../../../arm-none-eabi/lib/thumb/v7e-m+fp/hard/crt0.o
__libc_init_array                                 /opt/gcc-arm-none-eabi-10.3-2021.10/bin/../lib/gcc/arm-none-eabi/10.3.1/../../../../arm-none-eabi/lib/thumb/v7e-m+fp/hard/libc_nano.a(lib_a-init.o)
                                                  build/startup_stm32f723xx.o
                                                  /opt/gcc-arm-none-eabi-10.3-2021.10/bin/../lib/gcc/arm-none-eabi/10.3.1/../../../../arm-none-eabi/lib/thumb/v7e-m+fp/hard/crt0.o
__lock___arc4random_mutex                         /opt/gcc-arm-none-eabi-10.3-2021.10/bin/../lib/gcc/arm-none-eabi/10.3.1/../../../../arm-none-eabi/lib/thumb/v7e-m+fp/hard/libc_nano.a(lib_a-lock.o)
__lock___at_quick_exit_mutex                      /opt/gcc-arm-none-eabi-10.3-2021.10/bin/../lib/gcc/arm-none-eabi/10.3.1/../../../../arm-none-eabi/lib/thumb/v7e-m+fp/hard/libc_nano.a(lib_a-lock.o)
__lock___atexit_recursive_mutex                   /opt/gcc-arm-none-eabi-10.3-2021.10/bin/../lib/gcc/arm-none-eabi/10.3.1/../../../../arm-none-eabi/lib/thumb/v7e-m+fp/hard/libc_nano.a(lib_a-lock.o)
__lock___dd_hash_mutex                            /opt/gcc-arm-none-eabi-10.3-2021.10/bin/../lib/gcc/arm-none-eabi/10.3.1/../../../../arm-none-eabi/lib/thumb/v7e-m+fp/hard/libc_nano.a(lib_a-lock.o)
__lock___env_recursive_mutex                      /opt/gcc-arm-none-eabi-10.3-2021.10/bin/../lib/gcc/arm-none-eabi/10.3.1/../../../../arm-none-eabi/lib/thumb/v7e-m+fp/hard/libc_nano.a(lib_a-lock.o)
__lock___malloc_recursive_mutex                   /opt/gcc-arm-none-eabi-10.3-2021.10/bin/../lib/gcc/arm-none-eabi/10.3.1/../../../../arm-none-eabi/lib/thumb/v7e-m+fp/hard/libc_nano.a(lib_a-lock.o)
                                                  /opt/gcc-arm-none-eabi-10.3-2021.10/bin/../lib/gcc/arm-none-eabi/10.3.1/../../../../arm-none-eabi/lib/thumb/v7e-m+fp/hard/libc_nano.a(lib_a-mlock.o)
__lock___sfp_recursive_mutex                      /opt/gcc-arm-none-eabi-10.3-2021.10/bin/../lib/gcc/arm-none-eabi/10.3.1/../../../../arm-none-eabi/lib/thumb/v7e-m+fp/hard/libc_nano.a(lib_a-lock.o)
__lock___sinit_recursive_mutex                    /opt/gcc-arm-none-eabi-10.3-2021.10/bin/../lib/gcc/arm-none-eabi/10.3.1/../../../../arm-none-eabi/lib/thumb/v7e-m+fp/hard/libc_nano.a(lib_a-lock.o)
__lock___tz_mutex                                 /opt/gcc-arm-none-eabi-10.3-2021.10/bin/../lib/gcc/arm-none-eabi/10.3.1/../../../../arm-none-eabi/lib/thumb/v7e-m+fp/hard/libc_nano.a(lib_a-lock.o)
__ltdf2                                           /opt/gcc-arm-none-eabi-10.3-2021.10/bin/../lib/gcc/arm-none-eabi/10.3.1/thumb/v7e-m+fp/hard/libgcc.a(_arm_cmpdf2.o)
__malloc_free_list                                /opt/gcc-arm-none-eabi-10.3-2021.10/bin/../lib/gcc/arm-none-eabi/10.3.1/../../../../arm-none-eabi/lib/thumb/v7e-m+fp/hard/libc_nano.a(lib_a-nano-mallocr.o)
                                                  /opt/gcc-arm-none-eabi-10.3-2021.10/bin/../lib/gcc/arm-none-eabi/10.3.1/../../../../arm-none-eabi/lib/thumb/v7e-m+fp/hard/libc_nano.a(lib_a-nano-freer.o)
__malloc_lock                                     /opt/gcc-arm-none-eabi-10.3-2021.10/bin/../lib/gcc/arm-none-eabi/10.3.1/../../../../arm-none-eabi/lib/thumb/v7e-m+fp/hard/libc_nano.a(lib_a-mlock.o)
                                                  /opt/gcc-arm-none-eabi-10.3-2021.10/bin/../lib/gcc/arm-none-eabi/10.3.1/../../../../arm-none-eabi/lib/thumb/v7e-m+fp/hard/libc_nano.a(lib_a-nano-mallocr.o)
                                                  /opt/gcc-arm-none-eabi-10.3-2021.10/bin/../lib/gcc/arm-none-eabi/10.3.1/../../../../arm-none-eabi/lib/thumb/v7e-m+fp/hard/libc_nano.a(lib_a-nano-freer.o)
__malloc_sbrk_start                               /opt/gcc-arm-none-eabi-10.3-2021.10/bin/../lib/gcc/arm-none-eabi/10.3.1/../../../../arm-none-eabi/lib/thumb/v7e-m+fp/hard/libc_nano.a(lib_a-nano-mallocr.o)
__malloc_unlock                                   /opt/gcc-arm-none-eabi-10.3-2021.10/bin/../lib/gcc/arm-none-eabi/10.3.1/../../../../arm-none-eabi/lib/thumb/v7e-m+fp/hard/libc_nano.a(lib_a-mlock.o)
                                                  /opt/gcc-arm-none-eabi-10.3-2021.10/bin/../lib/gcc/arm-none-eabi/10.3.1/../../../../arm-none-eabi/lib/thumb/v7e-m+fp/hard/libc_nano.a(lib_a-nano-mallocr.o)
                                                  /opt/gcc-arm-none-eabi-10.3-2021.10/bin/../lib/gcc/arm-none-eabi/10.3.1/../../../../arm-none-eabi/lib/thumb/v7e-m+fp/hard/libc_nano.a(lib_a-nano-freer.o)
__math_check_oflow                                /opt/gcc-arm-none-eabi-10.3-2021.10/bin/../lib/gcc/arm-none-eabi/10.3.1/../../../../arm-none-eabi/lib/thumb/v7e-m+fp/hard/libm.a(lib_a-math_err.o)
__math_check_uflow                                /opt/gcc-arm-none-eabi-10.3-2021.10/bin/../lib/gcc/arm-none-eabi/10.3.1/../../../../arm-none-eabi/lib/thumb/v7e-m+fp/hard/libm.a(lib_a-math_err.o)
__math_divzero                                    /opt/gcc-arm-none-eabi-10.3-2021.10/bin/../lib/gcc/arm-none-eabi/10.3.1/../../../../arm-none-eabi/lib/thumb/v7e-m+fp/hard/libm.a(lib_a-math_err.o)
__math_invalid                                    /opt/gcc-arm-none-eabi-10.3-2021.10/bin/../lib/gcc/arm-none-eabi/10.3.1/../../../../arm-none-eabi/lib/thumb/v7e-m+fp/hard/libm.a(lib_a-math_err.o)
__math_may_uflow                                  /opt/gcc-arm-none-eabi-10.3-2021.10/bin/../lib/gcc/arm-none-eabi/10.3.1/../../../../arm-none-eabi/lib/thumb/v7e-m+fp/hard/libm.a(lib_a-math_err.o)
__math_oflow                                      /opt/gcc-arm-none-eabi-10.3-2021.10/bin/../lib/gcc/arm-none-eabi/10.3.1/../../../../arm-none-eabi/lib/thumb/v7e-m+fp/hard/libm.a(lib_a-math_err.o)
                                                  /opt/gcc-arm-none-eabi-10.3-2021.10/bin/../lib/gcc/arm-none-eabi/10.3.1/../../../../arm-none-eabi/lib/thumb/v7e-m+fp/hard/libm.a(lib_a-e_pow.o)
__math_uflow                                      /opt/gcc-arm-none-eabi-10.3-2021.10/bin/../lib/gcc/arm-none-eabi/10.3.1/../../../../arm-none-eabi/lib/thumb/v7e-m+fp/hard/libm.a(lib_a-math_err.o)
                                                  /opt/gcc-arm-none-eabi-10.3-2021.10/bin/../lib/gcc/arm-none-eabi/10.3.1/../../../../arm-none-eabi/lib/thumb/v7e-m+fp/hard/libm.a(lib_a-e_pow.o)
__muldf3                                          /opt/gcc-arm-none-eabi-10.3-2021.10/bin/../lib/gcc/arm-none-eabi/10.3.1/thumb/v7e-m+fp/hard/libgcc.a(_arm_muldivdf3.o)
                                                  /opt/gcc-arm-none-eabi-10.3-2021.10/bin/../lib/gcc/arm-none-eabi/10.3.1/thumb/v7e-m+fp/hard/libgcc.a(_arm_muldf3.o)
__nedf2                                           /opt/gcc-arm-none-eabi-10.3-2021.10/bin/../lib/gcc/arm-none-eabi/10.3.1/thumb/v7e-m+fp/hard/libgcc.a(_arm_cmpdf2.o)
__preinit_array_end                               /opt/gcc-arm-none-eabi-10.3-2021.10/bin/../lib/gcc/arm-none-eabi/10.3.1/../../../../arm-none-eabi/lib/thumb/v7e-m+fp/hard/libc_nano.a(lib_a-init.o)
__preinit_array_start                             /opt/gcc-arm-none-eabi-10.3-2021.10/bin/../lib/gcc/arm-none-eabi/10.3.1/../../../../arm-none-eabi/lib/thumb/v7e-m+fp/hard/libc_nano.a(lib_a-init.o)
__register_frame_info                             /opt/gcc-arm-none-eabi-10.3-2021.10/bin/../lib/gcc/arm-none-eabi/10.3.1/thumb/v7e-m+fp/hard/crtbegin.o
__retarget_lock_acquire                           /opt/gcc-arm-none-eabi-10.3-2021.10/bin/../lib/gcc/arm-none-eabi/10.3.1/../../../../arm-none-eabi/lib/thumb/v7e-m+fp/hard/libc_nano.a(lib_a-lock.o)
__retarget_lock_acquire_recursive                 /opt/gcc-arm-none-eabi-10.3-2021.10/bin/../lib/gcc/arm-none-eabi/10.3.1/../../../../arm-none-eabi/lib/thumb/v7e-m+fp/hard/libc_nano.a(lib_a-lock.o)
                                                  /opt/gcc-arm-none-eabi-10.3-2021.10/bin/../lib/gcc/arm-none-eabi/10.3.1/../../../../arm-none-eabi/lib/thumb/v7e-m+fp/hard/libc_nano.a(lib_a-mlock.o)
__retarget_lock_close                             /opt/gcc-arm-none-eabi-10.3-2021.10/bin/../lib/gcc/arm-none-eabi/10.3.1/../../../../arm-none-eabi/lib/thumb/v7e-m+fp/hard/libc_nano.a(lib_a-lock.o)
__retarget_lock_close_recursive                   /opt/gcc-arm-none-eabi-10.3-2021.10/bin/../lib/gcc/arm-none-eabi/10.3.1/../../../../arm-none-eabi/lib/thumb/v7e-m+fp/hard/libc_nano.a(lib_a-lock.o)
__retarget_lock_init                              /opt/gcc-arm-none-eabi-10.3-2021.10/bin/../lib/gcc/arm-none-eabi/10.3.1/../../../../arm-none-eabi/lib/thumb/v7e-m+fp/hard/libc_nano.a(lib_a-lock.o)
__retarget_lock_init_recursive                    /opt/gcc-arm-none-eabi-10.3-2021.10/bin/../lib/gcc/arm-none-eabi/10.3.1/../../../../arm-none-eabi/lib/thumb/v7e-m+fp/hard/libc_nano.a(lib_a-lock.o)
__retarget_lock_release                           /opt/gcc-arm-none-eabi-10.3-2021.10/bin/../lib/gcc/arm-none-eabi/10.3.1/../../../../arm-none-eabi/lib/thumb/v7e-m+fp/hard/libc_nano.a(lib_a-lock.o)
__retarget_lock_release_recursive                 /opt/gcc-arm-none-eabi-10.3-2021.10/bin/../lib/gcc/arm-none-eabi/10.3.1/../../../../arm-none-eabi/lib/thumb/v7e-m+fp/hard/libc_nano.a(lib_a-lock.o)
                                                  /opt/gcc-arm-none-eabi-10.3-2021.10/bin/../lib/gcc/arm-none-eabi/10.3.1/../../../../arm-none-eabi/lib/thumb/v7e-m+fp/hard/libc_nano.a(lib_a-mlock.o)
__retarget_lock_try_acquire                       /opt/gcc-arm-none-eabi-10.3-2021.10/bin/../lib/gcc/arm-none-eabi/10.3.1/../../../../arm-none-eabi/lib/thumb/v7e-m+fp/hard/libc_nano.a(lib_a-lock.o)
__retarget_lock_try_acquire_recursive             /opt/gcc-arm-none-eabi-10.3-2021.10/bin/../lib/gcc/arm-none-eabi/10.3.1/../../../../arm-none-eabi/lib/thumb/v7e-m+fp/hard/libc_nano.a(lib_a-lock.o)
__sf_fake_stderr                                  /opt/gcc-arm-none-eabi-10.3-2021.10/bin/../lib/gcc/arm-none-eabi/10.3.1/../../../../arm-none-eabi/lib/thumb/v7e-m+fp/hard/libc_nano.a(lib_a-impure.o)
__sf_fake_stdin                                   /opt/gcc-arm-none-eabi-10.3-2021.10/bin/../lib/gcc/arm-none-eabi/10.3.1/../../../../arm-none-eabi/lib/thumb/v7e-m+fp/hard/libc_nano.a(lib_a-impure.o)
__sf_fake_stdout                                  /opt/gcc-arm-none-eabi-10.3-2021.10/bin/../lib/gcc/arm-none-eabi/10.3.1/../../../../arm-none-eabi/lib/thumb/v7e-m+fp/hard/libc_nano.a(lib_a-impure.o)
__ssprint_r                                       /opt/gcc-arm-none-eabi-10.3-2021.10/bin/../lib/gcc/arm-none-eabi/10.3.1/../../../../arm-none-eabi/lib/thumb/v7e-m+fp/hard/libc_nano.a(lib_a-nano-svfprintf.o)
__ssputs_r                                        /opt/gcc-arm-none-eabi-10.3-2021.10/bin/../lib/gcc/arm-none-eabi/10.3.1/../../../../arm-none-eabi/lib/thumb/v7e-m+fp/hard/libc_nano.a(lib_a-nano-svfprintf.o)
__stack                                           /opt/gcc-arm-none-eabi-10.3-2021.10/bin/../lib/gcc/arm-none-eabi/10.3.1/../../../../arm-none-eabi/lib/thumb/v7e-m+fp/hard/crt0.o
__subdf3                                          /opt/gcc-arm-none-eabi-10.3-2021.10/bin/../lib/gcc/arm-none-eabi/10.3.1/thumb/v7e-m+fp/hard/libgcc.a(_arm_addsubdf3.o)
__truncdfsf2                                      /opt/gcc-arm-none-eabi-10.3-2021.10/bin/../lib/gcc/arm-none-eabi/10.3.1/thumb/v7e-m+fp/hard/libgcc.a(_arm_truncdfsf2.o)
__udivmoddi4                                      /opt/gcc-arm-none-eabi-10.3-2021.10/bin/../lib/gcc/arm-none-eabi/10.3.1/thumb/v7e-m+fp/hard/libgcc.a(_udivmoddi4.o)
                                                  /opt/gcc-arm-none-eabi-10.3-2021.10/bin/../lib/gcc/arm-none-eabi/10.3.1/thumb/v7e-m+fp/hard/libgcc.a(_aeabi_uldivmod.o)
__unorddf2                                        /opt/gcc-arm-none-eabi-10.3-2021.10/bin/../lib/gcc/arm-none-eabi/10.3.1/thumb/v7e-m+fp/hard/libgcc.a(_arm_unorddf2.o)
_ebss                                             build/startup_stm32f723xx.o
_edata                                            build/startup_stm32f723xx.o
_estack                                           build/startup_stm32f723xx.o
_exit                                             /opt/gcc-arm-none-eabi-10.3-2021.10/bin/../lib/gcc/arm-none-eabi/10.3.1/../../../../arm-none-eabi/lib/thumb/v7e-m+fp/hard/libnosys.a(_exit.o)
                                                  /opt/gcc-arm-none-eabi-10.3-2021.10/bin/../lib/gcc/arm-none-eabi/10.3.1/../../../../arm-none-eabi/lib/thumb/v7e-m+fp/hard/libc_nano.a(lib_a-exit.o)
_fini                                             /opt/gcc-arm-none-eabi-10.3-2021.10/bin/../lib/gcc/arm-none-eabi/10.3.1/thumb/v7e-m+fp/hard/crti.o
_free_r                                           /opt/gcc-arm-none-eabi-10.3-2021.10/bin/../lib/gcc/arm-none-eabi/10.3.1/../../../../arm-none-eabi/lib/thumb/v7e-m+fp/hard/libc_nano.a(lib_a-nano-freer.o)
                                                  /opt/gcc-arm-none-eabi-10.3-2021.10/bin/../lib/gcc/arm-none-eabi/10.3.1/../../../../arm-none-eabi/lib/thumb/v7e-m+fp/hard/libc_nano.a(lib_a-reent.o)
                                                  /opt/gcc-arm-none-eabi-10.3-2021.10/bin/../lib/gcc/arm-none-eabi/10.3.1/../../../../arm-none-eabi/lib/thumb/v7e-m+fp/hard/libc_nano.a(lib_a-nano-svfprintf.o)
                                                  /opt/gcc-arm-none-eabi-10.3-2021.10/bin/../lib/gcc/arm-none-eabi/10.3.1/../../../../arm-none-eabi/lib/thumb/v7e-m+fp/hard/libc_nano.a(lib_a-nano-reallocr.o)
                                                  /opt/gcc-arm-none-eabi-10.3-2021.10/bin/../lib/gcc/arm-none-eabi/10.3.1/../../../../arm-none-eabi/lib/thumb/v7e-m+fp/hard/libc_nano.a(lib_a-malloc.o)
_global_impure_ptr                                /opt/gcc-arm-none-eabi-10.3-2021.10/bin/../lib/gcc/arm-none-eabi/10.3.1/../../../../arm-none-eabi/lib/thumb/v7e-m+fp/hard/libc_nano.a(lib_a-impure.o)
                                                  /opt/gcc-arm-none-eabi-10.3-2021.10/bin/../lib/gcc/arm-none-eabi/10.3.1/../../../../arm-none-eabi/lib/thumb/v7e-m+fp/hard/libc_nano.a(lib_a-exit.o)
_impure_ptr                                       /opt/gcc-arm-none-eabi-10.3-2021.10/bin/../lib/gcc/arm-none-eabi/10.3.1/../../../../arm-none-eabi/lib/thumb/v7e-m+fp/hard/libc_nano.a(lib_a-impure.o)
                                                  /opt/gcc-arm-none-eabi-10.3-2021.10/bin/../lib/gcc/arm-none-eabi/10.3.1/../../../../arm-none-eabi/lib/thumb/v7e-m+fp/hard/libc_nano.a(lib_a-errno.o)
                                                  /opt/gcc-arm-none-eabi-10.3-2021.10/bin/../lib/gcc/arm-none-eabi/10.3.1/../../../../arm-none-eabi/lib/thumb/v7e-m+fp/hard/libc_nano.a(lib_a-reent.o)
                                                  /opt/gcc-arm-none-eabi-10.3-2021.10/bin/../lib/gcc/arm-none-eabi/10.3.1/../../../../arm-none-eabi/lib/thumb/v7e-m+fp/hard/libc_nano.a(lib_a-snprintf.o)
                                                  /opt/gcc-arm-none-eabi-10.3-2021.10/bin/../lib/gcc/arm-none-eabi/10.3.1/../../../../arm-none-eabi/lib/thumb/v7e-m+fp/hard/libc_nano.a(lib_a-realloc.o)
                                                  /opt/gcc-arm-none-eabi-10.3-2021.10/bin/../lib/gcc/arm-none-eabi/10.3.1/../../../../arm-none-eabi/lib/thumb/v7e-m+fp/hard/libc_nano.a(lib_a-malloc.o)
_init                                             /opt/gcc-arm-none-eabi-10.3-2021.10/bin/../lib/gcc/arm-none-eabi/10.3.1/thumb/v7e-m+fp/hard/crti.o
                                                  /opt/gcc-arm-none-eabi-10.3-2021.10/bin/../lib/gcc/arm-none-eabi/10.3.1/../../../../arm-none-eabi/lib/thumb/v7e-m+fp/hard/libc_nano.a(lib_a-init.o)
_mainCRTStartup                                   /opt/gcc-arm-none-eabi-10.3-2021.10/bin/../lib/gcc/arm-none-eabi/10.3.1/../../../../arm-none-eabi/lib/thumb/v7e-m+fp/hard/crt0.o
_malloc_r                                         /opt/gcc-arm-none-eabi-10.3-2021.10/bin/../lib/gcc/arm-none-eabi/10.3.1/../../../../arm-none-eabi/lib/thumb/v7e-m+fp/hard/libc_nano.a(lib_a-nano-mallocr.o)
                                                  /opt/gcc-arm-none-eabi-10.3-2021.10/bin/../lib/gcc/arm-none-eabi/10.3.1/../../../../arm-none-eabi/lib/thumb/v7e-m+fp/hard/libc_nano.a(lib_a-nano-svfprintf.o)
                                                  /opt/gcc-arm-none-eabi-10.3-2021.10/bin/../lib/gcc/arm-none-eabi/10.3.1/../../../../arm-none-eabi/lib/thumb/v7e-m+fp/hard/libc_nano.a(lib_a-nano-reallocr.o)
                                                  /opt/gcc-arm-none-eabi-10.3-2021.10/bin/../lib/gcc/arm-none-eabi/10.3.1/../../../../arm-none-eabi/lib/thumb/v7e-m+fp/hard/libc_nano.a(lib_a-malloc.o)
_malloc_usable_size_r                             /opt/gcc-arm-none-eabi-10.3-2021.10/bin/../lib/gcc/arm-none-eabi/10.3.1/../../../../arm-none-eabi/lib/thumb/v7e-m+fp/hard/libc_nano.a(lib_a-nano-msizer.o)
                                                  /opt/gcc-arm-none-eabi-10.3-2021.10/bin/../lib/gcc/arm-none-eabi/10.3.1/../../../../arm-none-eabi/lib/thumb/v7e-m+fp/hard/libc_nano.a(lib_a-nano-reallocr.o)
_printf_common                                    /opt/gcc-arm-none-eabi-10.3-2021.10/bin/../lib/gcc/arm-none-eabi/10.3.1/../../../../arm-none-eabi/lib/thumb/v7e-m+fp/hard/libc_nano.a(lib_a-nano-vfprintf_i.o)
_printf_float                                     /opt/gcc-arm-none-eabi-10.3-2021.10/bin/../lib/gcc/arm-none-eabi/10.3.1/../../../../arm-none-eabi/lib/thumb/v7e-m+fp/hard/libc_nano.a(lib_a-nano-svfprintf.o)
_printf_i                                         /opt/gcc-arm-none-eabi-10.3-2021.10/bin/../lib/gcc/arm-none-eabi/10.3.1/../../../../arm-none-eabi/lib/thumb/v7e-m+fp/hard/libc_nano.a(lib_a-nano-vfprintf_i.o)
                                                  /opt/gcc-arm-none-eabi-10.3-2021.10/bin/../lib/gcc/arm-none-eabi/10.3.1/../../../../arm-none-eabi/lib/thumb/v7e-m+fp/hard/libc_nano.a(lib_a-nano-svfprintf.o)
_realloc_r                                        /opt/gcc-arm-none-eabi-10.3-2021.10/bin/../lib/gcc/arm-none-eabi/10.3.1/../../../../arm-none-eabi/lib/thumb/v7e-m+fp/hard/libc_nano.a(lib_a-nano-reallocr.o)
                                                  /opt/gcc-arm-none-eabi-10.3-2021.10/bin/../lib/gcc/arm-none-eabi/10.3.1/../../../../arm-none-eabi/lib/thumb/v7e-m+fp/hard/libc_nano.a(lib_a-nano-svfprintf.o)
                                                  /opt/gcc-arm-none-eabi-10.3-2021.10/bin/../lib/gcc/arm-none-eabi/10.3.1/../../../../arm-none-eabi/lib/thumb/v7e-m+fp/hard/libc_nano.a(lib_a-realloc.o)
_reclaim_reent                                    /opt/gcc-arm-none-eabi-10.3-2021.10/bin/../lib/gcc/arm-none-eabi/10.3.1/../../../../arm-none-eabi/lib/thumb/v7e-m+fp/hard/libc_nano.a(lib_a-reent.o)
_sbrk                                             /opt/gcc-arm-none-eabi-10.3-2021.10/bin/../lib/gcc/arm-none-eabi/10.3.1/../../../../arm-none-eabi/lib/thumb/v7e-m+fp/hard/libnosys.a(sbrk.o)
                                                  /opt/gcc-arm-none-eabi-10.3-2021.10/bin/../lib/gcc/arm-none-eabi/10.3.1/../../../../arm-none-eabi/lib/thumb/v7e-m+fp/hard/libc_nano.a(lib_a-sbrkr.o)
_sbrk_r                                           /opt/gcc-arm-none-eabi-10.3-2021.10/bin/../lib/gcc/arm-none-eabi/10.3.1/../../../../arm-none-eabi/lib/thumb/v7e-m+fp/hard/libc_nano.a(lib_a-sbrkr.o)
                                                  /opt/gcc-arm-none-eabi-10.3-2021.10/bin/../lib/gcc/arm-none-eabi/10.3.1/../../../../arm-none-eabi/lib/thumb/v7e-m+fp/hard/libc_nano.a(lib_a-nano-mallocr.o)
_sbss                                             build/startup_stm32f723xx.o
_sdata                                            build/startup_stm32f723xx.o
_sidata                                           build/startup_stm32f723xx.o
_sniprintf_r                                      /opt/gcc-arm-none-eabi-10.3-2021.10/bin/../lib/gcc/arm-none-eabi/10.3.1/../../../../arm-none-eabi/lib/thumb/v7e-m+fp/hard/libc_nano.a(lib_a-snprintf.o)
_snprintf_r                                       /opt/gcc-arm-none-eabi-10.3-2021.10/bin/../lib/gcc/arm-none-eabi/10.3.1/../../../../arm-none-eabi/lib/thumb/v7e-m+fp/hard/libc_nano.a(lib_a-snprintf.o)
_stack_init                                       /opt/gcc-arm-none-eabi-10.3-2021.10/bin/../lib/gcc/arm-none-eabi/10.3.1/../../../../arm-none-eabi/lib/thumb/v7e-m+fp/hard/crt0.o
_start                                            /opt/gcc-arm-none-eabi-10.3-2021.10/bin/../lib/gcc/arm-none-eabi/10.3.1/../../../../arm-none-eabi/lib/thumb/v7e-m+fp/hard/crt0.o
_svfiprintf_r                                     /opt/gcc-arm-none-eabi-10.3-2021.10/bin/../lib/gcc/arm-none-eabi/10.3.1/../../../../arm-none-eabi/lib/thumb/v7e-m+fp/hard/libc_nano.a(lib_a-nano-svfprintf.o)
_svfprintf_r                                      /opt/gcc-arm-none-eabi-10.3-2021.10/bin/../lib/gcc/arm-none-eabi/10.3.1/../../../../arm-none-eabi/lib/thumb/v7e-m+fp/hard/libc_nano.a(lib_a-nano-svfprintf.o)
                                                  /opt/gcc-arm-none-eabi-10.3-2021.10/bin/../lib/gcc/arm-none-eabi/10.3.1/../../../../arm-none-eabi/lib/thumb/v7e-m+fp/hard/libc_nano.a(lib_a-snprintf.o)
atexit                                            /opt/gcc-arm-none-eabi-10.3-2021.10/bin/../lib/gcc/arm-none-eabi/10.3.1/../../../../arm-none-eabi/lib/thumb/v7e-m+fp/hard/crt0.o
cleanup_glue                                      /opt/gcc-arm-none-eabi-10.3-2021.10/bin/../lib/gcc/arm-none-eabi/10.3.1/../../../../arm-none-eabi/lib/thumb/v7e-m+fp/hard/libc_nano.a(lib_a-reent.o)
cosf                                              /opt/gcc-arm-none-eabi-10.3-2021.10/bin/../lib/gcc/arm-none-eabi/10.3.1/../../../../arm-none-eabi/lib/thumb/v7e-m+fp/hard/libm.a(lib_a-sf_cos.o)
                                                  build/nyan_leds.o
end                                               /opt/gcc-arm-none-eabi-10.3-2021.10/bin/../lib/gcc/arm-none-eabi/10.3.1/../../../../arm-none-eabi/lib/thumb/v7e-m+fp/hard/libnosys.a(sbrk.o)
errno                                             /opt/gcc-arm-none-eabi-10.3-2021.10/bin/../lib/gcc/arm-none-eabi/10.3.1/../../../../arm-none-eabi/lib/thumb/v7e-m+fp/hard/libc_nano.a(lib_a-reent.o)
                                                  /opt/gcc-arm-none-eabi-10.3-2021.10/bin/../lib/gcc/arm-none-eabi/10.3.1/../../../../arm-none-eabi/lib/thumb/v7e-m+fp/hard/libc_nano.a(lib_a-sbrkr.o)
exit                                              /opt/gcc-arm-none-eabi-10.3-2021.10/bin/../lib/gcc/arm-none-eabi/10.3.1/../../../../arm-none-eabi/lib/thumb/v7e-m+fp/hard/libc_nano.a(lib_a-exit.o)
                                                  /opt/gcc-arm-none-eabi-10.3-2021.10/bin/../lib/gcc/arm-none-eabi/10.3.1/../../../../arm-none-eabi/lib/thumb/v7e-m+fp/hard/crt0.o
fabs                                              /opt/gcc-arm-none-eabi-10.3-2021.10/bin/../lib/gcc/arm-none-eabi/10.3.1/../../../../arm-none-eabi/lib/thumb/v7e-m+fp/hard/libm.a(lib_a-s_fabs.o)
                                                  /opt/gcc-arm-none-eabi-10.3-2021.10/bin/../lib/gcc/arm-none-eabi/10.3.1/../../../../arm-none-eabi/lib/thumb/v7e-m+fp/hard/libm.a(lib_a-e_pow.o)
fabsf                                             /opt/gcc-arm-none-eabi-10.3-2021.10/bin/../lib/gcc/arm-none-eabi/10.3.1/../../../../arm-none-eabi/lib/thumb/v7e-m+fp/hard/libm.a(lib_a-sf_fabs.o)
                                                  /opt/gcc-arm-none-eabi-10.3-2021.10/bin/../lib/gcc/arm-none-eabi/10.3.1/../../../../arm-none-eabi/lib/thumb/v7e-m+fp/hard/libm.a(lib_a-ef_rem_pio2.o)
finite                                            /opt/gcc-arm-none-eabi-10.3-2021.10/bin/../lib/gcc/arm-none-eabi/10.3.1/../../../../arm-none-eabi/lib/thumb/v7e-m+fp/hard/libm.a(lib_a-s_finite.o)
                                                  /opt/gcc-arm-none-eabi-10.3-2021.10/bin/../lib/gcc/arm-none-eabi/10.3.1/../../../../arm-none-eabi/lib/thumb/v7e-m+fp/hard/libm.a(lib_a-w_pow.o)
floor                                             /opt/gcc-arm-none-eabi-10.3-2021.10/bin/../lib/gcc/arm-none-eabi/10.3.1/../../../../arm-none-eabi/lib/thumb/v7e-m+fp/hard/libm.a(lib_a-s_floor.o)
                                                  build/nyan_leds.o
floorf                                            /opt/gcc-arm-none-eabi-10.3-2021.10/bin/../lib/gcc/arm-none-eabi/10.3.1/../../../../arm-none-eabi/lib/thumb/v7e-m+fp/hard/libm.a(lib_a-sf_floor.o)
                                                  /opt/gcc-arm-none-eabi-10.3-2021.10/bin/../lib/gcc/arm-none-eabi/10.3.1/../../../../arm-none-eabi/lib/thumb/v7e-m+fp/hard/libm.a(lib_a-kf_rem_pio2.o)
free                                              /opt/gcc-arm-none-eabi-10.3-2021.10/bin/../lib/gcc/arm-none-eabi/10.3.1/../../../../arm-none-eabi/lib/thumb/v7e-m+fp/hard/libc_nano.a(lib_a-malloc.o)
                                                  build/usbd_cdc_acm_if.o
                                                  build/nyan_os.o
g_pfnVectors                                      build/startup_stm32f723xx.o
getSystemStatusOCRValue                           build/nyan_leds.o
                                                  build/main.o
hUsbDevice                                        build/usb_device.o
                                                  build/usbd_cdc_acm_if.o
hardware_init_hook                                /opt/gcc-arm-none-eabi-10.3-2021.10/bin/../lib/gcc/arm-none-eabi/10.3.1/../../../../arm-none-eabi/lib/thumb/v7e-m+fp/hard/crt0.o
hdma_i2c1_rx                                      build/i2c.o
                                                  build/stm32f7xx_it.o
hdma_i2c1_tx                                      build/i2c.o
                                                  build/stm32f7xx_it.o
hi2c1                                             build/i2c.o
                                                  build/24xx_eeprom.o
                                                  build/stm32f7xx_it.o
hpcd_USB_OTG_HS                                   build/usb_otg.o
                                                  build/usbd_conf.o
                                                  build/stm32f7xx_it.o
hpcd_USB_OTG_PTR                                  build/usbd_conf.o
hrng                                              build/rng.o
hspi1                                             build/spi.o
hspi2                                             build/spi.o
hspi4                                             build/spi.o
htim1                                             build/tim.o
                                                  build/stm32f7xx_it.o
                                                  build/main.o
htim6                                             build/tim.o
                                                  build/stm32f7xx_it.o
                                                  build/main.o
htim7                                             build/tim.o
                                                  build/stm32f7xx_it.o
                                                  build/main.o
htim8                                             build/tim.o
                                                  build/stm32f7xx_it.o
                                                  build/main.o
main                                              build/main.o
                                                  build/startup_stm32f723xx.o
                                                  /opt/gcc-arm-none-eabi-10.3-2021.10/bin/../lib/gcc/arm-none-eabi/10.3.1/../../../../arm-none-eabi/lib/thumb/v7e-m+fp/hard/crt0.o
malloc                                            /opt/gcc-arm-none-eabi-10.3-2021.10/bin/../lib/gcc/arm-none-eabi/10.3.1/../../../../arm-none-eabi/lib/thumb/v7e-m+fp/hard/libc_nano.a(lib_a-malloc.o)
                                                  build/usbd_cdc_acm_if.o
                                                  build/nyan_os.o
memchr                                            /opt/gcc-arm-none-eabi-10.3-2021.10/bin/../lib/gcc/arm-none-eabi/10.3.1/../../../../arm-none-eabi/lib/thumb/v7e-m+fp/hard/libc_nano.a(lib_a-memchr.o)
                                                  /opt/gcc-arm-none-eabi-10.3-2021.10/bin/../lib/gcc/arm-none-eabi/10.3.1/../../../../arm-none-eabi/lib/thumb/v7e-m+fp/hard/libc_nano.a(lib_a-nano-vfprintf_i.o)
                                                  /opt/gcc-arm-none-eabi-10.3-2021.10/bin/../lib/gcc/arm-none-eabi/10.3.1/../../../../arm-none-eabi/lib/thumb/v7e-m+fp/hard/libc_nano.a(lib_a-nano-svfprintf.o)
memcmp                                            /opt/gcc-arm-none-eabi-10.3-2021.10/bin/../lib/gcc/arm-none-eabi/10.3.1/../../../../arm-none-eabi/lib/thumb/v7e-m+fp/hard/libc_nano.a(lib_a-memcmp.o)
                                                  build/nyan_os.o
memcpy                                            /opt/gcc-arm-none-eabi-10.3-2021.10/bin/../lib/gcc/arm-none-eabi/10.3.1/../../../../arm-none-eabi/lib/thumb/v7e-m+fp/hard/libc_nano.a(lib_a-memcpy-stub.o)
                                                  /opt/gcc-arm-none-eabi-10.3-2021.10/bin/../lib/gcc/arm-none-eabi/10.3.1/../../../../arm-none-eabi/lib/thumb/v7e-m+fp/hard/libc_nano.a(lib_a-nano-svfprintf.o)
                                                  /opt/gcc-arm-none-eabi-10.3-2021.10/bin/../lib/gcc/arm-none-eabi/10.3.1/../../../../arm-none-eabi/lib/thumb/v7e-m+fp/hard/libc_nano.a(lib_a-nano-reallocr.o)
                                                  build/usbd_cdc_acm_if.o
                                                  build/usbd_composite.o
                                                  build/nyan_os.o
memmove                                           /opt/gcc-arm-none-eabi-10.3-2021.10/bin/../lib/gcc/arm-none-eabi/10.3.1/../../../../arm-none-eabi/lib/thumb/v7e-m+fp/hard/libc_nano.a(lib_a-memmove.o)
                                                  /opt/gcc-arm-none-eabi-10.3-2021.10/bin/../lib/gcc/arm-none-eabi/10.3.1/../../../../arm-none-eabi/lib/thumb/v7e-m+fp/hard/libc_nano.a(lib_a-nano-svfprintf.o)
memset                                            /opt/gcc-arm-none-eabi-10.3-2021.10/bin/../lib/gcc/arm-none-eabi/10.3.1/../../../../arm-none-eabi/lib/thumb/v7e-m+fp/hard/libc_nano.a(lib_a-memset.o)
                                                  build/usb_otg.o
                                                  build/tim.o
                                                  build/24xx_eeprom.o
                                                  build/nyan_os.o
                                                  build/rng.o
                                                  build/i2c.o
                                                  build/main.o
                                                  /opt/gcc-arm-none-eabi-10.3-2021.10/bin/../lib/gcc/arm-none-eabi/10.3.1/../../../../arm-none-eabi/lib/thumb/v7e-m+fp/hard/crt0.o
nos                                               build/main.o
                                                  build/usbd_cdc_acm_if.o
nos_eeprom                                        build/main.o
pFlash                                            build/stm32f7xx_hal_flash.o
                                                  build/stm32f7xx_hal_flash_ex.o
pow                                               /opt/gcc-arm-none-eabi-10.3-2021.10/bin/../lib/gcc/arm-none-eabi/10.3.1/../../../../arm-none-eabi/lib/thumb/v7e-m+fp/hard/libm.a(lib_a-w_pow.o)
                                                  build/nyan_leds.o
realloc                                           /opt/gcc-arm-none-eabi-10.3-2021.10/bin/../lib/gcc/arm-none-eabi/10.3.1/../../../../arm-none-eabi/lib/thumb/v7e-m+fp/hard/libc_nano.a(lib_a-realloc.o)
                                                  build/nyan_os.o
scalbn                                            /opt/gcc-arm-none-eabi-10.3-2021.10/bin/../lib/gcc/arm-none-eabi/10.3.1/../../../../arm-none-eabi/lib/thumb/v7e-m+fp/hard/libm.a(lib_a-s_scalbn.o)
                                                  /opt/gcc-arm-none-eabi-10.3-2021.10/bin/../lib/gcc/arm-none-eabi/10.3.1/../../../../arm-none-eabi/lib/thumb/v7e-m+fp/hard/libm.a(lib_a-e_pow.o)
scalbnf                                           /opt/gcc-arm-none-eabi-10.3-2021.10/bin/../lib/gcc/arm-none-eabi/10.3.1/../../../../arm-none-eabi/lib/thumb/v7e-m+fp/hard/libm.a(lib_a-sf_scalbn.o)
                                                  /opt/gcc-arm-none-eabi-10.3-2021.10/bin/../lib/gcc/arm-none-eabi/10.3.1/../../../../arm-none-eabi/lib/thumb/v7e-m+fp/hard/libm.a(lib_a-kf_rem_pio2.o)
sniprintf                                         /opt/gcc-arm-none-eabi-10.3-2021.10/bin/../lib/gcc/arm-none-eabi/10.3.1/../../../../arm-none-eabi/lib/thumb/v7e-m+fp/hard/libc_nano.a(lib_a-snprintf.o)
snprintf                                          /opt/gcc-arm-none-eabi-10.3-2021.10/bin/../lib/gcc/arm-none-eabi/10.3.1/../../../../arm-none-eabi/lib/thumb/v7e-m+fp/hard/libc_nano.a(lib_a-snprintf.o)
                                                  build/usbd_composite.o
software_init_hook                                /opt/gcc-arm-none-eabi-10.3-2021.10/bin/../lib/gcc/arm-none-eabi/10.3.1/../../../../arm-none-eabi/lib/thumb/v7e-m+fp/hard/crt0.o
strlen                                            /opt/gcc-arm-none-eabi-10.3-2021.10/bin/../lib/gcc/arm-none-eabi/10.3.1/../../../../arm-none-eabi/lib/thumb/v7e-m+fp/hard/libc_nano.a(lib_a-strlen.o)
                                                  build/nyan_os.o
system_status_led_angle                           build/main.o
                                                  build/stm32f7xx_it.o
uwTick                                            build/stm32f7xx_hal.o
uwTickFreq                                        build/stm32f7xx_hal.o
uwTickPrio                                        build/stm32f7xx_hal.o
                                                  build/stm32f7xx_hal_rcc.o
