ARM GAS  /tmp/cc2CXB8d.s 			page 1


   1              		.cpu cortex-m7
   2              		.arch armv7e-m
   3              		.fpu fpv5-sp-d16
   4              		.eabi_attribute 27, 1
   5              		.eabi_attribute 28, 1
   6              		.eabi_attribute 20, 1
   7              		.eabi_attribute 21, 1
   8              		.eabi_attribute 23, 3
   9              		.eabi_attribute 24, 1
  10              		.eabi_attribute 25, 1
  11              		.eabi_attribute 26, 1
  12              		.eabi_attribute 30, 1
  13              		.eabi_attribute 34, 1
  14              		.eabi_attribute 18, 4
  15              		.file	"nyan_sha256.c"
  16              		.text
  17              	.Ltext0:
  18              		.cfi_sections	.debug_frame
  19              		.section	.text.sha256_transform,"ax",%progbits
  20              		.align	1
  21              		.global	sha256_transform
  22              		.syntax unified
  23              		.thumb
  24              		.thumb_func
  26              	sha256_transform:
  27              	.LVL0:
  28              	.LFB0:
  29              		.file 1 "Core/Src/nyan_sha256.c"
   1:Core/Src/nyan_sha256.c **** /*********************************************************************
   2:Core/Src/nyan_sha256.c **** * Filename:   sha256.c
   3:Core/Src/nyan_sha256.c **** * Author:     Brad Conte (brad AT bradconte.com)
   4:Core/Src/nyan_sha256.c **** * Copyright:
   5:Core/Src/nyan_sha256.c **** * Disclaimer: This code is presented "as is" without any guarantees.
   6:Core/Src/nyan_sha256.c **** * Details:    Implementation of the SHA-256 hashing algorithm.
   7:Core/Src/nyan_sha256.c ****               SHA-256 is one of the three algorithms in the SHA2
   8:Core/Src/nyan_sha256.c ****               specification. The others, SHA-384 and SHA-512, are not
   9:Core/Src/nyan_sha256.c ****               offered in this implementation.
  10:Core/Src/nyan_sha256.c ****               Algorithm specification can be found here:
  11:Core/Src/nyan_sha256.c ****                * http://csrc.nist.gov/publications/fips/fips180-2/fips180-2withchangenotice.pdf
  12:Core/Src/nyan_sha256.c ****               This implementation uses little endian byte order.
  13:Core/Src/nyan_sha256.c **** *********************************************************************/
  14:Core/Src/nyan_sha256.c **** 
  15:Core/Src/nyan_sha256.c **** /*************************** HEADER FILES ***************************/
  16:Core/Src/nyan_sha256.c **** #include <stdlib.h>
  17:Core/Src/nyan_sha256.c **** #include <memory.h>
  18:Core/Src/nyan_sha256.c **** #include "nyan_sha256.h"
  19:Core/Src/nyan_sha256.c **** 
  20:Core/Src/nyan_sha256.c **** /****************************** MACROS ******************************/
  21:Core/Src/nyan_sha256.c **** #define ROTLEFT(a,b) (((a) << (b)) | ((a) >> (32-(b))))
  22:Core/Src/nyan_sha256.c **** #define ROTRIGHT(a,b) (((a) >> (b)) | ((a) << (32-(b))))
  23:Core/Src/nyan_sha256.c **** 
  24:Core/Src/nyan_sha256.c **** #define CH(x,y,z) (((x) & (y)) ^ (~(x) & (z)))
  25:Core/Src/nyan_sha256.c **** #define MAJ(x,y,z) (((x) & (y)) ^ ((x) & (z)) ^ ((y) & (z)))
  26:Core/Src/nyan_sha256.c **** #define EP0(x) (ROTRIGHT(x,2) ^ ROTRIGHT(x,13) ^ ROTRIGHT(x,22))
  27:Core/Src/nyan_sha256.c **** #define EP1(x) (ROTRIGHT(x,6) ^ ROTRIGHT(x,11) ^ ROTRIGHT(x,25))
  28:Core/Src/nyan_sha256.c **** #define SIG0(x) (ROTRIGHT(x,7) ^ ROTRIGHT(x,18) ^ ((x) >> 3))
  29:Core/Src/nyan_sha256.c **** #define SIG1(x) (ROTRIGHT(x,17) ^ ROTRIGHT(x,19) ^ ((x) >> 10))
ARM GAS  /tmp/cc2CXB8d.s 			page 2


  30:Core/Src/nyan_sha256.c **** 
  31:Core/Src/nyan_sha256.c **** /**************************** VARIABLES *****************************/
  32:Core/Src/nyan_sha256.c **** static const WORD k[64] = {
  33:Core/Src/nyan_sha256.c **** 	0x428a2f98,0x71374491,0xb5c0fbcf,0xe9b5dba5,0x3956c25b,0x59f111f1,0x923f82a4,0xab1c5ed5,
  34:Core/Src/nyan_sha256.c **** 	0xd807aa98,0x12835b01,0x243185be,0x550c7dc3,0x72be5d74,0x80deb1fe,0x9bdc06a7,0xc19bf174,
  35:Core/Src/nyan_sha256.c **** 	0xe49b69c1,0xefbe4786,0x0fc19dc6,0x240ca1cc,0x2de92c6f,0x4a7484aa,0x5cb0a9dc,0x76f988da,
  36:Core/Src/nyan_sha256.c **** 	0x983e5152,0xa831c66d,0xb00327c8,0xbf597fc7,0xc6e00bf3,0xd5a79147,0x06ca6351,0x14292967,
  37:Core/Src/nyan_sha256.c **** 	0x27b70a85,0x2e1b2138,0x4d2c6dfc,0x53380d13,0x650a7354,0x766a0abb,0x81c2c92e,0x92722c85,
  38:Core/Src/nyan_sha256.c **** 	0xa2bfe8a1,0xa81a664b,0xc24b8b70,0xc76c51a3,0xd192e819,0xd6990624,0xf40e3585,0x106aa070,
  39:Core/Src/nyan_sha256.c **** 	0x19a4c116,0x1e376c08,0x2748774c,0x34b0bcb5,0x391c0cb3,0x4ed8aa4a,0x5b9cca4f,0x682e6ff3,
  40:Core/Src/nyan_sha256.c **** 	0x748f82ee,0x78a5636f,0x84c87814,0x8cc70208,0x90befffa,0xa4506ceb,0xbef9a3f7,0xc67178f2
  41:Core/Src/nyan_sha256.c **** };
  42:Core/Src/nyan_sha256.c **** 
  43:Core/Src/nyan_sha256.c **** /*********************** FUNCTION DEFINITIONS ***********************/
  44:Core/Src/nyan_sha256.c **** void sha256_transform(SHA256_CTX *ctx, const BYTE data[])
  45:Core/Src/nyan_sha256.c **** {
  30              		.loc 1 45 1 view -0
  31              		.cfi_startproc
  32              		@ args = 0, pretend = 0, frame = 288
  33              		@ frame_needed = 0, uses_anonymous_args = 0
  34              		.loc 1 45 1 is_stmt 0 view .LVU1
  35 0000 2DE9F04F 		push	{r4, r5, r6, r7, r8, r9, r10, fp, lr}
  36              	.LCFI0:
  37              		.cfi_def_cfa_offset 36
  38              		.cfi_offset 4, -36
  39              		.cfi_offset 5, -32
  40              		.cfi_offset 6, -28
  41              		.cfi_offset 7, -24
  42              		.cfi_offset 8, -20
  43              		.cfi_offset 9, -16
  44              		.cfi_offset 10, -12
  45              		.cfi_offset 11, -8
  46              		.cfi_offset 14, -4
  47 0004 C9B0     		sub	sp, sp, #292
  48              	.LCFI1:
  49              		.cfi_def_cfa_offset 328
  50 0006 8246     		mov	r10, r0
  46:Core/Src/nyan_sha256.c **** 	WORD a, b, c, d, e, f, g, h, i, j, t1, t2, m[64];
  51              		.loc 1 46 2 is_stmt 1 view .LVU2
  47:Core/Src/nyan_sha256.c **** 
  48:Core/Src/nyan_sha256.c **** 	for (i = 0, j = 0; i < 16; ++i, j += 4)
  52              		.loc 1 48 2 view .LVU3
  53              	.LVL1:
  54              		.loc 1 48 16 is_stmt 0 view .LVU4
  55 0008 0020     		movs	r0, #0
  56              	.LVL2:
  57              		.loc 1 48 9 view .LVU5
  58 000a 0246     		mov	r2, r0
  59              		.loc 1 48 2 view .LVU6
  60 000c 0FE0     		b	.L2
  61              	.LVL3:
  62              	.L3:
  49:Core/Src/nyan_sha256.c **** 		m[i] = (data[j] << 24) | (data[j + 1] << 16) | (data[j + 2] << 8) | (data[j + 3]);
  63              		.loc 1 49 3 is_stmt 1 discriminator 3 view .LVU7
  64              		.loc 1 49 15 is_stmt 0 discriminator 3 view .LVU8
  65 000e 0D5C     		ldrb	r5, [r1, r0]	@ zero_extendqisi2
  66              		.loc 1 49 33 discriminator 3 view .LVU9
ARM GAS  /tmp/cc2CXB8d.s 			page 3


  67 0010 0C18     		adds	r4, r1, r0
  68 0012 6378     		ldrb	r3, [r4, #1]	@ zero_extendqisi2
  69              		.loc 1 49 41 discriminator 3 view .LVU10
  70 0014 1B04     		lsls	r3, r3, #16
  71              		.loc 1 49 26 discriminator 3 view .LVU11
  72 0016 43EA0563 		orr	r3, r3, r5, lsl #24
  73              		.loc 1 49 55 discriminator 3 view .LVU12
  74 001a A578     		ldrb	r5, [r4, #2]	@ zero_extendqisi2
  75              		.loc 1 49 48 discriminator 3 view .LVU13
  76 001c 43EA0523 		orr	r3, r3, r5, lsl #8
  77              		.loc 1 49 76 discriminator 3 view .LVU14
  78 0020 E478     		ldrb	r4, [r4, #3]	@ zero_extendqisi2
  79              		.loc 1 49 69 discriminator 3 view .LVU15
  80 0022 2343     		orrs	r3, r3, r4
  81              		.loc 1 49 8 discriminator 3 view .LVU16
  82 0024 08AC     		add	r4, sp, #32
  83 0026 44F82230 		str	r3, [r4, r2, lsl #2]
  48:Core/Src/nyan_sha256.c **** 		m[i] = (data[j] << 24) | (data[j + 1] << 16) | (data[j + 2] << 8) | (data[j + 3]);
  84              		.loc 1 48 29 is_stmt 1 discriminator 3 view .LVU17
  85 002a 0132     		adds	r2, r2, #1
  86              	.LVL4:
  48:Core/Src/nyan_sha256.c **** 		m[i] = (data[j] << 24) | (data[j + 1] << 16) | (data[j + 2] << 8) | (data[j + 3]);
  87              		.loc 1 48 36 is_stmt 0 discriminator 3 view .LVU18
  88 002c 0430     		adds	r0, r0, #4
  89              	.LVL5:
  90              	.L2:
  48:Core/Src/nyan_sha256.c **** 		m[i] = (data[j] << 24) | (data[j + 1] << 16) | (data[j + 2] << 8) | (data[j + 3]);
  91              		.loc 1 48 21 is_stmt 1 discriminator 1 view .LVU19
  48:Core/Src/nyan_sha256.c **** 		m[i] = (data[j] << 24) | (data[j + 1] << 16) | (data[j + 2] << 8) | (data[j + 3]);
  92              		.loc 1 48 2 is_stmt 0 discriminator 1 view .LVU20
  93 002e 0F2A     		cmp	r2, #15
  94 0030 EDD9     		bls	.L3
  95 0032 22E0     		b	.L4
  96              	.LVL6:
  97              	.L5:
  50:Core/Src/nyan_sha256.c **** 	for ( ; i < 64; ++i)
  51:Core/Src/nyan_sha256.c **** 		m[i] = SIG1(m[i - 2]) + m[i - 7] + SIG0(m[i - 15]) + m[i - 16];
  98              		.loc 1 51 3 is_stmt 1 discriminator 2 view .LVU21
  99              		.loc 1 51 10 is_stmt 0 discriminator 2 view .LVU22
 100 0034 931E     		subs	r3, r2, #2
 101 0036 08A9     		add	r1, sp, #32
 102 0038 51F82310 		ldr	r1, [r1, r3, lsl #2]
 103 003c 4FEAF143 		ror	r3, r1, #19
 104 0040 83EA7143 		eor	r3, r3, r1, ror #17
 105 0044 83EA9123 		eor	r3, r3, r1, lsr #10
 106              		.loc 1 51 31 discriminator 2 view .LVU23
 107 0048 D11F     		subs	r1, r2, #7
 108              		.loc 1 51 28 discriminator 2 view .LVU24
 109 004a 08A8     		add	r0, sp, #32
 110 004c 50F82110 		ldr	r1, [r0, r1, lsl #2]
 111              		.loc 1 51 25 discriminator 2 view .LVU25
 112 0050 0B44     		add	r3, r3, r1
 113              		.loc 1 51 38 discriminator 2 view .LVU26
 114 0052 A2F10F01 		sub	r1, r2, #15
 115 0056 50F82100 		ldr	r0, [r0, r1, lsl #2]
 116 005a 4FEAB041 		ror	r1, r0, #18
 117 005e 81EAF011 		eor	r1, r1, r0, ror #7
ARM GAS  /tmp/cc2CXB8d.s 			page 4


 118 0062 81EAD001 		eor	r1, r1, r0, lsr #3
 119              		.loc 1 51 36 discriminator 2 view .LVU27
 120 0066 0B44     		add	r3, r3, r1
 121              		.loc 1 51 60 discriminator 2 view .LVU28
 122 0068 A2F11001 		sub	r1, r2, #16
 123              		.loc 1 51 57 discriminator 2 view .LVU29
 124 006c 08A8     		add	r0, sp, #32
 125 006e 50F82110 		ldr	r1, [r0, r1, lsl #2]
 126              		.loc 1 51 54 discriminator 2 view .LVU30
 127 0072 0B44     		add	r3, r3, r1
 128              		.loc 1 51 8 discriminator 2 view .LVU31
 129 0074 40F82230 		str	r3, [r0, r2, lsl #2]
  50:Core/Src/nyan_sha256.c **** 	for ( ; i < 64; ++i)
 130              		.loc 1 50 18 is_stmt 1 discriminator 2 view .LVU32
 131 0078 0132     		adds	r2, r2, #1
 132              	.LVL7:
 133              	.L4:
  50:Core/Src/nyan_sha256.c **** 	for ( ; i < 64; ++i)
 134              		.loc 1 50 10 discriminator 1 view .LVU33
  50:Core/Src/nyan_sha256.c **** 	for ( ; i < 64; ++i)
 135              		.loc 1 50 2 is_stmt 0 discriminator 1 view .LVU34
 136 007a 3F2A     		cmp	r2, #63
 137 007c DAD9     		bls	.L5
  52:Core/Src/nyan_sha256.c **** 
  53:Core/Src/nyan_sha256.c **** 	a = ctx->state[0];
 138              		.loc 1 53 2 is_stmt 1 view .LVU35
 139              		.loc 1 53 4 is_stmt 0 view .LVU36
 140 007e DAF850B0 		ldr	fp, [r10, #80]
 141              	.LVL8:
  54:Core/Src/nyan_sha256.c **** 	b = ctx->state[1];
 142              		.loc 1 54 2 is_stmt 1 view .LVU37
 143              		.loc 1 54 4 is_stmt 0 view .LVU38
 144 0082 DAF85450 		ldr	r5, [r10, #84]
 145 0086 0195     		str	r5, [sp, #4]
 146              	.LVL9:
  55:Core/Src/nyan_sha256.c **** 	c = ctx->state[2];
 147              		.loc 1 55 2 is_stmt 1 view .LVU39
 148              		.loc 1 55 4 is_stmt 0 view .LVU40
 149 0088 DAF85840 		ldr	r4, [r10, #88]
 150 008c 0294     		str	r4, [sp, #8]
 151              	.LVL10:
  56:Core/Src/nyan_sha256.c **** 	d = ctx->state[3];
 152              		.loc 1 56 2 is_stmt 1 view .LVU41
 153              		.loc 1 56 4 is_stmt 0 view .LVU42
 154 008e DAF85C30 		ldr	r3, [r10, #92]
 155 0092 0393     		str	r3, [sp, #12]
 156              	.LVL11:
  57:Core/Src/nyan_sha256.c **** 	e = ctx->state[4];
 157              		.loc 1 57 2 is_stmt 1 view .LVU43
 158              		.loc 1 57 4 is_stmt 0 view .LVU44
 159 0094 DAF86020 		ldr	r2, [r10, #96]
 160              	.LVL12:
 161              		.loc 1 57 4 view .LVU45
 162 0098 0492     		str	r2, [sp, #16]
 163              	.LVL13:
  58:Core/Src/nyan_sha256.c **** 	f = ctx->state[5];
 164              		.loc 1 58 2 is_stmt 1 view .LVU46
ARM GAS  /tmp/cc2CXB8d.s 			page 5


 165              		.loc 1 58 4 is_stmt 0 view .LVU47
 166 009a DAF86470 		ldr	r7, [r10, #100]
 167 009e 0597     		str	r7, [sp, #20]
 168              	.LVL14:
  59:Core/Src/nyan_sha256.c **** 	g = ctx->state[6];
 169              		.loc 1 59 2 is_stmt 1 view .LVU48
 170              		.loc 1 59 4 is_stmt 0 view .LVU49
 171 00a0 DAF86860 		ldr	r6, [r10, #104]
 172 00a4 0696     		str	r6, [sp, #24]
 173              	.LVL15:
  60:Core/Src/nyan_sha256.c **** 	h = ctx->state[7];
 174              		.loc 1 60 2 is_stmt 1 view .LVU50
 175              		.loc 1 60 4 is_stmt 0 view .LVU51
 176 00a6 DAF86C10 		ldr	r1, [r10, #108]
 177 00aa 0791     		str	r1, [sp, #28]
 178              	.LVL16:
  61:Core/Src/nyan_sha256.c **** 
  62:Core/Src/nyan_sha256.c **** 	for (i = 0; i < 64; ++i) {
 179              		.loc 1 62 2 is_stmt 1 view .LVU52
  60:Core/Src/nyan_sha256.c **** 	h = ctx->state[7];
 180              		.loc 1 60 4 is_stmt 0 view .LVU53
 181 00ac 8E46     		mov	lr, r1
  56:Core/Src/nyan_sha256.c **** 	e = ctx->state[4];
 182              		.loc 1 56 4 view .LVU54
 183 00ae 9846     		mov	r8, r3
  53:Core/Src/nyan_sha256.c **** 	b = ctx->state[1];
 184              		.loc 1 53 4 view .LVU55
 185 00b0 DC46     		mov	ip, fp
 186              		.loc 1 62 9 view .LVU56
 187 00b2 0020     		movs	r0, #0
 188              		.loc 1 62 2 view .LVU57
 189 00b4 2FE0     		b	.L6
 190              	.LVL17:
 191              	.L7:
  63:Core/Src/nyan_sha256.c **** 		t1 = h + EP1(e) + CH(e,f,g) + k[i] + m[i];
 192              		.loc 1 63 3 is_stmt 1 discriminator 3 view .LVU58
 193              		.loc 1 63 12 is_stmt 0 discriminator 3 view .LVU59
 194 00b6 4FEAF223 		ror	r3, r2, #11
 195 00ba 83EAB213 		eor	r3, r3, r2, ror #6
 196 00be 83EA7263 		eor	r3, r3, r2, ror #25
 197              		.loc 1 63 10 discriminator 3 view .LVU60
 198 00c2 7344     		add	r3, r3, lr
 199              		.loc 1 63 21 discriminator 3 view .LVU61
 200 00c4 02EA0701 		and	r1, r2, r7
 201 00c8 26EA020E 		bic	lr, r6, r2
 202              	.LVL18:
 203              		.loc 1 63 21 discriminator 3 view .LVU62
 204 00cc 81EA0E01 		eor	r1, r1, lr
 205              		.loc 1 63 19 discriminator 3 view .LVU63
 206 00d0 0B44     		add	r3, r3, r1
 207              		.loc 1 63 34 discriminator 3 view .LVU64
 208 00d2 2349     		ldr	r1, .L9
 209 00d4 51F82010 		ldr	r1, [r1, r0, lsl #2]
 210              		.loc 1 63 31 discriminator 3 view .LVU65
 211 00d8 0B44     		add	r3, r3, r1
 212              		.loc 1 63 41 discriminator 3 view .LVU66
 213 00da 08A9     		add	r1, sp, #32
ARM GAS  /tmp/cc2CXB8d.s 			page 6


 214 00dc 51F82010 		ldr	r1, [r1, r0, lsl #2]
 215              		.loc 1 63 6 discriminator 3 view .LVU67
 216 00e0 0B44     		add	r3, r3, r1
 217              	.LVL19:
  64:Core/Src/nyan_sha256.c **** 		t2 = EP0(a) + MAJ(a,b,c);
 218              		.loc 1 64 3 is_stmt 1 discriminator 3 view .LVU68
 219              		.loc 1 64 8 is_stmt 0 discriminator 3 view .LVU69
 220 00e2 4FEA7C31 		ror	r1, ip, #13
 221 00e6 81EABC01 		eor	r1, r1, ip, ror #2
 222 00ea 81EABC51 		eor	r1, r1, ip, ror #22
 223              		.loc 1 64 17 discriminator 3 view .LVU70
 224 00ee 85EA040E 		eor	lr, r5, r4
 225 00f2 0EEA0C0E 		and	lr, lr, ip
 226 00f6 05EA0409 		and	r9, r5, r4
 227 00fa 8EEA090E 		eor	lr, lr, r9
 228              		.loc 1 64 6 discriminator 3 view .LVU71
 229 00fe 7144     		add	r1, r1, lr
 230              	.LVL20:
  65:Core/Src/nyan_sha256.c **** 		h = g;
 231              		.loc 1 65 3 is_stmt 1 discriminator 3 view .LVU72
  66:Core/Src/nyan_sha256.c **** 		g = f;
 232              		.loc 1 66 3 discriminator 3 view .LVU73
  67:Core/Src/nyan_sha256.c **** 		f = e;
 233              		.loc 1 67 3 discriminator 3 view .LVU74
  68:Core/Src/nyan_sha256.c **** 		e = d + t1;
 234              		.loc 1 68 3 discriminator 3 view .LVU75
  69:Core/Src/nyan_sha256.c **** 		d = c;
 235              		.loc 1 69 3 discriminator 3 view .LVU76
  70:Core/Src/nyan_sha256.c **** 		c = b;
 236              		.loc 1 70 3 discriminator 3 view .LVU77
  71:Core/Src/nyan_sha256.c **** 		b = a;
 237              		.loc 1 71 3 discriminator 3 view .LVU78
  72:Core/Src/nyan_sha256.c **** 		a = t1 + t2;
 238              		.loc 1 72 3 discriminator 3 view .LVU79
  62:Core/Src/nyan_sha256.c **** 		t1 = h + EP1(e) + CH(e,f,g) + k[i] + m[i];
 239              		.loc 1 62 22 discriminator 3 view .LVU80
 240 0100 0130     		adds	r0, r0, #1
 241              	.LVL21:
  65:Core/Src/nyan_sha256.c **** 		g = f;
 242              		.loc 1 65 5 is_stmt 0 discriminator 3 view .LVU81
 243 0102 B646     		mov	lr, r6
  66:Core/Src/nyan_sha256.c **** 		f = e;
 244              		.loc 1 66 5 discriminator 3 view .LVU82
 245 0104 3E46     		mov	r6, r7
 246              	.LVL22:
  67:Core/Src/nyan_sha256.c **** 		e = d + t1;
 247              		.loc 1 67 5 discriminator 3 view .LVU83
 248 0106 1746     		mov	r7, r2
 249              	.LVL23:
  68:Core/Src/nyan_sha256.c **** 		d = c;
 250              		.loc 1 68 5 discriminator 3 view .LVU84
 251 0108 08EB0302 		add	r2, r8, r3
 252              	.LVL24:
  69:Core/Src/nyan_sha256.c **** 		c = b;
 253              		.loc 1 69 5 discriminator 3 view .LVU85
 254 010c A046     		mov	r8, r4
  70:Core/Src/nyan_sha256.c **** 		b = a;
ARM GAS  /tmp/cc2CXB8d.s 			page 7


 255              		.loc 1 70 5 discriminator 3 view .LVU86
 256 010e 2C46     		mov	r4, r5
 257              	.LVL25:
  71:Core/Src/nyan_sha256.c **** 		a = t1 + t2;
 258              		.loc 1 71 5 discriminator 3 view .LVU87
 259 0110 6546     		mov	r5, ip
 260              	.LVL26:
 261              		.loc 1 72 5 discriminator 3 view .LVU88
 262 0112 03EB010C 		add	ip, r3, r1
 263              	.LVL27:
 264              	.L6:
  62:Core/Src/nyan_sha256.c **** 		t1 = h + EP1(e) + CH(e,f,g) + k[i] + m[i];
 265              		.loc 1 62 14 is_stmt 1 discriminator 1 view .LVU89
  62:Core/Src/nyan_sha256.c **** 		t1 = h + EP1(e) + CH(e,f,g) + k[i] + m[i];
 266              		.loc 1 62 2 is_stmt 0 discriminator 1 view .LVU90
 267 0116 3F28     		cmp	r0, #63
 268 0118 CDD9     		bls	.L7
  73:Core/Src/nyan_sha256.c **** 	}
  74:Core/Src/nyan_sha256.c **** 
  75:Core/Src/nyan_sha256.c **** 	ctx->state[0] += a;
 269              		.loc 1 75 2 is_stmt 1 view .LVU91
 270              		.loc 1 75 16 is_stmt 0 view .LVU92
 271 011a 0CEB0B03 		add	r3, ip, fp
 272 011e CAF85030 		str	r3, [r10, #80]
  76:Core/Src/nyan_sha256.c **** 	ctx->state[1] += b;
 273              		.loc 1 76 2 is_stmt 1 view .LVU93
 274              		.loc 1 76 16 is_stmt 0 view .LVU94
 275 0122 019B     		ldr	r3, [sp, #4]
 276 0124 1D44     		add	r5, r5, r3
 277              	.LVL28:
 278              		.loc 1 76 16 view .LVU95
 279 0126 CAF85450 		str	r5, [r10, #84]
  77:Core/Src/nyan_sha256.c **** 	ctx->state[2] += c;
 280              		.loc 1 77 2 is_stmt 1 view .LVU96
 281              		.loc 1 77 16 is_stmt 0 view .LVU97
 282 012a 029B     		ldr	r3, [sp, #8]
 283 012c 1C44     		add	r4, r4, r3
 284              	.LVL29:
 285              		.loc 1 77 16 view .LVU98
 286 012e CAF85840 		str	r4, [r10, #88]
  78:Core/Src/nyan_sha256.c **** 	ctx->state[3] += d;
 287              		.loc 1 78 2 is_stmt 1 view .LVU99
 288              		.loc 1 78 16 is_stmt 0 view .LVU100
 289 0132 039B     		ldr	r3, [sp, #12]
 290 0134 4344     		add	r3, r3, r8
 291 0136 CAF85C30 		str	r3, [r10, #92]
  79:Core/Src/nyan_sha256.c **** 	ctx->state[4] += e;
 292              		.loc 1 79 2 is_stmt 1 view .LVU101
 293              		.loc 1 79 16 is_stmt 0 view .LVU102
 294 013a 049B     		ldr	r3, [sp, #16]
 295 013c 1A44     		add	r2, r2, r3
 296              	.LVL30:
 297              		.loc 1 79 16 view .LVU103
 298 013e CAF86020 		str	r2, [r10, #96]
  80:Core/Src/nyan_sha256.c **** 	ctx->state[5] += f;
 299              		.loc 1 80 2 is_stmt 1 view .LVU104
 300              		.loc 1 80 16 is_stmt 0 view .LVU105
ARM GAS  /tmp/cc2CXB8d.s 			page 8


 301 0142 059B     		ldr	r3, [sp, #20]
 302 0144 1F44     		add	r7, r7, r3
 303              	.LVL31:
 304              		.loc 1 80 16 view .LVU106
 305 0146 CAF86470 		str	r7, [r10, #100]
  81:Core/Src/nyan_sha256.c **** 	ctx->state[6] += g;
 306              		.loc 1 81 2 is_stmt 1 view .LVU107
 307              		.loc 1 81 16 is_stmt 0 view .LVU108
 308 014a 069B     		ldr	r3, [sp, #24]
 309 014c 1E44     		add	r6, r6, r3
 310              	.LVL32:
 311              		.loc 1 81 16 view .LVU109
 312 014e CAF86860 		str	r6, [r10, #104]
  82:Core/Src/nyan_sha256.c **** 	ctx->state[7] += h;
 313              		.loc 1 82 2 is_stmt 1 view .LVU110
 314              		.loc 1 82 16 is_stmt 0 view .LVU111
 315 0152 079B     		ldr	r3, [sp, #28]
 316 0154 7344     		add	r3, r3, lr
 317 0156 CAF86C30 		str	r3, [r10, #108]
  83:Core/Src/nyan_sha256.c **** }
 318              		.loc 1 83 1 view .LVU112
 319 015a 49B0     		add	sp, sp, #292
 320              	.LCFI2:
 321              		.cfi_def_cfa_offset 36
 322              		@ sp needed
 323 015c BDE8F08F 		pop	{r4, r5, r6, r7, r8, r9, r10, fp, pc}
 324              	.LVL33:
 325              	.L10:
 326              		.loc 1 83 1 view .LVU113
 327              		.align	2
 328              	.L9:
 329 0160 00000000 		.word	.LANCHOR0
 330              		.cfi_endproc
 331              	.LFE0:
 333              		.section	.text.sha256_init,"ax",%progbits
 334              		.align	1
 335              		.global	sha256_init
 336              		.syntax unified
 337              		.thumb
 338              		.thumb_func
 340              	sha256_init:
 341              	.LVL34:
 342              	.LFB1:
  84:Core/Src/nyan_sha256.c **** 
  85:Core/Src/nyan_sha256.c **** void sha256_init(SHA256_CTX *ctx)
  86:Core/Src/nyan_sha256.c **** {
 343              		.loc 1 86 1 is_stmt 1 view -0
 344              		.cfi_startproc
 345              		@ args = 0, pretend = 0, frame = 0
 346              		@ frame_needed = 0, uses_anonymous_args = 0
 347              		@ link register save eliminated.
  87:Core/Src/nyan_sha256.c **** 	ctx->datalen = 0;
 348              		.loc 1 87 2 view .LVU115
 349              		.loc 1 87 15 is_stmt 0 view .LVU116
 350 0000 0023     		movs	r3, #0
 351 0002 0364     		str	r3, [r0, #64]
  88:Core/Src/nyan_sha256.c **** 	ctx->bitlen = 0;
ARM GAS  /tmp/cc2CXB8d.s 			page 9


 352              		.loc 1 88 2 is_stmt 1 view .LVU117
 353              		.loc 1 88 14 is_stmt 0 view .LVU118
 354 0004 0022     		movs	r2, #0
 355 0006 0023     		movs	r3, #0
 356 0008 C0E91223 		strd	r2, [r0, #72]
  89:Core/Src/nyan_sha256.c **** 	ctx->state[0] = 0x6a09e667;
 357              		.loc 1 89 2 is_stmt 1 view .LVU119
 358              		.loc 1 89 16 is_stmt 0 view .LVU120
 359 000c 0A4B     		ldr	r3, .L12
 360 000e 0365     		str	r3, [r0, #80]
  90:Core/Src/nyan_sha256.c **** 	ctx->state[1] = 0xbb67ae85;
 361              		.loc 1 90 2 is_stmt 1 view .LVU121
 362              		.loc 1 90 16 is_stmt 0 view .LVU122
 363 0010 0A4B     		ldr	r3, .L12+4
 364 0012 4365     		str	r3, [r0, #84]
  91:Core/Src/nyan_sha256.c **** 	ctx->state[2] = 0x3c6ef372;
 365              		.loc 1 91 2 is_stmt 1 view .LVU123
 366              		.loc 1 91 16 is_stmt 0 view .LVU124
 367 0014 0A4B     		ldr	r3, .L12+8
 368 0016 8365     		str	r3, [r0, #88]
  92:Core/Src/nyan_sha256.c **** 	ctx->state[3] = 0xa54ff53a;
 369              		.loc 1 92 2 is_stmt 1 view .LVU125
 370              		.loc 1 92 16 is_stmt 0 view .LVU126
 371 0018 0A4B     		ldr	r3, .L12+12
 372 001a C365     		str	r3, [r0, #92]
  93:Core/Src/nyan_sha256.c **** 	ctx->state[4] = 0x510e527f;
 373              		.loc 1 93 2 is_stmt 1 view .LVU127
 374              		.loc 1 93 16 is_stmt 0 view .LVU128
 375 001c 0A4B     		ldr	r3, .L12+16
 376 001e 0366     		str	r3, [r0, #96]
  94:Core/Src/nyan_sha256.c **** 	ctx->state[5] = 0x9b05688c;
 377              		.loc 1 94 2 is_stmt 1 view .LVU129
 378              		.loc 1 94 16 is_stmt 0 view .LVU130
 379 0020 0A4B     		ldr	r3, .L12+20
 380 0022 4366     		str	r3, [r0, #100]
  95:Core/Src/nyan_sha256.c **** 	ctx->state[6] = 0x1f83d9ab;
 381              		.loc 1 95 2 is_stmt 1 view .LVU131
 382              		.loc 1 95 16 is_stmt 0 view .LVU132
 383 0024 0A4B     		ldr	r3, .L12+24
 384 0026 8366     		str	r3, [r0, #104]
  96:Core/Src/nyan_sha256.c **** 	ctx->state[7] = 0x5be0cd19;
 385              		.loc 1 96 2 is_stmt 1 view .LVU133
 386              		.loc 1 96 16 is_stmt 0 view .LVU134
 387 0028 03F17453 		add	r3, r3, #1023410176
 388 002c A3F52303 		sub	r3, r3, #10682368
 389 0030 A3F69243 		subw	r3, r3, #3218
 390 0034 C366     		str	r3, [r0, #108]
  97:Core/Src/nyan_sha256.c **** }
 391              		.loc 1 97 1 view .LVU135
 392 0036 7047     		bx	lr
 393              	.L13:
 394              		.align	2
 395              	.L12:
 396 0038 67E6096A 		.word	1779033703
 397 003c 85AE67BB 		.word	-1150833019
 398 0040 72F36E3C 		.word	1013904242
 399 0044 3AF54FA5 		.word	-1521486534
ARM GAS  /tmp/cc2CXB8d.s 			page 10


 400 0048 7F520E51 		.word	1359893119
 401 004c 8C68059B 		.word	-1694144372
 402 0050 ABD9831F 		.word	528734635
 403              		.cfi_endproc
 404              	.LFE1:
 406              		.section	.text.sha256_update,"ax",%progbits
 407              		.align	1
 408              		.global	sha256_update
 409              		.syntax unified
 410              		.thumb
 411              		.thumb_func
 413              	sha256_update:
 414              	.LVL35:
 415              	.LFB2:
  98:Core/Src/nyan_sha256.c **** 
  99:Core/Src/nyan_sha256.c **** void sha256_update(SHA256_CTX *ctx, const BYTE data[], size_t len)
 100:Core/Src/nyan_sha256.c **** {
 416              		.loc 1 100 1 is_stmt 1 view -0
 417              		.cfi_startproc
 418              		@ args = 0, pretend = 0, frame = 0
 419              		@ frame_needed = 0, uses_anonymous_args = 0
 420              		.loc 1 100 1 is_stmt 0 view .LVU137
 421 0000 F8B5     		push	{r3, r4, r5, r6, r7, lr}
 422              	.LCFI3:
 423              		.cfi_def_cfa_offset 24
 424              		.cfi_offset 3, -24
 425              		.cfi_offset 4, -20
 426              		.cfi_offset 5, -16
 427              		.cfi_offset 6, -12
 428              		.cfi_offset 7, -8
 429              		.cfi_offset 14, -4
 430 0002 0446     		mov	r4, r0
 431 0004 0F46     		mov	r7, r1
 432 0006 1646     		mov	r6, r2
 101:Core/Src/nyan_sha256.c **** 	WORD i;
 433              		.loc 1 101 2 is_stmt 1 view .LVU138
 102:Core/Src/nyan_sha256.c **** 
 103:Core/Src/nyan_sha256.c **** 	for (i = 0; i < len; ++i) {
 434              		.loc 1 103 2 view .LVU139
 435              	.LVL36:
 436              		.loc 1 103 9 is_stmt 0 view .LVU140
 437 0008 0025     		movs	r5, #0
 438              		.loc 1 103 2 view .LVU141
 439 000a 00E0     		b	.L15
 440              	.LVL37:
 441              	.L16:
 442              		.loc 1 103 23 is_stmt 1 discriminator 2 view .LVU142
 443 000c 0135     		adds	r5, r5, #1
 444              	.LVL38:
 445              	.L15:
 446              		.loc 1 103 14 discriminator 1 view .LVU143
 447              		.loc 1 103 2 is_stmt 0 discriminator 1 view .LVU144
 448 000e B542     		cmp	r5, r6
 449 0010 15D2     		bcs	.L19
 104:Core/Src/nyan_sha256.c **** 		ctx->data[ctx->datalen] = data[i];
 450              		.loc 1 104 3 is_stmt 1 view .LVU145
 451              		.loc 1 104 16 is_stmt 0 view .LVU146
ARM GAS  /tmp/cc2CXB8d.s 			page 11


 452 0012 236C     		ldr	r3, [r4, #64]
 453              		.loc 1 104 33 view .LVU147
 454 0014 785D     		ldrb	r0, [r7, r5]	@ zero_extendqisi2
 455              		.loc 1 104 27 view .LVU148
 456 0016 E054     		strb	r0, [r4, r3]
 105:Core/Src/nyan_sha256.c **** 		ctx->datalen++;
 457              		.loc 1 105 3 is_stmt 1 view .LVU149
 458              		.loc 1 105 15 is_stmt 0 view .LVU150
 459 0018 0133     		adds	r3, r3, #1
 460 001a 2364     		str	r3, [r4, #64]
 106:Core/Src/nyan_sha256.c **** 		if (ctx->datalen == 64) {
 461              		.loc 1 106 3 is_stmt 1 view .LVU151
 462              		.loc 1 106 6 is_stmt 0 view .LVU152
 463 001c 402B     		cmp	r3, #64
 464 001e F5D1     		bne	.L16
 107:Core/Src/nyan_sha256.c **** 			sha256_transform(ctx, ctx->data);
 465              		.loc 1 107 4 is_stmt 1 view .LVU153
 466 0020 2146     		mov	r1, r4
 467 0022 2046     		mov	r0, r4
 468 0024 FFF7FEFF 		bl	sha256_transform
 469              	.LVL39:
 108:Core/Src/nyan_sha256.c **** 			ctx->bitlen += 512;
 470              		.loc 1 108 4 view .LVU154
 471              		.loc 1 108 16 is_stmt 0 view .LVU155
 472 0028 A36C     		ldr	r3, [r4, #72]
 473 002a E26C     		ldr	r2, [r4, #76]
 474 002c 13F50073 		adds	r3, r3, #512
 475 0030 42F10002 		adc	r2, r2, #0
 476 0034 A364     		str	r3, [r4, #72]
 477 0036 E264     		str	r2, [r4, #76]
 109:Core/Src/nyan_sha256.c **** 			ctx->datalen = 0;
 478              		.loc 1 109 4 is_stmt 1 view .LVU156
 479              		.loc 1 109 17 is_stmt 0 view .LVU157
 480 0038 0023     		movs	r3, #0
 481 003a 2364     		str	r3, [r4, #64]
 482 003c E6E7     		b	.L16
 483              	.L19:
 110:Core/Src/nyan_sha256.c **** 		}
 111:Core/Src/nyan_sha256.c **** 	}
 112:Core/Src/nyan_sha256.c **** }
 484              		.loc 1 112 1 view .LVU158
 485 003e F8BD     		pop	{r3, r4, r5, r6, r7, pc}
 486              		.loc 1 112 1 view .LVU159
 487              		.cfi_endproc
 488              	.LFE2:
 490              		.section	.text.sha256_final,"ax",%progbits
 491              		.align	1
 492              		.global	sha256_final
 493              		.syntax unified
 494              		.thumb
 495              		.thumb_func
 497              	sha256_final:
 498              	.LVL40:
 499              	.LFB3:
 113:Core/Src/nyan_sha256.c **** 
 114:Core/Src/nyan_sha256.c **** void sha256_final(SHA256_CTX *ctx, BYTE hash[])
 115:Core/Src/nyan_sha256.c **** {
ARM GAS  /tmp/cc2CXB8d.s 			page 12


 500              		.loc 1 115 1 is_stmt 1 view -0
 501              		.cfi_startproc
 502              		@ args = 0, pretend = 0, frame = 0
 503              		@ frame_needed = 0, uses_anonymous_args = 0
 504              		.loc 1 115 1 is_stmt 0 view .LVU161
 505 0000 38B5     		push	{r3, r4, r5, lr}
 506              	.LCFI4:
 507              		.cfi_def_cfa_offset 16
 508              		.cfi_offset 3, -16
 509              		.cfi_offset 4, -12
 510              		.cfi_offset 5, -8
 511              		.cfi_offset 14, -4
 512 0002 0446     		mov	r4, r0
 513 0004 0D46     		mov	r5, r1
 116:Core/Src/nyan_sha256.c **** 	WORD i;
 514              		.loc 1 116 2 is_stmt 1 view .LVU162
 117:Core/Src/nyan_sha256.c **** 
 118:Core/Src/nyan_sha256.c **** 	i = ctx->datalen;
 515              		.loc 1 118 2 view .LVU163
 516              		.loc 1 118 4 is_stmt 0 view .LVU164
 517 0006 026C     		ldr	r2, [r0, #64]
 518              	.LVL41:
 119:Core/Src/nyan_sha256.c **** 
 120:Core/Src/nyan_sha256.c **** 	// Pad whatever data is left in the buffer.
 121:Core/Src/nyan_sha256.c **** 	if (ctx->datalen < 56) {
 519              		.loc 1 121 2 is_stmt 1 view .LVU165
 520              		.loc 1 121 5 is_stmt 0 view .LVU166
 521 0008 372A     		cmp	r2, #55
 522 000a 2DD8     		bhi	.L21
 122:Core/Src/nyan_sha256.c **** 		ctx->data[i++] = 0x80;
 523              		.loc 1 122 3 is_stmt 1 view .LVU167
 524              		.loc 1 122 14 is_stmt 0 view .LVU168
 525 000c 531C     		adds	r3, r2, #1
 526              	.LVL42:
 527              		.loc 1 122 18 view .LVU169
 528 000e 8021     		movs	r1, #128
 529              	.LVL43:
 530              		.loc 1 122 18 view .LVU170
 531 0010 8154     		strb	r1, [r0, r2]
 123:Core/Src/nyan_sha256.c **** 		while (i < 56)
 532              		.loc 1 123 3 is_stmt 1 view .LVU171
 533              		.loc 1 123 9 is_stmt 0 view .LVU172
 534 0012 02E0     		b	.L22
 535              	.L23:
 124:Core/Src/nyan_sha256.c **** 			ctx->data[i++] = 0x00;
 536              		.loc 1 124 4 is_stmt 1 view .LVU173
 537              	.LVL44:
 538              		.loc 1 124 19 is_stmt 0 view .LVU174
 539 0014 0022     		movs	r2, #0
 540 0016 E254     		strb	r2, [r4, r3]
 541              		.loc 1 124 15 view .LVU175
 542 0018 0133     		adds	r3, r3, #1
 543              	.LVL45:
 544              	.L22:
 123:Core/Src/nyan_sha256.c **** 		while (i < 56)
 545              		.loc 1 123 9 is_stmt 1 view .LVU176
 546 001a 372B     		cmp	r3, #55
ARM GAS  /tmp/cc2CXB8d.s 			page 13


 547 001c FAD9     		bls	.L23
 548              	.LVL46:
 549              	.L24:
 125:Core/Src/nyan_sha256.c **** 	}
 126:Core/Src/nyan_sha256.c **** 	else {
 127:Core/Src/nyan_sha256.c **** 		ctx->data[i++] = 0x80;
 128:Core/Src/nyan_sha256.c **** 		while (i < 64)
 129:Core/Src/nyan_sha256.c **** 			ctx->data[i++] = 0x00;
 130:Core/Src/nyan_sha256.c **** 		sha256_transform(ctx, ctx->data);
 131:Core/Src/nyan_sha256.c **** 		memset(ctx->data, 0, 56);
 132:Core/Src/nyan_sha256.c **** 	}
 133:Core/Src/nyan_sha256.c **** 
 134:Core/Src/nyan_sha256.c **** 	// Append to the padding the total message's length in bits and transform.
 135:Core/Src/nyan_sha256.c **** 	ctx->bitlen += ctx->datalen * 8;
 550              		.loc 1 135 2 view .LVU177
 551              		.loc 1 135 20 is_stmt 0 view .LVU178
 552 001e 236C     		ldr	r3, [r4, #64]
 553              		.loc 1 135 30 view .LVU179
 554 0020 DB00     		lsls	r3, r3, #3
 555              		.loc 1 135 14 view .LVU180
 556 0022 A16C     		ldr	r1, [r4, #72]
 557 0024 E26C     		ldr	r2, [r4, #76]
 558 0026 5B18     		adds	r3, r3, r1
 559 0028 42F10002 		adc	r2, r2, #0
 560 002c A364     		str	r3, [r4, #72]
 561 002e E264     		str	r2, [r4, #76]
 136:Core/Src/nyan_sha256.c **** 	ctx->data[63] = ctx->bitlen;
 562              		.loc 1 136 2 is_stmt 1 view .LVU181
 563              		.loc 1 136 16 is_stmt 0 view .LVU182
 564 0030 84F83F30 		strb	r3, [r4, #63]
 137:Core/Src/nyan_sha256.c **** 	ctx->data[62] = ctx->bitlen >> 8;
 565              		.loc 1 137 2 is_stmt 1 view .LVU183
 566              		.loc 1 137 30 is_stmt 0 view .LVU184
 567 0034 190A     		lsrs	r1, r3, #8
 568              		.loc 1 137 16 view .LVU185
 569 0036 84F83E10 		strb	r1, [r4, #62]
 138:Core/Src/nyan_sha256.c **** 	ctx->data[61] = ctx->bitlen >> 16;
 570              		.loc 1 138 2 is_stmt 1 view .LVU186
 571              		.loc 1 138 30 is_stmt 0 view .LVU187
 572 003a 190C     		lsrs	r1, r3, #16
 573              		.loc 1 138 16 view .LVU188
 574 003c 84F83D10 		strb	r1, [r4, #61]
 139:Core/Src/nyan_sha256.c **** 	ctx->data[60] = ctx->bitlen >> 24;
 575              		.loc 1 139 2 is_stmt 1 view .LVU189
 576              		.loc 1 139 30 is_stmt 0 view .LVU190
 577 0040 1B0E     		lsrs	r3, r3, #24
 578              		.loc 1 139 16 view .LVU191
 579 0042 84F83C30 		strb	r3, [r4, #60]
 140:Core/Src/nyan_sha256.c **** 	ctx->data[59] = ctx->bitlen >> 32;
 580              		.loc 1 140 2 is_stmt 1 view .LVU192
 581              		.loc 1 140 16 is_stmt 0 view .LVU193
 582 0046 84F83B20 		strb	r2, [r4, #59]
 141:Core/Src/nyan_sha256.c **** 	ctx->data[58] = ctx->bitlen >> 40;
 583              		.loc 1 141 2 is_stmt 1 view .LVU194
 584              		.loc 1 141 30 is_stmt 0 view .LVU195
 585 004a 130A     		lsrs	r3, r2, #8
 586              		.loc 1 141 16 view .LVU196
ARM GAS  /tmp/cc2CXB8d.s 			page 14


 587 004c 84F83A30 		strb	r3, [r4, #58]
 142:Core/Src/nyan_sha256.c **** 	ctx->data[57] = ctx->bitlen >> 48;
 588              		.loc 1 142 2 is_stmt 1 view .LVU197
 589              		.loc 1 142 30 is_stmt 0 view .LVU198
 590 0050 130C     		lsrs	r3, r2, #16
 591              		.loc 1 142 16 view .LVU199
 592 0052 84F83930 		strb	r3, [r4, #57]
 143:Core/Src/nyan_sha256.c **** 	ctx->data[56] = ctx->bitlen >> 56;
 593              		.loc 1 143 2 is_stmt 1 view .LVU200
 594              		.loc 1 143 30 is_stmt 0 view .LVU201
 595 0056 120E     		lsrs	r2, r2, #24
 596              		.loc 1 143 16 view .LVU202
 597 0058 84F83820 		strb	r2, [r4, #56]
 144:Core/Src/nyan_sha256.c **** 	sha256_transform(ctx, ctx->data);
 598              		.loc 1 144 2 is_stmt 1 view .LVU203
 599 005c 2146     		mov	r1, r4
 600 005e 2046     		mov	r0, r4
 601 0060 FFF7FEFF 		bl	sha256_transform
 602              	.LVL47:
 145:Core/Src/nyan_sha256.c **** 
 146:Core/Src/nyan_sha256.c **** 	// Since this implementation uses little endian byte ordering and SHA uses big endian,
 147:Core/Src/nyan_sha256.c **** 	// reverse all the bytes when copying the final state to the output hash.
 148:Core/Src/nyan_sha256.c **** 	for (i = 0; i < 4; ++i) {
 603              		.loc 1 148 2 view .LVU204
 604              		.loc 1 148 9 is_stmt 0 view .LVU205
 605 0064 0023     		movs	r3, #0
 606              		.loc 1 148 2 view .LVU206
 607 0066 3CE0     		b	.L27
 608              	.LVL48:
 609              	.L21:
 127:Core/Src/nyan_sha256.c **** 		while (i < 64)
 610              		.loc 1 127 3 is_stmt 1 view .LVU207
 127:Core/Src/nyan_sha256.c **** 		while (i < 64)
 611              		.loc 1 127 14 is_stmt 0 view .LVU208
 612 0068 531C     		adds	r3, r2, #1
 613              	.LVL49:
 127:Core/Src/nyan_sha256.c **** 		while (i < 64)
 614              		.loc 1 127 18 view .LVU209
 615 006a 8021     		movs	r1, #128
 616              	.LVL50:
 127:Core/Src/nyan_sha256.c **** 		while (i < 64)
 617              		.loc 1 127 18 view .LVU210
 618 006c 8154     		strb	r1, [r0, r2]
 128:Core/Src/nyan_sha256.c **** 			ctx->data[i++] = 0x00;
 619              		.loc 1 128 3 is_stmt 1 view .LVU211
 128:Core/Src/nyan_sha256.c **** 			ctx->data[i++] = 0x00;
 620              		.loc 1 128 9 is_stmt 0 view .LVU212
 621 006e 02E0     		b	.L25
 622              	.L26:
 129:Core/Src/nyan_sha256.c **** 		sha256_transform(ctx, ctx->data);
 623              		.loc 1 129 4 is_stmt 1 view .LVU213
 624              	.LVL51:
 129:Core/Src/nyan_sha256.c **** 		sha256_transform(ctx, ctx->data);
 625              		.loc 1 129 19 is_stmt 0 view .LVU214
 626 0070 0022     		movs	r2, #0
 627 0072 E254     		strb	r2, [r4, r3]
 129:Core/Src/nyan_sha256.c **** 		sha256_transform(ctx, ctx->data);
ARM GAS  /tmp/cc2CXB8d.s 			page 15


 628              		.loc 1 129 15 view .LVU215
 629 0074 0133     		adds	r3, r3, #1
 630              	.LVL52:
 631              	.L25:
 128:Core/Src/nyan_sha256.c **** 			ctx->data[i++] = 0x00;
 632              		.loc 1 128 9 is_stmt 1 view .LVU216
 633 0076 3F2B     		cmp	r3, #63
 634 0078 FAD9     		bls	.L26
 130:Core/Src/nyan_sha256.c **** 		memset(ctx->data, 0, 56);
 635              		.loc 1 130 3 view .LVU217
 636 007a 2146     		mov	r1, r4
 637 007c 2046     		mov	r0, r4
 638              	.LVL53:
 130:Core/Src/nyan_sha256.c **** 		memset(ctx->data, 0, 56);
 639              		.loc 1 130 3 is_stmt 0 view .LVU218
 640 007e FFF7FEFF 		bl	sha256_transform
 641              	.LVL54:
 131:Core/Src/nyan_sha256.c **** 	}
 642              		.loc 1 131 3 is_stmt 1 view .LVU219
 643 0082 3822     		movs	r2, #56
 644 0084 0021     		movs	r1, #0
 645 0086 2046     		mov	r0, r4
 646 0088 FFF7FEFF 		bl	memset
 647              	.LVL55:
 648 008c C7E7     		b	.L24
 649              	.LVL56:
 650              	.L28:
 149:Core/Src/nyan_sha256.c **** 		hash[i]      = (ctx->state[0] >> (24 - i * 8)) & 0x000000ff;
 651              		.loc 1 149 3 discriminator 3 view .LVU220
 652              		.loc 1 149 29 is_stmt 0 discriminator 3 view .LVU221
 653 008e 216D     		ldr	r1, [r4, #80]
 654              		.loc 1 149 40 discriminator 3 view .LVU222
 655 0090 C3F10302 		rsb	r2, r3, #3
 656 0094 D200     		lsls	r2, r2, #3
 657              		.loc 1 149 33 discriminator 3 view .LVU223
 658 0096 D140     		lsrs	r1, r1, r2
 659              		.loc 1 149 16 discriminator 3 view .LVU224
 660 0098 E954     		strb	r1, [r5, r3]
 150:Core/Src/nyan_sha256.c **** 		hash[i + 4]  = (ctx->state[1] >> (24 - i * 8)) & 0x000000ff;
 661              		.loc 1 150 3 is_stmt 1 discriminator 3 view .LVU225
 662              		.loc 1 150 29 is_stmt 0 discriminator 3 view .LVU226
 663 009a 616D     		ldr	r1, [r4, #84]
 664              		.loc 1 150 33 discriminator 3 view .LVU227
 665 009c D140     		lsrs	r1, r1, r2
 666              		.loc 1 150 7 discriminator 3 view .LVU228
 667 009e 181D     		adds	r0, r3, #4
 668              		.loc 1 150 16 discriminator 3 view .LVU229
 669 00a0 2954     		strb	r1, [r5, r0]
 151:Core/Src/nyan_sha256.c **** 		hash[i + 8]  = (ctx->state[2] >> (24 - i * 8)) & 0x000000ff;
 670              		.loc 1 151 3 is_stmt 1 discriminator 3 view .LVU230
 671              		.loc 1 151 29 is_stmt 0 discriminator 3 view .LVU231
 672 00a2 A16D     		ldr	r1, [r4, #88]
 673              		.loc 1 151 33 discriminator 3 view .LVU232
 674 00a4 D140     		lsrs	r1, r1, r2
 675              		.loc 1 151 7 discriminator 3 view .LVU233
 676 00a6 03F10800 		add	r0, r3, #8
 677              		.loc 1 151 16 discriminator 3 view .LVU234
ARM GAS  /tmp/cc2CXB8d.s 			page 16


 678 00aa 2954     		strb	r1, [r5, r0]
 152:Core/Src/nyan_sha256.c **** 		hash[i + 12] = (ctx->state[3] >> (24 - i * 8)) & 0x000000ff;
 679              		.loc 1 152 3 is_stmt 1 discriminator 3 view .LVU235
 680              		.loc 1 152 29 is_stmt 0 discriminator 3 view .LVU236
 681 00ac E16D     		ldr	r1, [r4, #92]
 682              		.loc 1 152 33 discriminator 3 view .LVU237
 683 00ae D140     		lsrs	r1, r1, r2
 684              		.loc 1 152 7 discriminator 3 view .LVU238
 685 00b0 03F10C00 		add	r0, r3, #12
 686              		.loc 1 152 16 discriminator 3 view .LVU239
 687 00b4 2954     		strb	r1, [r5, r0]
 153:Core/Src/nyan_sha256.c **** 		hash[i + 16] = (ctx->state[4] >> (24 - i * 8)) & 0x000000ff;
 688              		.loc 1 153 3 is_stmt 1 discriminator 3 view .LVU240
 689              		.loc 1 153 29 is_stmt 0 discriminator 3 view .LVU241
 690 00b6 216E     		ldr	r1, [r4, #96]
 691              		.loc 1 153 33 discriminator 3 view .LVU242
 692 00b8 D140     		lsrs	r1, r1, r2
 693              		.loc 1 153 7 discriminator 3 view .LVU243
 694 00ba 03F11000 		add	r0, r3, #16
 695              		.loc 1 153 16 discriminator 3 view .LVU244
 696 00be 2954     		strb	r1, [r5, r0]
 154:Core/Src/nyan_sha256.c **** 		hash[i + 20] = (ctx->state[5] >> (24 - i * 8)) & 0x000000ff;
 697              		.loc 1 154 3 is_stmt 1 discriminator 3 view .LVU245
 698              		.loc 1 154 29 is_stmt 0 discriminator 3 view .LVU246
 699 00c0 616E     		ldr	r1, [r4, #100]
 700              		.loc 1 154 33 discriminator 3 view .LVU247
 701 00c2 D140     		lsrs	r1, r1, r2
 702              		.loc 1 154 7 discriminator 3 view .LVU248
 703 00c4 03F11400 		add	r0, r3, #20
 704              		.loc 1 154 16 discriminator 3 view .LVU249
 705 00c8 2954     		strb	r1, [r5, r0]
 155:Core/Src/nyan_sha256.c **** 		hash[i + 24] = (ctx->state[6] >> (24 - i * 8)) & 0x000000ff;
 706              		.loc 1 155 3 is_stmt 1 discriminator 3 view .LVU250
 707              		.loc 1 155 29 is_stmt 0 discriminator 3 view .LVU251
 708 00ca A16E     		ldr	r1, [r4, #104]
 709              		.loc 1 155 33 discriminator 3 view .LVU252
 710 00cc D140     		lsrs	r1, r1, r2
 711              		.loc 1 155 7 discriminator 3 view .LVU253
 712 00ce 03F11800 		add	r0, r3, #24
 713              		.loc 1 155 16 discriminator 3 view .LVU254
 714 00d2 2954     		strb	r1, [r5, r0]
 156:Core/Src/nyan_sha256.c **** 		hash[i + 28] = (ctx->state[7] >> (24 - i * 8)) & 0x000000ff;
 715              		.loc 1 156 3 is_stmt 1 discriminator 3 view .LVU255
 716              		.loc 1 156 29 is_stmt 0 discriminator 3 view .LVU256
 717 00d4 E16E     		ldr	r1, [r4, #108]
 718              		.loc 1 156 33 discriminator 3 view .LVU257
 719 00d6 21FA02F2 		lsr	r2, r1, r2
 720              		.loc 1 156 7 discriminator 3 view .LVU258
 721 00da 03F11C01 		add	r1, r3, #28
 722              		.loc 1 156 16 discriminator 3 view .LVU259
 723 00de 6A54     		strb	r2, [r5, r1]
 148:Core/Src/nyan_sha256.c **** 		hash[i]      = (ctx->state[0] >> (24 - i * 8)) & 0x000000ff;
 724              		.loc 1 148 21 is_stmt 1 discriminator 3 view .LVU260
 725 00e0 0133     		adds	r3, r3, #1
 726              	.LVL57:
 727              	.L27:
 148:Core/Src/nyan_sha256.c **** 		hash[i]      = (ctx->state[0] >> (24 - i * 8)) & 0x000000ff;
ARM GAS  /tmp/cc2CXB8d.s 			page 17


 728              		.loc 1 148 14 discriminator 1 view .LVU261
 148:Core/Src/nyan_sha256.c **** 		hash[i]      = (ctx->state[0] >> (24 - i * 8)) & 0x000000ff;
 729              		.loc 1 148 2 is_stmt 0 discriminator 1 view .LVU262
 730 00e2 032B     		cmp	r3, #3
 731 00e4 D3D9     		bls	.L28
 157:Core/Src/nyan_sha256.c **** 	}
 158:Core/Src/nyan_sha256.c **** }...
 732              		.loc 1 158 1 view .LVU263
 733 00e6 38BD     		pop	{r3, r4, r5, pc}
 734              		.loc 1 158 1 view .LVU264
 735              		.cfi_endproc
 736              	.LFE3:
 738              		.section	.rodata.k,"a"
 739              		.align	2
 740              		.set	.LANCHOR0,. + 0
 743              	k:
 744 0000 982F8A42 		.word	1116352408
 745 0004 91443771 		.word	1899447441
 746 0008 CFFBC0B5 		.word	-1245643825
 747 000c A5DBB5E9 		.word	-373957723
 748 0010 5BC25639 		.word	961987163
 749 0014 F111F159 		.word	1508970993
 750 0018 A4823F92 		.word	-1841331548
 751 001c D55E1CAB 		.word	-1424204075
 752 0020 98AA07D8 		.word	-670586216
 753 0024 015B8312 		.word	310598401
 754 0028 BE853124 		.word	607225278
 755 002c C37D0C55 		.word	1426881987
 756 0030 745DBE72 		.word	1925078388
 757 0034 FEB1DE80 		.word	-2132889090
 758 0038 A706DC9B 		.word	-1680079193
 759 003c 74F19BC1 		.word	-1046744716
 760 0040 C1699BE4 		.word	-459576895
 761 0044 8647BEEF 		.word	-272742522
 762 0048 C69DC10F 		.word	264347078
 763 004c CCA10C24 		.word	604807628
 764 0050 6F2CE92D 		.word	770255983
 765 0054 AA84744A 		.word	1249150122
 766 0058 DCA9B05C 		.word	1555081692
 767 005c DA88F976 		.word	1996064986
 768 0060 52513E98 		.word	-1740746414
 769 0064 6DC631A8 		.word	-1473132947
 770 0068 C82703B0 		.word	-1341970488
 771 006c C77F59BF 		.word	-1084653625
 772 0070 F30BE0C6 		.word	-958395405
 773 0074 4791A7D5 		.word	-710438585
 774 0078 5163CA06 		.word	113926993
 775 007c 67292914 		.word	338241895
 776 0080 850AB727 		.word	666307205
 777 0084 38211B2E 		.word	773529912
 778 0088 FC6D2C4D 		.word	1294757372
 779 008c 130D3853 		.word	1396182291
 780 0090 54730A65 		.word	1695183700
 781 0094 BB0A6A76 		.word	1986661051
 782 0098 2EC9C281 		.word	-2117940946
 783 009c 852C7292 		.word	-1838011259
 784 00a0 A1E8BFA2 		.word	-1564481375
ARM GAS  /tmp/cc2CXB8d.s 			page 18


 785 00a4 4B661AA8 		.word	-1474664885
 786 00a8 708B4BC2 		.word	-1035236496
 787 00ac A3516CC7 		.word	-949202525
 788 00b0 19E892D1 		.word	-778901479
 789 00b4 240699D6 		.word	-694614492
 790 00b8 85350EF4 		.word	-200395387
 791 00bc 70A06A10 		.word	275423344
 792 00c0 16C1A419 		.word	430227734
 793 00c4 086C371E 		.word	506948616
 794 00c8 4C774827 		.word	659060556
 795 00cc B5BCB034 		.word	883997877
 796 00d0 B30C1C39 		.word	958139571
 797 00d4 4AAAD84E 		.word	1322822218
 798 00d8 4FCA9C5B 		.word	1537002063
 799 00dc F36F2E68 		.word	1747873779
 800 00e0 EE828F74 		.word	1955562222
 801 00e4 6F63A578 		.word	2024104815
 802 00e8 1478C884 		.word	-2067236844
 803 00ec 0802C78C 		.word	-1933114872
 804 00f0 FAFFBE90 		.word	-1866530822
 805 00f4 EB6C50A4 		.word	-1538233109
 806 00f8 F7A3F9BE 		.word	-1090935817
 807 00fc F27871C6 		.word	-965641998
 808              		.text
 809              	.Letext0:
 810              		.file 2 "/opt/gcc-arm-none-eabi-10.3-2021.10/lib/gcc/arm-none-eabi/10.3.1/include/stddef.h"
 811              		.file 3 "Core/Inc/nyan_sha256.h"
 812              		.file 4 "<built-in>"
ARM GAS  /tmp/cc2CXB8d.s 			page 19


DEFINED SYMBOLS
                            *ABS*:0000000000000000 nyan_sha256.c
     /tmp/cc2CXB8d.s:20     .text.sha256_transform:0000000000000000 $t
     /tmp/cc2CXB8d.s:26     .text.sha256_transform:0000000000000000 sha256_transform
     /tmp/cc2CXB8d.s:329    .text.sha256_transform:0000000000000160 $d
     /tmp/cc2CXB8d.s:334    .text.sha256_init:0000000000000000 $t
     /tmp/cc2CXB8d.s:340    .text.sha256_init:0000000000000000 sha256_init
     /tmp/cc2CXB8d.s:396    .text.sha256_init:0000000000000038 $d
     /tmp/cc2CXB8d.s:407    .text.sha256_update:0000000000000000 $t
     /tmp/cc2CXB8d.s:413    .text.sha256_update:0000000000000000 sha256_update
     /tmp/cc2CXB8d.s:491    .text.sha256_final:0000000000000000 $t
     /tmp/cc2CXB8d.s:497    .text.sha256_final:0000000000000000 sha256_final
     /tmp/cc2CXB8d.s:739    .rodata.k:0000000000000000 $d
     /tmp/cc2CXB8d.s:743    .rodata.k:0000000000000000 k

UNDEFINED SYMBOLS
memset
