ARM GAS  /tmp/ccPbOnfM.s 			page 1


   1              		.cpu cortex-m7
   2              		.arch armv7e-m
   3              		.fpu fpv5-sp-d16
   4              		.eabi_attribute 27, 1
   5              		.eabi_attribute 28, 1
   6              		.eabi_attribute 20, 1
   7              		.eabi_attribute 21, 1
   8              		.eabi_attribute 23, 3
   9              		.eabi_attribute 24, 1
  10              		.eabi_attribute 25, 1
  11              		.eabi_attribute 26, 1
  12              		.eabi_attribute 30, 1
  13              		.eabi_attribute 34, 1
  14              		.eabi_attribute 18, 4
  15              		.file	"nyan_keys.c"
  16              		.text
  17              	.Ltext0:
  18              		.cfi_sections	.debug_frame
  19              		.file 1 "Core/Src/nyan_keys.c"
  20              		.section	.text.NyanKeysInit,"ax",%progbits
  21              		.align	1
  22              		.global	NyanKeysInit
  23              		.syntax unified
  24              		.thumb
  25              		.thumb_func
  27              	NyanKeysInit:
  28              	.LVL0:
  29              	.LFB141:
   1:Core/Src/nyan_keys.c **** /**
   2:Core/Src/nyan_keys.c ****  * NyanKeys FPGA IP Driver (SPI2)
   3:Core/Src/nyan_keys.c ****  * @author Reese Russell
   4:Core/Src/nyan_keys.c ****  */
   5:Core/Src/nyan_keys.c **** 
   6:Core/Src/nyan_keys.c **** #include <stdlib.h>
   7:Core/Src/nyan_keys.c **** 
   8:Core/Src/nyan_keys.c **** #include "spi.h"
   9:Core/Src/nyan_keys.c **** #include "nyan_keys.h"
  10:Core/Src/nyan_keys.c **** 
  11:Core/Src/nyan_keys.c **** static uint8_t keys_registers_addresses[] = {0x01, 0x02, 0x03, 0x04, 0x05, 0x06, 0x07, 0x00, 0x00};
  12:Core/Src/nyan_keys.c **** 
  13:Core/Src/nyan_keys.c **** NyanKeysReturn NyanKeysInit(NyanKeys *keys)
  14:Core/Src/nyan_keys.c **** {
  30              		.loc 1 14 1 view -0
  31              		.cfi_startproc
  32              		@ args = 0, pretend = 0, frame = 0
  33              		@ frame_needed = 0, uses_anonymous_args = 0
  34              		.loc 1 14 1 is_stmt 0 view .LVU1
  35 0000 10B5     		push	{r4, lr}
  36              		.cfi_def_cfa_offset 8
  37              		.cfi_offset 4, -8
  38              		.cfi_offset 14, -4
  39 0002 0446     		mov	r4, r0
  15:Core/Src/nyan_keys.c ****     HAL_GPIO_WritePin(Keys_Slave_Select_GPIO_Port, Keys_Slave_Select_Pin, GPIO_PIN_SET);
  40              		.loc 1 15 5 is_stmt 1 view .LVU2
  41 0004 0122     		movs	r2, #1
  42 0006 1146     		mov	r1, r2
  43 0008 0348     		ldr	r0, .L3
ARM GAS  /tmp/ccPbOnfM.s 			page 2


  44              	.LVL1:
  45              		.loc 1 15 5 is_stmt 0 view .LVU3
  46 000a FFF7FEFF 		bl	HAL_GPIO_WritePin
  47              	.LVL2:
  16:Core/Src/nyan_keys.c ****     keys->key_read_inflight = false;
  48              		.loc 1 16 5 is_stmt 1 view .LVU4
  49              		.loc 1 16 29 is_stmt 0 view .LVU5
  50 000e 0023     		movs	r3, #0
  51 0010 2370     		strb	r3, [r4]
  17:Core/Src/nyan_keys.c ****     return NYAN_KEYS_SUCCESS;
  52              		.loc 1 17 5 is_stmt 1 view .LVU6
  18:Core/Src/nyan_keys.c **** }
  53              		.loc 1 18 1 is_stmt 0 view .LVU7
  54 0012 0120     		movs	r0, #1
  55 0014 10BD     		pop	{r4, pc}
  56              	.LVL3:
  57              	.L4:
  58              		.loc 1 18 1 view .LVU8
  59 0016 00BF     		.align	2
  60              	.L3:
  61 0018 00080240 		.word	1073874944
  62              		.cfi_endproc
  63              	.LFE141:
  65              		.section	.text.NyanGetKeys,"ax",%progbits
  66              		.align	1
  67              		.global	NyanGetKeys
  68              		.syntax unified
  69              		.thumb
  70              		.thumb_func
  72              	NyanGetKeys:
  73              	.LVL4:
  74              	.LFB142:
  19:Core/Src/nyan_keys.c **** 
  20:Core/Src/nyan_keys.c **** NyanKeysReturn NyanGetKeys(NyanKeys *keys)
  21:Core/Src/nyan_keys.c **** {
  75              		.loc 1 21 1 is_stmt 1 view -0
  76              		.cfi_startproc
  77              		@ args = 0, pretend = 0, frame = 0
  78              		@ frame_needed = 0, uses_anonymous_args = 0
  22:Core/Src/nyan_keys.c ****     //Send out the DMA and we will get the results back from the FPGA 
  23:Core/Src/nyan_keys.c ****     if(!keys->key_read_inflight) {
  79              		.loc 1 23 5 view .LVU10
  80              		.loc 1 23 13 is_stmt 0 view .LVU11
  81 0000 0378     		ldrb	r3, [r0]	@ zero_extendqisi2
  82              		.loc 1 23 7 view .LVU12
  83 0002 0BB1     		cbz	r3, .L11
  24:Core/Src/nyan_keys.c ****         HAL_GPIO_WritePin(Keys_Slave_Select_GPIO_Port, Keys_Slave_Select_Pin, GPIO_PIN_RESET);
  25:Core/Src/nyan_keys.c ****         HAL_SPI_TransmitReceive_DMA(&hspi2, &keys_registers_addresses[0], &keys->key_states[0], siz
  26:Core/Src/nyan_keys.c ****         keys->key_read_inflight = true;
  27:Core/Src/nyan_keys.c ****     }
  28:Core/Src/nyan_keys.c **** 
  29:Core/Src/nyan_keys.c ****     return NYAN_KEYS_SUCCESS;
  84              		.loc 1 29 5 is_stmt 1 view .LVU13
  30:Core/Src/nyan_keys.c **** }...
  85              		.loc 1 30 1 is_stmt 0 view .LVU14
  86 0004 0120     		movs	r0, #1
  87              	.LVL5:
ARM GAS  /tmp/ccPbOnfM.s 			page 3


  88              		.loc 1 30 1 view .LVU15
  89 0006 7047     		bx	lr
  90              	.LVL6:
  91              	.L11:
  21:Core/Src/nyan_keys.c **** {
  92              		.loc 1 21 1 view .LVU16
  93 0008 10B5     		push	{r4, lr}
  94              		.cfi_def_cfa_offset 8
  95              		.cfi_offset 4, -8
  96              		.cfi_offset 14, -4
  97 000a 0446     		mov	r4, r0
  24:Core/Src/nyan_keys.c ****         HAL_GPIO_WritePin(Keys_Slave_Select_GPIO_Port, Keys_Slave_Select_Pin, GPIO_PIN_RESET);
  98              		.loc 1 24 9 is_stmt 1 view .LVU17
  99 000c 0022     		movs	r2, #0
 100 000e 0121     		movs	r1, #1
 101 0010 0648     		ldr	r0, .L12
 102              	.LVL7:
  24:Core/Src/nyan_keys.c ****         HAL_GPIO_WritePin(Keys_Slave_Select_GPIO_Port, Keys_Slave_Select_Pin, GPIO_PIN_RESET);
 103              		.loc 1 24 9 is_stmt 0 view .LVU18
 104 0012 FFF7FEFF 		bl	HAL_GPIO_WritePin
 105              	.LVL8:
  25:Core/Src/nyan_keys.c ****         HAL_SPI_TransmitReceive_DMA(&hspi2, &keys_registers_addresses[0], &keys->key_states[0], siz
 106              		.loc 1 25 9 is_stmt 1 view .LVU19
 107 0016 0923     		movs	r3, #9
 108 0018 621C     		adds	r2, r4, #1
 109 001a 0549     		ldr	r1, .L12+4
 110 001c 0548     		ldr	r0, .L12+8
 111 001e FFF7FEFF 		bl	HAL_SPI_TransmitReceive_DMA
 112              	.LVL9:
  26:Core/Src/nyan_keys.c ****         keys->key_read_inflight = true;
 113              		.loc 1 26 9 view .LVU20
  26:Core/Src/nyan_keys.c ****         keys->key_read_inflight = true;
 114              		.loc 1 26 33 is_stmt 0 view .LVU21
 115 0022 0123     		movs	r3, #1
 116 0024 2370     		strb	r3, [r4]
  29:Core/Src/nyan_keys.c ****     return NYAN_KEYS_SUCCESS;
 117              		.loc 1 29 5 is_stmt 1 view .LVU22
 118              		.loc 1 30 1 is_stmt 0 view .LVU23
 119 0026 0120     		movs	r0, #1
 120 0028 10BD     		pop	{r4, pc}
 121              	.LVL10:
 122              	.L13:
 123              		.loc 1 30 1 view .LVU24
 124 002a 00BF     		.align	2
 125              	.L12:
 126 002c 00080240 		.word	1073874944
 127 0030 00000000 		.word	keys_registers_addresses
 128 0034 00000000 		.word	hspi2
 129              		.cfi_endproc
 130              	.LFE142:
 132              		.section	.data.keys_registers_addresses,"aw"
 133              		.align	2
 136              	keys_registers_addresses:
 137 0000 01020304 		.ascii	"\001\002\003\004\005\006\007\000\000"
 137      05060700 
 137      00
 138              		.text
ARM GAS  /tmp/ccPbOnfM.s 			page 4


 139              	.Letext0:
 140              		.file 2 "/home/qrsnap/.config/Code/User/globalStorage/bmd.stm32-for-vscode/@xpack-dev-tools/arm-no
 141              		.file 3 "/home/qrsnap/.config/Code/User/globalStorage/bmd.stm32-for-vscode/@xpack-dev-tools/arm-no
 142              		.file 4 "Drivers/CMSIS/Device/ST/STM32F7xx/Include/stm32f723xx.h"
 143              		.file 5 "Drivers/STM32F7xx_HAL_Driver/Inc/stm32f7xx_hal_def.h"
 144              		.file 6 "Drivers/STM32F7xx_HAL_Driver/Inc/stm32f7xx_hal_gpio.h"
 145              		.file 7 "Drivers/STM32F7xx_HAL_Driver/Inc/stm32f7xx_hal_dma.h"
 146              		.file 8 "Drivers/STM32F7xx_HAL_Driver/Inc/stm32f7xx_hal_spi.h"
 147              		.file 9 "Core/Inc/nyan_keys.h"
 148              		.file 10 "Core/Inc/spi.h"
ARM GAS  /tmp/ccPbOnfM.s 			page 5

