ARM GAS  /tmp/ccAxQTa8.s 			page 1


   1              		.cpu cortex-m7
   2              		.arch armv7e-m
   3              		.fpu fpv5-sp-d16
   4              		.eabi_attribute 27, 1
   5              		.eabi_attribute 28, 1
   6              		.eabi_attribute 20, 1
   7              		.eabi_attribute 21, 1
   8              		.eabi_attribute 23, 3
   9              		.eabi_attribute 24, 1
  10              		.eabi_attribute 25, 1
  11              		.eabi_attribute 26, 1
  12              		.eabi_attribute 30, 1
  13              		.eabi_attribute 34, 1
  14              		.eabi_attribute 18, 4
  15              		.file	"nyan_keys.c"
  16              		.text
  17              	.Ltext0:
  18              		.cfi_sections	.debug_frame
  19              		.section	.text.NyanKeysInit,"ax",%progbits
  20              		.align	1
  21              		.global	NyanKeysInit
  22              		.syntax unified
  23              		.thumb
  24              		.thumb_func
  26              	NyanKeysInit:
  27              	.LVL0:
  28              	.LFB141:
  29              		.file 1 "Core/Src/nyan_keys.c"
   1:Core/Src/nyan_keys.c **** /**
   2:Core/Src/nyan_keys.c ****  * NyanKeys FPGA IP Driver (SPI2)
   3:Core/Src/nyan_keys.c ****  * @author Reese Russell
   4:Core/Src/nyan_keys.c ****  */
   5:Core/Src/nyan_keys.c **** 
   6:Core/Src/nyan_keys.c **** #include <stdlib.h>
   7:Core/Src/nyan_keys.c **** 
   8:Core/Src/nyan_keys.c **** #include "spi.h"
   9:Core/Src/nyan_keys.c **** #include "nyan_keys.h"
  10:Core/Src/nyan_keys.c **** 
  11:Core/Src/nyan_keys.c **** static uint8_t keys_registers_addresses[] = {0x01, 0x02, 0x03, 0x04, 0x05, 0x06, 0x07, 0x00, 0x00};
  12:Core/Src/nyan_keys.c **** 
  13:Core/Src/nyan_keys.c **** NyanKeysReturn NyanKeysInit(NyanKeys *keys)
  14:Core/Src/nyan_keys.c **** {
  30              		.loc 1 14 1 view -0
  31              		.cfi_startproc
  32              		@ args = 0, pretend = 0, frame = 0
  33              		@ frame_needed = 0, uses_anonymous_args = 0
  34              		.loc 1 14 1 is_stmt 0 view .LVU1
  35 0000 10B5     		push	{r4, lr}
  36              	.LCFI0:
  37              		.cfi_def_cfa_offset 8
  38              		.cfi_offset 4, -8
  39              		.cfi_offset 14, -4
  40 0002 0446     		mov	r4, r0
  15:Core/Src/nyan_keys.c ****     HAL_GPIO_WritePin(Keys_Slave_Select_GPIO_Port, Keys_Slave_Select_Pin, GPIO_PIN_SET);
  41              		.loc 1 15 5 is_stmt 1 view .LVU2
  42 0004 0122     		movs	r2, #1
  43 0006 1146     		mov	r1, r2
ARM GAS  /tmp/ccAxQTa8.s 			page 2


  44 0008 0348     		ldr	r0, .L3
  45              	.LVL1:
  46              		.loc 1 15 5 is_stmt 0 view .LVU3
  47 000a FFF7FEFF 		bl	HAL_GPIO_WritePin
  48              	.LVL2:
  16:Core/Src/nyan_keys.c ****     keys->key_read_inflight = false;
  49              		.loc 1 16 5 is_stmt 1 view .LVU4
  50              		.loc 1 16 29 is_stmt 0 view .LVU5
  51 000e 0023     		movs	r3, #0
  52 0010 2370     		strb	r3, [r4]
  17:Core/Src/nyan_keys.c ****     return NYAN_KEYS_SUCCESS;
  53              		.loc 1 17 5 is_stmt 1 view .LVU6
  18:Core/Src/nyan_keys.c **** }
  54              		.loc 1 18 1 is_stmt 0 view .LVU7
  55 0012 0120     		movs	r0, #1
  56 0014 10BD     		pop	{r4, pc}
  57              	.LVL3:
  58              	.L4:
  59              		.loc 1 18 1 view .LVU8
  60 0016 00BF     		.align	2
  61              	.L3:
  62 0018 00080240 		.word	1073874944
  63              		.cfi_endproc
  64              	.LFE141:
  66              		.section	.text.NyanGetKeys,"ax",%progbits
  67              		.align	1
  68              		.global	NyanGetKeys
  69              		.syntax unified
  70              		.thumb
  71              		.thumb_func
  73              	NyanGetKeys:
  74              	.LVL4:
  75              	.LFB142:
  19:Core/Src/nyan_keys.c **** 
  20:Core/Src/nyan_keys.c **** NyanKeysReturn NyanGetKeys(NyanKeys *keys)
  21:Core/Src/nyan_keys.c **** {
  76              		.loc 1 21 1 is_stmt 1 view -0
  77              		.cfi_startproc
  78              		@ args = 0, pretend = 0, frame = 0
  79              		@ frame_needed = 0, uses_anonymous_args = 0
  22:Core/Src/nyan_keys.c ****     //Send out the DMA and we will get the results back from the FPGA 
  23:Core/Src/nyan_keys.c ****     if(!keys->key_read_inflight) {
  80              		.loc 1 23 5 view .LVU10
  81              		.loc 1 23 13 is_stmt 0 view .LVU11
  82 0000 0378     		ldrb	r3, [r0]	@ zero_extendqisi2
  83              		.loc 1 23 7 view .LVU12
  84 0002 0BB1     		cbz	r3, .L11
  24:Core/Src/nyan_keys.c ****         HAL_GPIO_WritePin(Keys_Slave_Select_GPIO_Port, Keys_Slave_Select_Pin, GPIO_PIN_RESET);
  25:Core/Src/nyan_keys.c ****         HAL_SPI_TransmitReceive_DMA(&hspi2, &keys_registers_addresses[0], &keys->key_states[0], siz
  26:Core/Src/nyan_keys.c ****         keys->key_read_inflight = true;
  27:Core/Src/nyan_keys.c ****     }
  28:Core/Src/nyan_keys.c **** 
  29:Core/Src/nyan_keys.c ****     return NYAN_KEYS_SUCCESS;
  85              		.loc 1 29 5 is_stmt 1 view .LVU13
  30:Core/Src/nyan_keys.c **** }...
  86              		.loc 1 30 1 is_stmt 0 view .LVU14
  87 0004 0120     		movs	r0, #1
ARM GAS  /tmp/ccAxQTa8.s 			page 3


  88              	.LVL5:
  89              		.loc 1 30 1 view .LVU15
  90 0006 7047     		bx	lr
  91              	.LVL6:
  92              	.L11:
  21:Core/Src/nyan_keys.c **** {
  93              		.loc 1 21 1 view .LVU16
  94 0008 10B5     		push	{r4, lr}
  95              	.LCFI1:
  96              		.cfi_def_cfa_offset 8
  97              		.cfi_offset 4, -8
  98              		.cfi_offset 14, -4
  99 000a 0446     		mov	r4, r0
  24:Core/Src/nyan_keys.c ****         HAL_GPIO_WritePin(Keys_Slave_Select_GPIO_Port, Keys_Slave_Select_Pin, GPIO_PIN_RESET);
 100              		.loc 1 24 9 is_stmt 1 view .LVU17
 101 000c 0022     		movs	r2, #0
 102 000e 0121     		movs	r1, #1
 103 0010 0648     		ldr	r0, .L12
 104              	.LVL7:
  24:Core/Src/nyan_keys.c ****         HAL_GPIO_WritePin(Keys_Slave_Select_GPIO_Port, Keys_Slave_Select_Pin, GPIO_PIN_RESET);
 105              		.loc 1 24 9 is_stmt 0 view .LVU18
 106 0012 FFF7FEFF 		bl	HAL_GPIO_WritePin
 107              	.LVL8:
  25:Core/Src/nyan_keys.c ****         HAL_SPI_TransmitReceive_DMA(&hspi2, &keys_registers_addresses[0], &keys->key_states[0], siz
 108              		.loc 1 25 9 is_stmt 1 view .LVU19
 109 0016 0923     		movs	r3, #9
 110 0018 621C     		adds	r2, r4, #1
 111 001a 0549     		ldr	r1, .L12+4
 112 001c 0548     		ldr	r0, .L12+8
 113 001e FFF7FEFF 		bl	HAL_SPI_TransmitReceive_DMA
 114              	.LVL9:
  26:Core/Src/nyan_keys.c ****         keys->key_read_inflight = true;
 115              		.loc 1 26 9 view .LVU20
  26:Core/Src/nyan_keys.c ****         keys->key_read_inflight = true;
 116              		.loc 1 26 33 is_stmt 0 view .LVU21
 117 0022 0123     		movs	r3, #1
 118 0024 2370     		strb	r3, [r4]
  29:Core/Src/nyan_keys.c ****     return NYAN_KEYS_SUCCESS;
 119              		.loc 1 29 5 is_stmt 1 view .LVU22
 120              		.loc 1 30 1 is_stmt 0 view .LVU23
 121 0026 0120     		movs	r0, #1
 122 0028 10BD     		pop	{r4, pc}
 123              	.LVL10:
 124              	.L13:
 125              		.loc 1 30 1 view .LVU24
 126 002a 00BF     		.align	2
 127              	.L12:
 128 002c 00080240 		.word	1073874944
 129 0030 00000000 		.word	.LANCHOR0
 130 0034 00000000 		.word	hspi2
 131              		.cfi_endproc
 132              	.LFE142:
 134              		.section	.data.keys_registers_addresses,"aw"
 135              		.align	2
 136              		.set	.LANCHOR0,. + 0
 139              	keys_registers_addresses:
 140 0000 01020304 		.ascii	"\001\002\003\004\005\006\007\000\000"
ARM GAS  /tmp/ccAxQTa8.s 			page 4


 140      05060700 
 140      00
 141              		.text
 142              	.Letext0:
 143              		.file 2 "/opt/gcc-arm-none-eabi-10.3-2021.10/arm-none-eabi/include/machine/_default_types.h"
 144              		.file 3 "/opt/gcc-arm-none-eabi-10.3-2021.10/arm-none-eabi/include/sys/_stdint.h"
 145              		.file 4 "Drivers/CMSIS/Device/ST/STM32F7xx/Include/stm32f723xx.h"
 146              		.file 5 "Drivers/STM32F7xx_HAL_Driver/Inc/stm32f7xx_hal_def.h"
 147              		.file 6 "Drivers/STM32F7xx_HAL_Driver/Inc/stm32f7xx_hal_gpio.h"
 148              		.file 7 "Drivers/STM32F7xx_HAL_Driver/Inc/stm32f7xx_hal_dma.h"
 149              		.file 8 "Drivers/STM32F7xx_HAL_Driver/Inc/stm32f7xx_hal_spi.h"
 150              		.file 9 "Core/Inc/nyan_keys.h"
 151              		.file 10 "Core/Inc/spi.h"
ARM GAS  /tmp/ccAxQTa8.s 			page 5


DEFINED SYMBOLS
                            *ABS*:0000000000000000 nyan_keys.c
     /tmp/ccAxQTa8.s:20     .text.NyanKeysInit:0000000000000000 $t
     /tmp/ccAxQTa8.s:26     .text.NyanKeysInit:0000000000000000 NyanKeysInit
     /tmp/ccAxQTa8.s:62     .text.NyanKeysInit:0000000000000018 $d
     /tmp/ccAxQTa8.s:67     .text.NyanGetKeys:0000000000000000 $t
     /tmp/ccAxQTa8.s:73     .text.NyanGetKeys:0000000000000000 NyanGetKeys
     /tmp/ccAxQTa8.s:128    .text.NyanGetKeys:000000000000002c $d
     /tmp/ccAxQTa8.s:135    .data.keys_registers_addresses:0000000000000000 $d
     /tmp/ccAxQTa8.s:139    .data.keys_registers_addresses:0000000000000000 keys_registers_addresses

UNDEFINED SYMBOLS
HAL_GPIO_WritePin
HAL_SPI_TransmitReceive_DMA
hspi2
