ARM GAS  /tmp/ccwqhU8A.s 			page 1


   1              		.cpu cortex-m7
   2              		.arch armv7e-m
   3              		.fpu fpv5-sp-d16
   4              		.eabi_attribute 27, 1
   5              		.eabi_attribute 28, 1
   6              		.eabi_attribute 20, 1
   7              		.eabi_attribute 21, 1
   8              		.eabi_attribute 23, 3
   9              		.eabi_attribute 24, 1
  10              		.eabi_attribute 25, 1
  11              		.eabi_attribute 26, 1
  12              		.eabi_attribute 30, 1
  13              		.eabi_attribute 34, 1
  14              		.eabi_attribute 18, 4
  15              		.file	"rng.c"
  16              		.text
  17              	.Ltext0:
  18              		.cfi_sections	.debug_frame
  19              		.section	.text.MX_RNG_Init,"ax",%progbits
  20              		.align	1
  21              		.global	MX_RNG_Init
  22              		.syntax unified
  23              		.thumb
  24              		.thumb_func
  26              	MX_RNG_Init:
  27              	.LFB141:
  28              		.file 1 "Core/Src/rng.c"
   1:Core/Src/rng.c **** /* USER CODE BEGIN Header */
   2:Core/Src/rng.c **** /**
   3:Core/Src/rng.c ****   ******************************************************************************
   4:Core/Src/rng.c ****   * @file    rng.c
   5:Core/Src/rng.c ****   * @brief   This file provides code for the configuration
   6:Core/Src/rng.c ****   *          of the RNG instances.
   7:Core/Src/rng.c ****   ******************************************************************************
   8:Core/Src/rng.c ****   * @attention
   9:Core/Src/rng.c ****   *
  10:Core/Src/rng.c ****   * Copyright (c) 2023 STMicroelectronics.
  11:Core/Src/rng.c ****   * All rights reserved.
  12:Core/Src/rng.c ****   *
  13:Core/Src/rng.c ****   * This software is licensed under terms that can be found in the LICENSE file
  14:Core/Src/rng.c ****   * in the root directory of this software component.
  15:Core/Src/rng.c ****   * If no LICENSE file comes with this software, it is provided AS-IS.
  16:Core/Src/rng.c ****   *
  17:Core/Src/rng.c ****   ******************************************************************************
  18:Core/Src/rng.c ****   */
  19:Core/Src/rng.c **** /* USER CODE END Header */
  20:Core/Src/rng.c **** /* Includes ------------------------------------------------------------------*/
  21:Core/Src/rng.c **** #include "rng.h"
  22:Core/Src/rng.c **** 
  23:Core/Src/rng.c **** /* USER CODE BEGIN 0 */
  24:Core/Src/rng.c **** 
  25:Core/Src/rng.c **** /* USER CODE END 0 */
  26:Core/Src/rng.c **** 
  27:Core/Src/rng.c **** RNG_HandleTypeDef hrng;
  28:Core/Src/rng.c **** 
  29:Core/Src/rng.c **** /* RNG init function */
  30:Core/Src/rng.c **** void MX_RNG_Init(void)
ARM GAS  /tmp/ccwqhU8A.s 			page 2


  31:Core/Src/rng.c **** {
  29              		.loc 1 31 1 view -0
  30              		.cfi_startproc
  31              		@ args = 0, pretend = 0, frame = 0
  32              		@ frame_needed = 0, uses_anonymous_args = 0
  33 0000 08B5     		push	{r3, lr}
  34              	.LCFI0:
  35              		.cfi_def_cfa_offset 8
  36              		.cfi_offset 3, -8
  37              		.cfi_offset 14, -4
  32:Core/Src/rng.c **** 
  33:Core/Src/rng.c ****   /* USER CODE BEGIN RNG_Init 0 */
  34:Core/Src/rng.c **** 
  35:Core/Src/rng.c ****   /* USER CODE END RNG_Init 0 */
  36:Core/Src/rng.c **** 
  37:Core/Src/rng.c ****   /* USER CODE BEGIN RNG_Init 1 */
  38:Core/Src/rng.c **** 
  39:Core/Src/rng.c ****   /* USER CODE END RNG_Init 1 */
  40:Core/Src/rng.c ****   hrng.Instance = RNG;
  38              		.loc 1 40 3 view .LVU1
  39              		.loc 1 40 17 is_stmt 0 view .LVU2
  40 0002 0548     		ldr	r0, .L5
  41 0004 054B     		ldr	r3, .L5+4
  42 0006 0360     		str	r3, [r0]
  41:Core/Src/rng.c ****   if (HAL_RNG_Init(&hrng) != HAL_OK)
  43              		.loc 1 41 3 is_stmt 1 view .LVU3
  44              		.loc 1 41 7 is_stmt 0 view .LVU4
  45 0008 FFF7FEFF 		bl	HAL_RNG_Init
  46              	.LVL0:
  47              		.loc 1 41 6 view .LVU5
  48 000c 00B9     		cbnz	r0, .L4
  49              	.L1:
  42:Core/Src/rng.c ****   {
  43:Core/Src/rng.c ****     Error_Handler();
  44:Core/Src/rng.c ****   }
  45:Core/Src/rng.c ****   /* USER CODE BEGIN RNG_Init 2 */
  46:Core/Src/rng.c **** 
  47:Core/Src/rng.c ****   /* USER CODE END RNG_Init 2 */
  48:Core/Src/rng.c **** 
  49:Core/Src/rng.c **** }
  50              		.loc 1 49 1 view .LVU6
  51 000e 08BD     		pop	{r3, pc}
  52              	.L4:
  43:Core/Src/rng.c ****   }
  53              		.loc 1 43 5 is_stmt 1 view .LVU7
  54 0010 FFF7FEFF 		bl	Error_Handler
  55              	.LVL1:
  56              		.loc 1 49 1 is_stmt 0 view .LVU8
  57 0014 FBE7     		b	.L1
  58              	.L6:
  59 0016 00BF     		.align	2
  60              	.L5:
  61 0018 00000000 		.word	.LANCHOR0
  62 001c 00080650 		.word	1342572544
  63              		.cfi_endproc
  64              	.LFE141:
  66              		.section	.text.HAL_RNG_MspInit,"ax",%progbits
ARM GAS  /tmp/ccwqhU8A.s 			page 3


  67              		.align	1
  68              		.global	HAL_RNG_MspInit
  69              		.syntax unified
  70              		.thumb
  71              		.thumb_func
  73              	HAL_RNG_MspInit:
  74              	.LVL2:
  75              	.LFB142:
  50:Core/Src/rng.c **** 
  51:Core/Src/rng.c **** void HAL_RNG_MspInit(RNG_HandleTypeDef* rngHandle)
  52:Core/Src/rng.c **** {
  76              		.loc 1 52 1 is_stmt 1 view -0
  77              		.cfi_startproc
  78              		@ args = 0, pretend = 0, frame = 136
  79              		@ frame_needed = 0, uses_anonymous_args = 0
  80              		.loc 1 52 1 is_stmt 0 view .LVU10
  81 0000 10B5     		push	{r4, lr}
  82              	.LCFI1:
  83              		.cfi_def_cfa_offset 8
  84              		.cfi_offset 4, -8
  85              		.cfi_offset 14, -4
  86 0002 A2B0     		sub	sp, sp, #136
  87              	.LCFI2:
  88              		.cfi_def_cfa_offset 144
  89 0004 0446     		mov	r4, r0
  53:Core/Src/rng.c **** 
  54:Core/Src/rng.c ****   RCC_PeriphCLKInitTypeDef PeriphClkInitStruct = {0};
  90              		.loc 1 54 3 is_stmt 1 view .LVU11
  91              		.loc 1 54 28 is_stmt 0 view .LVU12
  92 0006 8022     		movs	r2, #128
  93 0008 0021     		movs	r1, #0
  94 000a 02A8     		add	r0, sp, #8
  95              	.LVL3:
  96              		.loc 1 54 28 view .LVU13
  97 000c FFF7FEFF 		bl	memset
  98              	.LVL4:
  55:Core/Src/rng.c ****   if(rngHandle->Instance==RNG)
  99              		.loc 1 55 3 is_stmt 1 view .LVU14
 100              		.loc 1 55 15 is_stmt 0 view .LVU15
 101 0010 2268     		ldr	r2, [r4]
 102              		.loc 1 55 5 view .LVU16
 103 0012 0D4B     		ldr	r3, .L13
 104 0014 9A42     		cmp	r2, r3
 105 0016 01D0     		beq	.L11
 106              	.L7:
  56:Core/Src/rng.c ****   {
  57:Core/Src/rng.c ****   /* USER CODE BEGIN RNG_MspInit 0 */
  58:Core/Src/rng.c **** 
  59:Core/Src/rng.c ****   /* USER CODE END RNG_MspInit 0 */
  60:Core/Src/rng.c **** 
  61:Core/Src/rng.c ****   /** Initializes the peripherals clock
  62:Core/Src/rng.c ****   */
  63:Core/Src/rng.c ****     PeriphClkInitStruct.PeriphClockSelection = RCC_PERIPHCLK_CLK48;
  64:Core/Src/rng.c ****     PeriphClkInitStruct.Clk48ClockSelection = RCC_CLK48SOURCE_PLL;
  65:Core/Src/rng.c ****     if (HAL_RCCEx_PeriphCLKConfig(&PeriphClkInitStruct) != HAL_OK)
  66:Core/Src/rng.c ****     {
  67:Core/Src/rng.c ****       Error_Handler();
ARM GAS  /tmp/ccwqhU8A.s 			page 4


  68:Core/Src/rng.c ****     }
  69:Core/Src/rng.c **** 
  70:Core/Src/rng.c ****     /* RNG clock enable */
  71:Core/Src/rng.c ****     __HAL_RCC_RNG_CLK_ENABLE();
  72:Core/Src/rng.c ****   /* USER CODE BEGIN RNG_MspInit 1 */
  73:Core/Src/rng.c **** 
  74:Core/Src/rng.c ****   /* USER CODE END RNG_MspInit 1 */
  75:Core/Src/rng.c ****   }
  76:Core/Src/rng.c **** }
 107              		.loc 1 76 1 view .LVU17
 108 0018 22B0     		add	sp, sp, #136
 109              	.LCFI3:
 110              		.cfi_remember_state
 111              		.cfi_def_cfa_offset 8
 112              		@ sp needed
 113 001a 10BD     		pop	{r4, pc}
 114              	.LVL5:
 115              	.L11:
 116              	.LCFI4:
 117              		.cfi_restore_state
  63:Core/Src/rng.c ****     PeriphClkInitStruct.Clk48ClockSelection = RCC_CLK48SOURCE_PLL;
 118              		.loc 1 63 5 is_stmt 1 view .LVU18
  63:Core/Src/rng.c ****     PeriphClkInitStruct.Clk48ClockSelection = RCC_CLK48SOURCE_PLL;
 119              		.loc 1 63 46 is_stmt 0 view .LVU19
 120 001c 4FF40013 		mov	r3, #2097152
 121 0020 0293     		str	r3, [sp, #8]
  64:Core/Src/rng.c ****     if (HAL_RCCEx_PeriphCLKConfig(&PeriphClkInitStruct) != HAL_OK)
 122              		.loc 1 64 5 is_stmt 1 view .LVU20
  65:Core/Src/rng.c ****     {
 123              		.loc 1 65 5 view .LVU21
  65:Core/Src/rng.c ****     {
 124              		.loc 1 65 9 is_stmt 0 view .LVU22
 125 0022 02A8     		add	r0, sp, #8
 126 0024 FFF7FEFF 		bl	HAL_RCCEx_PeriphCLKConfig
 127              	.LVL6:
  65:Core/Src/rng.c ****     {
 128              		.loc 1 65 8 view .LVU23
 129 0028 50B9     		cbnz	r0, .L12
 130              	.L9:
  71:Core/Src/rng.c ****   /* USER CODE BEGIN RNG_MspInit 1 */
 131              		.loc 1 71 5 is_stmt 1 view .LVU24
 132              	.LBB2:
  71:Core/Src/rng.c ****   /* USER CODE BEGIN RNG_MspInit 1 */
 133              		.loc 1 71 5 view .LVU25
  71:Core/Src/rng.c ****   /* USER CODE BEGIN RNG_MspInit 1 */
 134              		.loc 1 71 5 view .LVU26
 135 002a 084B     		ldr	r3, .L13+4
 136 002c 5A6B     		ldr	r2, [r3, #52]
 137 002e 42F04002 		orr	r2, r2, #64
 138 0032 5A63     		str	r2, [r3, #52]
  71:Core/Src/rng.c ****   /* USER CODE BEGIN RNG_MspInit 1 */
 139              		.loc 1 71 5 view .LVU27
 140 0034 5B6B     		ldr	r3, [r3, #52]
 141 0036 03F04003 		and	r3, r3, #64
 142 003a 0193     		str	r3, [sp, #4]
  71:Core/Src/rng.c ****   /* USER CODE BEGIN RNG_MspInit 1 */
 143              		.loc 1 71 5 view .LVU28
ARM GAS  /tmp/ccwqhU8A.s 			page 5


 144 003c 019B     		ldr	r3, [sp, #4]
 145              	.LBE2:
  71:Core/Src/rng.c ****   /* USER CODE BEGIN RNG_MspInit 1 */
 146              		.loc 1 71 5 view .LVU29
 147              		.loc 1 76 1 is_stmt 0 view .LVU30
 148 003e EBE7     		b	.L7
 149              	.L12:
  67:Core/Src/rng.c ****     }
 150              		.loc 1 67 7 is_stmt 1 view .LVU31
 151 0040 FFF7FEFF 		bl	Error_Handler
 152              	.LVL7:
 153 0044 F1E7     		b	.L9
 154              	.L14:
 155 0046 00BF     		.align	2
 156              	.L13:
 157 0048 00080650 		.word	1342572544
 158 004c 00380240 		.word	1073887232
 159              		.cfi_endproc
 160              	.LFE142:
 162              		.section	.text.HAL_RNG_MspDeInit,"ax",%progbits
 163              		.align	1
 164              		.global	HAL_RNG_MspDeInit
 165              		.syntax unified
 166              		.thumb
 167              		.thumb_func
 169              	HAL_RNG_MspDeInit:
 170              	.LVL8:
 171              	.LFB143:
  77:Core/Src/rng.c **** 
  78:Core/Src/rng.c **** void HAL_RNG_MspDeInit(RNG_HandleTypeDef* rngHandle)
  79:Core/Src/rng.c **** {
 172              		.loc 1 79 1 view -0
 173              		.cfi_startproc
 174              		@ args = 0, pretend = 0, frame = 0
 175              		@ frame_needed = 0, uses_anonymous_args = 0
 176              		@ link register save eliminated.
  80:Core/Src/rng.c **** 
  81:Core/Src/rng.c ****   if(rngHandle->Instance==RNG)
 177              		.loc 1 81 3 view .LVU33
 178              		.loc 1 81 15 is_stmt 0 view .LVU34
 179 0000 0268     		ldr	r2, [r0]
 180              		.loc 1 81 5 view .LVU35
 181 0002 054B     		ldr	r3, .L18
 182 0004 9A42     		cmp	r2, r3
 183 0006 00D0     		beq	.L17
 184              	.L15:
  82:Core/Src/rng.c ****   {
  83:Core/Src/rng.c ****   /* USER CODE BEGIN RNG_MspDeInit 0 */
  84:Core/Src/rng.c **** 
  85:Core/Src/rng.c ****   /* USER CODE END RNG_MspDeInit 0 */
  86:Core/Src/rng.c ****     /* Peripheral clock disable */
  87:Core/Src/rng.c ****     __HAL_RCC_RNG_CLK_DISABLE();
  88:Core/Src/rng.c ****   /* USER CODE BEGIN RNG_MspDeInit 1 */
  89:Core/Src/rng.c **** 
  90:Core/Src/rng.c ****   /* USER CODE END RNG_MspDeInit 1 */
  91:Core/Src/rng.c ****   }
  92:Core/Src/rng.c **** }
ARM GAS  /tmp/ccwqhU8A.s 			page 6


 185              		.loc 1 92 1 view .LVU36
 186 0008 7047     		bx	lr
 187              	.L17:
  87:Core/Src/rng.c ****   /* USER CODE BEGIN RNG_MspDeInit 1 */
 188              		.loc 1 87 5 is_stmt 1 view .LVU37
 189 000a 044A     		ldr	r2, .L18+4
 190 000c 536B     		ldr	r3, [r2, #52]
 191 000e 23F04003 		bic	r3, r3, #64
 192 0012 5363     		str	r3, [r2, #52]
 193              		.loc 1 92 1 is_stmt 0 view .LVU38
 194 0014 F8E7     		b	.L15
 195              	.L19:
 196 0016 00BF     		.align	2
 197              	.L18:
 198 0018 00080650 		.word	1342572544
 199 001c 00380240 		.word	1073887232
 200              		.cfi_endproc
 201              	.LFE143:
 203              		.global	hrng
 204              		.section	.bss.hrng,"aw",%nobits
 205              		.align	2
 206              		.set	.LANCHOR0,. + 0
 209              	hrng:
 210 0000 00000000 		.space	16
 210      00000000 
 210      00000000 
 210      00000000 
 211              		.text
 212              	.Letext0:
 213              		.file 2 "/opt/gcc-arm-none-eabi-10.3-2021.10/arm-none-eabi/include/machine/_default_types.h"
 214              		.file 3 "/opt/gcc-arm-none-eabi-10.3-2021.10/arm-none-eabi/include/sys/_stdint.h"
 215              		.file 4 "Drivers/CMSIS/Device/ST/STM32F7xx/Include/stm32f723xx.h"
 216              		.file 5 "Drivers/STM32F7xx_HAL_Driver/Inc/stm32f7xx_hal_def.h"
 217              		.file 6 "Drivers/STM32F7xx_HAL_Driver/Inc/stm32f7xx_hal_rcc_ex.h"
 218              		.file 7 "Drivers/STM32F7xx_HAL_Driver/Inc/stm32f7xx_hal_rng.h"
 219              		.file 8 "Core/Inc/main.h"
 220              		.file 9 "Core/Inc/rng.h"
 221              		.file 10 "<built-in>"
ARM GAS  /tmp/ccwqhU8A.s 			page 7


DEFINED SYMBOLS
                            *ABS*:0000000000000000 rng.c
     /tmp/ccwqhU8A.s:20     .text.MX_RNG_Init:0000000000000000 $t
     /tmp/ccwqhU8A.s:26     .text.MX_RNG_Init:0000000000000000 MX_RNG_Init
     /tmp/ccwqhU8A.s:61     .text.MX_RNG_Init:0000000000000018 $d
     /tmp/ccwqhU8A.s:67     .text.HAL_RNG_MspInit:0000000000000000 $t
     /tmp/ccwqhU8A.s:73     .text.HAL_RNG_MspInit:0000000000000000 HAL_RNG_MspInit
     /tmp/ccwqhU8A.s:157    .text.HAL_RNG_MspInit:0000000000000048 $d
     /tmp/ccwqhU8A.s:163    .text.HAL_RNG_MspDeInit:0000000000000000 $t
     /tmp/ccwqhU8A.s:169    .text.HAL_RNG_MspDeInit:0000000000000000 HAL_RNG_MspDeInit
     /tmp/ccwqhU8A.s:198    .text.HAL_RNG_MspDeInit:0000000000000018 $d
     /tmp/ccwqhU8A.s:209    .bss.hrng:0000000000000000 hrng
     /tmp/ccwqhU8A.s:205    .bss.hrng:0000000000000000 $d

UNDEFINED SYMBOLS
HAL_RNG_Init
Error_Handler
memset
HAL_RCCEx_PeriphCLKConfig
