ARM GAS  /tmp/ccoL83Rj.s 			page 1


   1              		.cpu cortex-m7
   2              		.arch armv7e-m
   3              		.fpu fpv5-sp-d16
   4              		.eabi_attribute 27, 1
   5              		.eabi_attribute 28, 1
   6              		.eabi_attribute 20, 1
   7              		.eabi_attribute 21, 1
   8              		.eabi_attribute 23, 3
   9              		.eabi_attribute 24, 1
  10              		.eabi_attribute 25, 1
  11              		.eabi_attribute 26, 1
  12              		.eabi_attribute 30, 1
  13              		.eabi_attribute 34, 1
  14              		.eabi_attribute 18, 4
  15              		.file	"spi.c"
  16              		.text
  17              	.Ltext0:
  18              		.cfi_sections	.debug_frame
  19              		.file 1 "Core/Src/spi.c"
  20              		.section	.text.MX_SPI1_Init,"ax",%progbits
  21              		.align	1
  22              		.global	MX_SPI1_Init
  23              		.syntax unified
  24              		.thumb
  25              		.thumb_func
  27              	MX_SPI1_Init:
  28              	.LFB141:
   1:Core/Src/spi.c **** /* USER CODE BEGIN Header */
   2:Core/Src/spi.c **** /**
   3:Core/Src/spi.c ****   ******************************************************************************
   4:Core/Src/spi.c ****   * @file    spi.c
   5:Core/Src/spi.c ****   * @brief   This file provides code for the configuration
   6:Core/Src/spi.c ****   *          of the SPI instances.
   7:Core/Src/spi.c ****   ******************************************************************************
   8:Core/Src/spi.c ****   * @attention
   9:Core/Src/spi.c ****   *
  10:Core/Src/spi.c ****   * Copyright (c) 2023 STMicroelectronics.
  11:Core/Src/spi.c ****   * All rights reserved.
  12:Core/Src/spi.c ****   *
  13:Core/Src/spi.c ****   * This software is licensed under terms that can be found in the LICENSE file
  14:Core/Src/spi.c ****   * in the root directory of this software component.
  15:Core/Src/spi.c ****   * If no LICENSE file comes with this software, it is provided AS-IS.
  16:Core/Src/spi.c ****   *
  17:Core/Src/spi.c ****   ******************************************************************************
  18:Core/Src/spi.c ****   */
  19:Core/Src/spi.c **** /* USER CODE END Header */
  20:Core/Src/spi.c **** /* Includes ------------------------------------------------------------------*/
  21:Core/Src/spi.c **** #include "spi.h"
  22:Core/Src/spi.c **** 
  23:Core/Src/spi.c **** /* USER CODE BEGIN 0 */
  24:Core/Src/spi.c **** 
  25:Core/Src/spi.c **** /* USER CODE END 0 */
  26:Core/Src/spi.c **** 
  27:Core/Src/spi.c **** SPI_HandleTypeDef hspi1;
  28:Core/Src/spi.c **** SPI_HandleTypeDef hspi2;
  29:Core/Src/spi.c **** SPI_HandleTypeDef hspi4;
  30:Core/Src/spi.c **** 
ARM GAS  /tmp/ccoL83Rj.s 			page 2


  31:Core/Src/spi.c **** /* SPI1 init function */
  32:Core/Src/spi.c **** void MX_SPI1_Init(void)
  33:Core/Src/spi.c **** {
  29              		.loc 1 33 1 view -0
  30              		.cfi_startproc
  31              		@ args = 0, pretend = 0, frame = 0
  32              		@ frame_needed = 0, uses_anonymous_args = 0
  33 0000 08B5     		push	{r3, lr}
  34              		.cfi_def_cfa_offset 8
  35              		.cfi_offset 3, -8
  36              		.cfi_offset 14, -4
  34:Core/Src/spi.c **** 
  35:Core/Src/spi.c ****   /* USER CODE BEGIN SPI1_Init 0 */
  36:Core/Src/spi.c **** 
  37:Core/Src/spi.c ****   /* USER CODE END SPI1_Init 0 */
  38:Core/Src/spi.c **** 
  39:Core/Src/spi.c ****   /* USER CODE BEGIN SPI1_Init 1 */
  40:Core/Src/spi.c **** 
  41:Core/Src/spi.c ****   /* USER CODE END SPI1_Init 1 */
  42:Core/Src/spi.c ****   hspi1.Instance = SPI1;
  37              		.loc 1 42 3 view .LVU1
  38              		.loc 1 42 18 is_stmt 0 view .LVU2
  39 0002 1048     		ldr	r0, .L5
  40 0004 104B     		ldr	r3, .L5+4
  41 0006 0360     		str	r3, [r0]
  43:Core/Src/spi.c ****   hspi1.Init.Mode = SPI_MODE_MASTER;
  42              		.loc 1 43 3 is_stmt 1 view .LVU3
  43              		.loc 1 43 19 is_stmt 0 view .LVU4
  44 0008 4FF48273 		mov	r3, #260
  45 000c 4360     		str	r3, [r0, #4]
  44:Core/Src/spi.c ****   hspi1.Init.Direction = SPI_DIRECTION_2LINES;
  46              		.loc 1 44 3 is_stmt 1 view .LVU5
  47              		.loc 1 44 24 is_stmt 0 view .LVU6
  48 000e 0023     		movs	r3, #0
  49 0010 8360     		str	r3, [r0, #8]
  45:Core/Src/spi.c ****   hspi1.Init.DataSize = SPI_DATASIZE_8BIT;
  50              		.loc 1 45 3 is_stmt 1 view .LVU7
  51              		.loc 1 45 23 is_stmt 0 view .LVU8
  52 0012 4FF4E062 		mov	r2, #1792
  53 0016 C260     		str	r2, [r0, #12]
  46:Core/Src/spi.c ****   hspi1.Init.CLKPolarity = SPI_POLARITY_LOW;
  54              		.loc 1 46 3 is_stmt 1 view .LVU9
  55              		.loc 1 46 26 is_stmt 0 view .LVU10
  56 0018 0361     		str	r3, [r0, #16]
  47:Core/Src/spi.c ****   hspi1.Init.CLKPhase = SPI_PHASE_1EDGE;
  57              		.loc 1 47 3 is_stmt 1 view .LVU11
  58              		.loc 1 47 23 is_stmt 0 view .LVU12
  59 001a 4361     		str	r3, [r0, #20]
  48:Core/Src/spi.c ****   hspi1.Init.NSS = SPI_NSS_SOFT;
  60              		.loc 1 48 3 is_stmt 1 view .LVU13
  61              		.loc 1 48 18 is_stmt 0 view .LVU14
  62 001c 4FF40072 		mov	r2, #512
  63 0020 8261     		str	r2, [r0, #24]
  49:Core/Src/spi.c ****   hspi1.Init.BaudRatePrescaler = SPI_BAUDRATEPRESCALER_2;
  64              		.loc 1 49 3 is_stmt 1 view .LVU15
  65              		.loc 1 49 32 is_stmt 0 view .LVU16
  66 0022 C361     		str	r3, [r0, #28]
ARM GAS  /tmp/ccoL83Rj.s 			page 3


  50:Core/Src/spi.c ****   hspi1.Init.FirstBit = SPI_FIRSTBIT_MSB;
  67              		.loc 1 50 3 is_stmt 1 view .LVU17
  68              		.loc 1 50 23 is_stmt 0 view .LVU18
  69 0024 0362     		str	r3, [r0, #32]
  51:Core/Src/spi.c ****   hspi1.Init.TIMode = SPI_TIMODE_DISABLE;
  70              		.loc 1 51 3 is_stmt 1 view .LVU19
  71              		.loc 1 51 21 is_stmt 0 view .LVU20
  72 0026 4362     		str	r3, [r0, #36]
  52:Core/Src/spi.c ****   hspi1.Init.CRCCalculation = SPI_CRCCALCULATION_DISABLE;
  73              		.loc 1 52 3 is_stmt 1 view .LVU21
  74              		.loc 1 52 29 is_stmt 0 view .LVU22
  75 0028 8362     		str	r3, [r0, #40]
  53:Core/Src/spi.c ****   hspi1.Init.CRCPolynomial = 7;
  76              		.loc 1 53 3 is_stmt 1 view .LVU23
  77              		.loc 1 53 28 is_stmt 0 view .LVU24
  78 002a 0722     		movs	r2, #7
  79 002c C262     		str	r2, [r0, #44]
  54:Core/Src/spi.c ****   hspi1.Init.CRCLength = SPI_CRC_LENGTH_DATASIZE;
  80              		.loc 1 54 3 is_stmt 1 view .LVU25
  81              		.loc 1 54 24 is_stmt 0 view .LVU26
  82 002e 0363     		str	r3, [r0, #48]
  55:Core/Src/spi.c ****   hspi1.Init.NSSPMode = SPI_NSS_PULSE_ENABLE;
  83              		.loc 1 55 3 is_stmt 1 view .LVU27
  84              		.loc 1 55 23 is_stmt 0 view .LVU28
  85 0030 0823     		movs	r3, #8
  86 0032 4363     		str	r3, [r0, #52]
  56:Core/Src/spi.c ****   if (HAL_SPI_Init(&hspi1) != HAL_OK)
  87              		.loc 1 56 3 is_stmt 1 view .LVU29
  88              		.loc 1 56 7 is_stmt 0 view .LVU30
  89 0034 FFF7FEFF 		bl	HAL_SPI_Init
  90              	.LVL0:
  91              		.loc 1 56 6 view .LVU31
  92 0038 00B9     		cbnz	r0, .L4
  93              	.L1:
  57:Core/Src/spi.c ****   {
  58:Core/Src/spi.c ****     Error_Handler();
  59:Core/Src/spi.c ****   }
  60:Core/Src/spi.c ****   /* USER CODE BEGIN SPI1_Init 2 */
  61:Core/Src/spi.c **** 
  62:Core/Src/spi.c ****   /* USER CODE END SPI1_Init 2 */
  63:Core/Src/spi.c **** 
  64:Core/Src/spi.c **** }
  94              		.loc 1 64 1 view .LVU32
  95 003a 08BD     		pop	{r3, pc}
  96              	.L4:
  58:Core/Src/spi.c ****   }
  97              		.loc 1 58 5 is_stmt 1 view .LVU33
  98 003c FFF7FEFF 		bl	Error_Handler
  99              	.LVL1:
 100              		.loc 1 64 1 is_stmt 0 view .LVU34
 101 0040 FBE7     		b	.L1
 102              	.L6:
 103 0042 00BF     		.align	2
 104              	.L5:
 105 0044 00000000 		.word	hspi1
 106 0048 00300140 		.word	1073819648
 107              		.cfi_endproc
ARM GAS  /tmp/ccoL83Rj.s 			page 4


 108              	.LFE141:
 110              		.section	.text.MX_SPI2_Init,"ax",%progbits
 111              		.align	1
 112              		.global	MX_SPI2_Init
 113              		.syntax unified
 114              		.thumb
 115              		.thumb_func
 117              	MX_SPI2_Init:
 118              	.LFB142:
  65:Core/Src/spi.c **** /* SPI2 init function */
  66:Core/Src/spi.c **** void MX_SPI2_Init(void)
  67:Core/Src/spi.c **** {
 119              		.loc 1 67 1 is_stmt 1 view -0
 120              		.cfi_startproc
 121              		@ args = 0, pretend = 0, frame = 0
 122              		@ frame_needed = 0, uses_anonymous_args = 0
 123 0000 08B5     		push	{r3, lr}
 124              		.cfi_def_cfa_offset 8
 125              		.cfi_offset 3, -8
 126              		.cfi_offset 14, -4
  68:Core/Src/spi.c **** 
  69:Core/Src/spi.c ****   /* USER CODE BEGIN SPI2_Init 0 */
  70:Core/Src/spi.c **** 
  71:Core/Src/spi.c ****   /* USER CODE END SPI2_Init 0 */
  72:Core/Src/spi.c **** 
  73:Core/Src/spi.c ****   /* USER CODE BEGIN SPI2_Init 1 */
  74:Core/Src/spi.c **** 
  75:Core/Src/spi.c ****   /* USER CODE END SPI2_Init 1 */
  76:Core/Src/spi.c ****   hspi2.Instance = SPI2;
 127              		.loc 1 76 3 view .LVU36
 128              		.loc 1 76 18 is_stmt 0 view .LVU37
 129 0002 1048     		ldr	r0, .L11
 130 0004 104B     		ldr	r3, .L11+4
 131 0006 0360     		str	r3, [r0]
  77:Core/Src/spi.c ****   hspi2.Init.Mode = SPI_MODE_MASTER;
 132              		.loc 1 77 3 is_stmt 1 view .LVU38
 133              		.loc 1 77 19 is_stmt 0 view .LVU39
 134 0008 4FF48273 		mov	r3, #260
 135 000c 4360     		str	r3, [r0, #4]
  78:Core/Src/spi.c ****   hspi2.Init.Direction = SPI_DIRECTION_2LINES;
 136              		.loc 1 78 3 is_stmt 1 view .LVU40
 137              		.loc 1 78 24 is_stmt 0 view .LVU41
 138 000e 0023     		movs	r3, #0
 139 0010 8360     		str	r3, [r0, #8]
  79:Core/Src/spi.c ****   hspi2.Init.DataSize = SPI_DATASIZE_4BIT;
 140              		.loc 1 79 3 is_stmt 1 view .LVU42
 141              		.loc 1 79 23 is_stmt 0 view .LVU43
 142 0012 4FF44072 		mov	r2, #768
 143 0016 C260     		str	r2, [r0, #12]
  80:Core/Src/spi.c ****   hspi2.Init.CLKPolarity = SPI_POLARITY_LOW;
 144              		.loc 1 80 3 is_stmt 1 view .LVU44
 145              		.loc 1 80 26 is_stmt 0 view .LVU45
 146 0018 0361     		str	r3, [r0, #16]
  81:Core/Src/spi.c ****   hspi2.Init.CLKPhase = SPI_PHASE_1EDGE;
 147              		.loc 1 81 3 is_stmt 1 view .LVU46
 148              		.loc 1 81 23 is_stmt 0 view .LVU47
 149 001a 4361     		str	r3, [r0, #20]
ARM GAS  /tmp/ccoL83Rj.s 			page 5


  82:Core/Src/spi.c ****   hspi2.Init.NSS = SPI_NSS_SOFT;
 150              		.loc 1 82 3 is_stmt 1 view .LVU48
 151              		.loc 1 82 18 is_stmt 0 view .LVU49
 152 001c 4FF40072 		mov	r2, #512
 153 0020 8261     		str	r2, [r0, #24]
  83:Core/Src/spi.c ****   hspi2.Init.BaudRatePrescaler = SPI_BAUDRATEPRESCALER_2;
 154              		.loc 1 83 3 is_stmt 1 view .LVU50
 155              		.loc 1 83 32 is_stmt 0 view .LVU51
 156 0022 C361     		str	r3, [r0, #28]
  84:Core/Src/spi.c ****   hspi2.Init.FirstBit = SPI_FIRSTBIT_MSB;
 157              		.loc 1 84 3 is_stmt 1 view .LVU52
 158              		.loc 1 84 23 is_stmt 0 view .LVU53
 159 0024 0362     		str	r3, [r0, #32]
  85:Core/Src/spi.c ****   hspi2.Init.TIMode = SPI_TIMODE_DISABLE;
 160              		.loc 1 85 3 is_stmt 1 view .LVU54
 161              		.loc 1 85 21 is_stmt 0 view .LVU55
 162 0026 4362     		str	r3, [r0, #36]
  86:Core/Src/spi.c ****   hspi2.Init.CRCCalculation = SPI_CRCCALCULATION_DISABLE;
 163              		.loc 1 86 3 is_stmt 1 view .LVU56
 164              		.loc 1 86 29 is_stmt 0 view .LVU57
 165 0028 8362     		str	r3, [r0, #40]
  87:Core/Src/spi.c ****   hspi2.Init.CRCPolynomial = 7;
 166              		.loc 1 87 3 is_stmt 1 view .LVU58
 167              		.loc 1 87 28 is_stmt 0 view .LVU59
 168 002a 0722     		movs	r2, #7
 169 002c C262     		str	r2, [r0, #44]
  88:Core/Src/spi.c ****   hspi2.Init.CRCLength = SPI_CRC_LENGTH_DATASIZE;
 170              		.loc 1 88 3 is_stmt 1 view .LVU60
 171              		.loc 1 88 24 is_stmt 0 view .LVU61
 172 002e 0363     		str	r3, [r0, #48]
  89:Core/Src/spi.c ****   hspi2.Init.NSSPMode = SPI_NSS_PULSE_ENABLE;
 173              		.loc 1 89 3 is_stmt 1 view .LVU62
 174              		.loc 1 89 23 is_stmt 0 view .LVU63
 175 0030 0823     		movs	r3, #8
 176 0032 4363     		str	r3, [r0, #52]
  90:Core/Src/spi.c ****   if (HAL_SPI_Init(&hspi2) != HAL_OK)
 177              		.loc 1 90 3 is_stmt 1 view .LVU64
 178              		.loc 1 90 7 is_stmt 0 view .LVU65
 179 0034 FFF7FEFF 		bl	HAL_SPI_Init
 180              	.LVL2:
 181              		.loc 1 90 6 view .LVU66
 182 0038 00B9     		cbnz	r0, .L10
 183              	.L7:
  91:Core/Src/spi.c ****   {
  92:Core/Src/spi.c ****     Error_Handler();
  93:Core/Src/spi.c ****   }
  94:Core/Src/spi.c ****   /* USER CODE BEGIN SPI2_Init 2 */
  95:Core/Src/spi.c **** 
  96:Core/Src/spi.c ****   /* USER CODE END SPI2_Init 2 */
  97:Core/Src/spi.c **** 
  98:Core/Src/spi.c **** }
 184              		.loc 1 98 1 view .LVU67
 185 003a 08BD     		pop	{r3, pc}
 186              	.L10:
  92:Core/Src/spi.c ****   }
 187              		.loc 1 92 5 is_stmt 1 view .LVU68
 188 003c FFF7FEFF 		bl	Error_Handler
ARM GAS  /tmp/ccoL83Rj.s 			page 6


 189              	.LVL3:
 190              		.loc 1 98 1 is_stmt 0 view .LVU69
 191 0040 FBE7     		b	.L7
 192              	.L12:
 193 0042 00BF     		.align	2
 194              	.L11:
 195 0044 00000000 		.word	hspi2
 196 0048 00380040 		.word	1073756160
 197              		.cfi_endproc
 198              	.LFE142:
 200              		.section	.text.MX_SPI4_Init,"ax",%progbits
 201              		.align	1
 202              		.global	MX_SPI4_Init
 203              		.syntax unified
 204              		.thumb
 205              		.thumb_func
 207              	MX_SPI4_Init:
 208              	.LFB143:
  99:Core/Src/spi.c **** /* SPI4 init function */
 100:Core/Src/spi.c **** void MX_SPI4_Init(void)
 101:Core/Src/spi.c **** {
 209              		.loc 1 101 1 is_stmt 1 view -0
 210              		.cfi_startproc
 211              		@ args = 0, pretend = 0, frame = 0
 212              		@ frame_needed = 0, uses_anonymous_args = 0
 213 0000 08B5     		push	{r3, lr}
 214              		.cfi_def_cfa_offset 8
 215              		.cfi_offset 3, -8
 216              		.cfi_offset 14, -4
 102:Core/Src/spi.c **** 
 103:Core/Src/spi.c ****   /* USER CODE BEGIN SPI4_Init 0 */
 104:Core/Src/spi.c **** 
 105:Core/Src/spi.c ****   /* USER CODE END SPI4_Init 0 */
 106:Core/Src/spi.c **** 
 107:Core/Src/spi.c ****   /* USER CODE BEGIN SPI4_Init 1 */
 108:Core/Src/spi.c **** 
 109:Core/Src/spi.c ****   /* USER CODE END SPI4_Init 1 */
 110:Core/Src/spi.c ****   hspi4.Instance = SPI4;
 217              		.loc 1 110 3 view .LVU71
 218              		.loc 1 110 18 is_stmt 0 view .LVU72
 219 0002 1048     		ldr	r0, .L17
 220 0004 104B     		ldr	r3, .L17+4
 221 0006 0360     		str	r3, [r0]
 111:Core/Src/spi.c ****   hspi4.Init.Mode = SPI_MODE_MASTER;
 222              		.loc 1 111 3 is_stmt 1 view .LVU73
 223              		.loc 1 111 19 is_stmt 0 view .LVU74
 224 0008 4FF48273 		mov	r3, #260
 225 000c 4360     		str	r3, [r0, #4]
 112:Core/Src/spi.c ****   hspi4.Init.Direction = SPI_DIRECTION_2LINES;
 226              		.loc 1 112 3 is_stmt 1 view .LVU75
 227              		.loc 1 112 24 is_stmt 0 view .LVU76
 228 000e 0023     		movs	r3, #0
 229 0010 8360     		str	r3, [r0, #8]
 113:Core/Src/spi.c ****   hspi4.Init.DataSize = SPI_DATASIZE_8BIT;
 230              		.loc 1 113 3 is_stmt 1 view .LVU77
 231              		.loc 1 113 23 is_stmt 0 view .LVU78
 232 0012 4FF4E062 		mov	r2, #1792
ARM GAS  /tmp/ccoL83Rj.s 			page 7


 233 0016 C260     		str	r2, [r0, #12]
 114:Core/Src/spi.c ****   hspi4.Init.CLKPolarity = SPI_POLARITY_LOW;
 234              		.loc 1 114 3 is_stmt 1 view .LVU79
 235              		.loc 1 114 26 is_stmt 0 view .LVU80
 236 0018 0361     		str	r3, [r0, #16]
 115:Core/Src/spi.c ****   hspi4.Init.CLKPhase = SPI_PHASE_1EDGE;
 237              		.loc 1 115 3 is_stmt 1 view .LVU81
 238              		.loc 1 115 23 is_stmt 0 view .LVU82
 239 001a 4361     		str	r3, [r0, #20]
 116:Core/Src/spi.c ****   hspi4.Init.NSS = SPI_NSS_SOFT;
 240              		.loc 1 116 3 is_stmt 1 view .LVU83
 241              		.loc 1 116 18 is_stmt 0 view .LVU84
 242 001c 4FF40072 		mov	r2, #512
 243 0020 8261     		str	r2, [r0, #24]
 117:Core/Src/spi.c ****   hspi4.Init.BaudRatePrescaler = SPI_BAUDRATEPRESCALER_64;
 244              		.loc 1 117 3 is_stmt 1 view .LVU85
 245              		.loc 1 117 32 is_stmt 0 view .LVU86
 246 0022 2822     		movs	r2, #40
 247 0024 C261     		str	r2, [r0, #28]
 118:Core/Src/spi.c ****   hspi4.Init.FirstBit = SPI_FIRSTBIT_MSB;
 248              		.loc 1 118 3 is_stmt 1 view .LVU87
 249              		.loc 1 118 23 is_stmt 0 view .LVU88
 250 0026 0362     		str	r3, [r0, #32]
 119:Core/Src/spi.c ****   hspi4.Init.TIMode = SPI_TIMODE_DISABLE;
 251              		.loc 1 119 3 is_stmt 1 view .LVU89
 252              		.loc 1 119 21 is_stmt 0 view .LVU90
 253 0028 4362     		str	r3, [r0, #36]
 120:Core/Src/spi.c ****   hspi4.Init.CRCCalculation = SPI_CRCCALCULATION_DISABLE;
 254              		.loc 1 120 3 is_stmt 1 view .LVU91
 255              		.loc 1 120 29 is_stmt 0 view .LVU92
 256 002a 8362     		str	r3, [r0, #40]
 121:Core/Src/spi.c ****   hspi4.Init.CRCPolynomial = 7;
 257              		.loc 1 121 3 is_stmt 1 view .LVU93
 258              		.loc 1 121 28 is_stmt 0 view .LVU94
 259 002c 0722     		movs	r2, #7
 260 002e C262     		str	r2, [r0, #44]
 122:Core/Src/spi.c ****   hspi4.Init.CRCLength = SPI_CRC_LENGTH_DATASIZE;
 261              		.loc 1 122 3 is_stmt 1 view .LVU95
 262              		.loc 1 122 24 is_stmt 0 view .LVU96
 263 0030 0363     		str	r3, [r0, #48]
 123:Core/Src/spi.c ****   hspi4.Init.NSSPMode = SPI_NSS_PULSE_ENABLE;
 264              		.loc 1 123 3 is_stmt 1 view .LVU97
 265              		.loc 1 123 23 is_stmt 0 view .LVU98
 266 0032 0823     		movs	r3, #8
 267 0034 4363     		str	r3, [r0, #52]
 124:Core/Src/spi.c ****   if (HAL_SPI_Init(&hspi4) != HAL_OK)
 268              		.loc 1 124 3 is_stmt 1 view .LVU99
 269              		.loc 1 124 7 is_stmt 0 view .LVU100
 270 0036 FFF7FEFF 		bl	HAL_SPI_Init
 271              	.LVL4:
 272              		.loc 1 124 6 view .LVU101
 273 003a 00B9     		cbnz	r0, .L16
 274              	.L13:
 125:Core/Src/spi.c ****   {
 126:Core/Src/spi.c ****     Error_Handler();
 127:Core/Src/spi.c ****   }
 128:Core/Src/spi.c ****   /* USER CODE BEGIN SPI4_Init 2 */
ARM GAS  /tmp/ccoL83Rj.s 			page 8


 129:Core/Src/spi.c **** 
 130:Core/Src/spi.c ****   /* USER CODE END SPI4_Init 2 */
 131:Core/Src/spi.c **** 
 132:Core/Src/spi.c **** }
 275              		.loc 1 132 1 view .LVU102
 276 003c 08BD     		pop	{r3, pc}
 277              	.L16:
 126:Core/Src/spi.c ****   }
 278              		.loc 1 126 5 is_stmt 1 view .LVU103
 279 003e FFF7FEFF 		bl	Error_Handler
 280              	.LVL5:
 281              		.loc 1 132 1 is_stmt 0 view .LVU104
 282 0042 FBE7     		b	.L13
 283              	.L18:
 284              		.align	2
 285              	.L17:
 286 0044 00000000 		.word	hspi4
 287 0048 00340140 		.word	1073820672
 288              		.cfi_endproc
 289              	.LFE143:
 291              		.section	.text.HAL_SPI_MspInit,"ax",%progbits
 292              		.align	1
 293              		.global	HAL_SPI_MspInit
 294              		.syntax unified
 295              		.thumb
 296              		.thumb_func
 298              	HAL_SPI_MspInit:
 299              	.LVL6:
 300              	.LFB144:
 133:Core/Src/spi.c **** 
 134:Core/Src/spi.c **** void HAL_SPI_MspInit(SPI_HandleTypeDef* spiHandle)
 135:Core/Src/spi.c **** {
 301              		.loc 1 135 1 is_stmt 1 view -0
 302              		.cfi_startproc
 303              		@ args = 0, pretend = 0, frame = 48
 304              		@ frame_needed = 0, uses_anonymous_args = 0
 305              		.loc 1 135 1 is_stmt 0 view .LVU106
 306 0000 70B5     		push	{r4, r5, r6, lr}
 307              		.cfi_def_cfa_offset 16
 308              		.cfi_offset 4, -16
 309              		.cfi_offset 5, -12
 310              		.cfi_offset 6, -8
 311              		.cfi_offset 14, -4
 312 0002 8CB0     		sub	sp, sp, #48
 313              		.cfi_def_cfa_offset 64
 136:Core/Src/spi.c **** 
 137:Core/Src/spi.c ****   GPIO_InitTypeDef GPIO_InitStruct = {0};
 314              		.loc 1 137 3 is_stmt 1 view .LVU107
 315              		.loc 1 137 20 is_stmt 0 view .LVU108
 316 0004 0023     		movs	r3, #0
 317 0006 0793     		str	r3, [sp, #28]
 318 0008 0893     		str	r3, [sp, #32]
 319 000a 0993     		str	r3, [sp, #36]
 320 000c 0A93     		str	r3, [sp, #40]
 321 000e 0B93     		str	r3, [sp, #44]
 138:Core/Src/spi.c ****   if(spiHandle->Instance==SPI1)
 322              		.loc 1 138 3 is_stmt 1 view .LVU109
ARM GAS  /tmp/ccoL83Rj.s 			page 9


 323              		.loc 1 138 15 is_stmt 0 view .LVU110
 324 0010 0368     		ldr	r3, [r0]
 325              		.loc 1 138 5 view .LVU111
 326 0012 404A     		ldr	r2, .L27
 327 0014 9342     		cmp	r3, r2
 328 0016 07D0     		beq	.L24
 139:Core/Src/spi.c ****   {
 140:Core/Src/spi.c ****   /* USER CODE BEGIN SPI1_MspInit 0 */
 141:Core/Src/spi.c **** 
 142:Core/Src/spi.c ****   /* USER CODE END SPI1_MspInit 0 */
 143:Core/Src/spi.c ****     /* SPI1 clock enable */
 144:Core/Src/spi.c ****     __HAL_RCC_SPI1_CLK_ENABLE();
 145:Core/Src/spi.c **** 
 146:Core/Src/spi.c ****     __HAL_RCC_GPIOA_CLK_ENABLE();
 147:Core/Src/spi.c ****     /**SPI1 GPIO Configuration
 148:Core/Src/spi.c ****     PA5     ------> SPI1_SCK
 149:Core/Src/spi.c ****     PA6     ------> SPI1_MISO
 150:Core/Src/spi.c ****     PA7     ------> SPI1_MOSI
 151:Core/Src/spi.c ****     */
 152:Core/Src/spi.c ****     GPIO_InitStruct.Pin = GPIO_PIN_5|GPIO_PIN_6|GPIO_PIN_7;
 153:Core/Src/spi.c ****     GPIO_InitStruct.Mode = GPIO_MODE_AF_PP;
 154:Core/Src/spi.c ****     GPIO_InitStruct.Pull = GPIO_NOPULL;
 155:Core/Src/spi.c ****     GPIO_InitStruct.Speed = GPIO_SPEED_FREQ_VERY_HIGH;
 156:Core/Src/spi.c ****     GPIO_InitStruct.Alternate = GPIO_AF5_SPI1;
 157:Core/Src/spi.c ****     HAL_GPIO_Init(GPIOA, &GPIO_InitStruct);
 158:Core/Src/spi.c **** 
 159:Core/Src/spi.c ****   /* USER CODE BEGIN SPI1_MspInit 1 */
 160:Core/Src/spi.c **** 
 161:Core/Src/spi.c ****   /* USER CODE END SPI1_MspInit 1 */
 162:Core/Src/spi.c ****   }
 163:Core/Src/spi.c ****   else if(spiHandle->Instance==SPI2)
 329              		.loc 1 163 8 is_stmt 1 view .LVU112
 330              		.loc 1 163 10 is_stmt 0 view .LVU113
 331 0018 3F4A     		ldr	r2, .L27+4
 332 001a 9342     		cmp	r3, r2
 333 001c 24D0     		beq	.L25
 164:Core/Src/spi.c ****   {
 165:Core/Src/spi.c ****   /* USER CODE BEGIN SPI2_MspInit 0 */
 166:Core/Src/spi.c **** 
 167:Core/Src/spi.c ****   /* USER CODE END SPI2_MspInit 0 */
 168:Core/Src/spi.c ****     /* SPI2 clock enable */
 169:Core/Src/spi.c ****     __HAL_RCC_SPI2_CLK_ENABLE();
 170:Core/Src/spi.c **** 
 171:Core/Src/spi.c ****     __HAL_RCC_GPIOC_CLK_ENABLE();
 172:Core/Src/spi.c ****     __HAL_RCC_GPIOB_CLK_ENABLE();
 173:Core/Src/spi.c ****     /**SPI2 GPIO Configuration
 174:Core/Src/spi.c ****     PC1     ------> SPI2_MOSI
 175:Core/Src/spi.c ****     PC2     ------> SPI2_MISO
 176:Core/Src/spi.c ****     PB10     ------> SPI2_SCK
 177:Core/Src/spi.c ****     */
 178:Core/Src/spi.c ****     GPIO_InitStruct.Pin = GPIO_PIN_1|GPIO_PIN_2;
 179:Core/Src/spi.c ****     GPIO_InitStruct.Mode = GPIO_MODE_AF_PP;
 180:Core/Src/spi.c ****     GPIO_InitStruct.Pull = GPIO_NOPULL;
 181:Core/Src/spi.c ****     GPIO_InitStruct.Speed = GPIO_SPEED_FREQ_VERY_HIGH;
 182:Core/Src/spi.c ****     GPIO_InitStruct.Alternate = GPIO_AF5_SPI2;
 183:Core/Src/spi.c ****     HAL_GPIO_Init(GPIOC, &GPIO_InitStruct);
 184:Core/Src/spi.c **** 
ARM GAS  /tmp/ccoL83Rj.s 			page 10


 185:Core/Src/spi.c ****     GPIO_InitStruct.Pin = GPIO_PIN_10;
 186:Core/Src/spi.c ****     GPIO_InitStruct.Mode = GPIO_MODE_AF_PP;
 187:Core/Src/spi.c ****     GPIO_InitStruct.Pull = GPIO_NOPULL;
 188:Core/Src/spi.c ****     GPIO_InitStruct.Speed = GPIO_SPEED_FREQ_VERY_HIGH;
 189:Core/Src/spi.c ****     GPIO_InitStruct.Alternate = GPIO_AF5_SPI2;
 190:Core/Src/spi.c ****     HAL_GPIO_Init(GPIOB, &GPIO_InitStruct);
 191:Core/Src/spi.c **** 
 192:Core/Src/spi.c ****   /* USER CODE BEGIN SPI2_MspInit 1 */
 193:Core/Src/spi.c **** 
 194:Core/Src/spi.c ****   /* USER CODE END SPI2_MspInit 1 */
 195:Core/Src/spi.c ****   }
 196:Core/Src/spi.c ****   else if(spiHandle->Instance==SPI4)
 334              		.loc 1 196 8 is_stmt 1 view .LVU114
 335              		.loc 1 196 10 is_stmt 0 view .LVU115
 336 001e 3F4A     		ldr	r2, .L27+8
 337 0020 9342     		cmp	r3, r2
 338 0022 56D0     		beq	.L26
 339              	.LVL7:
 340              	.L19:
 197:Core/Src/spi.c ****   {
 198:Core/Src/spi.c ****   /* USER CODE BEGIN SPI4_MspInit 0 */
 199:Core/Src/spi.c **** 
 200:Core/Src/spi.c ****   /* USER CODE END SPI4_MspInit 0 */
 201:Core/Src/spi.c ****     /* SPI4 clock enable */
 202:Core/Src/spi.c ****     __HAL_RCC_SPI4_CLK_ENABLE();
 203:Core/Src/spi.c **** 
 204:Core/Src/spi.c ****     __HAL_RCC_GPIOE_CLK_ENABLE();
 205:Core/Src/spi.c ****     /**SPI4 GPIO Configuration
 206:Core/Src/spi.c ****     PE2     ------> SPI4_SCK
 207:Core/Src/spi.c ****     PE5     ------> SPI4_MISO
 208:Core/Src/spi.c ****     PE6     ------> SPI4_MOSI
 209:Core/Src/spi.c ****     */
 210:Core/Src/spi.c ****     GPIO_InitStruct.Pin = GPIO_PIN_2|GPIO_PIN_5|GPIO_PIN_6;
 211:Core/Src/spi.c ****     GPIO_InitStruct.Mode = GPIO_MODE_AF_PP;
 212:Core/Src/spi.c ****     GPIO_InitStruct.Pull = GPIO_NOPULL;
 213:Core/Src/spi.c ****     GPIO_InitStruct.Speed = GPIO_SPEED_FREQ_VERY_HIGH;
 214:Core/Src/spi.c ****     GPIO_InitStruct.Alternate = GPIO_AF5_SPI4;
 215:Core/Src/spi.c ****     HAL_GPIO_Init(GPIOE, &GPIO_InitStruct);
 216:Core/Src/spi.c **** 
 217:Core/Src/spi.c ****   /* USER CODE BEGIN SPI4_MspInit 1 */
 218:Core/Src/spi.c **** 
 219:Core/Src/spi.c ****   /* USER CODE END SPI4_MspInit 1 */
 220:Core/Src/spi.c ****   }
 221:Core/Src/spi.c **** }
 341              		.loc 1 221 1 view .LVU116
 342 0024 0CB0     		add	sp, sp, #48
 343              		.cfi_remember_state
 344              		.cfi_def_cfa_offset 16
 345              		@ sp needed
 346 0026 70BD     		pop	{r4, r5, r6, pc}
 347              	.LVL8:
 348              	.L24:
 349              		.cfi_restore_state
 144:Core/Src/spi.c **** 
 350              		.loc 1 144 5 is_stmt 1 view .LVU117
 351              	.LBB2:
 144:Core/Src/spi.c **** 
ARM GAS  /tmp/ccoL83Rj.s 			page 11


 352              		.loc 1 144 5 view .LVU118
 144:Core/Src/spi.c **** 
 353              		.loc 1 144 5 view .LVU119
 354 0028 3D4B     		ldr	r3, .L27+12
 355 002a 5A6C     		ldr	r2, [r3, #68]
 356 002c 42F48052 		orr	r2, r2, #4096
 357 0030 5A64     		str	r2, [r3, #68]
 144:Core/Src/spi.c **** 
 358              		.loc 1 144 5 view .LVU120
 359 0032 5A6C     		ldr	r2, [r3, #68]
 360 0034 02F48052 		and	r2, r2, #4096
 361 0038 0092     		str	r2, [sp]
 144:Core/Src/spi.c **** 
 362              		.loc 1 144 5 view .LVU121
 363 003a 009A     		ldr	r2, [sp]
 364              	.LBE2:
 144:Core/Src/spi.c **** 
 365              		.loc 1 144 5 view .LVU122
 146:Core/Src/spi.c ****     /**SPI1 GPIO Configuration
 366              		.loc 1 146 5 view .LVU123
 367              	.LBB3:
 146:Core/Src/spi.c ****     /**SPI1 GPIO Configuration
 368              		.loc 1 146 5 view .LVU124
 146:Core/Src/spi.c ****     /**SPI1 GPIO Configuration
 369              		.loc 1 146 5 view .LVU125
 370 003c 1A6B     		ldr	r2, [r3, #48]
 371 003e 42F00102 		orr	r2, r2, #1
 372 0042 1A63     		str	r2, [r3, #48]
 146:Core/Src/spi.c ****     /**SPI1 GPIO Configuration
 373              		.loc 1 146 5 view .LVU126
 374 0044 1B6B     		ldr	r3, [r3, #48]
 375 0046 03F00103 		and	r3, r3, #1
 376 004a 0193     		str	r3, [sp, #4]
 146:Core/Src/spi.c ****     /**SPI1 GPIO Configuration
 377              		.loc 1 146 5 view .LVU127
 378 004c 019B     		ldr	r3, [sp, #4]
 379              	.LBE3:
 146:Core/Src/spi.c ****     /**SPI1 GPIO Configuration
 380              		.loc 1 146 5 view .LVU128
 152:Core/Src/spi.c ****     GPIO_InitStruct.Mode = GPIO_MODE_AF_PP;
 381              		.loc 1 152 5 view .LVU129
 152:Core/Src/spi.c ****     GPIO_InitStruct.Mode = GPIO_MODE_AF_PP;
 382              		.loc 1 152 25 is_stmt 0 view .LVU130
 383 004e E023     		movs	r3, #224
 384 0050 0793     		str	r3, [sp, #28]
 153:Core/Src/spi.c ****     GPIO_InitStruct.Pull = GPIO_NOPULL;
 385              		.loc 1 153 5 is_stmt 1 view .LVU131
 153:Core/Src/spi.c ****     GPIO_InitStruct.Pull = GPIO_NOPULL;
 386              		.loc 1 153 26 is_stmt 0 view .LVU132
 387 0052 0223     		movs	r3, #2
 388 0054 0893     		str	r3, [sp, #32]
 154:Core/Src/spi.c ****     GPIO_InitStruct.Speed = GPIO_SPEED_FREQ_VERY_HIGH;
 389              		.loc 1 154 5 is_stmt 1 view .LVU133
 155:Core/Src/spi.c ****     GPIO_InitStruct.Alternate = GPIO_AF5_SPI1;
 390              		.loc 1 155 5 view .LVU134
 155:Core/Src/spi.c ****     GPIO_InitStruct.Alternate = GPIO_AF5_SPI1;
 391              		.loc 1 155 27 is_stmt 0 view .LVU135
ARM GAS  /tmp/ccoL83Rj.s 			page 12


 392 0056 0323     		movs	r3, #3
 393 0058 0A93     		str	r3, [sp, #40]
 156:Core/Src/spi.c ****     HAL_GPIO_Init(GPIOA, &GPIO_InitStruct);
 394              		.loc 1 156 5 is_stmt 1 view .LVU136
 156:Core/Src/spi.c ****     HAL_GPIO_Init(GPIOA, &GPIO_InitStruct);
 395              		.loc 1 156 31 is_stmt 0 view .LVU137
 396 005a 0523     		movs	r3, #5
 397 005c 0B93     		str	r3, [sp, #44]
 157:Core/Src/spi.c **** 
 398              		.loc 1 157 5 is_stmt 1 view .LVU138
 399 005e 07A9     		add	r1, sp, #28
 400 0060 3048     		ldr	r0, .L27+16
 401              	.LVL9:
 157:Core/Src/spi.c **** 
 402              		.loc 1 157 5 is_stmt 0 view .LVU139
 403 0062 FFF7FEFF 		bl	HAL_GPIO_Init
 404              	.LVL10:
 405 0066 DDE7     		b	.L19
 406              	.LVL11:
 407              	.L25:
 169:Core/Src/spi.c **** 
 408              		.loc 1 169 5 is_stmt 1 view .LVU140
 409              	.LBB4:
 169:Core/Src/spi.c **** 
 410              		.loc 1 169 5 view .LVU141
 169:Core/Src/spi.c **** 
 411              		.loc 1 169 5 view .LVU142
 412 0068 2D4B     		ldr	r3, .L27+12
 413 006a 1A6C     		ldr	r2, [r3, #64]
 414 006c 42F48042 		orr	r2, r2, #16384
 415 0070 1A64     		str	r2, [r3, #64]
 169:Core/Src/spi.c **** 
 416              		.loc 1 169 5 view .LVU143
 417 0072 1A6C     		ldr	r2, [r3, #64]
 418 0074 02F48042 		and	r2, r2, #16384
 419 0078 0292     		str	r2, [sp, #8]
 169:Core/Src/spi.c **** 
 420              		.loc 1 169 5 view .LVU144
 421 007a 029A     		ldr	r2, [sp, #8]
 422              	.LBE4:
 169:Core/Src/spi.c **** 
 423              		.loc 1 169 5 view .LVU145
 171:Core/Src/spi.c ****     __HAL_RCC_GPIOB_CLK_ENABLE();
 424              		.loc 1 171 5 view .LVU146
 425              	.LBB5:
 171:Core/Src/spi.c ****     __HAL_RCC_GPIOB_CLK_ENABLE();
 426              		.loc 1 171 5 view .LVU147
 171:Core/Src/spi.c ****     __HAL_RCC_GPIOB_CLK_ENABLE();
 427              		.loc 1 171 5 view .LVU148
 428 007c 1A6B     		ldr	r2, [r3, #48]
 429 007e 42F00402 		orr	r2, r2, #4
 430 0082 1A63     		str	r2, [r3, #48]
 171:Core/Src/spi.c ****     __HAL_RCC_GPIOB_CLK_ENABLE();
 431              		.loc 1 171 5 view .LVU149
 432 0084 1A6B     		ldr	r2, [r3, #48]
 433 0086 02F00402 		and	r2, r2, #4
 434 008a 0392     		str	r2, [sp, #12]
ARM GAS  /tmp/ccoL83Rj.s 			page 13


 171:Core/Src/spi.c ****     __HAL_RCC_GPIOB_CLK_ENABLE();
 435              		.loc 1 171 5 view .LVU150
 436 008c 039A     		ldr	r2, [sp, #12]
 437              	.LBE5:
 171:Core/Src/spi.c ****     __HAL_RCC_GPIOB_CLK_ENABLE();
 438              		.loc 1 171 5 view .LVU151
 172:Core/Src/spi.c ****     /**SPI2 GPIO Configuration
 439              		.loc 1 172 5 view .LVU152
 440              	.LBB6:
 172:Core/Src/spi.c ****     /**SPI2 GPIO Configuration
 441              		.loc 1 172 5 view .LVU153
 172:Core/Src/spi.c ****     /**SPI2 GPIO Configuration
 442              		.loc 1 172 5 view .LVU154
 443 008e 1A6B     		ldr	r2, [r3, #48]
 444 0090 42F00202 		orr	r2, r2, #2
 445 0094 1A63     		str	r2, [r3, #48]
 172:Core/Src/spi.c ****     /**SPI2 GPIO Configuration
 446              		.loc 1 172 5 view .LVU155
 447 0096 1B6B     		ldr	r3, [r3, #48]
 448 0098 03F00203 		and	r3, r3, #2
 449 009c 0493     		str	r3, [sp, #16]
 172:Core/Src/spi.c ****     /**SPI2 GPIO Configuration
 450              		.loc 1 172 5 view .LVU156
 451 009e 049B     		ldr	r3, [sp, #16]
 452              	.LBE6:
 172:Core/Src/spi.c ****     /**SPI2 GPIO Configuration
 453              		.loc 1 172 5 view .LVU157
 178:Core/Src/spi.c ****     GPIO_InitStruct.Mode = GPIO_MODE_AF_PP;
 454              		.loc 1 178 5 view .LVU158
 178:Core/Src/spi.c ****     GPIO_InitStruct.Mode = GPIO_MODE_AF_PP;
 455              		.loc 1 178 25 is_stmt 0 view .LVU159
 456 00a0 0623     		movs	r3, #6
 457 00a2 0793     		str	r3, [sp, #28]
 179:Core/Src/spi.c ****     GPIO_InitStruct.Pull = GPIO_NOPULL;
 458              		.loc 1 179 5 is_stmt 1 view .LVU160
 179:Core/Src/spi.c ****     GPIO_InitStruct.Pull = GPIO_NOPULL;
 459              		.loc 1 179 26 is_stmt 0 view .LVU161
 460 00a4 0226     		movs	r6, #2
 461 00a6 0896     		str	r6, [sp, #32]
 180:Core/Src/spi.c ****     GPIO_InitStruct.Speed = GPIO_SPEED_FREQ_VERY_HIGH;
 462              		.loc 1 180 5 is_stmt 1 view .LVU162
 181:Core/Src/spi.c ****     GPIO_InitStruct.Alternate = GPIO_AF5_SPI2;
 463              		.loc 1 181 5 view .LVU163
 181:Core/Src/spi.c ****     GPIO_InitStruct.Alternate = GPIO_AF5_SPI2;
 464              		.loc 1 181 27 is_stmt 0 view .LVU164
 465 00a8 0325     		movs	r5, #3
 466 00aa 0A95     		str	r5, [sp, #40]
 182:Core/Src/spi.c ****     HAL_GPIO_Init(GPIOC, &GPIO_InitStruct);
 467              		.loc 1 182 5 is_stmt 1 view .LVU165
 182:Core/Src/spi.c ****     HAL_GPIO_Init(GPIOC, &GPIO_InitStruct);
 468              		.loc 1 182 31 is_stmt 0 view .LVU166
 469 00ac 0524     		movs	r4, #5
 470 00ae 0B94     		str	r4, [sp, #44]
 183:Core/Src/spi.c **** 
 471              		.loc 1 183 5 is_stmt 1 view .LVU167
 472 00b0 07A9     		add	r1, sp, #28
 473 00b2 1D48     		ldr	r0, .L27+20
ARM GAS  /tmp/ccoL83Rj.s 			page 14


 474              	.LVL12:
 183:Core/Src/spi.c **** 
 475              		.loc 1 183 5 is_stmt 0 view .LVU168
 476 00b4 FFF7FEFF 		bl	HAL_GPIO_Init
 477              	.LVL13:
 185:Core/Src/spi.c ****     GPIO_InitStruct.Mode = GPIO_MODE_AF_PP;
 478              		.loc 1 185 5 is_stmt 1 view .LVU169
 185:Core/Src/spi.c ****     GPIO_InitStruct.Mode = GPIO_MODE_AF_PP;
 479              		.loc 1 185 25 is_stmt 0 view .LVU170
 480 00b8 4FF48063 		mov	r3, #1024
 481 00bc 0793     		str	r3, [sp, #28]
 186:Core/Src/spi.c ****     GPIO_InitStruct.Pull = GPIO_NOPULL;
 482              		.loc 1 186 5 is_stmt 1 view .LVU171
 186:Core/Src/spi.c ****     GPIO_InitStruct.Pull = GPIO_NOPULL;
 483              		.loc 1 186 26 is_stmt 0 view .LVU172
 484 00be 0896     		str	r6, [sp, #32]
 187:Core/Src/spi.c ****     GPIO_InitStruct.Speed = GPIO_SPEED_FREQ_VERY_HIGH;
 485              		.loc 1 187 5 is_stmt 1 view .LVU173
 187:Core/Src/spi.c ****     GPIO_InitStruct.Speed = GPIO_SPEED_FREQ_VERY_HIGH;
 486              		.loc 1 187 26 is_stmt 0 view .LVU174
 487 00c0 0023     		movs	r3, #0
 488 00c2 0993     		str	r3, [sp, #36]
 188:Core/Src/spi.c ****     GPIO_InitStruct.Alternate = GPIO_AF5_SPI2;
 489              		.loc 1 188 5 is_stmt 1 view .LVU175
 188:Core/Src/spi.c ****     GPIO_InitStruct.Alternate = GPIO_AF5_SPI2;
 490              		.loc 1 188 27 is_stmt 0 view .LVU176
 491 00c4 0A95     		str	r5, [sp, #40]
 189:Core/Src/spi.c ****     HAL_GPIO_Init(GPIOB, &GPIO_InitStruct);
 492              		.loc 1 189 5 is_stmt 1 view .LVU177
 189:Core/Src/spi.c ****     HAL_GPIO_Init(GPIOB, &GPIO_InitStruct);
 493              		.loc 1 189 31 is_stmt 0 view .LVU178
 494 00c6 0B94     		str	r4, [sp, #44]
 190:Core/Src/spi.c **** 
 495              		.loc 1 190 5 is_stmt 1 view .LVU179
 496 00c8 07A9     		add	r1, sp, #28
 497 00ca 1848     		ldr	r0, .L27+24
 498 00cc FFF7FEFF 		bl	HAL_GPIO_Init
 499              	.LVL14:
 500 00d0 A8E7     		b	.L19
 501              	.LVL15:
 502              	.L26:
 202:Core/Src/spi.c **** 
 503              		.loc 1 202 5 view .LVU180
 504              	.LBB7:
 202:Core/Src/spi.c **** 
 505              		.loc 1 202 5 view .LVU181
 202:Core/Src/spi.c **** 
 506              		.loc 1 202 5 view .LVU182
 507 00d2 134B     		ldr	r3, .L27+12
 508 00d4 5A6C     		ldr	r2, [r3, #68]
 509 00d6 42F40052 		orr	r2, r2, #8192
 510 00da 5A64     		str	r2, [r3, #68]
 202:Core/Src/spi.c **** 
 511              		.loc 1 202 5 view .LVU183
 512 00dc 5A6C     		ldr	r2, [r3, #68]
 513 00de 02F40052 		and	r2, r2, #8192
 514 00e2 0592     		str	r2, [sp, #20]
ARM GAS  /tmp/ccoL83Rj.s 			page 15


 202:Core/Src/spi.c **** 
 515              		.loc 1 202 5 view .LVU184
 516 00e4 059A     		ldr	r2, [sp, #20]
 517              	.LBE7:
 202:Core/Src/spi.c **** 
 518              		.loc 1 202 5 view .LVU185
 204:Core/Src/spi.c ****     /**SPI4 GPIO Configuration
 519              		.loc 1 204 5 view .LVU186
 520              	.LBB8:
 204:Core/Src/spi.c ****     /**SPI4 GPIO Configuration
 521              		.loc 1 204 5 view .LVU187
 204:Core/Src/spi.c ****     /**SPI4 GPIO Configuration
 522              		.loc 1 204 5 view .LVU188
 523 00e6 1A6B     		ldr	r2, [r3, #48]
 524 00e8 42F01002 		orr	r2, r2, #16
 525 00ec 1A63     		str	r2, [r3, #48]
 204:Core/Src/spi.c ****     /**SPI4 GPIO Configuration
 526              		.loc 1 204 5 view .LVU189
 527 00ee 1B6B     		ldr	r3, [r3, #48]
 528 00f0 03F01003 		and	r3, r3, #16
 529 00f4 0693     		str	r3, [sp, #24]
 204:Core/Src/spi.c ****     /**SPI4 GPIO Configuration
 530              		.loc 1 204 5 view .LVU190
 531 00f6 069B     		ldr	r3, [sp, #24]
 532              	.LBE8:
 204:Core/Src/spi.c ****     /**SPI4 GPIO Configuration
 533              		.loc 1 204 5 view .LVU191
 210:Core/Src/spi.c ****     GPIO_InitStruct.Mode = GPIO_MODE_AF_PP;
 534              		.loc 1 210 5 view .LVU192
 210:Core/Src/spi.c ****     GPIO_InitStruct.Mode = GPIO_MODE_AF_PP;
 535              		.loc 1 210 25 is_stmt 0 view .LVU193
 536 00f8 6423     		movs	r3, #100
 537 00fa 0793     		str	r3, [sp, #28]
 211:Core/Src/spi.c ****     GPIO_InitStruct.Pull = GPIO_NOPULL;
 538              		.loc 1 211 5 is_stmt 1 view .LVU194
 211:Core/Src/spi.c ****     GPIO_InitStruct.Pull = GPIO_NOPULL;
 539              		.loc 1 211 26 is_stmt 0 view .LVU195
 540 00fc 0223     		movs	r3, #2
 541 00fe 0893     		str	r3, [sp, #32]
 212:Core/Src/spi.c ****     GPIO_InitStruct.Speed = GPIO_SPEED_FREQ_VERY_HIGH;
 542              		.loc 1 212 5 is_stmt 1 view .LVU196
 213:Core/Src/spi.c ****     GPIO_InitStruct.Alternate = GPIO_AF5_SPI4;
 543              		.loc 1 213 5 view .LVU197
 213:Core/Src/spi.c ****     GPIO_InitStruct.Alternate = GPIO_AF5_SPI4;
 544              		.loc 1 213 27 is_stmt 0 view .LVU198
 545 0100 0323     		movs	r3, #3
 546 0102 0A93     		str	r3, [sp, #40]
 214:Core/Src/spi.c ****     HAL_GPIO_Init(GPIOE, &GPIO_InitStruct);
 547              		.loc 1 214 5 is_stmt 1 view .LVU199
 214:Core/Src/spi.c ****     HAL_GPIO_Init(GPIOE, &GPIO_InitStruct);
 548              		.loc 1 214 31 is_stmt 0 view .LVU200
 549 0104 0523     		movs	r3, #5
 550 0106 0B93     		str	r3, [sp, #44]
 215:Core/Src/spi.c **** 
 551              		.loc 1 215 5 is_stmt 1 view .LVU201
 552 0108 07A9     		add	r1, sp, #28
 553 010a 0948     		ldr	r0, .L27+28
ARM GAS  /tmp/ccoL83Rj.s 			page 16


 554              	.LVL16:
 215:Core/Src/spi.c **** 
 555              		.loc 1 215 5 is_stmt 0 view .LVU202
 556 010c FFF7FEFF 		bl	HAL_GPIO_Init
 557              	.LVL17:
 558              		.loc 1 221 1 view .LVU203
 559 0110 88E7     		b	.L19
 560              	.L28:
 561 0112 00BF     		.align	2
 562              	.L27:
 563 0114 00300140 		.word	1073819648
 564 0118 00380040 		.word	1073756160
 565 011c 00340140 		.word	1073820672
 566 0120 00380240 		.word	1073887232
 567 0124 00000240 		.word	1073872896
 568 0128 00080240 		.word	1073874944
 569 012c 00040240 		.word	1073873920
 570 0130 00100240 		.word	1073876992
 571              		.cfi_endproc
 572              	.LFE144:
 574              		.section	.text.HAL_SPI_MspDeInit,"ax",%progbits
 575              		.align	1
 576              		.global	HAL_SPI_MspDeInit
 577              		.syntax unified
 578              		.thumb
 579              		.thumb_func
 581              	HAL_SPI_MspDeInit:
 582              	.LVL18:
 583              	.LFB145:
 222:Core/Src/spi.c **** 
 223:Core/Src/spi.c **** void HAL_SPI_MspDeInit(SPI_HandleTypeDef* spiHandle)
 224:Core/Src/spi.c **** {
 584              		.loc 1 224 1 is_stmt 1 view -0
 585              		.cfi_startproc
 586              		@ args = 0, pretend = 0, frame = 0
 587              		@ frame_needed = 0, uses_anonymous_args = 0
 588              		.loc 1 224 1 is_stmt 0 view .LVU205
 589 0000 08B5     		push	{r3, lr}
 590              		.cfi_def_cfa_offset 8
 591              		.cfi_offset 3, -8
 592              		.cfi_offset 14, -4
 225:Core/Src/spi.c **** 
 226:Core/Src/spi.c ****   if(spiHandle->Instance==SPI1)
 593              		.loc 1 226 3 is_stmt 1 view .LVU206
 594              		.loc 1 226 15 is_stmt 0 view .LVU207
 595 0002 0368     		ldr	r3, [r0]
 596              		.loc 1 226 5 view .LVU208
 597 0004 174A     		ldr	r2, .L37
 598 0006 9342     		cmp	r3, r2
 599 0008 06D0     		beq	.L34
 227:Core/Src/spi.c ****   {
 228:Core/Src/spi.c ****   /* USER CODE BEGIN SPI1_MspDeInit 0 */
 229:Core/Src/spi.c **** 
 230:Core/Src/spi.c ****   /* USER CODE END SPI1_MspDeInit 0 */
 231:Core/Src/spi.c ****     /* Peripheral clock disable */
 232:Core/Src/spi.c ****     __HAL_RCC_SPI1_CLK_DISABLE();
 233:Core/Src/spi.c **** 
ARM GAS  /tmp/ccoL83Rj.s 			page 17


 234:Core/Src/spi.c ****     /**SPI1 GPIO Configuration
 235:Core/Src/spi.c ****     PA5     ------> SPI1_SCK
 236:Core/Src/spi.c ****     PA6     ------> SPI1_MISO
 237:Core/Src/spi.c ****     PA7     ------> SPI1_MOSI
 238:Core/Src/spi.c ****     */
 239:Core/Src/spi.c ****     HAL_GPIO_DeInit(GPIOA, GPIO_PIN_5|GPIO_PIN_6|GPIO_PIN_7);
 240:Core/Src/spi.c **** 
 241:Core/Src/spi.c ****   /* USER CODE BEGIN SPI1_MspDeInit 1 */
 242:Core/Src/spi.c **** 
 243:Core/Src/spi.c ****   /* USER CODE END SPI1_MspDeInit 1 */
 244:Core/Src/spi.c ****   }
 245:Core/Src/spi.c ****   else if(spiHandle->Instance==SPI2)
 600              		.loc 1 245 8 is_stmt 1 view .LVU209
 601              		.loc 1 245 10 is_stmt 0 view .LVU210
 602 000a 174A     		ldr	r2, .L37+4
 603 000c 9342     		cmp	r3, r2
 604 000e 0ED0     		beq	.L35
 246:Core/Src/spi.c ****   {
 247:Core/Src/spi.c ****   /* USER CODE BEGIN SPI2_MspDeInit 0 */
 248:Core/Src/spi.c **** 
 249:Core/Src/spi.c ****   /* USER CODE END SPI2_MspDeInit 0 */
 250:Core/Src/spi.c ****     /* Peripheral clock disable */
 251:Core/Src/spi.c ****     __HAL_RCC_SPI2_CLK_DISABLE();
 252:Core/Src/spi.c **** 
 253:Core/Src/spi.c ****     /**SPI2 GPIO Configuration
 254:Core/Src/spi.c ****     PC1     ------> SPI2_MOSI
 255:Core/Src/spi.c ****     PC2     ------> SPI2_MISO
 256:Core/Src/spi.c ****     PB10     ------> SPI2_SCK
 257:Core/Src/spi.c ****     */
 258:Core/Src/spi.c ****     HAL_GPIO_DeInit(GPIOC, GPIO_PIN_1|GPIO_PIN_2);
 259:Core/Src/spi.c **** 
 260:Core/Src/spi.c ****     HAL_GPIO_DeInit(GPIOB, GPIO_PIN_10);
 261:Core/Src/spi.c **** 
 262:Core/Src/spi.c ****   /* USER CODE BEGIN SPI2_MspDeInit 1 */
 263:Core/Src/spi.c **** 
 264:Core/Src/spi.c ****   /* USER CODE END SPI2_MspDeInit 1 */
 265:Core/Src/spi.c ****   }
 266:Core/Src/spi.c ****   else if(spiHandle->Instance==SPI4)
 605              		.loc 1 266 8 is_stmt 1 view .LVU211
 606              		.loc 1 266 10 is_stmt 0 view .LVU212
 607 0010 164A     		ldr	r2, .L37+8
 608 0012 9342     		cmp	r3, r2
 609 0014 1BD0     		beq	.L36
 610              	.LVL19:
 611              	.L29:
 267:Core/Src/spi.c ****   {
 268:Core/Src/spi.c ****   /* USER CODE BEGIN SPI4_MspDeInit 0 */
 269:Core/Src/spi.c **** 
 270:Core/Src/spi.c ****   /* USER CODE END SPI4_MspDeInit 0 */
 271:Core/Src/spi.c ****     /* Peripheral clock disable */
 272:Core/Src/spi.c ****     __HAL_RCC_SPI4_CLK_DISABLE();
 273:Core/Src/spi.c **** 
 274:Core/Src/spi.c ****     /**SPI4 GPIO Configuration
 275:Core/Src/spi.c ****     PE2     ------> SPI4_SCK
 276:Core/Src/spi.c ****     PE5     ------> SPI4_MISO
 277:Core/Src/spi.c ****     PE6     ------> SPI4_MOSI
 278:Core/Src/spi.c ****     */
ARM GAS  /tmp/ccoL83Rj.s 			page 18


 279:Core/Src/spi.c ****     HAL_GPIO_DeInit(GPIOE, GPIO_PIN_2|GPIO_PIN_5|GPIO_PIN_6);
 280:Core/Src/spi.c **** 
 281:Core/Src/spi.c ****   /* USER CODE BEGIN SPI4_MspDeInit 1 */
 282:Core/Src/spi.c **** 
 283:Core/Src/spi.c ****   /* USER CODE END SPI4_MspDeInit 1 */
 284:Core/Src/spi.c ****   }
 285:Core/Src/spi.c **** }
 612              		.loc 1 285 1 view .LVU213
 613 0016 08BD     		pop	{r3, pc}
 614              	.LVL20:
 615              	.L34:
 232:Core/Src/spi.c **** 
 616              		.loc 1 232 5 is_stmt 1 view .LVU214
 617 0018 02F58432 		add	r2, r2, #67584
 618 001c 536C     		ldr	r3, [r2, #68]
 619 001e 23F48053 		bic	r3, r3, #4096
 620 0022 5364     		str	r3, [r2, #68]
 239:Core/Src/spi.c **** 
 621              		.loc 1 239 5 view .LVU215
 622 0024 E021     		movs	r1, #224
 623 0026 1248     		ldr	r0, .L37+12
 624              	.LVL21:
 239:Core/Src/spi.c **** 
 625              		.loc 1 239 5 is_stmt 0 view .LVU216
 626 0028 FFF7FEFF 		bl	HAL_GPIO_DeInit
 627              	.LVL22:
 628 002c F3E7     		b	.L29
 629              	.LVL23:
 630              	.L35:
 251:Core/Src/spi.c **** 
 631              		.loc 1 251 5 is_stmt 1 view .LVU217
 632 002e 02F50032 		add	r2, r2, #131072
 633 0032 136C     		ldr	r3, [r2, #64]
 634 0034 23F48043 		bic	r3, r3, #16384
 635 0038 1364     		str	r3, [r2, #64]
 258:Core/Src/spi.c **** 
 636              		.loc 1 258 5 view .LVU218
 637 003a 0621     		movs	r1, #6
 638 003c 0D48     		ldr	r0, .L37+16
 639              	.LVL24:
 258:Core/Src/spi.c **** 
 640              		.loc 1 258 5 is_stmt 0 view .LVU219
 641 003e FFF7FEFF 		bl	HAL_GPIO_DeInit
 642              	.LVL25:
 260:Core/Src/spi.c **** 
 643              		.loc 1 260 5 is_stmt 1 view .LVU220
 644 0042 4FF48061 		mov	r1, #1024
 645 0046 0C48     		ldr	r0, .L37+20
 646 0048 FFF7FEFF 		bl	HAL_GPIO_DeInit
 647              	.LVL26:
 648 004c E3E7     		b	.L29
 649              	.LVL27:
 650              	.L36:
 272:Core/Src/spi.c **** 
 651              		.loc 1 272 5 view .LVU221
 652 004e 02F58232 		add	r2, r2, #66560
 653 0052 536C     		ldr	r3, [r2, #68]
ARM GAS  /tmp/ccoL83Rj.s 			page 19


 654 0054 23F40053 		bic	r3, r3, #8192
 655 0058 5364     		str	r3, [r2, #68]
 279:Core/Src/spi.c **** 
 656              		.loc 1 279 5 view .LVU222
 657 005a 6421     		movs	r1, #100
 658 005c 0748     		ldr	r0, .L37+24
 659              	.LVL28:
 279:Core/Src/spi.c **** 
 660              		.loc 1 279 5 is_stmt 0 view .LVU223
 661 005e FFF7FEFF 		bl	HAL_GPIO_DeInit
 662              	.LVL29:
 663              		.loc 1 285 1 view .LVU224
 664 0062 D8E7     		b	.L29
 665              	.L38:
 666              		.align	2
 667              	.L37:
 668 0064 00300140 		.word	1073819648
 669 0068 00380040 		.word	1073756160
 670 006c 00340140 		.word	1073820672
 671 0070 00000240 		.word	1073872896
 672 0074 00080240 		.word	1073874944
 673 0078 00040240 		.word	1073873920
 674 007c 00100240 		.word	1073876992
 675              		.cfi_endproc
 676              	.LFE145:
 678              		.global	hspi4
 679              		.section	.bss.hspi4,"aw",%nobits
 680              		.align	2
 683              	hspi4:
 684 0000 00000000 		.space	100
 684      00000000 
 684      00000000 
 684      00000000 
 684      00000000 
 685              		.global	hspi2
 686              		.section	.bss.hspi2,"aw",%nobits
 687              		.align	2
 690              	hspi2:
 691 0000 00000000 		.space	100
 691      00000000 
 691      00000000 
 691      00000000 
 691      00000000 
 692              		.global	hspi1
 693              		.section	.bss.hspi1,"aw",%nobits
 694              		.align	2
 697              	hspi1:
 698 0000 00000000 		.space	100
 698      00000000 
 698      00000000 
 698      00000000 
 698      00000000 
 699              		.text
 700              	.Letext0:
 701              		.file 2 "/home/qrsnap/.config/Code/User/globalStorage/bmd.stm32-for-vscode/@xpack-dev-tools/arm-no
 702              		.file 3 "/home/qrsnap/.config/Code/User/globalStorage/bmd.stm32-for-vscode/@xpack-dev-tools/arm-no
 703              		.file 4 "Drivers/CMSIS/Device/ST/STM32F7xx/Include/stm32f723xx.h"
ARM GAS  /tmp/ccoL83Rj.s 			page 20


 704              		.file 5 "Drivers/STM32F7xx_HAL_Driver/Inc/stm32f7xx_hal_def.h"
 705              		.file 6 "Drivers/STM32F7xx_HAL_Driver/Inc/stm32f7xx_hal_gpio.h"
 706              		.file 7 "Drivers/STM32F7xx_HAL_Driver/Inc/stm32f7xx_hal_dma.h"
 707              		.file 8 "Drivers/STM32F7xx_HAL_Driver/Inc/stm32f7xx_hal_spi.h"
 708              		.file 9 "Core/Inc/spi.h"
 709              		.file 10 "Core/Inc/main.h"
ARM GAS  /tmp/ccoL83Rj.s 			page 21

