ARM GAS  /tmp/cclJgRLT.s 			page 1


   1              		.cpu cortex-m7
   2              		.arch armv7e-m
   3              		.fpu fpv5-sp-d16
   4              		.eabi_attribute 27, 1
   5              		.eabi_attribute 28, 1
   6              		.eabi_attribute 20, 1
   7              		.eabi_attribute 21, 1
   8              		.eabi_attribute 23, 3
   9              		.eabi_attribute 24, 1
  10              		.eabi_attribute 25, 1
  11              		.eabi_attribute 26, 1
  12              		.eabi_attribute 30, 1
  13              		.eabi_attribute 34, 1
  14              		.eabi_attribute 18, 4
  15              		.file	"stm32f7xx_hal_dma.c"
  16              		.text
  17              	.Ltext0:
  18              		.cfi_sections	.debug_frame
  19              		.section	.text.DMA_SetConfig,"ax",%progbits
  20              		.align	1
  21              		.syntax unified
  22              		.thumb
  23              		.thumb_func
  25              	DMA_SetConfig:
  26              	.LVL0:
  27              	.LFB153:
  28              		.file 1 "Drivers/STM32F7xx_HAL_Driver/Src/stm32f7xx_hal_dma.c"
   1:Drivers/STM32F7xx_HAL_Driver/Src/stm32f7xx_hal_dma.c **** /**
   2:Drivers/STM32F7xx_HAL_Driver/Src/stm32f7xx_hal_dma.c ****   ******************************************************************************
   3:Drivers/STM32F7xx_HAL_Driver/Src/stm32f7xx_hal_dma.c ****   * @file    stm32f7xx_hal_dma.c
   4:Drivers/STM32F7xx_HAL_Driver/Src/stm32f7xx_hal_dma.c ****   * @author  MCD Application Team
   5:Drivers/STM32F7xx_HAL_Driver/Src/stm32f7xx_hal_dma.c ****   * @brief   DMA HAL module driver.
   6:Drivers/STM32F7xx_HAL_Driver/Src/stm32f7xx_hal_dma.c ****   *    
   7:Drivers/STM32F7xx_HAL_Driver/Src/stm32f7xx_hal_dma.c ****   *          This file provides firmware functions to manage the following 
   8:Drivers/STM32F7xx_HAL_Driver/Src/stm32f7xx_hal_dma.c ****   *          functionalities of the Direct Memory Access (DMA) peripheral:
   9:Drivers/STM32F7xx_HAL_Driver/Src/stm32f7xx_hal_dma.c ****   *           + Initialization and de-initialization functions
  10:Drivers/STM32F7xx_HAL_Driver/Src/stm32f7xx_hal_dma.c ****   *           + IO operation functions
  11:Drivers/STM32F7xx_HAL_Driver/Src/stm32f7xx_hal_dma.c ****   *           + Peripheral State and errors functions
  12:Drivers/STM32F7xx_HAL_Driver/Src/stm32f7xx_hal_dma.c ****   @verbatim     
  13:Drivers/STM32F7xx_HAL_Driver/Src/stm32f7xx_hal_dma.c ****   ==============================================================================
  14:Drivers/STM32F7xx_HAL_Driver/Src/stm32f7xx_hal_dma.c ****                         ##### How to use this driver #####
  15:Drivers/STM32F7xx_HAL_Driver/Src/stm32f7xx_hal_dma.c ****   ==============================================================================
  16:Drivers/STM32F7xx_HAL_Driver/Src/stm32f7xx_hal_dma.c ****   [..]
  17:Drivers/STM32F7xx_HAL_Driver/Src/stm32f7xx_hal_dma.c ****    (#) Enable and configure the peripheral to be connected to the DMA Stream
  18:Drivers/STM32F7xx_HAL_Driver/Src/stm32f7xx_hal_dma.c ****        (except for internal SRAM/FLASH memories: no initialization is 
  19:Drivers/STM32F7xx_HAL_Driver/Src/stm32f7xx_hal_dma.c ****        necessary) please refer to Reference manual for connection between peripherals
  20:Drivers/STM32F7xx_HAL_Driver/Src/stm32f7xx_hal_dma.c ****        and DMA requests.
  21:Drivers/STM32F7xx_HAL_Driver/Src/stm32f7xx_hal_dma.c **** 
  22:Drivers/STM32F7xx_HAL_Driver/Src/stm32f7xx_hal_dma.c ****    (#) For a given Stream, program the required configuration through the following parameters:
  23:Drivers/STM32F7xx_HAL_Driver/Src/stm32f7xx_hal_dma.c ****        Transfer Direction, Source and Destination data formats, 
  24:Drivers/STM32F7xx_HAL_Driver/Src/stm32f7xx_hal_dma.c ****        Circular, Normal or peripheral flow control mode, Stream Priority level, 
  25:Drivers/STM32F7xx_HAL_Driver/Src/stm32f7xx_hal_dma.c ****        Source and Destination Increment mode, FIFO mode and its Threshold (if needed), 
  26:Drivers/STM32F7xx_HAL_Driver/Src/stm32f7xx_hal_dma.c ****        Burst mode for Source and/or Destination (if needed) using HAL_DMA_Init() function.
  27:Drivers/STM32F7xx_HAL_Driver/Src/stm32f7xx_hal_dma.c **** 
  28:Drivers/STM32F7xx_HAL_Driver/Src/stm32f7xx_hal_dma.c ****    -@-   Prior to HAL_DMA_Init() the clock must be enabled for DMA through the following macros:
  29:Drivers/STM32F7xx_HAL_Driver/Src/stm32f7xx_hal_dma.c ****          __HAL_RCC_DMA1_CLK_ENABLE() or __HAL_RCC_DMA2_CLK_ENABLE().
  30:Drivers/STM32F7xx_HAL_Driver/Src/stm32f7xx_hal_dma.c **** 
ARM GAS  /tmp/cclJgRLT.s 			page 2


  31:Drivers/STM32F7xx_HAL_Driver/Src/stm32f7xx_hal_dma.c ****      *** Polling mode IO operation ***
  32:Drivers/STM32F7xx_HAL_Driver/Src/stm32f7xx_hal_dma.c ****      =================================
  33:Drivers/STM32F7xx_HAL_Driver/Src/stm32f7xx_hal_dma.c ****     [..]
  34:Drivers/STM32F7xx_HAL_Driver/Src/stm32f7xx_hal_dma.c ****           (+) Use HAL_DMA_Start() to start DMA transfer after the configuration of Source 
  35:Drivers/STM32F7xx_HAL_Driver/Src/stm32f7xx_hal_dma.c ****               address and destination address and the Length of data to be transferred.
  36:Drivers/STM32F7xx_HAL_Driver/Src/stm32f7xx_hal_dma.c ****           (+) Use HAL_DMA_PollForTransfer() to poll for the end of current transfer, in this  
  37:Drivers/STM32F7xx_HAL_Driver/Src/stm32f7xx_hal_dma.c ****               case a fixed Timeout can be configured by User depending from his application.
  38:Drivers/STM32F7xx_HAL_Driver/Src/stm32f7xx_hal_dma.c ****           (+) Use HAL_DMA_Abort() function to abort the current transfer.
  39:Drivers/STM32F7xx_HAL_Driver/Src/stm32f7xx_hal_dma.c **** 
  40:Drivers/STM32F7xx_HAL_Driver/Src/stm32f7xx_hal_dma.c ****      *** Interrupt mode IO operation ***
  41:Drivers/STM32F7xx_HAL_Driver/Src/stm32f7xx_hal_dma.c ****      ===================================
  42:Drivers/STM32F7xx_HAL_Driver/Src/stm32f7xx_hal_dma.c ****     [..]
  43:Drivers/STM32F7xx_HAL_Driver/Src/stm32f7xx_hal_dma.c ****           (+) Configure the DMA interrupt priority using HAL_NVIC_SetPriority()
  44:Drivers/STM32F7xx_HAL_Driver/Src/stm32f7xx_hal_dma.c ****           (+) Enable the DMA IRQ handler using HAL_NVIC_EnableIRQ()
  45:Drivers/STM32F7xx_HAL_Driver/Src/stm32f7xx_hal_dma.c ****           (+) Select Callbacks functions using HAL_DMA_RegisterCallback()
  46:Drivers/STM32F7xx_HAL_Driver/Src/stm32f7xx_hal_dma.c ****           (+) Use HAL_DMA_Start_IT() to start DMA transfer after the configuration of  
  47:Drivers/STM32F7xx_HAL_Driver/Src/stm32f7xx_hal_dma.c ****               Source address and destination address and the Length of data to be transferred. In t
  48:Drivers/STM32F7xx_HAL_Driver/Src/stm32f7xx_hal_dma.c ****               case the DMA interrupt is configured 
  49:Drivers/STM32F7xx_HAL_Driver/Src/stm32f7xx_hal_dma.c ****           (+) Use HAL_DMA_IRQHandler() called under DMA_IRQHandler() Interrupt subroutine
  50:Drivers/STM32F7xx_HAL_Driver/Src/stm32f7xx_hal_dma.c ****           (+) At the end of data transfer HAL_DMA_IRQHandler() function is executed and user can 
  51:Drivers/STM32F7xx_HAL_Driver/Src/stm32f7xx_hal_dma.c ****               add his own function by customization of function pointer XferCpltCallback and 
  52:Drivers/STM32F7xx_HAL_Driver/Src/stm32f7xx_hal_dma.c ****               XferErrorCallback (i.e a member of DMA handle structure).
  53:Drivers/STM32F7xx_HAL_Driver/Src/stm32f7xx_hal_dma.c ****     [..]
  54:Drivers/STM32F7xx_HAL_Driver/Src/stm32f7xx_hal_dma.c ****      (#) Use HAL_DMA_GetState() function to return the DMA state and HAL_DMA_GetError() in case of 
  55:Drivers/STM32F7xx_HAL_Driver/Src/stm32f7xx_hal_dma.c ****          detection.
  56:Drivers/STM32F7xx_HAL_Driver/Src/stm32f7xx_hal_dma.c **** 
  57:Drivers/STM32F7xx_HAL_Driver/Src/stm32f7xx_hal_dma.c ****      (#) Use HAL_DMA_Abort_IT() function to abort the current transfer
  58:Drivers/STM32F7xx_HAL_Driver/Src/stm32f7xx_hal_dma.c **** 
  59:Drivers/STM32F7xx_HAL_Driver/Src/stm32f7xx_hal_dma.c ****      -@-   In Memory-to-Memory transfer mode, Circular mode is not allowed.
  60:Drivers/STM32F7xx_HAL_Driver/Src/stm32f7xx_hal_dma.c **** 
  61:Drivers/STM32F7xx_HAL_Driver/Src/stm32f7xx_hal_dma.c ****      -@-   The FIFO is used mainly to reduce bus usage and to allow data packing/unpacking: it is
  62:Drivers/STM32F7xx_HAL_Driver/Src/stm32f7xx_hal_dma.c ****            possible to set different Data Sizes for the Peripheral and the Memory (ie. you can set
  63:Drivers/STM32F7xx_HAL_Driver/Src/stm32f7xx_hal_dma.c ****            Half-Word data size for the peripheral to access its data register and set Word data siz
  64:Drivers/STM32F7xx_HAL_Driver/Src/stm32f7xx_hal_dma.c ****            for the Memory to gain in access time. Each two half words will be packed and written in
  65:Drivers/STM32F7xx_HAL_Driver/Src/stm32f7xx_hal_dma.c ****            a single access to a Word in the Memory).
  66:Drivers/STM32F7xx_HAL_Driver/Src/stm32f7xx_hal_dma.c **** 
  67:Drivers/STM32F7xx_HAL_Driver/Src/stm32f7xx_hal_dma.c ****      -@-   When FIFO is disabled, it is not allowed to configure different Data Sizes for Source
  68:Drivers/STM32F7xx_HAL_Driver/Src/stm32f7xx_hal_dma.c ****            and Destination. In this case the Peripheral Data Size will be applied to both Source
  69:Drivers/STM32F7xx_HAL_Driver/Src/stm32f7xx_hal_dma.c ****            and Destination.
  70:Drivers/STM32F7xx_HAL_Driver/Src/stm32f7xx_hal_dma.c **** 
  71:Drivers/STM32F7xx_HAL_Driver/Src/stm32f7xx_hal_dma.c ****      *** DMA HAL driver macros list ***
  72:Drivers/STM32F7xx_HAL_Driver/Src/stm32f7xx_hal_dma.c ****      =============================================
  73:Drivers/STM32F7xx_HAL_Driver/Src/stm32f7xx_hal_dma.c ****      [..]
  74:Drivers/STM32F7xx_HAL_Driver/Src/stm32f7xx_hal_dma.c ****        Below the list of most used macros in DMA HAL driver.
  75:Drivers/STM32F7xx_HAL_Driver/Src/stm32f7xx_hal_dma.c ****        
  76:Drivers/STM32F7xx_HAL_Driver/Src/stm32f7xx_hal_dma.c ****       (+) __HAL_DMA_ENABLE: Enable the specified DMA Stream.
  77:Drivers/STM32F7xx_HAL_Driver/Src/stm32f7xx_hal_dma.c ****       (+) __HAL_DMA_DISABLE: Disable the specified DMA Stream.
  78:Drivers/STM32F7xx_HAL_Driver/Src/stm32f7xx_hal_dma.c ****       (+) __HAL_DMA_GET_IT_SOURCE: Check whether the specified DMA Stream interrupt has occurred or
  79:Drivers/STM32F7xx_HAL_Driver/Src/stm32f7xx_hal_dma.c **** 
  80:Drivers/STM32F7xx_HAL_Driver/Src/stm32f7xx_hal_dma.c ****      [..]
  81:Drivers/STM32F7xx_HAL_Driver/Src/stm32f7xx_hal_dma.c ****       (@) You can refer to the DMA HAL driver header file for more useful macros
  82:Drivers/STM32F7xx_HAL_Driver/Src/stm32f7xx_hal_dma.c **** 
  83:Drivers/STM32F7xx_HAL_Driver/Src/stm32f7xx_hal_dma.c ****   @endverbatim
  84:Drivers/STM32F7xx_HAL_Driver/Src/stm32f7xx_hal_dma.c ****   ******************************************************************************
  85:Drivers/STM32F7xx_HAL_Driver/Src/stm32f7xx_hal_dma.c ****   * @attention
  86:Drivers/STM32F7xx_HAL_Driver/Src/stm32f7xx_hal_dma.c ****   *
  87:Drivers/STM32F7xx_HAL_Driver/Src/stm32f7xx_hal_dma.c ****   * Copyright (c) 2017 STMicroelectronics.
ARM GAS  /tmp/cclJgRLT.s 			page 3


  88:Drivers/STM32F7xx_HAL_Driver/Src/stm32f7xx_hal_dma.c ****   * All rights reserved.
  89:Drivers/STM32F7xx_HAL_Driver/Src/stm32f7xx_hal_dma.c ****   *
  90:Drivers/STM32F7xx_HAL_Driver/Src/stm32f7xx_hal_dma.c ****   * This software is licensed under terms that can be found in the LICENSE file in
  91:Drivers/STM32F7xx_HAL_Driver/Src/stm32f7xx_hal_dma.c ****   * the root directory of this software component.
  92:Drivers/STM32F7xx_HAL_Driver/Src/stm32f7xx_hal_dma.c ****   * If no LICENSE file comes with this software, it is provided AS-IS.
  93:Drivers/STM32F7xx_HAL_Driver/Src/stm32f7xx_hal_dma.c ****   *
  94:Drivers/STM32F7xx_HAL_Driver/Src/stm32f7xx_hal_dma.c ****   ******************************************************************************
  95:Drivers/STM32F7xx_HAL_Driver/Src/stm32f7xx_hal_dma.c ****   */ 
  96:Drivers/STM32F7xx_HAL_Driver/Src/stm32f7xx_hal_dma.c **** 
  97:Drivers/STM32F7xx_HAL_Driver/Src/stm32f7xx_hal_dma.c **** /* Includes ------------------------------------------------------------------*/
  98:Drivers/STM32F7xx_HAL_Driver/Src/stm32f7xx_hal_dma.c **** #include "stm32f7xx_hal.h"
  99:Drivers/STM32F7xx_HAL_Driver/Src/stm32f7xx_hal_dma.c **** 
 100:Drivers/STM32F7xx_HAL_Driver/Src/stm32f7xx_hal_dma.c **** /** @addtogroup STM32F7xx_HAL_Driver
 101:Drivers/STM32F7xx_HAL_Driver/Src/stm32f7xx_hal_dma.c ****   * @{
 102:Drivers/STM32F7xx_HAL_Driver/Src/stm32f7xx_hal_dma.c ****   */
 103:Drivers/STM32F7xx_HAL_Driver/Src/stm32f7xx_hal_dma.c **** 
 104:Drivers/STM32F7xx_HAL_Driver/Src/stm32f7xx_hal_dma.c **** /** @defgroup DMA DMA
 105:Drivers/STM32F7xx_HAL_Driver/Src/stm32f7xx_hal_dma.c ****   * @brief DMA HAL module driver
 106:Drivers/STM32F7xx_HAL_Driver/Src/stm32f7xx_hal_dma.c ****   * @{
 107:Drivers/STM32F7xx_HAL_Driver/Src/stm32f7xx_hal_dma.c ****   */
 108:Drivers/STM32F7xx_HAL_Driver/Src/stm32f7xx_hal_dma.c **** 
 109:Drivers/STM32F7xx_HAL_Driver/Src/stm32f7xx_hal_dma.c **** #ifdef HAL_DMA_MODULE_ENABLED
 110:Drivers/STM32F7xx_HAL_Driver/Src/stm32f7xx_hal_dma.c **** 
 111:Drivers/STM32F7xx_HAL_Driver/Src/stm32f7xx_hal_dma.c **** /* Private types -------------------------------------------------------------*/
 112:Drivers/STM32F7xx_HAL_Driver/Src/stm32f7xx_hal_dma.c **** typedef struct
 113:Drivers/STM32F7xx_HAL_Driver/Src/stm32f7xx_hal_dma.c **** {
 114:Drivers/STM32F7xx_HAL_Driver/Src/stm32f7xx_hal_dma.c ****   __IO uint32_t ISR;   /*!< DMA interrupt status register */
 115:Drivers/STM32F7xx_HAL_Driver/Src/stm32f7xx_hal_dma.c ****   __IO uint32_t Reserved0;
 116:Drivers/STM32F7xx_HAL_Driver/Src/stm32f7xx_hal_dma.c ****   __IO uint32_t IFCR;  /*!< DMA interrupt flag clear register */
 117:Drivers/STM32F7xx_HAL_Driver/Src/stm32f7xx_hal_dma.c **** } DMA_Base_Registers;
 118:Drivers/STM32F7xx_HAL_Driver/Src/stm32f7xx_hal_dma.c **** 
 119:Drivers/STM32F7xx_HAL_Driver/Src/stm32f7xx_hal_dma.c **** /* Private variables ---------------------------------------------------------*/
 120:Drivers/STM32F7xx_HAL_Driver/Src/stm32f7xx_hal_dma.c **** /* Private constants ---------------------------------------------------------*/
 121:Drivers/STM32F7xx_HAL_Driver/Src/stm32f7xx_hal_dma.c **** /** @addtogroup DMA_Private_Constants
 122:Drivers/STM32F7xx_HAL_Driver/Src/stm32f7xx_hal_dma.c ****  * @{
 123:Drivers/STM32F7xx_HAL_Driver/Src/stm32f7xx_hal_dma.c ****  */
 124:Drivers/STM32F7xx_HAL_Driver/Src/stm32f7xx_hal_dma.c ****  #define HAL_TIMEOUT_DMA_ABORT    ((uint32_t)5)  /* 5 ms */
 125:Drivers/STM32F7xx_HAL_Driver/Src/stm32f7xx_hal_dma.c **** /**
 126:Drivers/STM32F7xx_HAL_Driver/Src/stm32f7xx_hal_dma.c ****   * @}
 127:Drivers/STM32F7xx_HAL_Driver/Src/stm32f7xx_hal_dma.c ****   */
 128:Drivers/STM32F7xx_HAL_Driver/Src/stm32f7xx_hal_dma.c **** /* Private macros ------------------------------------------------------------*/
 129:Drivers/STM32F7xx_HAL_Driver/Src/stm32f7xx_hal_dma.c **** /* Private functions ---------------------------------------------------------*/
 130:Drivers/STM32F7xx_HAL_Driver/Src/stm32f7xx_hal_dma.c **** /** @addtogroup DMA_Private_Functions
 131:Drivers/STM32F7xx_HAL_Driver/Src/stm32f7xx_hal_dma.c ****   * @{
 132:Drivers/STM32F7xx_HAL_Driver/Src/stm32f7xx_hal_dma.c ****   */
 133:Drivers/STM32F7xx_HAL_Driver/Src/stm32f7xx_hal_dma.c **** static void DMA_SetConfig(DMA_HandleTypeDef *hdma, uint32_t SrcAddress, uint32_t DstAddress, uint32
 134:Drivers/STM32F7xx_HAL_Driver/Src/stm32f7xx_hal_dma.c **** static uint32_t DMA_CalcBaseAndBitshift(DMA_HandleTypeDef *hdma);
 135:Drivers/STM32F7xx_HAL_Driver/Src/stm32f7xx_hal_dma.c **** static HAL_StatusTypeDef DMA_CheckFifoParam(DMA_HandleTypeDef *hdma);
 136:Drivers/STM32F7xx_HAL_Driver/Src/stm32f7xx_hal_dma.c **** 
 137:Drivers/STM32F7xx_HAL_Driver/Src/stm32f7xx_hal_dma.c **** /**
 138:Drivers/STM32F7xx_HAL_Driver/Src/stm32f7xx_hal_dma.c ****   * @}
 139:Drivers/STM32F7xx_HAL_Driver/Src/stm32f7xx_hal_dma.c ****   */  
 140:Drivers/STM32F7xx_HAL_Driver/Src/stm32f7xx_hal_dma.c **** 
 141:Drivers/STM32F7xx_HAL_Driver/Src/stm32f7xx_hal_dma.c **** /* Exported functions ---------------------------------------------------------*/
 142:Drivers/STM32F7xx_HAL_Driver/Src/stm32f7xx_hal_dma.c **** /** @addtogroup DMA_Exported_Functions
 143:Drivers/STM32F7xx_HAL_Driver/Src/stm32f7xx_hal_dma.c ****   * @{
 144:Drivers/STM32F7xx_HAL_Driver/Src/stm32f7xx_hal_dma.c ****   */
ARM GAS  /tmp/cclJgRLT.s 			page 4


 145:Drivers/STM32F7xx_HAL_Driver/Src/stm32f7xx_hal_dma.c **** 
 146:Drivers/STM32F7xx_HAL_Driver/Src/stm32f7xx_hal_dma.c **** /** @addtogroup DMA_Exported_Functions_Group1
 147:Drivers/STM32F7xx_HAL_Driver/Src/stm32f7xx_hal_dma.c ****   *
 148:Drivers/STM32F7xx_HAL_Driver/Src/stm32f7xx_hal_dma.c **** @verbatim
 149:Drivers/STM32F7xx_HAL_Driver/Src/stm32f7xx_hal_dma.c ****  ===============================================================================
 150:Drivers/STM32F7xx_HAL_Driver/Src/stm32f7xx_hal_dma.c ****              ##### Initialization and de-initialization functions  #####
 151:Drivers/STM32F7xx_HAL_Driver/Src/stm32f7xx_hal_dma.c ****  ===============================================================================
 152:Drivers/STM32F7xx_HAL_Driver/Src/stm32f7xx_hal_dma.c ****     [..]
 153:Drivers/STM32F7xx_HAL_Driver/Src/stm32f7xx_hal_dma.c ****     This section provides functions allowing to initialize the DMA Stream source
 154:Drivers/STM32F7xx_HAL_Driver/Src/stm32f7xx_hal_dma.c ****     and destination addresses, incrementation and data sizes, transfer direction, 
 155:Drivers/STM32F7xx_HAL_Driver/Src/stm32f7xx_hal_dma.c ****     circular/normal mode selection, memory-to-memory mode selection and Stream priority value.
 156:Drivers/STM32F7xx_HAL_Driver/Src/stm32f7xx_hal_dma.c ****     [..]
 157:Drivers/STM32F7xx_HAL_Driver/Src/stm32f7xx_hal_dma.c ****     The HAL_DMA_Init() function follows the DMA configuration procedures as described in
 158:Drivers/STM32F7xx_HAL_Driver/Src/stm32f7xx_hal_dma.c ****     reference manual.
 159:Drivers/STM32F7xx_HAL_Driver/Src/stm32f7xx_hal_dma.c **** 
 160:Drivers/STM32F7xx_HAL_Driver/Src/stm32f7xx_hal_dma.c **** @endverbatim
 161:Drivers/STM32F7xx_HAL_Driver/Src/stm32f7xx_hal_dma.c ****   * @{
 162:Drivers/STM32F7xx_HAL_Driver/Src/stm32f7xx_hal_dma.c ****   */
 163:Drivers/STM32F7xx_HAL_Driver/Src/stm32f7xx_hal_dma.c ****   
 164:Drivers/STM32F7xx_HAL_Driver/Src/stm32f7xx_hal_dma.c **** /**
 165:Drivers/STM32F7xx_HAL_Driver/Src/stm32f7xx_hal_dma.c ****   * @brief  Initialize the DMA according to the specified
 166:Drivers/STM32F7xx_HAL_Driver/Src/stm32f7xx_hal_dma.c ****   *         parameters in the DMA_InitTypeDef and create the associated handle.
 167:Drivers/STM32F7xx_HAL_Driver/Src/stm32f7xx_hal_dma.c ****   * @param  hdma Pointer to a DMA_HandleTypeDef structure that contains
 168:Drivers/STM32F7xx_HAL_Driver/Src/stm32f7xx_hal_dma.c ****   *               the configuration information for the specified DMA Stream.  
 169:Drivers/STM32F7xx_HAL_Driver/Src/stm32f7xx_hal_dma.c ****   * @retval HAL status
 170:Drivers/STM32F7xx_HAL_Driver/Src/stm32f7xx_hal_dma.c ****   */
 171:Drivers/STM32F7xx_HAL_Driver/Src/stm32f7xx_hal_dma.c **** HAL_StatusTypeDef HAL_DMA_Init(DMA_HandleTypeDef *hdma)
 172:Drivers/STM32F7xx_HAL_Driver/Src/stm32f7xx_hal_dma.c **** {
 173:Drivers/STM32F7xx_HAL_Driver/Src/stm32f7xx_hal_dma.c ****   uint32_t tmp = 0U;
 174:Drivers/STM32F7xx_HAL_Driver/Src/stm32f7xx_hal_dma.c ****   uint32_t tickstart = HAL_GetTick();
 175:Drivers/STM32F7xx_HAL_Driver/Src/stm32f7xx_hal_dma.c ****   DMA_Base_Registers *regs;
 176:Drivers/STM32F7xx_HAL_Driver/Src/stm32f7xx_hal_dma.c **** 
 177:Drivers/STM32F7xx_HAL_Driver/Src/stm32f7xx_hal_dma.c ****   /* Check the DMA peripheral state */
 178:Drivers/STM32F7xx_HAL_Driver/Src/stm32f7xx_hal_dma.c ****   if(hdma == NULL)
 179:Drivers/STM32F7xx_HAL_Driver/Src/stm32f7xx_hal_dma.c ****   {
 180:Drivers/STM32F7xx_HAL_Driver/Src/stm32f7xx_hal_dma.c ****     return HAL_ERROR;
 181:Drivers/STM32F7xx_HAL_Driver/Src/stm32f7xx_hal_dma.c ****   }
 182:Drivers/STM32F7xx_HAL_Driver/Src/stm32f7xx_hal_dma.c **** 
 183:Drivers/STM32F7xx_HAL_Driver/Src/stm32f7xx_hal_dma.c ****   /* Check the parameters */
 184:Drivers/STM32F7xx_HAL_Driver/Src/stm32f7xx_hal_dma.c ****   assert_param(IS_DMA_STREAM_ALL_INSTANCE(hdma->Instance));
 185:Drivers/STM32F7xx_HAL_Driver/Src/stm32f7xx_hal_dma.c ****   assert_param(IS_DMA_CHANNEL(hdma->Init.Channel));
 186:Drivers/STM32F7xx_HAL_Driver/Src/stm32f7xx_hal_dma.c ****   assert_param(IS_DMA_DIRECTION(hdma->Init.Direction));
 187:Drivers/STM32F7xx_HAL_Driver/Src/stm32f7xx_hal_dma.c ****   assert_param(IS_DMA_PERIPHERAL_INC_STATE(hdma->Init.PeriphInc));
 188:Drivers/STM32F7xx_HAL_Driver/Src/stm32f7xx_hal_dma.c ****   assert_param(IS_DMA_MEMORY_INC_STATE(hdma->Init.MemInc));
 189:Drivers/STM32F7xx_HAL_Driver/Src/stm32f7xx_hal_dma.c ****   assert_param(IS_DMA_PERIPHERAL_DATA_SIZE(hdma->Init.PeriphDataAlignment));
 190:Drivers/STM32F7xx_HAL_Driver/Src/stm32f7xx_hal_dma.c ****   assert_param(IS_DMA_MEMORY_DATA_SIZE(hdma->Init.MemDataAlignment));
 191:Drivers/STM32F7xx_HAL_Driver/Src/stm32f7xx_hal_dma.c ****   assert_param(IS_DMA_MODE(hdma->Init.Mode));
 192:Drivers/STM32F7xx_HAL_Driver/Src/stm32f7xx_hal_dma.c ****   assert_param(IS_DMA_PRIORITY(hdma->Init.Priority));
 193:Drivers/STM32F7xx_HAL_Driver/Src/stm32f7xx_hal_dma.c ****   assert_param(IS_DMA_FIFO_MODE_STATE(hdma->Init.FIFOMode));
 194:Drivers/STM32F7xx_HAL_Driver/Src/stm32f7xx_hal_dma.c ****   /* Check the memory burst, peripheral burst and FIFO threshold parameters only
 195:Drivers/STM32F7xx_HAL_Driver/Src/stm32f7xx_hal_dma.c ****      when FIFO mode is enabled */
 196:Drivers/STM32F7xx_HAL_Driver/Src/stm32f7xx_hal_dma.c ****   if(hdma->Init.FIFOMode != DMA_FIFOMODE_DISABLE)
 197:Drivers/STM32F7xx_HAL_Driver/Src/stm32f7xx_hal_dma.c ****   {
 198:Drivers/STM32F7xx_HAL_Driver/Src/stm32f7xx_hal_dma.c ****     assert_param(IS_DMA_FIFO_THRESHOLD(hdma->Init.FIFOThreshold));
 199:Drivers/STM32F7xx_HAL_Driver/Src/stm32f7xx_hal_dma.c ****     assert_param(IS_DMA_MEMORY_BURST(hdma->Init.MemBurst));
 200:Drivers/STM32F7xx_HAL_Driver/Src/stm32f7xx_hal_dma.c ****     assert_param(IS_DMA_PERIPHERAL_BURST(hdma->Init.PeriphBurst));
 201:Drivers/STM32F7xx_HAL_Driver/Src/stm32f7xx_hal_dma.c ****   }
ARM GAS  /tmp/cclJgRLT.s 			page 5


 202:Drivers/STM32F7xx_HAL_Driver/Src/stm32f7xx_hal_dma.c ****   
 203:Drivers/STM32F7xx_HAL_Driver/Src/stm32f7xx_hal_dma.c ****   /* Change DMA peripheral state */
 204:Drivers/STM32F7xx_HAL_Driver/Src/stm32f7xx_hal_dma.c ****   hdma->State = HAL_DMA_STATE_BUSY;
 205:Drivers/STM32F7xx_HAL_Driver/Src/stm32f7xx_hal_dma.c ****   
 206:Drivers/STM32F7xx_HAL_Driver/Src/stm32f7xx_hal_dma.c ****   /* Allocate lock resource */
 207:Drivers/STM32F7xx_HAL_Driver/Src/stm32f7xx_hal_dma.c ****   __HAL_UNLOCK(hdma);
 208:Drivers/STM32F7xx_HAL_Driver/Src/stm32f7xx_hal_dma.c **** 
 209:Drivers/STM32F7xx_HAL_Driver/Src/stm32f7xx_hal_dma.c ****   
 210:Drivers/STM32F7xx_HAL_Driver/Src/stm32f7xx_hal_dma.c ****   /* Disable the peripheral */
 211:Drivers/STM32F7xx_HAL_Driver/Src/stm32f7xx_hal_dma.c ****   __HAL_DMA_DISABLE(hdma);
 212:Drivers/STM32F7xx_HAL_Driver/Src/stm32f7xx_hal_dma.c ****   
 213:Drivers/STM32F7xx_HAL_Driver/Src/stm32f7xx_hal_dma.c ****   /* Check if the DMA Stream is effectively disabled */
 214:Drivers/STM32F7xx_HAL_Driver/Src/stm32f7xx_hal_dma.c ****   while((hdma->Instance->CR & DMA_SxCR_EN) != RESET)
 215:Drivers/STM32F7xx_HAL_Driver/Src/stm32f7xx_hal_dma.c ****   {
 216:Drivers/STM32F7xx_HAL_Driver/Src/stm32f7xx_hal_dma.c ****     /* Check for the Timeout */
 217:Drivers/STM32F7xx_HAL_Driver/Src/stm32f7xx_hal_dma.c ****     if((HAL_GetTick() - tickstart ) > HAL_TIMEOUT_DMA_ABORT)
 218:Drivers/STM32F7xx_HAL_Driver/Src/stm32f7xx_hal_dma.c ****     {
 219:Drivers/STM32F7xx_HAL_Driver/Src/stm32f7xx_hal_dma.c ****       /* Update error code */
 220:Drivers/STM32F7xx_HAL_Driver/Src/stm32f7xx_hal_dma.c ****       hdma->ErrorCode = HAL_DMA_ERROR_TIMEOUT;
 221:Drivers/STM32F7xx_HAL_Driver/Src/stm32f7xx_hal_dma.c ****       
 222:Drivers/STM32F7xx_HAL_Driver/Src/stm32f7xx_hal_dma.c ****       /* Change the DMA state */
 223:Drivers/STM32F7xx_HAL_Driver/Src/stm32f7xx_hal_dma.c ****       hdma->State = HAL_DMA_STATE_TIMEOUT;
 224:Drivers/STM32F7xx_HAL_Driver/Src/stm32f7xx_hal_dma.c ****       
 225:Drivers/STM32F7xx_HAL_Driver/Src/stm32f7xx_hal_dma.c ****       return HAL_TIMEOUT;
 226:Drivers/STM32F7xx_HAL_Driver/Src/stm32f7xx_hal_dma.c ****     }
 227:Drivers/STM32F7xx_HAL_Driver/Src/stm32f7xx_hal_dma.c ****   }
 228:Drivers/STM32F7xx_HAL_Driver/Src/stm32f7xx_hal_dma.c ****   
 229:Drivers/STM32F7xx_HAL_Driver/Src/stm32f7xx_hal_dma.c ****   /* Get the CR register value */
 230:Drivers/STM32F7xx_HAL_Driver/Src/stm32f7xx_hal_dma.c ****   tmp = hdma->Instance->CR;
 231:Drivers/STM32F7xx_HAL_Driver/Src/stm32f7xx_hal_dma.c **** 
 232:Drivers/STM32F7xx_HAL_Driver/Src/stm32f7xx_hal_dma.c ****   /* Clear CHSEL, MBURST, PBURST, PL, MSIZE, PSIZE, MINC, PINC, CIRC, DIR, CT and DBM bits */
 233:Drivers/STM32F7xx_HAL_Driver/Src/stm32f7xx_hal_dma.c ****   tmp &= ((uint32_t)~(DMA_SxCR_CHSEL | DMA_SxCR_MBURST | DMA_SxCR_PBURST | \
 234:Drivers/STM32F7xx_HAL_Driver/Src/stm32f7xx_hal_dma.c ****                       DMA_SxCR_PL    | DMA_SxCR_MSIZE  | DMA_SxCR_PSIZE  | \
 235:Drivers/STM32F7xx_HAL_Driver/Src/stm32f7xx_hal_dma.c ****                       DMA_SxCR_MINC  | DMA_SxCR_PINC   | DMA_SxCR_CIRC   | \
 236:Drivers/STM32F7xx_HAL_Driver/Src/stm32f7xx_hal_dma.c ****                       DMA_SxCR_DIR   | DMA_SxCR_CT     | DMA_SxCR_DBM));
 237:Drivers/STM32F7xx_HAL_Driver/Src/stm32f7xx_hal_dma.c **** 
 238:Drivers/STM32F7xx_HAL_Driver/Src/stm32f7xx_hal_dma.c ****   /* Prepare the DMA Stream configuration */
 239:Drivers/STM32F7xx_HAL_Driver/Src/stm32f7xx_hal_dma.c ****   tmp |=  hdma->Init.Channel             | hdma->Init.Direction        |
 240:Drivers/STM32F7xx_HAL_Driver/Src/stm32f7xx_hal_dma.c ****           hdma->Init.PeriphInc           | hdma->Init.MemInc           |
 241:Drivers/STM32F7xx_HAL_Driver/Src/stm32f7xx_hal_dma.c ****           hdma->Init.PeriphDataAlignment | hdma->Init.MemDataAlignment |
 242:Drivers/STM32F7xx_HAL_Driver/Src/stm32f7xx_hal_dma.c ****           hdma->Init.Mode                | hdma->Init.Priority;
 243:Drivers/STM32F7xx_HAL_Driver/Src/stm32f7xx_hal_dma.c **** 
 244:Drivers/STM32F7xx_HAL_Driver/Src/stm32f7xx_hal_dma.c ****   /* the Memory burst and peripheral burst are not used when the FIFO is disabled */
 245:Drivers/STM32F7xx_HAL_Driver/Src/stm32f7xx_hal_dma.c ****   if(hdma->Init.FIFOMode == DMA_FIFOMODE_ENABLE)
 246:Drivers/STM32F7xx_HAL_Driver/Src/stm32f7xx_hal_dma.c ****   {
 247:Drivers/STM32F7xx_HAL_Driver/Src/stm32f7xx_hal_dma.c ****     /* Get memory burst and peripheral burst */
 248:Drivers/STM32F7xx_HAL_Driver/Src/stm32f7xx_hal_dma.c ****     tmp |=  hdma->Init.MemBurst | hdma->Init.PeriphBurst;
 249:Drivers/STM32F7xx_HAL_Driver/Src/stm32f7xx_hal_dma.c ****   }
 250:Drivers/STM32F7xx_HAL_Driver/Src/stm32f7xx_hal_dma.c ****   
 251:Drivers/STM32F7xx_HAL_Driver/Src/stm32f7xx_hal_dma.c ****   /* Write to DMA Stream CR register */
 252:Drivers/STM32F7xx_HAL_Driver/Src/stm32f7xx_hal_dma.c ****   hdma->Instance->CR = tmp;  
 253:Drivers/STM32F7xx_HAL_Driver/Src/stm32f7xx_hal_dma.c **** 
 254:Drivers/STM32F7xx_HAL_Driver/Src/stm32f7xx_hal_dma.c ****   /* Get the FCR register value */
 255:Drivers/STM32F7xx_HAL_Driver/Src/stm32f7xx_hal_dma.c ****   tmp = hdma->Instance->FCR;
 256:Drivers/STM32F7xx_HAL_Driver/Src/stm32f7xx_hal_dma.c **** 
 257:Drivers/STM32F7xx_HAL_Driver/Src/stm32f7xx_hal_dma.c ****   /* Clear Direct mode and FIFO threshold bits */
 258:Drivers/STM32F7xx_HAL_Driver/Src/stm32f7xx_hal_dma.c ****   tmp &= (uint32_t)~(DMA_SxFCR_DMDIS | DMA_SxFCR_FTH);
ARM GAS  /tmp/cclJgRLT.s 			page 6


 259:Drivers/STM32F7xx_HAL_Driver/Src/stm32f7xx_hal_dma.c **** 
 260:Drivers/STM32F7xx_HAL_Driver/Src/stm32f7xx_hal_dma.c ****   /* Prepare the DMA Stream FIFO configuration */
 261:Drivers/STM32F7xx_HAL_Driver/Src/stm32f7xx_hal_dma.c ****   tmp |= hdma->Init.FIFOMode;
 262:Drivers/STM32F7xx_HAL_Driver/Src/stm32f7xx_hal_dma.c **** 
 263:Drivers/STM32F7xx_HAL_Driver/Src/stm32f7xx_hal_dma.c ****   /* The FIFO threshold is not used when the FIFO mode is disabled */
 264:Drivers/STM32F7xx_HAL_Driver/Src/stm32f7xx_hal_dma.c ****   if(hdma->Init.FIFOMode == DMA_FIFOMODE_ENABLE)
 265:Drivers/STM32F7xx_HAL_Driver/Src/stm32f7xx_hal_dma.c ****   {
 266:Drivers/STM32F7xx_HAL_Driver/Src/stm32f7xx_hal_dma.c ****     /* Get the FIFO threshold */
 267:Drivers/STM32F7xx_HAL_Driver/Src/stm32f7xx_hal_dma.c ****     tmp |= hdma->Init.FIFOThreshold;
 268:Drivers/STM32F7xx_HAL_Driver/Src/stm32f7xx_hal_dma.c ****     
 269:Drivers/STM32F7xx_HAL_Driver/Src/stm32f7xx_hal_dma.c ****     /* Check compatibility between FIFO threshold level and size of the memory burst */
 270:Drivers/STM32F7xx_HAL_Driver/Src/stm32f7xx_hal_dma.c ****     /* for INCR4, INCR8, INCR16 bursts */
 271:Drivers/STM32F7xx_HAL_Driver/Src/stm32f7xx_hal_dma.c ****     if (hdma->Init.MemBurst != DMA_MBURST_SINGLE)
 272:Drivers/STM32F7xx_HAL_Driver/Src/stm32f7xx_hal_dma.c ****     {
 273:Drivers/STM32F7xx_HAL_Driver/Src/stm32f7xx_hal_dma.c ****       if (DMA_CheckFifoParam(hdma) != HAL_OK)
 274:Drivers/STM32F7xx_HAL_Driver/Src/stm32f7xx_hal_dma.c ****       {
 275:Drivers/STM32F7xx_HAL_Driver/Src/stm32f7xx_hal_dma.c ****         /* Update error code */
 276:Drivers/STM32F7xx_HAL_Driver/Src/stm32f7xx_hal_dma.c ****         hdma->ErrorCode = HAL_DMA_ERROR_PARAM;
 277:Drivers/STM32F7xx_HAL_Driver/Src/stm32f7xx_hal_dma.c ****         
 278:Drivers/STM32F7xx_HAL_Driver/Src/stm32f7xx_hal_dma.c ****         /* Change the DMA state */
 279:Drivers/STM32F7xx_HAL_Driver/Src/stm32f7xx_hal_dma.c ****         hdma->State = HAL_DMA_STATE_READY;
 280:Drivers/STM32F7xx_HAL_Driver/Src/stm32f7xx_hal_dma.c ****         
 281:Drivers/STM32F7xx_HAL_Driver/Src/stm32f7xx_hal_dma.c ****         return HAL_ERROR; 
 282:Drivers/STM32F7xx_HAL_Driver/Src/stm32f7xx_hal_dma.c ****       }
 283:Drivers/STM32F7xx_HAL_Driver/Src/stm32f7xx_hal_dma.c ****     }
 284:Drivers/STM32F7xx_HAL_Driver/Src/stm32f7xx_hal_dma.c ****   }
 285:Drivers/STM32F7xx_HAL_Driver/Src/stm32f7xx_hal_dma.c ****   
 286:Drivers/STM32F7xx_HAL_Driver/Src/stm32f7xx_hal_dma.c ****   /* Write to DMA Stream FCR */
 287:Drivers/STM32F7xx_HAL_Driver/Src/stm32f7xx_hal_dma.c ****   hdma->Instance->FCR = tmp;
 288:Drivers/STM32F7xx_HAL_Driver/Src/stm32f7xx_hal_dma.c **** 
 289:Drivers/STM32F7xx_HAL_Driver/Src/stm32f7xx_hal_dma.c ****   /* Initialize StreamBaseAddress and StreamIndex parameters to be used to calculate
 290:Drivers/STM32F7xx_HAL_Driver/Src/stm32f7xx_hal_dma.c ****      DMA steam Base Address needed by HAL_DMA_IRQHandler() and HAL_DMA_PollForTransfer() */
 291:Drivers/STM32F7xx_HAL_Driver/Src/stm32f7xx_hal_dma.c ****   regs = (DMA_Base_Registers *)DMA_CalcBaseAndBitshift(hdma);
 292:Drivers/STM32F7xx_HAL_Driver/Src/stm32f7xx_hal_dma.c ****   
 293:Drivers/STM32F7xx_HAL_Driver/Src/stm32f7xx_hal_dma.c ****   /* Clear all interrupt flags */
 294:Drivers/STM32F7xx_HAL_Driver/Src/stm32f7xx_hal_dma.c ****   regs->IFCR = 0x3FU << hdma->StreamIndex;
 295:Drivers/STM32F7xx_HAL_Driver/Src/stm32f7xx_hal_dma.c **** 
 296:Drivers/STM32F7xx_HAL_Driver/Src/stm32f7xx_hal_dma.c ****   /* Initialize the error code */
 297:Drivers/STM32F7xx_HAL_Driver/Src/stm32f7xx_hal_dma.c ****   hdma->ErrorCode = HAL_DMA_ERROR_NONE;
 298:Drivers/STM32F7xx_HAL_Driver/Src/stm32f7xx_hal_dma.c ****                                                                                      
 299:Drivers/STM32F7xx_HAL_Driver/Src/stm32f7xx_hal_dma.c ****   /* Initialize the DMA state */
 300:Drivers/STM32F7xx_HAL_Driver/Src/stm32f7xx_hal_dma.c ****   hdma->State = HAL_DMA_STATE_READY;
 301:Drivers/STM32F7xx_HAL_Driver/Src/stm32f7xx_hal_dma.c **** 
 302:Drivers/STM32F7xx_HAL_Driver/Src/stm32f7xx_hal_dma.c ****   return HAL_OK;
 303:Drivers/STM32F7xx_HAL_Driver/Src/stm32f7xx_hal_dma.c **** }
 304:Drivers/STM32F7xx_HAL_Driver/Src/stm32f7xx_hal_dma.c **** 
 305:Drivers/STM32F7xx_HAL_Driver/Src/stm32f7xx_hal_dma.c **** /**
 306:Drivers/STM32F7xx_HAL_Driver/Src/stm32f7xx_hal_dma.c ****   * @brief  DeInitializes the DMA peripheral 
 307:Drivers/STM32F7xx_HAL_Driver/Src/stm32f7xx_hal_dma.c ****   * @param  hdma pointer to a DMA_HandleTypeDef structure that contains
 308:Drivers/STM32F7xx_HAL_Driver/Src/stm32f7xx_hal_dma.c ****   *               the configuration information for the specified DMA Stream.  
 309:Drivers/STM32F7xx_HAL_Driver/Src/stm32f7xx_hal_dma.c ****   * @retval HAL status
 310:Drivers/STM32F7xx_HAL_Driver/Src/stm32f7xx_hal_dma.c ****   */
 311:Drivers/STM32F7xx_HAL_Driver/Src/stm32f7xx_hal_dma.c **** HAL_StatusTypeDef HAL_DMA_DeInit(DMA_HandleTypeDef *hdma)
 312:Drivers/STM32F7xx_HAL_Driver/Src/stm32f7xx_hal_dma.c **** {
 313:Drivers/STM32F7xx_HAL_Driver/Src/stm32f7xx_hal_dma.c ****   DMA_Base_Registers *regs;
 314:Drivers/STM32F7xx_HAL_Driver/Src/stm32f7xx_hal_dma.c **** 
 315:Drivers/STM32F7xx_HAL_Driver/Src/stm32f7xx_hal_dma.c ****   /* Check the DMA peripheral state */
ARM GAS  /tmp/cclJgRLT.s 			page 7


 316:Drivers/STM32F7xx_HAL_Driver/Src/stm32f7xx_hal_dma.c ****   if(hdma == NULL)
 317:Drivers/STM32F7xx_HAL_Driver/Src/stm32f7xx_hal_dma.c ****   {
 318:Drivers/STM32F7xx_HAL_Driver/Src/stm32f7xx_hal_dma.c ****     return HAL_ERROR;
 319:Drivers/STM32F7xx_HAL_Driver/Src/stm32f7xx_hal_dma.c ****   }
 320:Drivers/STM32F7xx_HAL_Driver/Src/stm32f7xx_hal_dma.c ****   
 321:Drivers/STM32F7xx_HAL_Driver/Src/stm32f7xx_hal_dma.c ****   /* Check the DMA peripheral state */
 322:Drivers/STM32F7xx_HAL_Driver/Src/stm32f7xx_hal_dma.c ****   if(hdma->State == HAL_DMA_STATE_BUSY)
 323:Drivers/STM32F7xx_HAL_Driver/Src/stm32f7xx_hal_dma.c ****   {
 324:Drivers/STM32F7xx_HAL_Driver/Src/stm32f7xx_hal_dma.c ****     /* Return error status */
 325:Drivers/STM32F7xx_HAL_Driver/Src/stm32f7xx_hal_dma.c ****     return HAL_BUSY;
 326:Drivers/STM32F7xx_HAL_Driver/Src/stm32f7xx_hal_dma.c ****   }
 327:Drivers/STM32F7xx_HAL_Driver/Src/stm32f7xx_hal_dma.c **** 
 328:Drivers/STM32F7xx_HAL_Driver/Src/stm32f7xx_hal_dma.c ****   /* Check the parameters */
 329:Drivers/STM32F7xx_HAL_Driver/Src/stm32f7xx_hal_dma.c ****   assert_param(IS_DMA_STREAM_ALL_INSTANCE(hdma->Instance));
 330:Drivers/STM32F7xx_HAL_Driver/Src/stm32f7xx_hal_dma.c **** 
 331:Drivers/STM32F7xx_HAL_Driver/Src/stm32f7xx_hal_dma.c ****   /* Disable the selected DMA Streamx */
 332:Drivers/STM32F7xx_HAL_Driver/Src/stm32f7xx_hal_dma.c ****   __HAL_DMA_DISABLE(hdma);
 333:Drivers/STM32F7xx_HAL_Driver/Src/stm32f7xx_hal_dma.c **** 
 334:Drivers/STM32F7xx_HAL_Driver/Src/stm32f7xx_hal_dma.c ****   /* Reset DMA Streamx control register */
 335:Drivers/STM32F7xx_HAL_Driver/Src/stm32f7xx_hal_dma.c ****   hdma->Instance->CR   = 0U;
 336:Drivers/STM32F7xx_HAL_Driver/Src/stm32f7xx_hal_dma.c **** 
 337:Drivers/STM32F7xx_HAL_Driver/Src/stm32f7xx_hal_dma.c ****   /* Reset DMA Streamx number of data to transfer register */
 338:Drivers/STM32F7xx_HAL_Driver/Src/stm32f7xx_hal_dma.c ****   hdma->Instance->NDTR = 0U;
 339:Drivers/STM32F7xx_HAL_Driver/Src/stm32f7xx_hal_dma.c **** 
 340:Drivers/STM32F7xx_HAL_Driver/Src/stm32f7xx_hal_dma.c ****   /* Reset DMA Streamx peripheral address register */
 341:Drivers/STM32F7xx_HAL_Driver/Src/stm32f7xx_hal_dma.c ****   hdma->Instance->PAR  = 0U;
 342:Drivers/STM32F7xx_HAL_Driver/Src/stm32f7xx_hal_dma.c **** 
 343:Drivers/STM32F7xx_HAL_Driver/Src/stm32f7xx_hal_dma.c ****   /* Reset DMA Streamx memory 0 address register */
 344:Drivers/STM32F7xx_HAL_Driver/Src/stm32f7xx_hal_dma.c ****   hdma->Instance->M0AR = 0U;
 345:Drivers/STM32F7xx_HAL_Driver/Src/stm32f7xx_hal_dma.c ****   
 346:Drivers/STM32F7xx_HAL_Driver/Src/stm32f7xx_hal_dma.c ****   /* Reset DMA Streamx memory 1 address register */
 347:Drivers/STM32F7xx_HAL_Driver/Src/stm32f7xx_hal_dma.c ****   hdma->Instance->M1AR = 0U;
 348:Drivers/STM32F7xx_HAL_Driver/Src/stm32f7xx_hal_dma.c ****   
 349:Drivers/STM32F7xx_HAL_Driver/Src/stm32f7xx_hal_dma.c ****   /* Reset DMA Streamx FIFO control register */
 350:Drivers/STM32F7xx_HAL_Driver/Src/stm32f7xx_hal_dma.c ****   hdma->Instance->FCR  = (uint32_t)0x00000021U;
 351:Drivers/STM32F7xx_HAL_Driver/Src/stm32f7xx_hal_dma.c ****   
 352:Drivers/STM32F7xx_HAL_Driver/Src/stm32f7xx_hal_dma.c ****   /* Get DMA steam Base Address */  
 353:Drivers/STM32F7xx_HAL_Driver/Src/stm32f7xx_hal_dma.c ****   regs = (DMA_Base_Registers *)DMA_CalcBaseAndBitshift(hdma);
 354:Drivers/STM32F7xx_HAL_Driver/Src/stm32f7xx_hal_dma.c ****   
 355:Drivers/STM32F7xx_HAL_Driver/Src/stm32f7xx_hal_dma.c ****   /* Clear all interrupt flags at correct offset within the register */
 356:Drivers/STM32F7xx_HAL_Driver/Src/stm32f7xx_hal_dma.c ****   regs->IFCR = 0x3FU << hdma->StreamIndex;
 357:Drivers/STM32F7xx_HAL_Driver/Src/stm32f7xx_hal_dma.c ****   
 358:Drivers/STM32F7xx_HAL_Driver/Src/stm32f7xx_hal_dma.c ****   /* Clean all callbacks */
 359:Drivers/STM32F7xx_HAL_Driver/Src/stm32f7xx_hal_dma.c ****   hdma->XferCpltCallback = NULL;
 360:Drivers/STM32F7xx_HAL_Driver/Src/stm32f7xx_hal_dma.c ****   hdma->XferHalfCpltCallback = NULL;
 361:Drivers/STM32F7xx_HAL_Driver/Src/stm32f7xx_hal_dma.c ****   hdma->XferM1CpltCallback = NULL;
 362:Drivers/STM32F7xx_HAL_Driver/Src/stm32f7xx_hal_dma.c ****   hdma->XferM1HalfCpltCallback = NULL;
 363:Drivers/STM32F7xx_HAL_Driver/Src/stm32f7xx_hal_dma.c ****   hdma->XferErrorCallback = NULL;
 364:Drivers/STM32F7xx_HAL_Driver/Src/stm32f7xx_hal_dma.c ****   hdma->XferAbortCallback = NULL;  
 365:Drivers/STM32F7xx_HAL_Driver/Src/stm32f7xx_hal_dma.c **** 
 366:Drivers/STM32F7xx_HAL_Driver/Src/stm32f7xx_hal_dma.c ****   /* Reset the error code */
 367:Drivers/STM32F7xx_HAL_Driver/Src/stm32f7xx_hal_dma.c ****   hdma->ErrorCode = HAL_DMA_ERROR_NONE;
 368:Drivers/STM32F7xx_HAL_Driver/Src/stm32f7xx_hal_dma.c **** 
 369:Drivers/STM32F7xx_HAL_Driver/Src/stm32f7xx_hal_dma.c ****   /* Reset the DMA state */
 370:Drivers/STM32F7xx_HAL_Driver/Src/stm32f7xx_hal_dma.c ****   hdma->State = HAL_DMA_STATE_RESET;
 371:Drivers/STM32F7xx_HAL_Driver/Src/stm32f7xx_hal_dma.c **** 
 372:Drivers/STM32F7xx_HAL_Driver/Src/stm32f7xx_hal_dma.c ****   /* Release Lock */
ARM GAS  /tmp/cclJgRLT.s 			page 8


 373:Drivers/STM32F7xx_HAL_Driver/Src/stm32f7xx_hal_dma.c ****   __HAL_UNLOCK(hdma);
 374:Drivers/STM32F7xx_HAL_Driver/Src/stm32f7xx_hal_dma.c **** 
 375:Drivers/STM32F7xx_HAL_Driver/Src/stm32f7xx_hal_dma.c ****   return HAL_OK;
 376:Drivers/STM32F7xx_HAL_Driver/Src/stm32f7xx_hal_dma.c **** }
 377:Drivers/STM32F7xx_HAL_Driver/Src/stm32f7xx_hal_dma.c **** 
 378:Drivers/STM32F7xx_HAL_Driver/Src/stm32f7xx_hal_dma.c **** /**
 379:Drivers/STM32F7xx_HAL_Driver/Src/stm32f7xx_hal_dma.c ****   * @}
 380:Drivers/STM32F7xx_HAL_Driver/Src/stm32f7xx_hal_dma.c ****   */
 381:Drivers/STM32F7xx_HAL_Driver/Src/stm32f7xx_hal_dma.c **** 
 382:Drivers/STM32F7xx_HAL_Driver/Src/stm32f7xx_hal_dma.c **** /** @addtogroup DMA_Exported_Functions_Group2
 383:Drivers/STM32F7xx_HAL_Driver/Src/stm32f7xx_hal_dma.c ****   *
 384:Drivers/STM32F7xx_HAL_Driver/Src/stm32f7xx_hal_dma.c **** @verbatim   
 385:Drivers/STM32F7xx_HAL_Driver/Src/stm32f7xx_hal_dma.c ****  ===============================================================================
 386:Drivers/STM32F7xx_HAL_Driver/Src/stm32f7xx_hal_dma.c ****                       #####  IO operation functions  #####
 387:Drivers/STM32F7xx_HAL_Driver/Src/stm32f7xx_hal_dma.c ****  ===============================================================================
 388:Drivers/STM32F7xx_HAL_Driver/Src/stm32f7xx_hal_dma.c ****     [..]  This section provides functions allowing to:
 389:Drivers/STM32F7xx_HAL_Driver/Src/stm32f7xx_hal_dma.c ****       (+) Configure the source, destination address and data length and Start DMA transfer
 390:Drivers/STM32F7xx_HAL_Driver/Src/stm32f7xx_hal_dma.c ****       (+) Configure the source, destination address and data length and 
 391:Drivers/STM32F7xx_HAL_Driver/Src/stm32f7xx_hal_dma.c ****           Start DMA transfer with interrupt
 392:Drivers/STM32F7xx_HAL_Driver/Src/stm32f7xx_hal_dma.c ****       (+) Abort DMA transfer
 393:Drivers/STM32F7xx_HAL_Driver/Src/stm32f7xx_hal_dma.c ****       (+) Poll for transfer complete
 394:Drivers/STM32F7xx_HAL_Driver/Src/stm32f7xx_hal_dma.c ****       (+) Handle DMA interrupt request  
 395:Drivers/STM32F7xx_HAL_Driver/Src/stm32f7xx_hal_dma.c **** 
 396:Drivers/STM32F7xx_HAL_Driver/Src/stm32f7xx_hal_dma.c **** @endverbatim
 397:Drivers/STM32F7xx_HAL_Driver/Src/stm32f7xx_hal_dma.c ****   * @{
 398:Drivers/STM32F7xx_HAL_Driver/Src/stm32f7xx_hal_dma.c ****   */
 399:Drivers/STM32F7xx_HAL_Driver/Src/stm32f7xx_hal_dma.c **** 
 400:Drivers/STM32F7xx_HAL_Driver/Src/stm32f7xx_hal_dma.c **** /**
 401:Drivers/STM32F7xx_HAL_Driver/Src/stm32f7xx_hal_dma.c ****   * @brief  Starts the DMA Transfer.
 402:Drivers/STM32F7xx_HAL_Driver/Src/stm32f7xx_hal_dma.c ****   * @param  hdma       pointer to a DMA_HandleTypeDef structure that contains
 403:Drivers/STM32F7xx_HAL_Driver/Src/stm32f7xx_hal_dma.c ****   *                     the configuration information for the specified DMA Stream.
 404:Drivers/STM32F7xx_HAL_Driver/Src/stm32f7xx_hal_dma.c ****   * @param  SrcAddress The source memory Buffer address
 405:Drivers/STM32F7xx_HAL_Driver/Src/stm32f7xx_hal_dma.c ****   * @param  DstAddress The destination memory Buffer address
 406:Drivers/STM32F7xx_HAL_Driver/Src/stm32f7xx_hal_dma.c ****   * @param  DataLength The length of data to be transferred from source to destination
 407:Drivers/STM32F7xx_HAL_Driver/Src/stm32f7xx_hal_dma.c ****   * @retval HAL status
 408:Drivers/STM32F7xx_HAL_Driver/Src/stm32f7xx_hal_dma.c ****   */
 409:Drivers/STM32F7xx_HAL_Driver/Src/stm32f7xx_hal_dma.c **** HAL_StatusTypeDef HAL_DMA_Start(DMA_HandleTypeDef *hdma, uint32_t SrcAddress, uint32_t DstAddress, 
 410:Drivers/STM32F7xx_HAL_Driver/Src/stm32f7xx_hal_dma.c **** {
 411:Drivers/STM32F7xx_HAL_Driver/Src/stm32f7xx_hal_dma.c ****   HAL_StatusTypeDef status = HAL_OK;
 412:Drivers/STM32F7xx_HAL_Driver/Src/stm32f7xx_hal_dma.c ****   
 413:Drivers/STM32F7xx_HAL_Driver/Src/stm32f7xx_hal_dma.c ****   /* Check the parameters */
 414:Drivers/STM32F7xx_HAL_Driver/Src/stm32f7xx_hal_dma.c ****   assert_param(IS_DMA_BUFFER_SIZE(DataLength));
 415:Drivers/STM32F7xx_HAL_Driver/Src/stm32f7xx_hal_dma.c **** 
 416:Drivers/STM32F7xx_HAL_Driver/Src/stm32f7xx_hal_dma.c ****   /* Process locked */
 417:Drivers/STM32F7xx_HAL_Driver/Src/stm32f7xx_hal_dma.c ****   __HAL_LOCK(hdma);
 418:Drivers/STM32F7xx_HAL_Driver/Src/stm32f7xx_hal_dma.c **** 
 419:Drivers/STM32F7xx_HAL_Driver/Src/stm32f7xx_hal_dma.c ****   if(HAL_DMA_STATE_READY == hdma->State)
 420:Drivers/STM32F7xx_HAL_Driver/Src/stm32f7xx_hal_dma.c ****   {
 421:Drivers/STM32F7xx_HAL_Driver/Src/stm32f7xx_hal_dma.c ****     /* Change DMA peripheral state */
 422:Drivers/STM32F7xx_HAL_Driver/Src/stm32f7xx_hal_dma.c ****     hdma->State = HAL_DMA_STATE_BUSY;
 423:Drivers/STM32F7xx_HAL_Driver/Src/stm32f7xx_hal_dma.c ****     
 424:Drivers/STM32F7xx_HAL_Driver/Src/stm32f7xx_hal_dma.c ****     /* Initialize the error code */
 425:Drivers/STM32F7xx_HAL_Driver/Src/stm32f7xx_hal_dma.c ****     hdma->ErrorCode = HAL_DMA_ERROR_NONE;
 426:Drivers/STM32F7xx_HAL_Driver/Src/stm32f7xx_hal_dma.c ****     
 427:Drivers/STM32F7xx_HAL_Driver/Src/stm32f7xx_hal_dma.c ****     /* Configure the source, destination address and the data length */
 428:Drivers/STM32F7xx_HAL_Driver/Src/stm32f7xx_hal_dma.c ****     DMA_SetConfig(hdma, SrcAddress, DstAddress, DataLength);
 429:Drivers/STM32F7xx_HAL_Driver/Src/stm32f7xx_hal_dma.c **** 
ARM GAS  /tmp/cclJgRLT.s 			page 9


 430:Drivers/STM32F7xx_HAL_Driver/Src/stm32f7xx_hal_dma.c ****     /* Enable the Peripheral */
 431:Drivers/STM32F7xx_HAL_Driver/Src/stm32f7xx_hal_dma.c ****     __HAL_DMA_ENABLE(hdma);
 432:Drivers/STM32F7xx_HAL_Driver/Src/stm32f7xx_hal_dma.c ****   }
 433:Drivers/STM32F7xx_HAL_Driver/Src/stm32f7xx_hal_dma.c ****   else
 434:Drivers/STM32F7xx_HAL_Driver/Src/stm32f7xx_hal_dma.c ****   {
 435:Drivers/STM32F7xx_HAL_Driver/Src/stm32f7xx_hal_dma.c ****     /* Process unlocked */
 436:Drivers/STM32F7xx_HAL_Driver/Src/stm32f7xx_hal_dma.c ****     __HAL_UNLOCK(hdma);
 437:Drivers/STM32F7xx_HAL_Driver/Src/stm32f7xx_hal_dma.c ****     
 438:Drivers/STM32F7xx_HAL_Driver/Src/stm32f7xx_hal_dma.c ****     /* Return error status */
 439:Drivers/STM32F7xx_HAL_Driver/Src/stm32f7xx_hal_dma.c ****     status = HAL_BUSY;
 440:Drivers/STM32F7xx_HAL_Driver/Src/stm32f7xx_hal_dma.c ****   } 
 441:Drivers/STM32F7xx_HAL_Driver/Src/stm32f7xx_hal_dma.c ****   return status; 
 442:Drivers/STM32F7xx_HAL_Driver/Src/stm32f7xx_hal_dma.c **** }
 443:Drivers/STM32F7xx_HAL_Driver/Src/stm32f7xx_hal_dma.c **** 
 444:Drivers/STM32F7xx_HAL_Driver/Src/stm32f7xx_hal_dma.c **** /**
 445:Drivers/STM32F7xx_HAL_Driver/Src/stm32f7xx_hal_dma.c ****   * @brief  Start the DMA Transfer with interrupt enabled.
 446:Drivers/STM32F7xx_HAL_Driver/Src/stm32f7xx_hal_dma.c ****   * @param  hdma       pointer to a DMA_HandleTypeDef structure that contains
 447:Drivers/STM32F7xx_HAL_Driver/Src/stm32f7xx_hal_dma.c ****   *                     the configuration information for the specified DMA Stream.  
 448:Drivers/STM32F7xx_HAL_Driver/Src/stm32f7xx_hal_dma.c ****   * @param  SrcAddress The source memory Buffer address
 449:Drivers/STM32F7xx_HAL_Driver/Src/stm32f7xx_hal_dma.c ****   * @param  DstAddress The destination memory Buffer address
 450:Drivers/STM32F7xx_HAL_Driver/Src/stm32f7xx_hal_dma.c ****   * @param  DataLength The length of data to be transferred from source to destination
 451:Drivers/STM32F7xx_HAL_Driver/Src/stm32f7xx_hal_dma.c ****   * @retval HAL status
 452:Drivers/STM32F7xx_HAL_Driver/Src/stm32f7xx_hal_dma.c ****   */
 453:Drivers/STM32F7xx_HAL_Driver/Src/stm32f7xx_hal_dma.c **** HAL_StatusTypeDef HAL_DMA_Start_IT(DMA_HandleTypeDef *hdma, uint32_t SrcAddress, uint32_t DstAddres
 454:Drivers/STM32F7xx_HAL_Driver/Src/stm32f7xx_hal_dma.c **** {
 455:Drivers/STM32F7xx_HAL_Driver/Src/stm32f7xx_hal_dma.c ****   HAL_StatusTypeDef status = HAL_OK;
 456:Drivers/STM32F7xx_HAL_Driver/Src/stm32f7xx_hal_dma.c **** 
 457:Drivers/STM32F7xx_HAL_Driver/Src/stm32f7xx_hal_dma.c ****   /* calculate DMA base and stream number */
 458:Drivers/STM32F7xx_HAL_Driver/Src/stm32f7xx_hal_dma.c ****   DMA_Base_Registers *regs = (DMA_Base_Registers *)hdma->StreamBaseAddress;
 459:Drivers/STM32F7xx_HAL_Driver/Src/stm32f7xx_hal_dma.c ****   
 460:Drivers/STM32F7xx_HAL_Driver/Src/stm32f7xx_hal_dma.c ****   /* Check the parameters */
 461:Drivers/STM32F7xx_HAL_Driver/Src/stm32f7xx_hal_dma.c ****   assert_param(IS_DMA_BUFFER_SIZE(DataLength));
 462:Drivers/STM32F7xx_HAL_Driver/Src/stm32f7xx_hal_dma.c ****  
 463:Drivers/STM32F7xx_HAL_Driver/Src/stm32f7xx_hal_dma.c ****   /* Process locked */
 464:Drivers/STM32F7xx_HAL_Driver/Src/stm32f7xx_hal_dma.c ****   __HAL_LOCK(hdma);
 465:Drivers/STM32F7xx_HAL_Driver/Src/stm32f7xx_hal_dma.c ****   
 466:Drivers/STM32F7xx_HAL_Driver/Src/stm32f7xx_hal_dma.c ****   if(HAL_DMA_STATE_READY == hdma->State)
 467:Drivers/STM32F7xx_HAL_Driver/Src/stm32f7xx_hal_dma.c ****   {
 468:Drivers/STM32F7xx_HAL_Driver/Src/stm32f7xx_hal_dma.c ****     /* Change DMA peripheral state */
 469:Drivers/STM32F7xx_HAL_Driver/Src/stm32f7xx_hal_dma.c ****     hdma->State = HAL_DMA_STATE_BUSY;
 470:Drivers/STM32F7xx_HAL_Driver/Src/stm32f7xx_hal_dma.c ****     
 471:Drivers/STM32F7xx_HAL_Driver/Src/stm32f7xx_hal_dma.c ****     /* Initialize the error code */
 472:Drivers/STM32F7xx_HAL_Driver/Src/stm32f7xx_hal_dma.c ****     hdma->ErrorCode = HAL_DMA_ERROR_NONE;
 473:Drivers/STM32F7xx_HAL_Driver/Src/stm32f7xx_hal_dma.c ****     
 474:Drivers/STM32F7xx_HAL_Driver/Src/stm32f7xx_hal_dma.c ****     /* Configure the source, destination address and the data length */
 475:Drivers/STM32F7xx_HAL_Driver/Src/stm32f7xx_hal_dma.c ****     DMA_SetConfig(hdma, SrcAddress, DstAddress, DataLength);
 476:Drivers/STM32F7xx_HAL_Driver/Src/stm32f7xx_hal_dma.c ****     
 477:Drivers/STM32F7xx_HAL_Driver/Src/stm32f7xx_hal_dma.c ****     /* Clear all interrupt flags at correct offset within the register */
 478:Drivers/STM32F7xx_HAL_Driver/Src/stm32f7xx_hal_dma.c ****     regs->IFCR = 0x3FU << hdma->StreamIndex;
 479:Drivers/STM32F7xx_HAL_Driver/Src/stm32f7xx_hal_dma.c ****     
 480:Drivers/STM32F7xx_HAL_Driver/Src/stm32f7xx_hal_dma.c ****     /* Enable Common interrupts*/
 481:Drivers/STM32F7xx_HAL_Driver/Src/stm32f7xx_hal_dma.c ****     hdma->Instance->CR  |= DMA_IT_TC | DMA_IT_TE | DMA_IT_DME;
 482:Drivers/STM32F7xx_HAL_Driver/Src/stm32f7xx_hal_dma.c ****     hdma->Instance->FCR |= DMA_IT_FE;
 483:Drivers/STM32F7xx_HAL_Driver/Src/stm32f7xx_hal_dma.c ****     
 484:Drivers/STM32F7xx_HAL_Driver/Src/stm32f7xx_hal_dma.c ****     if(hdma->XferHalfCpltCallback != NULL)
 485:Drivers/STM32F7xx_HAL_Driver/Src/stm32f7xx_hal_dma.c ****     {
 486:Drivers/STM32F7xx_HAL_Driver/Src/stm32f7xx_hal_dma.c ****       hdma->Instance->CR  |= DMA_IT_HT;
ARM GAS  /tmp/cclJgRLT.s 			page 10


 487:Drivers/STM32F7xx_HAL_Driver/Src/stm32f7xx_hal_dma.c ****     }
 488:Drivers/STM32F7xx_HAL_Driver/Src/stm32f7xx_hal_dma.c ****     
 489:Drivers/STM32F7xx_HAL_Driver/Src/stm32f7xx_hal_dma.c ****     /* Enable the Peripheral */
 490:Drivers/STM32F7xx_HAL_Driver/Src/stm32f7xx_hal_dma.c ****     __HAL_DMA_ENABLE(hdma);
 491:Drivers/STM32F7xx_HAL_Driver/Src/stm32f7xx_hal_dma.c ****   }
 492:Drivers/STM32F7xx_HAL_Driver/Src/stm32f7xx_hal_dma.c ****   else
 493:Drivers/STM32F7xx_HAL_Driver/Src/stm32f7xx_hal_dma.c ****   {
 494:Drivers/STM32F7xx_HAL_Driver/Src/stm32f7xx_hal_dma.c ****     /* Process unlocked */
 495:Drivers/STM32F7xx_HAL_Driver/Src/stm32f7xx_hal_dma.c ****     __HAL_UNLOCK(hdma);	  
 496:Drivers/STM32F7xx_HAL_Driver/Src/stm32f7xx_hal_dma.c ****     
 497:Drivers/STM32F7xx_HAL_Driver/Src/stm32f7xx_hal_dma.c ****     /* Return error status */
 498:Drivers/STM32F7xx_HAL_Driver/Src/stm32f7xx_hal_dma.c ****     status = HAL_BUSY;
 499:Drivers/STM32F7xx_HAL_Driver/Src/stm32f7xx_hal_dma.c ****   }
 500:Drivers/STM32F7xx_HAL_Driver/Src/stm32f7xx_hal_dma.c ****   
 501:Drivers/STM32F7xx_HAL_Driver/Src/stm32f7xx_hal_dma.c ****   return status;
 502:Drivers/STM32F7xx_HAL_Driver/Src/stm32f7xx_hal_dma.c **** }
 503:Drivers/STM32F7xx_HAL_Driver/Src/stm32f7xx_hal_dma.c **** 
 504:Drivers/STM32F7xx_HAL_Driver/Src/stm32f7xx_hal_dma.c **** /**
 505:Drivers/STM32F7xx_HAL_Driver/Src/stm32f7xx_hal_dma.c ****   * @brief  Aborts the DMA Transfer.
 506:Drivers/STM32F7xx_HAL_Driver/Src/stm32f7xx_hal_dma.c ****   * @param  hdma   pointer to a DMA_HandleTypeDef structure that contains
 507:Drivers/STM32F7xx_HAL_Driver/Src/stm32f7xx_hal_dma.c ****   *                 the configuration information for the specified DMA Stream.
 508:Drivers/STM32F7xx_HAL_Driver/Src/stm32f7xx_hal_dma.c ****   *                   
 509:Drivers/STM32F7xx_HAL_Driver/Src/stm32f7xx_hal_dma.c ****   * @note  After disabling a DMA Stream, a check for wait until the DMA Stream is 
 510:Drivers/STM32F7xx_HAL_Driver/Src/stm32f7xx_hal_dma.c ****   *        effectively disabled is added. If a Stream is disabled 
 511:Drivers/STM32F7xx_HAL_Driver/Src/stm32f7xx_hal_dma.c ****   *        while a data transfer is ongoing, the current data will be transferred
 512:Drivers/STM32F7xx_HAL_Driver/Src/stm32f7xx_hal_dma.c ****   *        and the Stream will be effectively disabled only after the transfer of
 513:Drivers/STM32F7xx_HAL_Driver/Src/stm32f7xx_hal_dma.c ****   *        this single data is finished.  
 514:Drivers/STM32F7xx_HAL_Driver/Src/stm32f7xx_hal_dma.c ****   * @retval HAL status
 515:Drivers/STM32F7xx_HAL_Driver/Src/stm32f7xx_hal_dma.c ****   */
 516:Drivers/STM32F7xx_HAL_Driver/Src/stm32f7xx_hal_dma.c **** HAL_StatusTypeDef HAL_DMA_Abort(DMA_HandleTypeDef *hdma)
 517:Drivers/STM32F7xx_HAL_Driver/Src/stm32f7xx_hal_dma.c **** {
 518:Drivers/STM32F7xx_HAL_Driver/Src/stm32f7xx_hal_dma.c ****   /* calculate DMA base and stream number */
 519:Drivers/STM32F7xx_HAL_Driver/Src/stm32f7xx_hal_dma.c ****   DMA_Base_Registers *regs = (DMA_Base_Registers *)hdma->StreamBaseAddress;
 520:Drivers/STM32F7xx_HAL_Driver/Src/stm32f7xx_hal_dma.c ****   
 521:Drivers/STM32F7xx_HAL_Driver/Src/stm32f7xx_hal_dma.c ****   uint32_t tickstart = HAL_GetTick();
 522:Drivers/STM32F7xx_HAL_Driver/Src/stm32f7xx_hal_dma.c ****   
 523:Drivers/STM32F7xx_HAL_Driver/Src/stm32f7xx_hal_dma.c ****   if(hdma->State != HAL_DMA_STATE_BUSY)
 524:Drivers/STM32F7xx_HAL_Driver/Src/stm32f7xx_hal_dma.c ****   {
 525:Drivers/STM32F7xx_HAL_Driver/Src/stm32f7xx_hal_dma.c ****     hdma->ErrorCode = HAL_DMA_ERROR_NO_XFER;
 526:Drivers/STM32F7xx_HAL_Driver/Src/stm32f7xx_hal_dma.c ****     
 527:Drivers/STM32F7xx_HAL_Driver/Src/stm32f7xx_hal_dma.c ****     /* Process Unlocked */
 528:Drivers/STM32F7xx_HAL_Driver/Src/stm32f7xx_hal_dma.c ****     __HAL_UNLOCK(hdma);
 529:Drivers/STM32F7xx_HAL_Driver/Src/stm32f7xx_hal_dma.c ****     
 530:Drivers/STM32F7xx_HAL_Driver/Src/stm32f7xx_hal_dma.c ****     return HAL_ERROR;
 531:Drivers/STM32F7xx_HAL_Driver/Src/stm32f7xx_hal_dma.c ****   }
 532:Drivers/STM32F7xx_HAL_Driver/Src/stm32f7xx_hal_dma.c ****   else
 533:Drivers/STM32F7xx_HAL_Driver/Src/stm32f7xx_hal_dma.c ****   {
 534:Drivers/STM32F7xx_HAL_Driver/Src/stm32f7xx_hal_dma.c ****     /* Disable all the transfer interrupts */
 535:Drivers/STM32F7xx_HAL_Driver/Src/stm32f7xx_hal_dma.c ****     hdma->Instance->CR  &= ~(DMA_IT_TC | DMA_IT_TE | DMA_IT_DME);
 536:Drivers/STM32F7xx_HAL_Driver/Src/stm32f7xx_hal_dma.c ****     hdma->Instance->FCR &= ~(DMA_IT_FE);
 537:Drivers/STM32F7xx_HAL_Driver/Src/stm32f7xx_hal_dma.c ****     
 538:Drivers/STM32F7xx_HAL_Driver/Src/stm32f7xx_hal_dma.c ****     if((hdma->XferHalfCpltCallback != NULL) || (hdma->XferM1HalfCpltCallback != NULL))
 539:Drivers/STM32F7xx_HAL_Driver/Src/stm32f7xx_hal_dma.c ****     {
 540:Drivers/STM32F7xx_HAL_Driver/Src/stm32f7xx_hal_dma.c ****       hdma->Instance->CR  &= ~(DMA_IT_HT);
 541:Drivers/STM32F7xx_HAL_Driver/Src/stm32f7xx_hal_dma.c ****     }
 542:Drivers/STM32F7xx_HAL_Driver/Src/stm32f7xx_hal_dma.c ****     
 543:Drivers/STM32F7xx_HAL_Driver/Src/stm32f7xx_hal_dma.c ****     /* Disable the stream */
ARM GAS  /tmp/cclJgRLT.s 			page 11


 544:Drivers/STM32F7xx_HAL_Driver/Src/stm32f7xx_hal_dma.c ****     __HAL_DMA_DISABLE(hdma);
 545:Drivers/STM32F7xx_HAL_Driver/Src/stm32f7xx_hal_dma.c ****     
 546:Drivers/STM32F7xx_HAL_Driver/Src/stm32f7xx_hal_dma.c ****     /* Check if the DMA Stream is effectively disabled */
 547:Drivers/STM32F7xx_HAL_Driver/Src/stm32f7xx_hal_dma.c ****     while((hdma->Instance->CR & DMA_SxCR_EN) != RESET)
 548:Drivers/STM32F7xx_HAL_Driver/Src/stm32f7xx_hal_dma.c ****     {
 549:Drivers/STM32F7xx_HAL_Driver/Src/stm32f7xx_hal_dma.c ****       /* Check for the Timeout */
 550:Drivers/STM32F7xx_HAL_Driver/Src/stm32f7xx_hal_dma.c ****       if((HAL_GetTick() - tickstart ) > HAL_TIMEOUT_DMA_ABORT)
 551:Drivers/STM32F7xx_HAL_Driver/Src/stm32f7xx_hal_dma.c ****       {
 552:Drivers/STM32F7xx_HAL_Driver/Src/stm32f7xx_hal_dma.c ****         /* Update error code */
 553:Drivers/STM32F7xx_HAL_Driver/Src/stm32f7xx_hal_dma.c ****         hdma->ErrorCode = HAL_DMA_ERROR_TIMEOUT;
 554:Drivers/STM32F7xx_HAL_Driver/Src/stm32f7xx_hal_dma.c ****         
 555:Drivers/STM32F7xx_HAL_Driver/Src/stm32f7xx_hal_dma.c ****         /* Change the DMA state */
 556:Drivers/STM32F7xx_HAL_Driver/Src/stm32f7xx_hal_dma.c ****         hdma->State = HAL_DMA_STATE_TIMEOUT;
 557:Drivers/STM32F7xx_HAL_Driver/Src/stm32f7xx_hal_dma.c ****         
 558:Drivers/STM32F7xx_HAL_Driver/Src/stm32f7xx_hal_dma.c ****         /* Process Unlocked */
 559:Drivers/STM32F7xx_HAL_Driver/Src/stm32f7xx_hal_dma.c ****         __HAL_UNLOCK(hdma);
 560:Drivers/STM32F7xx_HAL_Driver/Src/stm32f7xx_hal_dma.c **** 
 561:Drivers/STM32F7xx_HAL_Driver/Src/stm32f7xx_hal_dma.c ****         return HAL_TIMEOUT;
 562:Drivers/STM32F7xx_HAL_Driver/Src/stm32f7xx_hal_dma.c ****       }
 563:Drivers/STM32F7xx_HAL_Driver/Src/stm32f7xx_hal_dma.c ****     }
 564:Drivers/STM32F7xx_HAL_Driver/Src/stm32f7xx_hal_dma.c ****     
 565:Drivers/STM32F7xx_HAL_Driver/Src/stm32f7xx_hal_dma.c ****     /* Clear all interrupt flags at correct offset within the register */
 566:Drivers/STM32F7xx_HAL_Driver/Src/stm32f7xx_hal_dma.c ****     regs->IFCR = 0x3FU << hdma->StreamIndex;
 567:Drivers/STM32F7xx_HAL_Driver/Src/stm32f7xx_hal_dma.c ****     
 568:Drivers/STM32F7xx_HAL_Driver/Src/stm32f7xx_hal_dma.c ****     /* Change the DMA state*/
 569:Drivers/STM32F7xx_HAL_Driver/Src/stm32f7xx_hal_dma.c ****     hdma->State = HAL_DMA_STATE_READY;
 570:Drivers/STM32F7xx_HAL_Driver/Src/stm32f7xx_hal_dma.c ****     
 571:Drivers/STM32F7xx_HAL_Driver/Src/stm32f7xx_hal_dma.c ****     /* Process Unlocked */
 572:Drivers/STM32F7xx_HAL_Driver/Src/stm32f7xx_hal_dma.c ****     __HAL_UNLOCK(hdma);
 573:Drivers/STM32F7xx_HAL_Driver/Src/stm32f7xx_hal_dma.c ****     
 574:Drivers/STM32F7xx_HAL_Driver/Src/stm32f7xx_hal_dma.c ****   }
 575:Drivers/STM32F7xx_HAL_Driver/Src/stm32f7xx_hal_dma.c ****   return HAL_OK;
 576:Drivers/STM32F7xx_HAL_Driver/Src/stm32f7xx_hal_dma.c **** }
 577:Drivers/STM32F7xx_HAL_Driver/Src/stm32f7xx_hal_dma.c **** 
 578:Drivers/STM32F7xx_HAL_Driver/Src/stm32f7xx_hal_dma.c **** /**
 579:Drivers/STM32F7xx_HAL_Driver/Src/stm32f7xx_hal_dma.c ****   * @brief  Aborts the DMA Transfer in Interrupt mode.
 580:Drivers/STM32F7xx_HAL_Driver/Src/stm32f7xx_hal_dma.c ****   * @param  hdma   pointer to a DMA_HandleTypeDef structure that contains
 581:Drivers/STM32F7xx_HAL_Driver/Src/stm32f7xx_hal_dma.c ****   *                 the configuration information for the specified DMA Stream.
 582:Drivers/STM32F7xx_HAL_Driver/Src/stm32f7xx_hal_dma.c ****   * @retval HAL status
 583:Drivers/STM32F7xx_HAL_Driver/Src/stm32f7xx_hal_dma.c ****   */
 584:Drivers/STM32F7xx_HAL_Driver/Src/stm32f7xx_hal_dma.c **** HAL_StatusTypeDef HAL_DMA_Abort_IT(DMA_HandleTypeDef *hdma)
 585:Drivers/STM32F7xx_HAL_Driver/Src/stm32f7xx_hal_dma.c **** {
 586:Drivers/STM32F7xx_HAL_Driver/Src/stm32f7xx_hal_dma.c ****   if(hdma->State != HAL_DMA_STATE_BUSY)
 587:Drivers/STM32F7xx_HAL_Driver/Src/stm32f7xx_hal_dma.c ****   {
 588:Drivers/STM32F7xx_HAL_Driver/Src/stm32f7xx_hal_dma.c ****     hdma->ErrorCode = HAL_DMA_ERROR_NO_XFER;
 589:Drivers/STM32F7xx_HAL_Driver/Src/stm32f7xx_hal_dma.c ****     return HAL_ERROR;
 590:Drivers/STM32F7xx_HAL_Driver/Src/stm32f7xx_hal_dma.c ****   }
 591:Drivers/STM32F7xx_HAL_Driver/Src/stm32f7xx_hal_dma.c ****   else
 592:Drivers/STM32F7xx_HAL_Driver/Src/stm32f7xx_hal_dma.c ****   {
 593:Drivers/STM32F7xx_HAL_Driver/Src/stm32f7xx_hal_dma.c ****     /* Set Abort State  */
 594:Drivers/STM32F7xx_HAL_Driver/Src/stm32f7xx_hal_dma.c ****     hdma->State = HAL_DMA_STATE_ABORT;
 595:Drivers/STM32F7xx_HAL_Driver/Src/stm32f7xx_hal_dma.c ****     
 596:Drivers/STM32F7xx_HAL_Driver/Src/stm32f7xx_hal_dma.c ****     /* Disable the stream */
 597:Drivers/STM32F7xx_HAL_Driver/Src/stm32f7xx_hal_dma.c ****     __HAL_DMA_DISABLE(hdma);
 598:Drivers/STM32F7xx_HAL_Driver/Src/stm32f7xx_hal_dma.c ****   }
 599:Drivers/STM32F7xx_HAL_Driver/Src/stm32f7xx_hal_dma.c **** 
 600:Drivers/STM32F7xx_HAL_Driver/Src/stm32f7xx_hal_dma.c ****   return HAL_OK;
ARM GAS  /tmp/cclJgRLT.s 			page 12


 601:Drivers/STM32F7xx_HAL_Driver/Src/stm32f7xx_hal_dma.c **** }
 602:Drivers/STM32F7xx_HAL_Driver/Src/stm32f7xx_hal_dma.c **** 
 603:Drivers/STM32F7xx_HAL_Driver/Src/stm32f7xx_hal_dma.c **** /**
 604:Drivers/STM32F7xx_HAL_Driver/Src/stm32f7xx_hal_dma.c ****   * @brief  Polling for transfer complete.
 605:Drivers/STM32F7xx_HAL_Driver/Src/stm32f7xx_hal_dma.c ****   * @param  hdma          pointer to a DMA_HandleTypeDef structure that contains
 606:Drivers/STM32F7xx_HAL_Driver/Src/stm32f7xx_hal_dma.c ****   *                        the configuration information for the specified DMA Stream.
 607:Drivers/STM32F7xx_HAL_Driver/Src/stm32f7xx_hal_dma.c ****   * @param  CompleteLevel Specifies the DMA level complete.
 608:Drivers/STM32F7xx_HAL_Driver/Src/stm32f7xx_hal_dma.c ****   * @note   The polling mode is kept in this version for legacy. it is recommended to use the IT mo
 609:Drivers/STM32F7xx_HAL_Driver/Src/stm32f7xx_hal_dma.c ****   *         This model could be used for debug purpose.
 610:Drivers/STM32F7xx_HAL_Driver/Src/stm32f7xx_hal_dma.c ****   * @note   The HAL_DMA_PollForTransfer API cannot be used in circular and double buffering mode (a
 611:Drivers/STM32F7xx_HAL_Driver/Src/stm32f7xx_hal_dma.c ****   * @param  Timeout       Timeout duration.
 612:Drivers/STM32F7xx_HAL_Driver/Src/stm32f7xx_hal_dma.c ****   * @retval HAL status
 613:Drivers/STM32F7xx_HAL_Driver/Src/stm32f7xx_hal_dma.c ****   */
 614:Drivers/STM32F7xx_HAL_Driver/Src/stm32f7xx_hal_dma.c **** HAL_StatusTypeDef HAL_DMA_PollForTransfer(DMA_HandleTypeDef *hdma, HAL_DMA_LevelCompleteTypeDef Com
 615:Drivers/STM32F7xx_HAL_Driver/Src/stm32f7xx_hal_dma.c **** {
 616:Drivers/STM32F7xx_HAL_Driver/Src/stm32f7xx_hal_dma.c ****   HAL_StatusTypeDef status = HAL_OK; 
 617:Drivers/STM32F7xx_HAL_Driver/Src/stm32f7xx_hal_dma.c ****   uint32_t mask_cpltlevel;
 618:Drivers/STM32F7xx_HAL_Driver/Src/stm32f7xx_hal_dma.c ****   uint32_t tickstart = HAL_GetTick(); 
 619:Drivers/STM32F7xx_HAL_Driver/Src/stm32f7xx_hal_dma.c ****   uint32_t tmpisr;
 620:Drivers/STM32F7xx_HAL_Driver/Src/stm32f7xx_hal_dma.c ****   
 621:Drivers/STM32F7xx_HAL_Driver/Src/stm32f7xx_hal_dma.c ****   /* calculate DMA base and stream number */
 622:Drivers/STM32F7xx_HAL_Driver/Src/stm32f7xx_hal_dma.c ****   DMA_Base_Registers *regs;
 623:Drivers/STM32F7xx_HAL_Driver/Src/stm32f7xx_hal_dma.c **** 
 624:Drivers/STM32F7xx_HAL_Driver/Src/stm32f7xx_hal_dma.c ****   if(HAL_DMA_STATE_BUSY != hdma->State)
 625:Drivers/STM32F7xx_HAL_Driver/Src/stm32f7xx_hal_dma.c ****   {
 626:Drivers/STM32F7xx_HAL_Driver/Src/stm32f7xx_hal_dma.c ****     /* No transfer ongoing */
 627:Drivers/STM32F7xx_HAL_Driver/Src/stm32f7xx_hal_dma.c ****     hdma->ErrorCode = HAL_DMA_ERROR_NO_XFER;
 628:Drivers/STM32F7xx_HAL_Driver/Src/stm32f7xx_hal_dma.c ****     __HAL_UNLOCK(hdma);
 629:Drivers/STM32F7xx_HAL_Driver/Src/stm32f7xx_hal_dma.c ****     return HAL_ERROR;
 630:Drivers/STM32F7xx_HAL_Driver/Src/stm32f7xx_hal_dma.c ****   }
 631:Drivers/STM32F7xx_HAL_Driver/Src/stm32f7xx_hal_dma.c **** 
 632:Drivers/STM32F7xx_HAL_Driver/Src/stm32f7xx_hal_dma.c ****   /* Polling mode not supported in circular mode and double buffering mode */
 633:Drivers/STM32F7xx_HAL_Driver/Src/stm32f7xx_hal_dma.c ****   if ((hdma->Instance->CR & DMA_SxCR_CIRC) != RESET)
 634:Drivers/STM32F7xx_HAL_Driver/Src/stm32f7xx_hal_dma.c ****   {
 635:Drivers/STM32F7xx_HAL_Driver/Src/stm32f7xx_hal_dma.c ****     hdma->ErrorCode = HAL_DMA_ERROR_NOT_SUPPORTED;
 636:Drivers/STM32F7xx_HAL_Driver/Src/stm32f7xx_hal_dma.c ****     return HAL_ERROR;
 637:Drivers/STM32F7xx_HAL_Driver/Src/stm32f7xx_hal_dma.c ****   }
 638:Drivers/STM32F7xx_HAL_Driver/Src/stm32f7xx_hal_dma.c ****   
 639:Drivers/STM32F7xx_HAL_Driver/Src/stm32f7xx_hal_dma.c ****   /* Get the level transfer complete flag */
 640:Drivers/STM32F7xx_HAL_Driver/Src/stm32f7xx_hal_dma.c ****   if(CompleteLevel == HAL_DMA_FULL_TRANSFER)
 641:Drivers/STM32F7xx_HAL_Driver/Src/stm32f7xx_hal_dma.c ****   {
 642:Drivers/STM32F7xx_HAL_Driver/Src/stm32f7xx_hal_dma.c ****     /* Transfer Complete flag */
 643:Drivers/STM32F7xx_HAL_Driver/Src/stm32f7xx_hal_dma.c ****     mask_cpltlevel = DMA_FLAG_TCIF0_4 << hdma->StreamIndex;
 644:Drivers/STM32F7xx_HAL_Driver/Src/stm32f7xx_hal_dma.c ****   }
 645:Drivers/STM32F7xx_HAL_Driver/Src/stm32f7xx_hal_dma.c ****   else
 646:Drivers/STM32F7xx_HAL_Driver/Src/stm32f7xx_hal_dma.c ****   {
 647:Drivers/STM32F7xx_HAL_Driver/Src/stm32f7xx_hal_dma.c ****     /* Half Transfer Complete flag */
 648:Drivers/STM32F7xx_HAL_Driver/Src/stm32f7xx_hal_dma.c ****     mask_cpltlevel = DMA_FLAG_HTIF0_4 << hdma->StreamIndex;
 649:Drivers/STM32F7xx_HAL_Driver/Src/stm32f7xx_hal_dma.c ****   }
 650:Drivers/STM32F7xx_HAL_Driver/Src/stm32f7xx_hal_dma.c ****   
 651:Drivers/STM32F7xx_HAL_Driver/Src/stm32f7xx_hal_dma.c ****   regs = (DMA_Base_Registers *)hdma->StreamBaseAddress;
 652:Drivers/STM32F7xx_HAL_Driver/Src/stm32f7xx_hal_dma.c ****   tmpisr = regs->ISR;
 653:Drivers/STM32F7xx_HAL_Driver/Src/stm32f7xx_hal_dma.c ****   
 654:Drivers/STM32F7xx_HAL_Driver/Src/stm32f7xx_hal_dma.c ****   while(((tmpisr & mask_cpltlevel) == RESET) && ((hdma->ErrorCode & HAL_DMA_ERROR_TE) == RESET))
 655:Drivers/STM32F7xx_HAL_Driver/Src/stm32f7xx_hal_dma.c ****   {
 656:Drivers/STM32F7xx_HAL_Driver/Src/stm32f7xx_hal_dma.c ****     /* Check for the Timeout (Not applicable in circular mode)*/
 657:Drivers/STM32F7xx_HAL_Driver/Src/stm32f7xx_hal_dma.c ****     if(Timeout != HAL_MAX_DELAY)
ARM GAS  /tmp/cclJgRLT.s 			page 13


 658:Drivers/STM32F7xx_HAL_Driver/Src/stm32f7xx_hal_dma.c ****     {
 659:Drivers/STM32F7xx_HAL_Driver/Src/stm32f7xx_hal_dma.c ****       if((Timeout == 0)||((HAL_GetTick() - tickstart ) > Timeout))
 660:Drivers/STM32F7xx_HAL_Driver/Src/stm32f7xx_hal_dma.c ****       {
 661:Drivers/STM32F7xx_HAL_Driver/Src/stm32f7xx_hal_dma.c ****         /* Update error code */
 662:Drivers/STM32F7xx_HAL_Driver/Src/stm32f7xx_hal_dma.c ****         hdma->ErrorCode = HAL_DMA_ERROR_TIMEOUT;
 663:Drivers/STM32F7xx_HAL_Driver/Src/stm32f7xx_hal_dma.c ****         
 664:Drivers/STM32F7xx_HAL_Driver/Src/stm32f7xx_hal_dma.c ****         /* Change the DMA state */
 665:Drivers/STM32F7xx_HAL_Driver/Src/stm32f7xx_hal_dma.c ****         hdma->State = HAL_DMA_STATE_READY;
 666:Drivers/STM32F7xx_HAL_Driver/Src/stm32f7xx_hal_dma.c **** 
 667:Drivers/STM32F7xx_HAL_Driver/Src/stm32f7xx_hal_dma.c ****         /* Process Unlocked */
 668:Drivers/STM32F7xx_HAL_Driver/Src/stm32f7xx_hal_dma.c ****         __HAL_UNLOCK(hdma);
 669:Drivers/STM32F7xx_HAL_Driver/Src/stm32f7xx_hal_dma.c **** 
 670:Drivers/STM32F7xx_HAL_Driver/Src/stm32f7xx_hal_dma.c ****         return HAL_TIMEOUT;
 671:Drivers/STM32F7xx_HAL_Driver/Src/stm32f7xx_hal_dma.c ****       }
 672:Drivers/STM32F7xx_HAL_Driver/Src/stm32f7xx_hal_dma.c ****     }
 673:Drivers/STM32F7xx_HAL_Driver/Src/stm32f7xx_hal_dma.c **** 
 674:Drivers/STM32F7xx_HAL_Driver/Src/stm32f7xx_hal_dma.c ****     /* Get the ISR register value */
 675:Drivers/STM32F7xx_HAL_Driver/Src/stm32f7xx_hal_dma.c ****     tmpisr = regs->ISR;
 676:Drivers/STM32F7xx_HAL_Driver/Src/stm32f7xx_hal_dma.c **** 
 677:Drivers/STM32F7xx_HAL_Driver/Src/stm32f7xx_hal_dma.c ****     if((tmpisr & (DMA_FLAG_TEIF0_4 << hdma->StreamIndex)) != RESET)
 678:Drivers/STM32F7xx_HAL_Driver/Src/stm32f7xx_hal_dma.c ****     {
 679:Drivers/STM32F7xx_HAL_Driver/Src/stm32f7xx_hal_dma.c ****       /* Update error code */
 680:Drivers/STM32F7xx_HAL_Driver/Src/stm32f7xx_hal_dma.c ****       hdma->ErrorCode |= HAL_DMA_ERROR_TE;
 681:Drivers/STM32F7xx_HAL_Driver/Src/stm32f7xx_hal_dma.c ****       
 682:Drivers/STM32F7xx_HAL_Driver/Src/stm32f7xx_hal_dma.c ****       /* Clear the transfer error flag */
 683:Drivers/STM32F7xx_HAL_Driver/Src/stm32f7xx_hal_dma.c ****       regs->IFCR = DMA_FLAG_TEIF0_4 << hdma->StreamIndex;
 684:Drivers/STM32F7xx_HAL_Driver/Src/stm32f7xx_hal_dma.c ****     }
 685:Drivers/STM32F7xx_HAL_Driver/Src/stm32f7xx_hal_dma.c ****     
 686:Drivers/STM32F7xx_HAL_Driver/Src/stm32f7xx_hal_dma.c ****     if((tmpisr & (DMA_FLAG_FEIF0_4 << hdma->StreamIndex)) != RESET)
 687:Drivers/STM32F7xx_HAL_Driver/Src/stm32f7xx_hal_dma.c ****     {
 688:Drivers/STM32F7xx_HAL_Driver/Src/stm32f7xx_hal_dma.c ****       /* Update error code */
 689:Drivers/STM32F7xx_HAL_Driver/Src/stm32f7xx_hal_dma.c ****       hdma->ErrorCode |= HAL_DMA_ERROR_FE;
 690:Drivers/STM32F7xx_HAL_Driver/Src/stm32f7xx_hal_dma.c ****       
 691:Drivers/STM32F7xx_HAL_Driver/Src/stm32f7xx_hal_dma.c ****       /* Clear the FIFO error flag */
 692:Drivers/STM32F7xx_HAL_Driver/Src/stm32f7xx_hal_dma.c ****       regs->IFCR = DMA_FLAG_FEIF0_4 << hdma->StreamIndex;
 693:Drivers/STM32F7xx_HAL_Driver/Src/stm32f7xx_hal_dma.c ****     }
 694:Drivers/STM32F7xx_HAL_Driver/Src/stm32f7xx_hal_dma.c ****     
 695:Drivers/STM32F7xx_HAL_Driver/Src/stm32f7xx_hal_dma.c ****     if((tmpisr & (DMA_FLAG_DMEIF0_4 << hdma->StreamIndex)) != RESET)
 696:Drivers/STM32F7xx_HAL_Driver/Src/stm32f7xx_hal_dma.c ****     {
 697:Drivers/STM32F7xx_HAL_Driver/Src/stm32f7xx_hal_dma.c ****       /* Update error code */
 698:Drivers/STM32F7xx_HAL_Driver/Src/stm32f7xx_hal_dma.c ****       hdma->ErrorCode |= HAL_DMA_ERROR_DME;
 699:Drivers/STM32F7xx_HAL_Driver/Src/stm32f7xx_hal_dma.c ****       
 700:Drivers/STM32F7xx_HAL_Driver/Src/stm32f7xx_hal_dma.c ****       /* Clear the Direct Mode error flag */
 701:Drivers/STM32F7xx_HAL_Driver/Src/stm32f7xx_hal_dma.c ****       regs->IFCR = DMA_FLAG_DMEIF0_4 << hdma->StreamIndex;
 702:Drivers/STM32F7xx_HAL_Driver/Src/stm32f7xx_hal_dma.c ****     }
 703:Drivers/STM32F7xx_HAL_Driver/Src/stm32f7xx_hal_dma.c ****   }
 704:Drivers/STM32F7xx_HAL_Driver/Src/stm32f7xx_hal_dma.c ****   
 705:Drivers/STM32F7xx_HAL_Driver/Src/stm32f7xx_hal_dma.c ****   if(hdma->ErrorCode != HAL_DMA_ERROR_NONE)
 706:Drivers/STM32F7xx_HAL_Driver/Src/stm32f7xx_hal_dma.c ****   {
 707:Drivers/STM32F7xx_HAL_Driver/Src/stm32f7xx_hal_dma.c ****     if((hdma->ErrorCode & HAL_DMA_ERROR_TE) != RESET)
 708:Drivers/STM32F7xx_HAL_Driver/Src/stm32f7xx_hal_dma.c ****     {
 709:Drivers/STM32F7xx_HAL_Driver/Src/stm32f7xx_hal_dma.c ****       HAL_DMA_Abort(hdma);
 710:Drivers/STM32F7xx_HAL_Driver/Src/stm32f7xx_hal_dma.c ****     
 711:Drivers/STM32F7xx_HAL_Driver/Src/stm32f7xx_hal_dma.c ****       /* Clear the half transfer and transfer complete flags */
 712:Drivers/STM32F7xx_HAL_Driver/Src/stm32f7xx_hal_dma.c ****       regs->IFCR = (DMA_FLAG_HTIF0_4 | DMA_FLAG_TCIF0_4) << hdma->StreamIndex;
 713:Drivers/STM32F7xx_HAL_Driver/Src/stm32f7xx_hal_dma.c ****     
 714:Drivers/STM32F7xx_HAL_Driver/Src/stm32f7xx_hal_dma.c ****       /* Change the DMA state */
ARM GAS  /tmp/cclJgRLT.s 			page 14


 715:Drivers/STM32F7xx_HAL_Driver/Src/stm32f7xx_hal_dma.c ****       hdma->State= HAL_DMA_STATE_READY;
 716:Drivers/STM32F7xx_HAL_Driver/Src/stm32f7xx_hal_dma.c **** 
 717:Drivers/STM32F7xx_HAL_Driver/Src/stm32f7xx_hal_dma.c ****       /* Process Unlocked */
 718:Drivers/STM32F7xx_HAL_Driver/Src/stm32f7xx_hal_dma.c ****       __HAL_UNLOCK(hdma);
 719:Drivers/STM32F7xx_HAL_Driver/Src/stm32f7xx_hal_dma.c **** 
 720:Drivers/STM32F7xx_HAL_Driver/Src/stm32f7xx_hal_dma.c ****       return HAL_ERROR;
 721:Drivers/STM32F7xx_HAL_Driver/Src/stm32f7xx_hal_dma.c ****    }
 722:Drivers/STM32F7xx_HAL_Driver/Src/stm32f7xx_hal_dma.c ****   }
 723:Drivers/STM32F7xx_HAL_Driver/Src/stm32f7xx_hal_dma.c ****   
 724:Drivers/STM32F7xx_HAL_Driver/Src/stm32f7xx_hal_dma.c ****   /* Get the level transfer complete flag */
 725:Drivers/STM32F7xx_HAL_Driver/Src/stm32f7xx_hal_dma.c ****   if(CompleteLevel == HAL_DMA_FULL_TRANSFER)
 726:Drivers/STM32F7xx_HAL_Driver/Src/stm32f7xx_hal_dma.c ****   {
 727:Drivers/STM32F7xx_HAL_Driver/Src/stm32f7xx_hal_dma.c ****     /* Clear the half transfer and transfer complete flags */
 728:Drivers/STM32F7xx_HAL_Driver/Src/stm32f7xx_hal_dma.c ****     regs->IFCR = (DMA_FLAG_HTIF0_4 | DMA_FLAG_TCIF0_4) << hdma->StreamIndex;
 729:Drivers/STM32F7xx_HAL_Driver/Src/stm32f7xx_hal_dma.c ****     
 730:Drivers/STM32F7xx_HAL_Driver/Src/stm32f7xx_hal_dma.c ****     hdma->State = HAL_DMA_STATE_READY;
 731:Drivers/STM32F7xx_HAL_Driver/Src/stm32f7xx_hal_dma.c **** 
 732:Drivers/STM32F7xx_HAL_Driver/Src/stm32f7xx_hal_dma.c ****     /* Process Unlocked */
 733:Drivers/STM32F7xx_HAL_Driver/Src/stm32f7xx_hal_dma.c ****     __HAL_UNLOCK(hdma);
 734:Drivers/STM32F7xx_HAL_Driver/Src/stm32f7xx_hal_dma.c **** 
 735:Drivers/STM32F7xx_HAL_Driver/Src/stm32f7xx_hal_dma.c ****   }
 736:Drivers/STM32F7xx_HAL_Driver/Src/stm32f7xx_hal_dma.c ****   else
 737:Drivers/STM32F7xx_HAL_Driver/Src/stm32f7xx_hal_dma.c ****   {
 738:Drivers/STM32F7xx_HAL_Driver/Src/stm32f7xx_hal_dma.c ****     /* Clear the half transfer flag */
 739:Drivers/STM32F7xx_HAL_Driver/Src/stm32f7xx_hal_dma.c ****     regs->IFCR = (DMA_FLAG_HTIF0_4) << hdma->StreamIndex;
 740:Drivers/STM32F7xx_HAL_Driver/Src/stm32f7xx_hal_dma.c ****   }
 741:Drivers/STM32F7xx_HAL_Driver/Src/stm32f7xx_hal_dma.c ****   
 742:Drivers/STM32F7xx_HAL_Driver/Src/stm32f7xx_hal_dma.c ****   return status;
 743:Drivers/STM32F7xx_HAL_Driver/Src/stm32f7xx_hal_dma.c **** }
 744:Drivers/STM32F7xx_HAL_Driver/Src/stm32f7xx_hal_dma.c **** 
 745:Drivers/STM32F7xx_HAL_Driver/Src/stm32f7xx_hal_dma.c **** /**
 746:Drivers/STM32F7xx_HAL_Driver/Src/stm32f7xx_hal_dma.c ****   * @brief  Handles DMA interrupt request.
 747:Drivers/STM32F7xx_HAL_Driver/Src/stm32f7xx_hal_dma.c ****   * @param  hdma pointer to a DMA_HandleTypeDef structure that contains
 748:Drivers/STM32F7xx_HAL_Driver/Src/stm32f7xx_hal_dma.c ****   *               the configuration information for the specified DMA Stream.  
 749:Drivers/STM32F7xx_HAL_Driver/Src/stm32f7xx_hal_dma.c ****   * @retval None
 750:Drivers/STM32F7xx_HAL_Driver/Src/stm32f7xx_hal_dma.c ****   */
 751:Drivers/STM32F7xx_HAL_Driver/Src/stm32f7xx_hal_dma.c **** void HAL_DMA_IRQHandler(DMA_HandleTypeDef *hdma)
 752:Drivers/STM32F7xx_HAL_Driver/Src/stm32f7xx_hal_dma.c **** {
 753:Drivers/STM32F7xx_HAL_Driver/Src/stm32f7xx_hal_dma.c ****   uint32_t tmpisr;
 754:Drivers/STM32F7xx_HAL_Driver/Src/stm32f7xx_hal_dma.c ****   __IO uint32_t count = 0;
 755:Drivers/STM32F7xx_HAL_Driver/Src/stm32f7xx_hal_dma.c ****   uint32_t timeout = SystemCoreClock / 9600;
 756:Drivers/STM32F7xx_HAL_Driver/Src/stm32f7xx_hal_dma.c **** 
 757:Drivers/STM32F7xx_HAL_Driver/Src/stm32f7xx_hal_dma.c ****   /* calculate DMA base and stream number */
 758:Drivers/STM32F7xx_HAL_Driver/Src/stm32f7xx_hal_dma.c ****   DMA_Base_Registers *regs = (DMA_Base_Registers *)hdma->StreamBaseAddress;
 759:Drivers/STM32F7xx_HAL_Driver/Src/stm32f7xx_hal_dma.c **** 
 760:Drivers/STM32F7xx_HAL_Driver/Src/stm32f7xx_hal_dma.c ****   tmpisr = regs->ISR;
 761:Drivers/STM32F7xx_HAL_Driver/Src/stm32f7xx_hal_dma.c **** 
 762:Drivers/STM32F7xx_HAL_Driver/Src/stm32f7xx_hal_dma.c ****   /* Transfer Error Interrupt management ***************************************/
 763:Drivers/STM32F7xx_HAL_Driver/Src/stm32f7xx_hal_dma.c ****   if ((tmpisr & (DMA_FLAG_TEIF0_4 << hdma->StreamIndex)) != RESET)
 764:Drivers/STM32F7xx_HAL_Driver/Src/stm32f7xx_hal_dma.c ****   {
 765:Drivers/STM32F7xx_HAL_Driver/Src/stm32f7xx_hal_dma.c ****     if(__HAL_DMA_GET_IT_SOURCE(hdma, DMA_IT_TE) != RESET)
 766:Drivers/STM32F7xx_HAL_Driver/Src/stm32f7xx_hal_dma.c ****     {
 767:Drivers/STM32F7xx_HAL_Driver/Src/stm32f7xx_hal_dma.c ****       /* Disable the transfer error interrupt */
 768:Drivers/STM32F7xx_HAL_Driver/Src/stm32f7xx_hal_dma.c ****       hdma->Instance->CR  &= ~(DMA_IT_TE);
 769:Drivers/STM32F7xx_HAL_Driver/Src/stm32f7xx_hal_dma.c ****       
 770:Drivers/STM32F7xx_HAL_Driver/Src/stm32f7xx_hal_dma.c ****       /* Clear the transfer error flag */
 771:Drivers/STM32F7xx_HAL_Driver/Src/stm32f7xx_hal_dma.c ****       regs->IFCR = DMA_FLAG_TEIF0_4 << hdma->StreamIndex;
ARM GAS  /tmp/cclJgRLT.s 			page 15


 772:Drivers/STM32F7xx_HAL_Driver/Src/stm32f7xx_hal_dma.c ****       
 773:Drivers/STM32F7xx_HAL_Driver/Src/stm32f7xx_hal_dma.c ****       /* Update error code */
 774:Drivers/STM32F7xx_HAL_Driver/Src/stm32f7xx_hal_dma.c ****       hdma->ErrorCode |= HAL_DMA_ERROR_TE;
 775:Drivers/STM32F7xx_HAL_Driver/Src/stm32f7xx_hal_dma.c ****     }
 776:Drivers/STM32F7xx_HAL_Driver/Src/stm32f7xx_hal_dma.c ****   }
 777:Drivers/STM32F7xx_HAL_Driver/Src/stm32f7xx_hal_dma.c ****   /* FIFO Error Interrupt management ******************************************/
 778:Drivers/STM32F7xx_HAL_Driver/Src/stm32f7xx_hal_dma.c ****   if ((tmpisr & (DMA_FLAG_FEIF0_4 << hdma->StreamIndex)) != RESET)
 779:Drivers/STM32F7xx_HAL_Driver/Src/stm32f7xx_hal_dma.c ****   {
 780:Drivers/STM32F7xx_HAL_Driver/Src/stm32f7xx_hal_dma.c ****     if(__HAL_DMA_GET_IT_SOURCE(hdma, DMA_IT_FE) != RESET)
 781:Drivers/STM32F7xx_HAL_Driver/Src/stm32f7xx_hal_dma.c ****     {
 782:Drivers/STM32F7xx_HAL_Driver/Src/stm32f7xx_hal_dma.c ****       /* Clear the FIFO error flag */
 783:Drivers/STM32F7xx_HAL_Driver/Src/stm32f7xx_hal_dma.c ****       regs->IFCR = DMA_FLAG_FEIF0_4 << hdma->StreamIndex;
 784:Drivers/STM32F7xx_HAL_Driver/Src/stm32f7xx_hal_dma.c **** 
 785:Drivers/STM32F7xx_HAL_Driver/Src/stm32f7xx_hal_dma.c ****       /* Update error code */
 786:Drivers/STM32F7xx_HAL_Driver/Src/stm32f7xx_hal_dma.c ****       hdma->ErrorCode |= HAL_DMA_ERROR_FE;
 787:Drivers/STM32F7xx_HAL_Driver/Src/stm32f7xx_hal_dma.c ****     }
 788:Drivers/STM32F7xx_HAL_Driver/Src/stm32f7xx_hal_dma.c ****   }
 789:Drivers/STM32F7xx_HAL_Driver/Src/stm32f7xx_hal_dma.c ****   /* Direct Mode Error Interrupt management ***********************************/
 790:Drivers/STM32F7xx_HAL_Driver/Src/stm32f7xx_hal_dma.c ****   if ((tmpisr & (DMA_FLAG_DMEIF0_4 << hdma->StreamIndex)) != RESET)
 791:Drivers/STM32F7xx_HAL_Driver/Src/stm32f7xx_hal_dma.c ****   {
 792:Drivers/STM32F7xx_HAL_Driver/Src/stm32f7xx_hal_dma.c ****     if(__HAL_DMA_GET_IT_SOURCE(hdma, DMA_IT_DME) != RESET)
 793:Drivers/STM32F7xx_HAL_Driver/Src/stm32f7xx_hal_dma.c ****     {
 794:Drivers/STM32F7xx_HAL_Driver/Src/stm32f7xx_hal_dma.c ****       /* Clear the direct mode error flag */
 795:Drivers/STM32F7xx_HAL_Driver/Src/stm32f7xx_hal_dma.c ****       regs->IFCR = DMA_FLAG_DMEIF0_4 << hdma->StreamIndex;
 796:Drivers/STM32F7xx_HAL_Driver/Src/stm32f7xx_hal_dma.c **** 
 797:Drivers/STM32F7xx_HAL_Driver/Src/stm32f7xx_hal_dma.c ****       /* Update error code */
 798:Drivers/STM32F7xx_HAL_Driver/Src/stm32f7xx_hal_dma.c ****       hdma->ErrorCode |= HAL_DMA_ERROR_DME;
 799:Drivers/STM32F7xx_HAL_Driver/Src/stm32f7xx_hal_dma.c ****     }
 800:Drivers/STM32F7xx_HAL_Driver/Src/stm32f7xx_hal_dma.c ****   }
 801:Drivers/STM32F7xx_HAL_Driver/Src/stm32f7xx_hal_dma.c ****   /* Half Transfer Complete Interrupt management ******************************/
 802:Drivers/STM32F7xx_HAL_Driver/Src/stm32f7xx_hal_dma.c ****   if ((tmpisr & (DMA_FLAG_HTIF0_4 << hdma->StreamIndex)) != RESET)
 803:Drivers/STM32F7xx_HAL_Driver/Src/stm32f7xx_hal_dma.c ****   {
 804:Drivers/STM32F7xx_HAL_Driver/Src/stm32f7xx_hal_dma.c ****     if(__HAL_DMA_GET_IT_SOURCE(hdma, DMA_IT_HT) != RESET)
 805:Drivers/STM32F7xx_HAL_Driver/Src/stm32f7xx_hal_dma.c ****     {
 806:Drivers/STM32F7xx_HAL_Driver/Src/stm32f7xx_hal_dma.c ****       /* Clear the half transfer complete flag */
 807:Drivers/STM32F7xx_HAL_Driver/Src/stm32f7xx_hal_dma.c ****       regs->IFCR = DMA_FLAG_HTIF0_4 << hdma->StreamIndex;
 808:Drivers/STM32F7xx_HAL_Driver/Src/stm32f7xx_hal_dma.c ****       
 809:Drivers/STM32F7xx_HAL_Driver/Src/stm32f7xx_hal_dma.c ****       /* Multi_Buffering mode enabled */
 810:Drivers/STM32F7xx_HAL_Driver/Src/stm32f7xx_hal_dma.c ****       if(((hdma->Instance->CR) & (uint32_t)(DMA_SxCR_DBM)) != RESET)
 811:Drivers/STM32F7xx_HAL_Driver/Src/stm32f7xx_hal_dma.c ****       {
 812:Drivers/STM32F7xx_HAL_Driver/Src/stm32f7xx_hal_dma.c ****         /* Current memory buffer used is Memory 0 */
 813:Drivers/STM32F7xx_HAL_Driver/Src/stm32f7xx_hal_dma.c ****         if((hdma->Instance->CR & DMA_SxCR_CT) == RESET)
 814:Drivers/STM32F7xx_HAL_Driver/Src/stm32f7xx_hal_dma.c ****         {
 815:Drivers/STM32F7xx_HAL_Driver/Src/stm32f7xx_hal_dma.c ****           if(hdma->XferHalfCpltCallback != NULL)
 816:Drivers/STM32F7xx_HAL_Driver/Src/stm32f7xx_hal_dma.c ****           {
 817:Drivers/STM32F7xx_HAL_Driver/Src/stm32f7xx_hal_dma.c ****             /* Half transfer callback */
 818:Drivers/STM32F7xx_HAL_Driver/Src/stm32f7xx_hal_dma.c ****             hdma->XferHalfCpltCallback(hdma);
 819:Drivers/STM32F7xx_HAL_Driver/Src/stm32f7xx_hal_dma.c ****           }
 820:Drivers/STM32F7xx_HAL_Driver/Src/stm32f7xx_hal_dma.c ****         }
 821:Drivers/STM32F7xx_HAL_Driver/Src/stm32f7xx_hal_dma.c ****         /* Current memory buffer used is Memory 1 */
 822:Drivers/STM32F7xx_HAL_Driver/Src/stm32f7xx_hal_dma.c ****         else
 823:Drivers/STM32F7xx_HAL_Driver/Src/stm32f7xx_hal_dma.c ****         {
 824:Drivers/STM32F7xx_HAL_Driver/Src/stm32f7xx_hal_dma.c ****           if(hdma->XferM1HalfCpltCallback != NULL)
 825:Drivers/STM32F7xx_HAL_Driver/Src/stm32f7xx_hal_dma.c ****           {
 826:Drivers/STM32F7xx_HAL_Driver/Src/stm32f7xx_hal_dma.c ****             /* Half transfer callback */
 827:Drivers/STM32F7xx_HAL_Driver/Src/stm32f7xx_hal_dma.c ****             hdma->XferM1HalfCpltCallback(hdma);
 828:Drivers/STM32F7xx_HAL_Driver/Src/stm32f7xx_hal_dma.c ****           }
ARM GAS  /tmp/cclJgRLT.s 			page 16


 829:Drivers/STM32F7xx_HAL_Driver/Src/stm32f7xx_hal_dma.c ****         }
 830:Drivers/STM32F7xx_HAL_Driver/Src/stm32f7xx_hal_dma.c ****       }
 831:Drivers/STM32F7xx_HAL_Driver/Src/stm32f7xx_hal_dma.c ****       else
 832:Drivers/STM32F7xx_HAL_Driver/Src/stm32f7xx_hal_dma.c ****       {
 833:Drivers/STM32F7xx_HAL_Driver/Src/stm32f7xx_hal_dma.c ****         /* Disable the half transfer interrupt if the DMA mode is not CIRCULAR */
 834:Drivers/STM32F7xx_HAL_Driver/Src/stm32f7xx_hal_dma.c ****         if((hdma->Instance->CR & DMA_SxCR_CIRC) == RESET)
 835:Drivers/STM32F7xx_HAL_Driver/Src/stm32f7xx_hal_dma.c ****         {
 836:Drivers/STM32F7xx_HAL_Driver/Src/stm32f7xx_hal_dma.c ****           /* Disable the half transfer interrupt */
 837:Drivers/STM32F7xx_HAL_Driver/Src/stm32f7xx_hal_dma.c ****           hdma->Instance->CR  &= ~(DMA_IT_HT);
 838:Drivers/STM32F7xx_HAL_Driver/Src/stm32f7xx_hal_dma.c ****         }
 839:Drivers/STM32F7xx_HAL_Driver/Src/stm32f7xx_hal_dma.c ****         
 840:Drivers/STM32F7xx_HAL_Driver/Src/stm32f7xx_hal_dma.c ****         if(hdma->XferHalfCpltCallback != NULL)
 841:Drivers/STM32F7xx_HAL_Driver/Src/stm32f7xx_hal_dma.c ****         {
 842:Drivers/STM32F7xx_HAL_Driver/Src/stm32f7xx_hal_dma.c ****           /* Half transfer callback */
 843:Drivers/STM32F7xx_HAL_Driver/Src/stm32f7xx_hal_dma.c ****           hdma->XferHalfCpltCallback(hdma);
 844:Drivers/STM32F7xx_HAL_Driver/Src/stm32f7xx_hal_dma.c ****         }
 845:Drivers/STM32F7xx_HAL_Driver/Src/stm32f7xx_hal_dma.c ****       }
 846:Drivers/STM32F7xx_HAL_Driver/Src/stm32f7xx_hal_dma.c ****     }
 847:Drivers/STM32F7xx_HAL_Driver/Src/stm32f7xx_hal_dma.c ****   }
 848:Drivers/STM32F7xx_HAL_Driver/Src/stm32f7xx_hal_dma.c ****   /* Transfer Complete Interrupt management ***********************************/
 849:Drivers/STM32F7xx_HAL_Driver/Src/stm32f7xx_hal_dma.c ****   if ((tmpisr & (DMA_FLAG_TCIF0_4 << hdma->StreamIndex)) != RESET)
 850:Drivers/STM32F7xx_HAL_Driver/Src/stm32f7xx_hal_dma.c ****   {
 851:Drivers/STM32F7xx_HAL_Driver/Src/stm32f7xx_hal_dma.c ****     if(__HAL_DMA_GET_IT_SOURCE(hdma, DMA_IT_TC) != RESET)
 852:Drivers/STM32F7xx_HAL_Driver/Src/stm32f7xx_hal_dma.c ****     {
 853:Drivers/STM32F7xx_HAL_Driver/Src/stm32f7xx_hal_dma.c ****       /* Clear the transfer complete flag */
 854:Drivers/STM32F7xx_HAL_Driver/Src/stm32f7xx_hal_dma.c ****       regs->IFCR = DMA_FLAG_TCIF0_4 << hdma->StreamIndex;
 855:Drivers/STM32F7xx_HAL_Driver/Src/stm32f7xx_hal_dma.c ****       
 856:Drivers/STM32F7xx_HAL_Driver/Src/stm32f7xx_hal_dma.c ****       if(HAL_DMA_STATE_ABORT == hdma->State)
 857:Drivers/STM32F7xx_HAL_Driver/Src/stm32f7xx_hal_dma.c ****       {
 858:Drivers/STM32F7xx_HAL_Driver/Src/stm32f7xx_hal_dma.c ****         /* Disable all the transfer interrupts */
 859:Drivers/STM32F7xx_HAL_Driver/Src/stm32f7xx_hal_dma.c ****         hdma->Instance->CR  &= ~(DMA_IT_TC | DMA_IT_TE | DMA_IT_DME);
 860:Drivers/STM32F7xx_HAL_Driver/Src/stm32f7xx_hal_dma.c ****         hdma->Instance->FCR &= ~(DMA_IT_FE);
 861:Drivers/STM32F7xx_HAL_Driver/Src/stm32f7xx_hal_dma.c ****         
 862:Drivers/STM32F7xx_HAL_Driver/Src/stm32f7xx_hal_dma.c ****         if((hdma->XferHalfCpltCallback != NULL) || (hdma->XferM1HalfCpltCallback != NULL))
 863:Drivers/STM32F7xx_HAL_Driver/Src/stm32f7xx_hal_dma.c ****         {
 864:Drivers/STM32F7xx_HAL_Driver/Src/stm32f7xx_hal_dma.c ****           hdma->Instance->CR  &= ~(DMA_IT_HT);
 865:Drivers/STM32F7xx_HAL_Driver/Src/stm32f7xx_hal_dma.c ****         }
 866:Drivers/STM32F7xx_HAL_Driver/Src/stm32f7xx_hal_dma.c **** 
 867:Drivers/STM32F7xx_HAL_Driver/Src/stm32f7xx_hal_dma.c ****         /* Clear all interrupt flags at correct offset within the register */
 868:Drivers/STM32F7xx_HAL_Driver/Src/stm32f7xx_hal_dma.c ****         regs->IFCR = 0x3FU << hdma->StreamIndex;
 869:Drivers/STM32F7xx_HAL_Driver/Src/stm32f7xx_hal_dma.c **** 
 870:Drivers/STM32F7xx_HAL_Driver/Src/stm32f7xx_hal_dma.c ****         /* Change the DMA state */
 871:Drivers/STM32F7xx_HAL_Driver/Src/stm32f7xx_hal_dma.c ****         hdma->State = HAL_DMA_STATE_READY;
 872:Drivers/STM32F7xx_HAL_Driver/Src/stm32f7xx_hal_dma.c **** 
 873:Drivers/STM32F7xx_HAL_Driver/Src/stm32f7xx_hal_dma.c ****         /* Process Unlocked */
 874:Drivers/STM32F7xx_HAL_Driver/Src/stm32f7xx_hal_dma.c ****         __HAL_UNLOCK(hdma);
 875:Drivers/STM32F7xx_HAL_Driver/Src/stm32f7xx_hal_dma.c **** 
 876:Drivers/STM32F7xx_HAL_Driver/Src/stm32f7xx_hal_dma.c ****         if(hdma->XferAbortCallback != NULL)
 877:Drivers/STM32F7xx_HAL_Driver/Src/stm32f7xx_hal_dma.c ****         {
 878:Drivers/STM32F7xx_HAL_Driver/Src/stm32f7xx_hal_dma.c ****           hdma->XferAbortCallback(hdma);
 879:Drivers/STM32F7xx_HAL_Driver/Src/stm32f7xx_hal_dma.c ****         }
 880:Drivers/STM32F7xx_HAL_Driver/Src/stm32f7xx_hal_dma.c ****         return;
 881:Drivers/STM32F7xx_HAL_Driver/Src/stm32f7xx_hal_dma.c ****       }
 882:Drivers/STM32F7xx_HAL_Driver/Src/stm32f7xx_hal_dma.c **** 
 883:Drivers/STM32F7xx_HAL_Driver/Src/stm32f7xx_hal_dma.c ****       if(((hdma->Instance->CR) & (uint32_t)(DMA_SxCR_DBM)) != RESET)
 884:Drivers/STM32F7xx_HAL_Driver/Src/stm32f7xx_hal_dma.c ****       {
 885:Drivers/STM32F7xx_HAL_Driver/Src/stm32f7xx_hal_dma.c ****         /* Current memory buffer used is Memory 0 */
ARM GAS  /tmp/cclJgRLT.s 			page 17


 886:Drivers/STM32F7xx_HAL_Driver/Src/stm32f7xx_hal_dma.c ****         if((hdma->Instance->CR & DMA_SxCR_CT) == RESET)
 887:Drivers/STM32F7xx_HAL_Driver/Src/stm32f7xx_hal_dma.c ****         {
 888:Drivers/STM32F7xx_HAL_Driver/Src/stm32f7xx_hal_dma.c ****           if(hdma->XferM1CpltCallback != NULL)
 889:Drivers/STM32F7xx_HAL_Driver/Src/stm32f7xx_hal_dma.c ****           {
 890:Drivers/STM32F7xx_HAL_Driver/Src/stm32f7xx_hal_dma.c ****             /* Transfer complete Callback for memory1 */
 891:Drivers/STM32F7xx_HAL_Driver/Src/stm32f7xx_hal_dma.c ****             hdma->XferM1CpltCallback(hdma);
 892:Drivers/STM32F7xx_HAL_Driver/Src/stm32f7xx_hal_dma.c ****           }
 893:Drivers/STM32F7xx_HAL_Driver/Src/stm32f7xx_hal_dma.c ****         }
 894:Drivers/STM32F7xx_HAL_Driver/Src/stm32f7xx_hal_dma.c ****         /* Current memory buffer used is Memory 1 */
 895:Drivers/STM32F7xx_HAL_Driver/Src/stm32f7xx_hal_dma.c ****         else
 896:Drivers/STM32F7xx_HAL_Driver/Src/stm32f7xx_hal_dma.c ****         {
 897:Drivers/STM32F7xx_HAL_Driver/Src/stm32f7xx_hal_dma.c ****           if(hdma->XferCpltCallback != NULL)
 898:Drivers/STM32F7xx_HAL_Driver/Src/stm32f7xx_hal_dma.c ****           {
 899:Drivers/STM32F7xx_HAL_Driver/Src/stm32f7xx_hal_dma.c ****             /* Transfer complete Callback for memory0 */
 900:Drivers/STM32F7xx_HAL_Driver/Src/stm32f7xx_hal_dma.c ****             hdma->XferCpltCallback(hdma);
 901:Drivers/STM32F7xx_HAL_Driver/Src/stm32f7xx_hal_dma.c ****           }
 902:Drivers/STM32F7xx_HAL_Driver/Src/stm32f7xx_hal_dma.c ****         }
 903:Drivers/STM32F7xx_HAL_Driver/Src/stm32f7xx_hal_dma.c ****       }
 904:Drivers/STM32F7xx_HAL_Driver/Src/stm32f7xx_hal_dma.c ****       /* Disable the transfer complete interrupt if the DMA mode is not CIRCULAR */
 905:Drivers/STM32F7xx_HAL_Driver/Src/stm32f7xx_hal_dma.c ****       else
 906:Drivers/STM32F7xx_HAL_Driver/Src/stm32f7xx_hal_dma.c ****       {
 907:Drivers/STM32F7xx_HAL_Driver/Src/stm32f7xx_hal_dma.c ****         if((hdma->Instance->CR & DMA_SxCR_CIRC) == RESET)
 908:Drivers/STM32F7xx_HAL_Driver/Src/stm32f7xx_hal_dma.c ****         {
 909:Drivers/STM32F7xx_HAL_Driver/Src/stm32f7xx_hal_dma.c ****           /* Disable the transfer complete interrupt */
 910:Drivers/STM32F7xx_HAL_Driver/Src/stm32f7xx_hal_dma.c ****           hdma->Instance->CR  &= ~(DMA_IT_TC);
 911:Drivers/STM32F7xx_HAL_Driver/Src/stm32f7xx_hal_dma.c **** 
 912:Drivers/STM32F7xx_HAL_Driver/Src/stm32f7xx_hal_dma.c ****           /* Change the DMA state */
 913:Drivers/STM32F7xx_HAL_Driver/Src/stm32f7xx_hal_dma.c ****           hdma->State = HAL_DMA_STATE_READY;
 914:Drivers/STM32F7xx_HAL_Driver/Src/stm32f7xx_hal_dma.c **** 
 915:Drivers/STM32F7xx_HAL_Driver/Src/stm32f7xx_hal_dma.c ****           /* Process Unlocked */
 916:Drivers/STM32F7xx_HAL_Driver/Src/stm32f7xx_hal_dma.c ****           __HAL_UNLOCK(hdma);
 917:Drivers/STM32F7xx_HAL_Driver/Src/stm32f7xx_hal_dma.c **** 
 918:Drivers/STM32F7xx_HAL_Driver/Src/stm32f7xx_hal_dma.c ****         }
 919:Drivers/STM32F7xx_HAL_Driver/Src/stm32f7xx_hal_dma.c **** 
 920:Drivers/STM32F7xx_HAL_Driver/Src/stm32f7xx_hal_dma.c ****         if(hdma->XferCpltCallback != NULL)
 921:Drivers/STM32F7xx_HAL_Driver/Src/stm32f7xx_hal_dma.c ****         {
 922:Drivers/STM32F7xx_HAL_Driver/Src/stm32f7xx_hal_dma.c ****           /* Transfer complete callback */
 923:Drivers/STM32F7xx_HAL_Driver/Src/stm32f7xx_hal_dma.c ****           hdma->XferCpltCallback(hdma);
 924:Drivers/STM32F7xx_HAL_Driver/Src/stm32f7xx_hal_dma.c ****         }
 925:Drivers/STM32F7xx_HAL_Driver/Src/stm32f7xx_hal_dma.c ****       }
 926:Drivers/STM32F7xx_HAL_Driver/Src/stm32f7xx_hal_dma.c ****     }
 927:Drivers/STM32F7xx_HAL_Driver/Src/stm32f7xx_hal_dma.c ****   }
 928:Drivers/STM32F7xx_HAL_Driver/Src/stm32f7xx_hal_dma.c ****   
 929:Drivers/STM32F7xx_HAL_Driver/Src/stm32f7xx_hal_dma.c ****   /* manage error case */
 930:Drivers/STM32F7xx_HAL_Driver/Src/stm32f7xx_hal_dma.c ****   if(hdma->ErrorCode != HAL_DMA_ERROR_NONE)
 931:Drivers/STM32F7xx_HAL_Driver/Src/stm32f7xx_hal_dma.c ****   {
 932:Drivers/STM32F7xx_HAL_Driver/Src/stm32f7xx_hal_dma.c ****     if((hdma->ErrorCode & HAL_DMA_ERROR_TE) != RESET)
 933:Drivers/STM32F7xx_HAL_Driver/Src/stm32f7xx_hal_dma.c ****     {
 934:Drivers/STM32F7xx_HAL_Driver/Src/stm32f7xx_hal_dma.c ****       hdma->State = HAL_DMA_STATE_ABORT;
 935:Drivers/STM32F7xx_HAL_Driver/Src/stm32f7xx_hal_dma.c **** 
 936:Drivers/STM32F7xx_HAL_Driver/Src/stm32f7xx_hal_dma.c ****       /* Disable the stream */
 937:Drivers/STM32F7xx_HAL_Driver/Src/stm32f7xx_hal_dma.c ****       __HAL_DMA_DISABLE(hdma);
 938:Drivers/STM32F7xx_HAL_Driver/Src/stm32f7xx_hal_dma.c **** 
 939:Drivers/STM32F7xx_HAL_Driver/Src/stm32f7xx_hal_dma.c ****       do
 940:Drivers/STM32F7xx_HAL_Driver/Src/stm32f7xx_hal_dma.c ****       {
 941:Drivers/STM32F7xx_HAL_Driver/Src/stm32f7xx_hal_dma.c ****         if (++count > timeout)
 942:Drivers/STM32F7xx_HAL_Driver/Src/stm32f7xx_hal_dma.c ****         {
ARM GAS  /tmp/cclJgRLT.s 			page 18


 943:Drivers/STM32F7xx_HAL_Driver/Src/stm32f7xx_hal_dma.c ****           break;
 944:Drivers/STM32F7xx_HAL_Driver/Src/stm32f7xx_hal_dma.c ****         }
 945:Drivers/STM32F7xx_HAL_Driver/Src/stm32f7xx_hal_dma.c ****       }
 946:Drivers/STM32F7xx_HAL_Driver/Src/stm32f7xx_hal_dma.c ****       while((hdma->Instance->CR & DMA_SxCR_EN) != RESET);
 947:Drivers/STM32F7xx_HAL_Driver/Src/stm32f7xx_hal_dma.c **** 
 948:Drivers/STM32F7xx_HAL_Driver/Src/stm32f7xx_hal_dma.c ****       /* Change the DMA state */
 949:Drivers/STM32F7xx_HAL_Driver/Src/stm32f7xx_hal_dma.c ****       hdma->State = HAL_DMA_STATE_READY;
 950:Drivers/STM32F7xx_HAL_Driver/Src/stm32f7xx_hal_dma.c **** 
 951:Drivers/STM32F7xx_HAL_Driver/Src/stm32f7xx_hal_dma.c ****       /* Process Unlocked */
 952:Drivers/STM32F7xx_HAL_Driver/Src/stm32f7xx_hal_dma.c ****       __HAL_UNLOCK(hdma);
 953:Drivers/STM32F7xx_HAL_Driver/Src/stm32f7xx_hal_dma.c **** 
 954:Drivers/STM32F7xx_HAL_Driver/Src/stm32f7xx_hal_dma.c ****     }
 955:Drivers/STM32F7xx_HAL_Driver/Src/stm32f7xx_hal_dma.c **** 
 956:Drivers/STM32F7xx_HAL_Driver/Src/stm32f7xx_hal_dma.c ****     if(hdma->XferErrorCallback != NULL)
 957:Drivers/STM32F7xx_HAL_Driver/Src/stm32f7xx_hal_dma.c ****     {
 958:Drivers/STM32F7xx_HAL_Driver/Src/stm32f7xx_hal_dma.c ****       /* Transfer error callback */
 959:Drivers/STM32F7xx_HAL_Driver/Src/stm32f7xx_hal_dma.c ****       hdma->XferErrorCallback(hdma);
 960:Drivers/STM32F7xx_HAL_Driver/Src/stm32f7xx_hal_dma.c ****     }
 961:Drivers/STM32F7xx_HAL_Driver/Src/stm32f7xx_hal_dma.c ****   }
 962:Drivers/STM32F7xx_HAL_Driver/Src/stm32f7xx_hal_dma.c **** }
 963:Drivers/STM32F7xx_HAL_Driver/Src/stm32f7xx_hal_dma.c **** 
 964:Drivers/STM32F7xx_HAL_Driver/Src/stm32f7xx_hal_dma.c **** /**
 965:Drivers/STM32F7xx_HAL_Driver/Src/stm32f7xx_hal_dma.c ****   * @brief  Register callbacks
 966:Drivers/STM32F7xx_HAL_Driver/Src/stm32f7xx_hal_dma.c ****   * @param  hdma                 pointer to a DMA_HandleTypeDef structure that contains
 967:Drivers/STM32F7xx_HAL_Driver/Src/stm32f7xx_hal_dma.c ****   *                               the configuration information for the specified DMA Stream.
 968:Drivers/STM32F7xx_HAL_Driver/Src/stm32f7xx_hal_dma.c ****   * @param  CallbackID           User Callback identifier
 969:Drivers/STM32F7xx_HAL_Driver/Src/stm32f7xx_hal_dma.c ****   *                               a DMA_HandleTypeDef structure as parameter.
 970:Drivers/STM32F7xx_HAL_Driver/Src/stm32f7xx_hal_dma.c ****   * @param  pCallback            pointer to private callbacsk function which has pointer to 
 971:Drivers/STM32F7xx_HAL_Driver/Src/stm32f7xx_hal_dma.c ****   *                               a DMA_HandleTypeDef structure as parameter.
 972:Drivers/STM32F7xx_HAL_Driver/Src/stm32f7xx_hal_dma.c ****   * @retval HAL status
 973:Drivers/STM32F7xx_HAL_Driver/Src/stm32f7xx_hal_dma.c ****   */                      
 974:Drivers/STM32F7xx_HAL_Driver/Src/stm32f7xx_hal_dma.c **** HAL_StatusTypeDef HAL_DMA_RegisterCallback(DMA_HandleTypeDef *hdma, HAL_DMA_CallbackIDTypeDef Callb
 975:Drivers/STM32F7xx_HAL_Driver/Src/stm32f7xx_hal_dma.c **** {
 976:Drivers/STM32F7xx_HAL_Driver/Src/stm32f7xx_hal_dma.c **** 
 977:Drivers/STM32F7xx_HAL_Driver/Src/stm32f7xx_hal_dma.c ****   HAL_StatusTypeDef status = HAL_OK;
 978:Drivers/STM32F7xx_HAL_Driver/Src/stm32f7xx_hal_dma.c **** 
 979:Drivers/STM32F7xx_HAL_Driver/Src/stm32f7xx_hal_dma.c ****   /* Process locked */
 980:Drivers/STM32F7xx_HAL_Driver/Src/stm32f7xx_hal_dma.c ****   __HAL_LOCK(hdma);
 981:Drivers/STM32F7xx_HAL_Driver/Src/stm32f7xx_hal_dma.c **** 
 982:Drivers/STM32F7xx_HAL_Driver/Src/stm32f7xx_hal_dma.c ****   if(HAL_DMA_STATE_READY == hdma->State)
 983:Drivers/STM32F7xx_HAL_Driver/Src/stm32f7xx_hal_dma.c ****   {
 984:Drivers/STM32F7xx_HAL_Driver/Src/stm32f7xx_hal_dma.c ****     switch (CallbackID)
 985:Drivers/STM32F7xx_HAL_Driver/Src/stm32f7xx_hal_dma.c ****     {
 986:Drivers/STM32F7xx_HAL_Driver/Src/stm32f7xx_hal_dma.c ****     case  HAL_DMA_XFER_CPLT_CB_ID:
 987:Drivers/STM32F7xx_HAL_Driver/Src/stm32f7xx_hal_dma.c ****       hdma->XferCpltCallback = pCallback;
 988:Drivers/STM32F7xx_HAL_Driver/Src/stm32f7xx_hal_dma.c ****       break;
 989:Drivers/STM32F7xx_HAL_Driver/Src/stm32f7xx_hal_dma.c **** 
 990:Drivers/STM32F7xx_HAL_Driver/Src/stm32f7xx_hal_dma.c ****     case  HAL_DMA_XFER_HALFCPLT_CB_ID:
 991:Drivers/STM32F7xx_HAL_Driver/Src/stm32f7xx_hal_dma.c ****       hdma->XferHalfCpltCallback = pCallback;
 992:Drivers/STM32F7xx_HAL_Driver/Src/stm32f7xx_hal_dma.c ****       break;
 993:Drivers/STM32F7xx_HAL_Driver/Src/stm32f7xx_hal_dma.c **** 
 994:Drivers/STM32F7xx_HAL_Driver/Src/stm32f7xx_hal_dma.c ****     case  HAL_DMA_XFER_M1CPLT_CB_ID:
 995:Drivers/STM32F7xx_HAL_Driver/Src/stm32f7xx_hal_dma.c ****       hdma->XferM1CpltCallback = pCallback;
 996:Drivers/STM32F7xx_HAL_Driver/Src/stm32f7xx_hal_dma.c ****       break;
 997:Drivers/STM32F7xx_HAL_Driver/Src/stm32f7xx_hal_dma.c **** 
 998:Drivers/STM32F7xx_HAL_Driver/Src/stm32f7xx_hal_dma.c ****     case  HAL_DMA_XFER_M1HALFCPLT_CB_ID:
 999:Drivers/STM32F7xx_HAL_Driver/Src/stm32f7xx_hal_dma.c ****       hdma->XferM1HalfCpltCallback = pCallback;
ARM GAS  /tmp/cclJgRLT.s 			page 19


1000:Drivers/STM32F7xx_HAL_Driver/Src/stm32f7xx_hal_dma.c ****       break;
1001:Drivers/STM32F7xx_HAL_Driver/Src/stm32f7xx_hal_dma.c **** 
1002:Drivers/STM32F7xx_HAL_Driver/Src/stm32f7xx_hal_dma.c ****     case  HAL_DMA_XFER_ERROR_CB_ID:
1003:Drivers/STM32F7xx_HAL_Driver/Src/stm32f7xx_hal_dma.c ****       hdma->XferErrorCallback = pCallback;
1004:Drivers/STM32F7xx_HAL_Driver/Src/stm32f7xx_hal_dma.c ****       break;
1005:Drivers/STM32F7xx_HAL_Driver/Src/stm32f7xx_hal_dma.c **** 
1006:Drivers/STM32F7xx_HAL_Driver/Src/stm32f7xx_hal_dma.c ****     case  HAL_DMA_XFER_ABORT_CB_ID:
1007:Drivers/STM32F7xx_HAL_Driver/Src/stm32f7xx_hal_dma.c ****       hdma->XferAbortCallback = pCallback;
1008:Drivers/STM32F7xx_HAL_Driver/Src/stm32f7xx_hal_dma.c ****       break;
1009:Drivers/STM32F7xx_HAL_Driver/Src/stm32f7xx_hal_dma.c **** 
1010:Drivers/STM32F7xx_HAL_Driver/Src/stm32f7xx_hal_dma.c ****     default:
1011:Drivers/STM32F7xx_HAL_Driver/Src/stm32f7xx_hal_dma.c ****       /* Return error status */
1012:Drivers/STM32F7xx_HAL_Driver/Src/stm32f7xx_hal_dma.c ****       status =  HAL_ERROR;
1013:Drivers/STM32F7xx_HAL_Driver/Src/stm32f7xx_hal_dma.c ****       break;
1014:Drivers/STM32F7xx_HAL_Driver/Src/stm32f7xx_hal_dma.c ****     }
1015:Drivers/STM32F7xx_HAL_Driver/Src/stm32f7xx_hal_dma.c ****   }
1016:Drivers/STM32F7xx_HAL_Driver/Src/stm32f7xx_hal_dma.c ****   else
1017:Drivers/STM32F7xx_HAL_Driver/Src/stm32f7xx_hal_dma.c ****   {
1018:Drivers/STM32F7xx_HAL_Driver/Src/stm32f7xx_hal_dma.c ****     /* Return error status */
1019:Drivers/STM32F7xx_HAL_Driver/Src/stm32f7xx_hal_dma.c ****     status =  HAL_ERROR;
1020:Drivers/STM32F7xx_HAL_Driver/Src/stm32f7xx_hal_dma.c ****   }
1021:Drivers/STM32F7xx_HAL_Driver/Src/stm32f7xx_hal_dma.c **** 
1022:Drivers/STM32F7xx_HAL_Driver/Src/stm32f7xx_hal_dma.c ****   /* Release Lock */
1023:Drivers/STM32F7xx_HAL_Driver/Src/stm32f7xx_hal_dma.c ****   __HAL_UNLOCK(hdma);
1024:Drivers/STM32F7xx_HAL_Driver/Src/stm32f7xx_hal_dma.c ****   
1025:Drivers/STM32F7xx_HAL_Driver/Src/stm32f7xx_hal_dma.c ****   return status;
1026:Drivers/STM32F7xx_HAL_Driver/Src/stm32f7xx_hal_dma.c **** }
1027:Drivers/STM32F7xx_HAL_Driver/Src/stm32f7xx_hal_dma.c **** 
1028:Drivers/STM32F7xx_HAL_Driver/Src/stm32f7xx_hal_dma.c **** /**
1029:Drivers/STM32F7xx_HAL_Driver/Src/stm32f7xx_hal_dma.c ****   * @brief  UnRegister callbacks
1030:Drivers/STM32F7xx_HAL_Driver/Src/stm32f7xx_hal_dma.c ****   * @param  hdma                 pointer to a DMA_HandleTypeDef structure that contains
1031:Drivers/STM32F7xx_HAL_Driver/Src/stm32f7xx_hal_dma.c ****   *                               the configuration information for the specified DMA Stream.
1032:Drivers/STM32F7xx_HAL_Driver/Src/stm32f7xx_hal_dma.c ****   * @param  CallbackID           User Callback identifier
1033:Drivers/STM32F7xx_HAL_Driver/Src/stm32f7xx_hal_dma.c ****   *                               a HAL_DMA_CallbackIDTypeDef ENUM as parameter.
1034:Drivers/STM32F7xx_HAL_Driver/Src/stm32f7xx_hal_dma.c ****   * @retval HAL status
1035:Drivers/STM32F7xx_HAL_Driver/Src/stm32f7xx_hal_dma.c ****   */              
1036:Drivers/STM32F7xx_HAL_Driver/Src/stm32f7xx_hal_dma.c **** HAL_StatusTypeDef HAL_DMA_UnRegisterCallback(DMA_HandleTypeDef *hdma, HAL_DMA_CallbackIDTypeDef Cal
1037:Drivers/STM32F7xx_HAL_Driver/Src/stm32f7xx_hal_dma.c **** {
1038:Drivers/STM32F7xx_HAL_Driver/Src/stm32f7xx_hal_dma.c ****   HAL_StatusTypeDef status = HAL_OK;
1039:Drivers/STM32F7xx_HAL_Driver/Src/stm32f7xx_hal_dma.c ****   
1040:Drivers/STM32F7xx_HAL_Driver/Src/stm32f7xx_hal_dma.c ****   /* Process locked */
1041:Drivers/STM32F7xx_HAL_Driver/Src/stm32f7xx_hal_dma.c ****   __HAL_LOCK(hdma);
1042:Drivers/STM32F7xx_HAL_Driver/Src/stm32f7xx_hal_dma.c ****   
1043:Drivers/STM32F7xx_HAL_Driver/Src/stm32f7xx_hal_dma.c ****   if(HAL_DMA_STATE_READY == hdma->State)
1044:Drivers/STM32F7xx_HAL_Driver/Src/stm32f7xx_hal_dma.c ****   {
1045:Drivers/STM32F7xx_HAL_Driver/Src/stm32f7xx_hal_dma.c ****     switch (CallbackID)
1046:Drivers/STM32F7xx_HAL_Driver/Src/stm32f7xx_hal_dma.c ****     {
1047:Drivers/STM32F7xx_HAL_Driver/Src/stm32f7xx_hal_dma.c ****     case  HAL_DMA_XFER_CPLT_CB_ID:
1048:Drivers/STM32F7xx_HAL_Driver/Src/stm32f7xx_hal_dma.c ****       hdma->XferCpltCallback = NULL;
1049:Drivers/STM32F7xx_HAL_Driver/Src/stm32f7xx_hal_dma.c ****       break;
1050:Drivers/STM32F7xx_HAL_Driver/Src/stm32f7xx_hal_dma.c ****       
1051:Drivers/STM32F7xx_HAL_Driver/Src/stm32f7xx_hal_dma.c ****     case  HAL_DMA_XFER_HALFCPLT_CB_ID:
1052:Drivers/STM32F7xx_HAL_Driver/Src/stm32f7xx_hal_dma.c ****       hdma->XferHalfCpltCallback = NULL;
1053:Drivers/STM32F7xx_HAL_Driver/Src/stm32f7xx_hal_dma.c ****       break;
1054:Drivers/STM32F7xx_HAL_Driver/Src/stm32f7xx_hal_dma.c ****       
1055:Drivers/STM32F7xx_HAL_Driver/Src/stm32f7xx_hal_dma.c ****     case  HAL_DMA_XFER_M1CPLT_CB_ID:
1056:Drivers/STM32F7xx_HAL_Driver/Src/stm32f7xx_hal_dma.c ****       hdma->XferM1CpltCallback = NULL;
ARM GAS  /tmp/cclJgRLT.s 			page 20


1057:Drivers/STM32F7xx_HAL_Driver/Src/stm32f7xx_hal_dma.c ****       break;
1058:Drivers/STM32F7xx_HAL_Driver/Src/stm32f7xx_hal_dma.c ****       
1059:Drivers/STM32F7xx_HAL_Driver/Src/stm32f7xx_hal_dma.c ****     case  HAL_DMA_XFER_M1HALFCPLT_CB_ID:
1060:Drivers/STM32F7xx_HAL_Driver/Src/stm32f7xx_hal_dma.c ****       hdma->XferM1HalfCpltCallback = NULL;
1061:Drivers/STM32F7xx_HAL_Driver/Src/stm32f7xx_hal_dma.c ****       break;
1062:Drivers/STM32F7xx_HAL_Driver/Src/stm32f7xx_hal_dma.c ****       
1063:Drivers/STM32F7xx_HAL_Driver/Src/stm32f7xx_hal_dma.c ****     case  HAL_DMA_XFER_ERROR_CB_ID:
1064:Drivers/STM32F7xx_HAL_Driver/Src/stm32f7xx_hal_dma.c ****       hdma->XferErrorCallback = NULL;
1065:Drivers/STM32F7xx_HAL_Driver/Src/stm32f7xx_hal_dma.c ****       break;
1066:Drivers/STM32F7xx_HAL_Driver/Src/stm32f7xx_hal_dma.c ****       
1067:Drivers/STM32F7xx_HAL_Driver/Src/stm32f7xx_hal_dma.c ****     case  HAL_DMA_XFER_ABORT_CB_ID:
1068:Drivers/STM32F7xx_HAL_Driver/Src/stm32f7xx_hal_dma.c ****       hdma->XferAbortCallback = NULL;
1069:Drivers/STM32F7xx_HAL_Driver/Src/stm32f7xx_hal_dma.c ****       break; 
1070:Drivers/STM32F7xx_HAL_Driver/Src/stm32f7xx_hal_dma.c ****       
1071:Drivers/STM32F7xx_HAL_Driver/Src/stm32f7xx_hal_dma.c ****     case   HAL_DMA_XFER_ALL_CB_ID:
1072:Drivers/STM32F7xx_HAL_Driver/Src/stm32f7xx_hal_dma.c ****       hdma->XferCpltCallback = NULL;
1073:Drivers/STM32F7xx_HAL_Driver/Src/stm32f7xx_hal_dma.c ****       hdma->XferHalfCpltCallback = NULL;
1074:Drivers/STM32F7xx_HAL_Driver/Src/stm32f7xx_hal_dma.c ****       hdma->XferM1CpltCallback = NULL;
1075:Drivers/STM32F7xx_HAL_Driver/Src/stm32f7xx_hal_dma.c ****       hdma->XferM1HalfCpltCallback = NULL;
1076:Drivers/STM32F7xx_HAL_Driver/Src/stm32f7xx_hal_dma.c ****       hdma->XferErrorCallback = NULL;
1077:Drivers/STM32F7xx_HAL_Driver/Src/stm32f7xx_hal_dma.c ****       hdma->XferAbortCallback = NULL;
1078:Drivers/STM32F7xx_HAL_Driver/Src/stm32f7xx_hal_dma.c ****       break; 
1079:Drivers/STM32F7xx_HAL_Driver/Src/stm32f7xx_hal_dma.c ****       
1080:Drivers/STM32F7xx_HAL_Driver/Src/stm32f7xx_hal_dma.c ****     default:
1081:Drivers/STM32F7xx_HAL_Driver/Src/stm32f7xx_hal_dma.c ****       status = HAL_ERROR;
1082:Drivers/STM32F7xx_HAL_Driver/Src/stm32f7xx_hal_dma.c ****       break;
1083:Drivers/STM32F7xx_HAL_Driver/Src/stm32f7xx_hal_dma.c ****     }
1084:Drivers/STM32F7xx_HAL_Driver/Src/stm32f7xx_hal_dma.c ****   }
1085:Drivers/STM32F7xx_HAL_Driver/Src/stm32f7xx_hal_dma.c ****   else
1086:Drivers/STM32F7xx_HAL_Driver/Src/stm32f7xx_hal_dma.c ****   {
1087:Drivers/STM32F7xx_HAL_Driver/Src/stm32f7xx_hal_dma.c ****     status = HAL_ERROR;
1088:Drivers/STM32F7xx_HAL_Driver/Src/stm32f7xx_hal_dma.c ****   }
1089:Drivers/STM32F7xx_HAL_Driver/Src/stm32f7xx_hal_dma.c ****   
1090:Drivers/STM32F7xx_HAL_Driver/Src/stm32f7xx_hal_dma.c ****   /* Release Lock */
1091:Drivers/STM32F7xx_HAL_Driver/Src/stm32f7xx_hal_dma.c ****   __HAL_UNLOCK(hdma);
1092:Drivers/STM32F7xx_HAL_Driver/Src/stm32f7xx_hal_dma.c ****   
1093:Drivers/STM32F7xx_HAL_Driver/Src/stm32f7xx_hal_dma.c ****   return status;
1094:Drivers/STM32F7xx_HAL_Driver/Src/stm32f7xx_hal_dma.c **** }
1095:Drivers/STM32F7xx_HAL_Driver/Src/stm32f7xx_hal_dma.c **** 
1096:Drivers/STM32F7xx_HAL_Driver/Src/stm32f7xx_hal_dma.c **** /**
1097:Drivers/STM32F7xx_HAL_Driver/Src/stm32f7xx_hal_dma.c ****   * @}
1098:Drivers/STM32F7xx_HAL_Driver/Src/stm32f7xx_hal_dma.c ****   */
1099:Drivers/STM32F7xx_HAL_Driver/Src/stm32f7xx_hal_dma.c **** 
1100:Drivers/STM32F7xx_HAL_Driver/Src/stm32f7xx_hal_dma.c **** /** @addtogroup DMA_Exported_Functions_Group3
1101:Drivers/STM32F7xx_HAL_Driver/Src/stm32f7xx_hal_dma.c ****   *
1102:Drivers/STM32F7xx_HAL_Driver/Src/stm32f7xx_hal_dma.c **** @verbatim
1103:Drivers/STM32F7xx_HAL_Driver/Src/stm32f7xx_hal_dma.c ****  ===============================================================================
1104:Drivers/STM32F7xx_HAL_Driver/Src/stm32f7xx_hal_dma.c ****                     ##### State and Errors functions #####
1105:Drivers/STM32F7xx_HAL_Driver/Src/stm32f7xx_hal_dma.c ****  ===============================================================================
1106:Drivers/STM32F7xx_HAL_Driver/Src/stm32f7xx_hal_dma.c ****     [..]
1107:Drivers/STM32F7xx_HAL_Driver/Src/stm32f7xx_hal_dma.c ****     This subsection provides functions allowing to
1108:Drivers/STM32F7xx_HAL_Driver/Src/stm32f7xx_hal_dma.c ****       (+) Check the DMA state
1109:Drivers/STM32F7xx_HAL_Driver/Src/stm32f7xx_hal_dma.c ****       (+) Get error code
1110:Drivers/STM32F7xx_HAL_Driver/Src/stm32f7xx_hal_dma.c **** 
1111:Drivers/STM32F7xx_HAL_Driver/Src/stm32f7xx_hal_dma.c **** @endverbatim
1112:Drivers/STM32F7xx_HAL_Driver/Src/stm32f7xx_hal_dma.c ****   * @{
1113:Drivers/STM32F7xx_HAL_Driver/Src/stm32f7xx_hal_dma.c ****   */
ARM GAS  /tmp/cclJgRLT.s 			page 21


1114:Drivers/STM32F7xx_HAL_Driver/Src/stm32f7xx_hal_dma.c **** 
1115:Drivers/STM32F7xx_HAL_Driver/Src/stm32f7xx_hal_dma.c **** /**
1116:Drivers/STM32F7xx_HAL_Driver/Src/stm32f7xx_hal_dma.c ****   * @brief  Returns the DMA state.
1117:Drivers/STM32F7xx_HAL_Driver/Src/stm32f7xx_hal_dma.c ****   * @param  hdma pointer to a DMA_HandleTypeDef structure that contains
1118:Drivers/STM32F7xx_HAL_Driver/Src/stm32f7xx_hal_dma.c ****   *               the configuration information for the specified DMA Stream.
1119:Drivers/STM32F7xx_HAL_Driver/Src/stm32f7xx_hal_dma.c ****   * @retval HAL state
1120:Drivers/STM32F7xx_HAL_Driver/Src/stm32f7xx_hal_dma.c ****   */
1121:Drivers/STM32F7xx_HAL_Driver/Src/stm32f7xx_hal_dma.c **** HAL_DMA_StateTypeDef HAL_DMA_GetState(DMA_HandleTypeDef *hdma)
1122:Drivers/STM32F7xx_HAL_Driver/Src/stm32f7xx_hal_dma.c **** {
1123:Drivers/STM32F7xx_HAL_Driver/Src/stm32f7xx_hal_dma.c ****   return hdma->State;
1124:Drivers/STM32F7xx_HAL_Driver/Src/stm32f7xx_hal_dma.c **** }
1125:Drivers/STM32F7xx_HAL_Driver/Src/stm32f7xx_hal_dma.c **** 
1126:Drivers/STM32F7xx_HAL_Driver/Src/stm32f7xx_hal_dma.c **** /**
1127:Drivers/STM32F7xx_HAL_Driver/Src/stm32f7xx_hal_dma.c ****   * @brief  Return the DMA error code
1128:Drivers/STM32F7xx_HAL_Driver/Src/stm32f7xx_hal_dma.c ****   * @param  hdma  pointer to a DMA_HandleTypeDef structure that contains
1129:Drivers/STM32F7xx_HAL_Driver/Src/stm32f7xx_hal_dma.c ****   *              the configuration information for the specified DMA Stream.
1130:Drivers/STM32F7xx_HAL_Driver/Src/stm32f7xx_hal_dma.c ****   * @retval DMA Error Code
1131:Drivers/STM32F7xx_HAL_Driver/Src/stm32f7xx_hal_dma.c ****   */
1132:Drivers/STM32F7xx_HAL_Driver/Src/stm32f7xx_hal_dma.c **** uint32_t HAL_DMA_GetError(DMA_HandleTypeDef *hdma)
1133:Drivers/STM32F7xx_HAL_Driver/Src/stm32f7xx_hal_dma.c **** {
1134:Drivers/STM32F7xx_HAL_Driver/Src/stm32f7xx_hal_dma.c ****   return hdma->ErrorCode;
1135:Drivers/STM32F7xx_HAL_Driver/Src/stm32f7xx_hal_dma.c **** }
1136:Drivers/STM32F7xx_HAL_Driver/Src/stm32f7xx_hal_dma.c **** 
1137:Drivers/STM32F7xx_HAL_Driver/Src/stm32f7xx_hal_dma.c **** /**
1138:Drivers/STM32F7xx_HAL_Driver/Src/stm32f7xx_hal_dma.c ****   * @}
1139:Drivers/STM32F7xx_HAL_Driver/Src/stm32f7xx_hal_dma.c ****   */
1140:Drivers/STM32F7xx_HAL_Driver/Src/stm32f7xx_hal_dma.c **** 
1141:Drivers/STM32F7xx_HAL_Driver/Src/stm32f7xx_hal_dma.c **** /**
1142:Drivers/STM32F7xx_HAL_Driver/Src/stm32f7xx_hal_dma.c ****   * @}
1143:Drivers/STM32F7xx_HAL_Driver/Src/stm32f7xx_hal_dma.c ****   */
1144:Drivers/STM32F7xx_HAL_Driver/Src/stm32f7xx_hal_dma.c **** 
1145:Drivers/STM32F7xx_HAL_Driver/Src/stm32f7xx_hal_dma.c **** /** @addtogroup DMA_Private_Functions
1146:Drivers/STM32F7xx_HAL_Driver/Src/stm32f7xx_hal_dma.c ****   * @{
1147:Drivers/STM32F7xx_HAL_Driver/Src/stm32f7xx_hal_dma.c ****   */
1148:Drivers/STM32F7xx_HAL_Driver/Src/stm32f7xx_hal_dma.c **** 
1149:Drivers/STM32F7xx_HAL_Driver/Src/stm32f7xx_hal_dma.c **** /**
1150:Drivers/STM32F7xx_HAL_Driver/Src/stm32f7xx_hal_dma.c ****   * @brief  Sets the DMA Transfer parameter.
1151:Drivers/STM32F7xx_HAL_Driver/Src/stm32f7xx_hal_dma.c ****   * @param  hdma       pointer to a DMA_HandleTypeDef structure that contains
1152:Drivers/STM32F7xx_HAL_Driver/Src/stm32f7xx_hal_dma.c ****   *                     the configuration information for the specified DMA Stream.
1153:Drivers/STM32F7xx_HAL_Driver/Src/stm32f7xx_hal_dma.c ****   * @param  SrcAddress The source memory Buffer address
1154:Drivers/STM32F7xx_HAL_Driver/Src/stm32f7xx_hal_dma.c ****   * @param  DstAddress The destination memory Buffer address
1155:Drivers/STM32F7xx_HAL_Driver/Src/stm32f7xx_hal_dma.c ****   * @param  DataLength The length of data to be transferred from source to destination
1156:Drivers/STM32F7xx_HAL_Driver/Src/stm32f7xx_hal_dma.c ****   * @retval HAL status
1157:Drivers/STM32F7xx_HAL_Driver/Src/stm32f7xx_hal_dma.c ****   */
1158:Drivers/STM32F7xx_HAL_Driver/Src/stm32f7xx_hal_dma.c **** static void DMA_SetConfig(DMA_HandleTypeDef *hdma, uint32_t SrcAddress, uint32_t DstAddress, uint32
1159:Drivers/STM32F7xx_HAL_Driver/Src/stm32f7xx_hal_dma.c **** {
  29              		.loc 1 1159 1 view -0
  30              		.cfi_startproc
  31              		@ args = 0, pretend = 0, frame = 0
  32              		@ frame_needed = 0, uses_anonymous_args = 0
  33              		@ link register save eliminated.
  34              		.loc 1 1159 1 is_stmt 0 view .LVU1
  35 0000 30B4     		push	{r4, r5}
  36              	.LCFI0:
  37              		.cfi_def_cfa_offset 8
  38              		.cfi_offset 4, -8
  39              		.cfi_offset 5, -4
ARM GAS  /tmp/cclJgRLT.s 			page 22


1160:Drivers/STM32F7xx_HAL_Driver/Src/stm32f7xx_hal_dma.c ****   /* Clear DBM bit */
1161:Drivers/STM32F7xx_HAL_Driver/Src/stm32f7xx_hal_dma.c ****   hdma->Instance->CR &= (uint32_t)(~DMA_SxCR_DBM);
  40              		.loc 1 1161 3 is_stmt 1 view .LVU2
  41              		.loc 1 1161 7 is_stmt 0 view .LVU3
  42 0002 0568     		ldr	r5, [r0]
  43              		.loc 1 1161 22 view .LVU4
  44 0004 2C68     		ldr	r4, [r5]
  45 0006 24F48024 		bic	r4, r4, #262144
  46 000a 2C60     		str	r4, [r5]
1162:Drivers/STM32F7xx_HAL_Driver/Src/stm32f7xx_hal_dma.c **** 
1163:Drivers/STM32F7xx_HAL_Driver/Src/stm32f7xx_hal_dma.c ****   /* Configure DMA Stream data length */
1164:Drivers/STM32F7xx_HAL_Driver/Src/stm32f7xx_hal_dma.c ****   hdma->Instance->NDTR = DataLength;
  47              		.loc 1 1164 3 is_stmt 1 view .LVU5
  48              		.loc 1 1164 7 is_stmt 0 view .LVU6
  49 000c 0468     		ldr	r4, [r0]
  50              		.loc 1 1164 24 view .LVU7
  51 000e 6360     		str	r3, [r4, #4]
1165:Drivers/STM32F7xx_HAL_Driver/Src/stm32f7xx_hal_dma.c **** 
1166:Drivers/STM32F7xx_HAL_Driver/Src/stm32f7xx_hal_dma.c ****   /* Memory to Peripheral */
1167:Drivers/STM32F7xx_HAL_Driver/Src/stm32f7xx_hal_dma.c ****   if((hdma->Init.Direction) == DMA_MEMORY_TO_PERIPH)
  52              		.loc 1 1167 3 is_stmt 1 view .LVU8
  53              		.loc 1 1167 17 is_stmt 0 view .LVU9
  54 0010 8368     		ldr	r3, [r0, #8]
  55              	.LVL1:
  56              		.loc 1 1167 5 view .LVU10
  57 0012 402B     		cmp	r3, #64
  58 0014 05D0     		beq	.L5
1168:Drivers/STM32F7xx_HAL_Driver/Src/stm32f7xx_hal_dma.c ****   {
1169:Drivers/STM32F7xx_HAL_Driver/Src/stm32f7xx_hal_dma.c ****     /* Configure DMA Stream destination address */
1170:Drivers/STM32F7xx_HAL_Driver/Src/stm32f7xx_hal_dma.c ****     hdma->Instance->PAR = DstAddress;
1171:Drivers/STM32F7xx_HAL_Driver/Src/stm32f7xx_hal_dma.c **** 
1172:Drivers/STM32F7xx_HAL_Driver/Src/stm32f7xx_hal_dma.c ****     /* Configure DMA Stream source address */
1173:Drivers/STM32F7xx_HAL_Driver/Src/stm32f7xx_hal_dma.c ****     hdma->Instance->M0AR = SrcAddress;
1174:Drivers/STM32F7xx_HAL_Driver/Src/stm32f7xx_hal_dma.c ****   }
1175:Drivers/STM32F7xx_HAL_Driver/Src/stm32f7xx_hal_dma.c ****   /* Peripheral to Memory */
1176:Drivers/STM32F7xx_HAL_Driver/Src/stm32f7xx_hal_dma.c ****   else
1177:Drivers/STM32F7xx_HAL_Driver/Src/stm32f7xx_hal_dma.c ****   {
1178:Drivers/STM32F7xx_HAL_Driver/Src/stm32f7xx_hal_dma.c ****     /* Configure DMA Stream source address */
1179:Drivers/STM32F7xx_HAL_Driver/Src/stm32f7xx_hal_dma.c ****     hdma->Instance->PAR = SrcAddress;
  59              		.loc 1 1179 5 is_stmt 1 view .LVU11
  60              		.loc 1 1179 9 is_stmt 0 view .LVU12
  61 0016 0368     		ldr	r3, [r0]
  62              		.loc 1 1179 25 view .LVU13
  63 0018 9960     		str	r1, [r3, #8]
  64              	.LVL2:
1180:Drivers/STM32F7xx_HAL_Driver/Src/stm32f7xx_hal_dma.c **** 
1181:Drivers/STM32F7xx_HAL_Driver/Src/stm32f7xx_hal_dma.c ****     /* Configure DMA Stream destination address */
1182:Drivers/STM32F7xx_HAL_Driver/Src/stm32f7xx_hal_dma.c ****     hdma->Instance->M0AR = DstAddress;
  65              		.loc 1 1182 5 is_stmt 1 view .LVU14
  66              		.loc 1 1182 9 is_stmt 0 view .LVU15
  67 001a 0368     		ldr	r3, [r0]
  68              		.loc 1 1182 26 view .LVU16
  69 001c DA60     		str	r2, [r3, #12]
  70              	.L1:
1183:Drivers/STM32F7xx_HAL_Driver/Src/stm32f7xx_hal_dma.c ****   }
1184:Drivers/STM32F7xx_HAL_Driver/Src/stm32f7xx_hal_dma.c **** }
  71              		.loc 1 1184 1 view .LVU17
ARM GAS  /tmp/cclJgRLT.s 			page 23


  72 001e 30BC     		pop	{r4, r5}
  73              	.LCFI1:
  74              		.cfi_remember_state
  75              		.cfi_restore 5
  76              		.cfi_restore 4
  77              		.cfi_def_cfa_offset 0
  78 0020 7047     		bx	lr
  79              	.LVL3:
  80              	.L5:
  81              	.LCFI2:
  82              		.cfi_restore_state
1170:Drivers/STM32F7xx_HAL_Driver/Src/stm32f7xx_hal_dma.c **** 
  83              		.loc 1 1170 5 is_stmt 1 view .LVU18
1170:Drivers/STM32F7xx_HAL_Driver/Src/stm32f7xx_hal_dma.c **** 
  84              		.loc 1 1170 9 is_stmt 0 view .LVU19
  85 0022 0368     		ldr	r3, [r0]
1170:Drivers/STM32F7xx_HAL_Driver/Src/stm32f7xx_hal_dma.c **** 
  86              		.loc 1 1170 25 view .LVU20
  87 0024 9A60     		str	r2, [r3, #8]
  88              	.LVL4:
1173:Drivers/STM32F7xx_HAL_Driver/Src/stm32f7xx_hal_dma.c ****   }
  89              		.loc 1 1173 5 is_stmt 1 view .LVU21
1173:Drivers/STM32F7xx_HAL_Driver/Src/stm32f7xx_hal_dma.c ****   }
  90              		.loc 1 1173 9 is_stmt 0 view .LVU22
  91 0026 0368     		ldr	r3, [r0]
1173:Drivers/STM32F7xx_HAL_Driver/Src/stm32f7xx_hal_dma.c ****   }
  92              		.loc 1 1173 26 view .LVU23
  93 0028 D960     		str	r1, [r3, #12]
  94 002a F8E7     		b	.L1
  95              		.cfi_endproc
  96              	.LFE153:
  98              		.section	.text.DMA_CalcBaseAndBitshift,"ax",%progbits
  99              		.align	1
 100              		.syntax unified
 101              		.thumb
 102              		.thumb_func
 104              	DMA_CalcBaseAndBitshift:
 105              	.LVL5:
 106              	.LFB154:
1185:Drivers/STM32F7xx_HAL_Driver/Src/stm32f7xx_hal_dma.c **** 
1186:Drivers/STM32F7xx_HAL_Driver/Src/stm32f7xx_hal_dma.c **** /**
1187:Drivers/STM32F7xx_HAL_Driver/Src/stm32f7xx_hal_dma.c ****   * @brief  Returns the DMA Stream base address depending on stream number
1188:Drivers/STM32F7xx_HAL_Driver/Src/stm32f7xx_hal_dma.c ****   * @param  hdma       pointer to a DMA_HandleTypeDef structure that contains
1189:Drivers/STM32F7xx_HAL_Driver/Src/stm32f7xx_hal_dma.c ****   *                     the configuration information for the specified DMA Stream. 
1190:Drivers/STM32F7xx_HAL_Driver/Src/stm32f7xx_hal_dma.c ****   * @retval Stream base address
1191:Drivers/STM32F7xx_HAL_Driver/Src/stm32f7xx_hal_dma.c ****   */
1192:Drivers/STM32F7xx_HAL_Driver/Src/stm32f7xx_hal_dma.c **** static uint32_t DMA_CalcBaseAndBitshift(DMA_HandleTypeDef *hdma)
1193:Drivers/STM32F7xx_HAL_Driver/Src/stm32f7xx_hal_dma.c **** {
 107              		.loc 1 1193 1 is_stmt 1 view -0
 108              		.cfi_startproc
 109              		@ args = 0, pretend = 0, frame = 0
 110              		@ frame_needed = 0, uses_anonymous_args = 0
 111              		@ link register save eliminated.
 112              		.loc 1 1193 1 is_stmt 0 view .LVU25
 113 0000 10B4     		push	{r4}
 114              	.LCFI3:
 115              		.cfi_def_cfa_offset 4
ARM GAS  /tmp/cclJgRLT.s 			page 24


 116              		.cfi_offset 4, -4
1194:Drivers/STM32F7xx_HAL_Driver/Src/stm32f7xx_hal_dma.c ****   uint32_t stream_number = (((uint32_t)hdma->Instance & 0xFFU) - 16U) / 24U;
 117              		.loc 1 1194 3 is_stmt 1 view .LVU26
 118              		.loc 1 1194 44 is_stmt 0 view .LVU27
 119 0002 0168     		ldr	r1, [r0]
 120              		.loc 1 1194 55 view .LVU28
 121 0004 CAB2     		uxtb	r2, r1
 122              		.loc 1 1194 64 view .LVU29
 123 0006 103A     		subs	r2, r2, #16
 124              		.loc 1 1194 12 view .LVU30
 125 0008 0A4B     		ldr	r3, .L10
 126 000a A3FB0243 		umull	r4, r3, r3, r2
 127 000e 1B09     		lsrs	r3, r3, #4
 128              	.LVL6:
1195:Drivers/STM32F7xx_HAL_Driver/Src/stm32f7xx_hal_dma.c ****   
1196:Drivers/STM32F7xx_HAL_Driver/Src/stm32f7xx_hal_dma.c ****   /* lookup table for necessary bitshift of flags within status registers */
1197:Drivers/STM32F7xx_HAL_Driver/Src/stm32f7xx_hal_dma.c ****   static const uint8_t flagBitshiftOffset[8U] = {0U, 6U, 16U, 22U, 0U, 6U, 16U, 22U};
 129              		.loc 1 1197 3 is_stmt 1 view .LVU31
1198:Drivers/STM32F7xx_HAL_Driver/Src/stm32f7xx_hal_dma.c ****   hdma->StreamIndex = flagBitshiftOffset[stream_number];
 130              		.loc 1 1198 3 view .LVU32
 131              		.loc 1 1198 41 is_stmt 0 view .LVU33
 132 0010 094C     		ldr	r4, .L10+4
 133 0012 E35C     		ldrb	r3, [r4, r3]	@ zero_extendqisi2
 134              	.LVL7:
 135              		.loc 1 1198 21 view .LVU34
 136 0014 C365     		str	r3, [r0, #92]
1199:Drivers/STM32F7xx_HAL_Driver/Src/stm32f7xx_hal_dma.c ****   
1200:Drivers/STM32F7xx_HAL_Driver/Src/stm32f7xx_hal_dma.c ****   if (stream_number > 3U)
 137              		.loc 1 1200 3 is_stmt 1 view .LVU35
 138              		.loc 1 1200 6 is_stmt 0 view .LVU36
 139 0016 5F2A     		cmp	r2, #95
 140 0018 07D9     		bls	.L7
1201:Drivers/STM32F7xx_HAL_Driver/Src/stm32f7xx_hal_dma.c ****   {
1202:Drivers/STM32F7xx_HAL_Driver/Src/stm32f7xx_hal_dma.c ****     /* return pointer to HISR and HIFCR */
1203:Drivers/STM32F7xx_HAL_Driver/Src/stm32f7xx_hal_dma.c ****     hdma->StreamBaseAddress = (((uint32_t)hdma->Instance & (uint32_t)(~0x3FFU)) + 4U);
 141              		.loc 1 1203 5 is_stmt 1 view .LVU37
 142              		.loc 1 1203 58 is_stmt 0 view .LVU38
 143 001a 084B     		ldr	r3, .L10+8
 144 001c 0B40     		ands	r3, r3, r1
 145              		.loc 1 1203 81 view .LVU39
 146 001e 0433     		adds	r3, r3, #4
 147              		.loc 1 1203 29 view .LVU40
 148 0020 8365     		str	r3, [r0, #88]
 149              	.L8:
1204:Drivers/STM32F7xx_HAL_Driver/Src/stm32f7xx_hal_dma.c ****   }
1205:Drivers/STM32F7xx_HAL_Driver/Src/stm32f7xx_hal_dma.c ****   else
1206:Drivers/STM32F7xx_HAL_Driver/Src/stm32f7xx_hal_dma.c ****   {
1207:Drivers/STM32F7xx_HAL_Driver/Src/stm32f7xx_hal_dma.c ****     /* return pointer to LISR and LIFCR */
1208:Drivers/STM32F7xx_HAL_Driver/Src/stm32f7xx_hal_dma.c ****     hdma->StreamBaseAddress = ((uint32_t)hdma->Instance & (uint32_t)(~0x3FFU));
1209:Drivers/STM32F7xx_HAL_Driver/Src/stm32f7xx_hal_dma.c ****   }
1210:Drivers/STM32F7xx_HAL_Driver/Src/stm32f7xx_hal_dma.c ****   
1211:Drivers/STM32F7xx_HAL_Driver/Src/stm32f7xx_hal_dma.c ****   return hdma->StreamBaseAddress;
 150              		.loc 1 1211 3 is_stmt 1 view .LVU41
1212:Drivers/STM32F7xx_HAL_Driver/Src/stm32f7xx_hal_dma.c **** }
 151              		.loc 1 1212 1 is_stmt 0 view .LVU42
 152 0022 806D     		ldr	r0, [r0, #88]
 153              	.LVL8:
ARM GAS  /tmp/cclJgRLT.s 			page 25


 154              		.loc 1 1212 1 view .LVU43
 155 0024 5DF8044B 		ldr	r4, [sp], #4
 156              	.LCFI4:
 157              		.cfi_remember_state
 158              		.cfi_restore 4
 159              		.cfi_def_cfa_offset 0
 160 0028 7047     		bx	lr
 161              	.LVL9:
 162              	.L7:
 163              	.LCFI5:
 164              		.cfi_restore_state
1208:Drivers/STM32F7xx_HAL_Driver/Src/stm32f7xx_hal_dma.c ****   }
 165              		.loc 1 1208 5 is_stmt 1 view .LVU44
1208:Drivers/STM32F7xx_HAL_Driver/Src/stm32f7xx_hal_dma.c ****   }
 166              		.loc 1 1208 57 is_stmt 0 view .LVU45
 167 002a 044B     		ldr	r3, .L10+8
 168 002c 0B40     		ands	r3, r3, r1
1208:Drivers/STM32F7xx_HAL_Driver/Src/stm32f7xx_hal_dma.c ****   }
 169              		.loc 1 1208 29 view .LVU46
 170 002e 8365     		str	r3, [r0, #88]
 171 0030 F7E7     		b	.L8
 172              	.L11:
 173 0032 00BF     		.align	2
 174              	.L10:
 175 0034 ABAAAAAA 		.word	-1431655765
 176 0038 00000000 		.word	.LANCHOR0
 177 003c 00FCFFFF 		.word	-1024
 178              		.cfi_endproc
 179              	.LFE154:
 181              		.section	.text.DMA_CheckFifoParam,"ax",%progbits
 182              		.align	1
 183              		.syntax unified
 184              		.thumb
 185              		.thumb_func
 187              	DMA_CheckFifoParam:
 188              	.LVL10:
 189              	.LFB155:
1213:Drivers/STM32F7xx_HAL_Driver/Src/stm32f7xx_hal_dma.c **** 
1214:Drivers/STM32F7xx_HAL_Driver/Src/stm32f7xx_hal_dma.c **** /**
1215:Drivers/STM32F7xx_HAL_Driver/Src/stm32f7xx_hal_dma.c ****   * @brief  Check compatibility between FIFO threshold level and size of the memory burst
1216:Drivers/STM32F7xx_HAL_Driver/Src/stm32f7xx_hal_dma.c ****   * @param  hdma       pointer to a DMA_HandleTypeDef structure that contains
1217:Drivers/STM32F7xx_HAL_Driver/Src/stm32f7xx_hal_dma.c ****   *                     the configuration information for the specified DMA Stream. 
1218:Drivers/STM32F7xx_HAL_Driver/Src/stm32f7xx_hal_dma.c ****   * @retval HAL status
1219:Drivers/STM32F7xx_HAL_Driver/Src/stm32f7xx_hal_dma.c ****   */
1220:Drivers/STM32F7xx_HAL_Driver/Src/stm32f7xx_hal_dma.c **** static HAL_StatusTypeDef DMA_CheckFifoParam(DMA_HandleTypeDef *hdma)
1221:Drivers/STM32F7xx_HAL_Driver/Src/stm32f7xx_hal_dma.c **** {
 190              		.loc 1 1221 1 is_stmt 1 view -0
 191              		.cfi_startproc
 192              		@ args = 0, pretend = 0, frame = 0
 193              		@ frame_needed = 0, uses_anonymous_args = 0
 194              		@ link register save eliminated.
1222:Drivers/STM32F7xx_HAL_Driver/Src/stm32f7xx_hal_dma.c ****   HAL_StatusTypeDef status = HAL_OK;
 195              		.loc 1 1222 3 view .LVU48
1223:Drivers/STM32F7xx_HAL_Driver/Src/stm32f7xx_hal_dma.c ****   uint32_t tmp = hdma->Init.FIFOThreshold;
 196              		.loc 1 1223 3 view .LVU49
 197              		.loc 1 1223 12 is_stmt 0 view .LVU50
 198 0000 836A     		ldr	r3, [r0, #40]
ARM GAS  /tmp/cclJgRLT.s 			page 26


 199              	.LVL11:
1224:Drivers/STM32F7xx_HAL_Driver/Src/stm32f7xx_hal_dma.c ****   
1225:Drivers/STM32F7xx_HAL_Driver/Src/stm32f7xx_hal_dma.c ****   /* Memory Data size equal to Byte */
1226:Drivers/STM32F7xx_HAL_Driver/Src/stm32f7xx_hal_dma.c ****   if(hdma->Init.MemDataAlignment == DMA_MDATAALIGN_BYTE)
 200              		.loc 1 1226 3 is_stmt 1 view .LVU51
 201              		.loc 1 1226 16 is_stmt 0 view .LVU52
 202 0002 8269     		ldr	r2, [r0, #24]
 203              		.loc 1 1226 5 view .LVU53
 204 0004 92B9     		cbnz	r2, .L13
1227:Drivers/STM32F7xx_HAL_Driver/Src/stm32f7xx_hal_dma.c ****   {
1228:Drivers/STM32F7xx_HAL_Driver/Src/stm32f7xx_hal_dma.c ****     switch (tmp)
 205              		.loc 1 1228 5 is_stmt 1 view .LVU54
 206 0006 012B     		cmp	r3, #1
 207 0008 0AD0     		beq	.L14
 208 000a 022B     		cmp	r3, #2
 209 000c 02D0     		beq	.L15
 210 000e 0BB1     		cbz	r3, .L15
 211 0010 0020     		movs	r0, #0
 212              	.LVL12:
 213              		.loc 1 1228 5 is_stmt 0 view .LVU55
 214 0012 7047     		bx	lr
 215              	.LVL13:
 216              	.L15:
1229:Drivers/STM32F7xx_HAL_Driver/Src/stm32f7xx_hal_dma.c ****     {
1230:Drivers/STM32F7xx_HAL_Driver/Src/stm32f7xx_hal_dma.c ****     case DMA_FIFO_THRESHOLD_1QUARTERFULL:
1231:Drivers/STM32F7xx_HAL_Driver/Src/stm32f7xx_hal_dma.c ****     case DMA_FIFO_THRESHOLD_3QUARTERSFULL:
1232:Drivers/STM32F7xx_HAL_Driver/Src/stm32f7xx_hal_dma.c ****       if ((hdma->Init.MemBurst & DMA_SxCR_MBURST_1) == DMA_SxCR_MBURST_1)
 217              		.loc 1 1232 7 is_stmt 1 view .LVU56
 218              		.loc 1 1232 22 is_stmt 0 view .LVU57
 219 0014 C36A     		ldr	r3, [r0, #44]
 220              	.LVL14:
 221              		.loc 1 1232 10 view .LVU58
 222 0016 13F0807F 		tst	r3, #16777216
 223 001a 28D1     		bne	.L23
1222:Drivers/STM32F7xx_HAL_Driver/Src/stm32f7xx_hal_dma.c ****   uint32_t tmp = hdma->Init.FIFOThreshold;
 224              		.loc 1 1222 21 view .LVU59
 225 001c 0020     		movs	r0, #0
 226              	.LVL15:
1222:Drivers/STM32F7xx_HAL_Driver/Src/stm32f7xx_hal_dma.c ****   uint32_t tmp = hdma->Init.FIFOThreshold;
 227              		.loc 1 1222 21 view .LVU60
 228 001e 7047     		bx	lr
 229              	.LVL16:
 230              	.L14:
1233:Drivers/STM32F7xx_HAL_Driver/Src/stm32f7xx_hal_dma.c ****       {
1234:Drivers/STM32F7xx_HAL_Driver/Src/stm32f7xx_hal_dma.c ****         status = HAL_ERROR;
1235:Drivers/STM32F7xx_HAL_Driver/Src/stm32f7xx_hal_dma.c ****       }
1236:Drivers/STM32F7xx_HAL_Driver/Src/stm32f7xx_hal_dma.c ****       break;
1237:Drivers/STM32F7xx_HAL_Driver/Src/stm32f7xx_hal_dma.c ****     case DMA_FIFO_THRESHOLD_HALFFULL:
1238:Drivers/STM32F7xx_HAL_Driver/Src/stm32f7xx_hal_dma.c ****       if (hdma->Init.MemBurst == DMA_MBURST_INC16)
 231              		.loc 1 1238 7 is_stmt 1 view .LVU61
 232              		.loc 1 1238 21 is_stmt 0 view .LVU62
 233 0020 C36A     		ldr	r3, [r0, #44]
 234              	.LVL17:
 235              		.loc 1 1238 10 view .LVU63
 236 0022 B3F1C07F 		cmp	r3, #25165824
 237 0026 24D0     		beq	.L24
1222:Drivers/STM32F7xx_HAL_Driver/Src/stm32f7xx_hal_dma.c ****   uint32_t tmp = hdma->Init.FIFOThreshold;
ARM GAS  /tmp/cclJgRLT.s 			page 27


 238              		.loc 1 1222 21 view .LVU64
 239 0028 0020     		movs	r0, #0
 240              	.LVL18:
1222:Drivers/STM32F7xx_HAL_Driver/Src/stm32f7xx_hal_dma.c ****   uint32_t tmp = hdma->Init.FIFOThreshold;
 241              		.loc 1 1222 21 view .LVU65
 242 002a 7047     		bx	lr
 243              	.LVL19:
 244              	.L13:
1239:Drivers/STM32F7xx_HAL_Driver/Src/stm32f7xx_hal_dma.c ****       {
1240:Drivers/STM32F7xx_HAL_Driver/Src/stm32f7xx_hal_dma.c ****         status = HAL_ERROR;
1241:Drivers/STM32F7xx_HAL_Driver/Src/stm32f7xx_hal_dma.c ****       }
1242:Drivers/STM32F7xx_HAL_Driver/Src/stm32f7xx_hal_dma.c ****       break;
1243:Drivers/STM32F7xx_HAL_Driver/Src/stm32f7xx_hal_dma.c ****     case DMA_FIFO_THRESHOLD_FULL:
1244:Drivers/STM32F7xx_HAL_Driver/Src/stm32f7xx_hal_dma.c ****       break;
1245:Drivers/STM32F7xx_HAL_Driver/Src/stm32f7xx_hal_dma.c ****     default:
1246:Drivers/STM32F7xx_HAL_Driver/Src/stm32f7xx_hal_dma.c ****       break;
1247:Drivers/STM32F7xx_HAL_Driver/Src/stm32f7xx_hal_dma.c ****     }
1248:Drivers/STM32F7xx_HAL_Driver/Src/stm32f7xx_hal_dma.c ****   }
1249:Drivers/STM32F7xx_HAL_Driver/Src/stm32f7xx_hal_dma.c ****   
1250:Drivers/STM32F7xx_HAL_Driver/Src/stm32f7xx_hal_dma.c ****   /* Memory Data size equal to Half-Word */
1251:Drivers/STM32F7xx_HAL_Driver/Src/stm32f7xx_hal_dma.c ****   else if (hdma->Init.MemDataAlignment == DMA_MDATAALIGN_HALFWORD)
 245              		.loc 1 1251 8 is_stmt 1 view .LVU66
 246              		.loc 1 1251 11 is_stmt 0 view .LVU67
 247 002c B2F5005F 		cmp	r2, #8192
 248 0030 09D0     		beq	.L31
1252:Drivers/STM32F7xx_HAL_Driver/Src/stm32f7xx_hal_dma.c ****   {
1253:Drivers/STM32F7xx_HAL_Driver/Src/stm32f7xx_hal_dma.c ****     switch (tmp)
1254:Drivers/STM32F7xx_HAL_Driver/Src/stm32f7xx_hal_dma.c ****     {
1255:Drivers/STM32F7xx_HAL_Driver/Src/stm32f7xx_hal_dma.c ****     case DMA_FIFO_THRESHOLD_1QUARTERFULL:
1256:Drivers/STM32F7xx_HAL_Driver/Src/stm32f7xx_hal_dma.c ****     case DMA_FIFO_THRESHOLD_3QUARTERSFULL:
1257:Drivers/STM32F7xx_HAL_Driver/Src/stm32f7xx_hal_dma.c ****       status = HAL_ERROR;
1258:Drivers/STM32F7xx_HAL_Driver/Src/stm32f7xx_hal_dma.c ****       break;
1259:Drivers/STM32F7xx_HAL_Driver/Src/stm32f7xx_hal_dma.c ****     case DMA_FIFO_THRESHOLD_HALFFULL:
1260:Drivers/STM32F7xx_HAL_Driver/Src/stm32f7xx_hal_dma.c ****       if ((hdma->Init.MemBurst & DMA_SxCR_MBURST_1) == DMA_SxCR_MBURST_1)
1261:Drivers/STM32F7xx_HAL_Driver/Src/stm32f7xx_hal_dma.c ****       {
1262:Drivers/STM32F7xx_HAL_Driver/Src/stm32f7xx_hal_dma.c ****         status = HAL_ERROR;
1263:Drivers/STM32F7xx_HAL_Driver/Src/stm32f7xx_hal_dma.c ****       }
1264:Drivers/STM32F7xx_HAL_Driver/Src/stm32f7xx_hal_dma.c ****       break;
1265:Drivers/STM32F7xx_HAL_Driver/Src/stm32f7xx_hal_dma.c ****     case DMA_FIFO_THRESHOLD_FULL:
1266:Drivers/STM32F7xx_HAL_Driver/Src/stm32f7xx_hal_dma.c ****       if (hdma->Init.MemBurst == DMA_MBURST_INC16)
1267:Drivers/STM32F7xx_HAL_Driver/Src/stm32f7xx_hal_dma.c ****       {
1268:Drivers/STM32F7xx_HAL_Driver/Src/stm32f7xx_hal_dma.c ****         status = HAL_ERROR;
1269:Drivers/STM32F7xx_HAL_Driver/Src/stm32f7xx_hal_dma.c ****       }
1270:Drivers/STM32F7xx_HAL_Driver/Src/stm32f7xx_hal_dma.c ****       break;   
1271:Drivers/STM32F7xx_HAL_Driver/Src/stm32f7xx_hal_dma.c ****     default:
1272:Drivers/STM32F7xx_HAL_Driver/Src/stm32f7xx_hal_dma.c ****       break;
1273:Drivers/STM32F7xx_HAL_Driver/Src/stm32f7xx_hal_dma.c ****     }
1274:Drivers/STM32F7xx_HAL_Driver/Src/stm32f7xx_hal_dma.c ****   }
1275:Drivers/STM32F7xx_HAL_Driver/Src/stm32f7xx_hal_dma.c ****   
1276:Drivers/STM32F7xx_HAL_Driver/Src/stm32f7xx_hal_dma.c ****   /* Memory Data size equal to Word */
1277:Drivers/STM32F7xx_HAL_Driver/Src/stm32f7xx_hal_dma.c ****   else
1278:Drivers/STM32F7xx_HAL_Driver/Src/stm32f7xx_hal_dma.c ****   {
1279:Drivers/STM32F7xx_HAL_Driver/Src/stm32f7xx_hal_dma.c ****     switch (tmp)
 249              		.loc 1 1279 5 is_stmt 1 view .LVU68
 250 0032 022B     		cmp	r3, #2
 251 0034 25D9     		bls	.L28
 252 0036 032B     		cmp	r3, #3
ARM GAS  /tmp/cclJgRLT.s 			page 28


 253 0038 25D1     		bne	.L29
1280:Drivers/STM32F7xx_HAL_Driver/Src/stm32f7xx_hal_dma.c ****     {
1281:Drivers/STM32F7xx_HAL_Driver/Src/stm32f7xx_hal_dma.c ****     case DMA_FIFO_THRESHOLD_1QUARTERFULL:
1282:Drivers/STM32F7xx_HAL_Driver/Src/stm32f7xx_hal_dma.c ****     case DMA_FIFO_THRESHOLD_HALFFULL:
1283:Drivers/STM32F7xx_HAL_Driver/Src/stm32f7xx_hal_dma.c ****     case DMA_FIFO_THRESHOLD_3QUARTERSFULL:
1284:Drivers/STM32F7xx_HAL_Driver/Src/stm32f7xx_hal_dma.c ****       status = HAL_ERROR;
1285:Drivers/STM32F7xx_HAL_Driver/Src/stm32f7xx_hal_dma.c ****       break;
1286:Drivers/STM32F7xx_HAL_Driver/Src/stm32f7xx_hal_dma.c ****     case DMA_FIFO_THRESHOLD_FULL:
1287:Drivers/STM32F7xx_HAL_Driver/Src/stm32f7xx_hal_dma.c ****       if ((hdma->Init.MemBurst & DMA_SxCR_MBURST_1) == DMA_SxCR_MBURST_1)
 254              		.loc 1 1287 7 view .LVU69
 255              		.loc 1 1287 22 is_stmt 0 view .LVU70
 256 003a C36A     		ldr	r3, [r0, #44]
 257              	.LVL20:
 258              		.loc 1 1287 10 view .LVU71
 259 003c 13F0807F 		tst	r3, #16777216
 260 0040 23D1     		bne	.L30
1222:Drivers/STM32F7xx_HAL_Driver/Src/stm32f7xx_hal_dma.c ****   uint32_t tmp = hdma->Init.FIFOThreshold;
 261              		.loc 1 1222 21 view .LVU72
 262 0042 0020     		movs	r0, #0
 263              	.LVL21:
1222:Drivers/STM32F7xx_HAL_Driver/Src/stm32f7xx_hal_dma.c ****   uint32_t tmp = hdma->Init.FIFOThreshold;
 264              		.loc 1 1222 21 view .LVU73
 265 0044 7047     		bx	lr
 266              	.LVL22:
 267              	.L31:
1253:Drivers/STM32F7xx_HAL_Driver/Src/stm32f7xx_hal_dma.c ****     {
 268              		.loc 1 1253 5 is_stmt 1 view .LVU74
 269 0046 032B     		cmp	r3, #3
 270 0048 03D8     		bhi	.L18
 271 004a DFE803F0 		tbb	[pc, r3]
 272              	.L20:
 273 004e 14       		.byte	(.L25-.L20)/2
 274 004f 04       		.byte	(.L21-.L20)/2
 275 0050 14       		.byte	(.L25-.L20)/2
 276 0051 0A       		.byte	(.L19-.L20)/2
 277              		.p2align 1
 278              	.L18:
 279 0052 0020     		movs	r0, #0
 280              	.LVL23:
1253:Drivers/STM32F7xx_HAL_Driver/Src/stm32f7xx_hal_dma.c ****     {
 281              		.loc 1 1253 5 is_stmt 0 view .LVU75
 282 0054 7047     		bx	lr
 283              	.LVL24:
 284              	.L21:
1260:Drivers/STM32F7xx_HAL_Driver/Src/stm32f7xx_hal_dma.c ****       {
 285              		.loc 1 1260 7 is_stmt 1 view .LVU76
1260:Drivers/STM32F7xx_HAL_Driver/Src/stm32f7xx_hal_dma.c ****       {
 286              		.loc 1 1260 22 is_stmt 0 view .LVU77
 287 0056 C36A     		ldr	r3, [r0, #44]
 288              	.LVL25:
1260:Drivers/STM32F7xx_HAL_Driver/Src/stm32f7xx_hal_dma.c ****       {
 289              		.loc 1 1260 10 view .LVU78
 290 0058 13F0807F 		tst	r3, #16777216
 291 005c 0DD1     		bne	.L26
1222:Drivers/STM32F7xx_HAL_Driver/Src/stm32f7xx_hal_dma.c ****   uint32_t tmp = hdma->Init.FIFOThreshold;
 292              		.loc 1 1222 21 view .LVU79
 293 005e 0020     		movs	r0, #0
ARM GAS  /tmp/cclJgRLT.s 			page 29


 294              	.LVL26:
1222:Drivers/STM32F7xx_HAL_Driver/Src/stm32f7xx_hal_dma.c ****   uint32_t tmp = hdma->Init.FIFOThreshold;
 295              		.loc 1 1222 21 view .LVU80
 296 0060 7047     		bx	lr
 297              	.LVL27:
 298              	.L19:
1266:Drivers/STM32F7xx_HAL_Driver/Src/stm32f7xx_hal_dma.c ****       {
 299              		.loc 1 1266 7 is_stmt 1 view .LVU81
1266:Drivers/STM32F7xx_HAL_Driver/Src/stm32f7xx_hal_dma.c ****       {
 300              		.loc 1 1266 21 is_stmt 0 view .LVU82
 301 0062 C36A     		ldr	r3, [r0, #44]
 302              	.LVL28:
1266:Drivers/STM32F7xx_HAL_Driver/Src/stm32f7xx_hal_dma.c ****       {
 303              		.loc 1 1266 10 view .LVU83
 304 0064 B3F1C07F 		cmp	r3, #25165824
 305 0068 09D0     		beq	.L27
1222:Drivers/STM32F7xx_HAL_Driver/Src/stm32f7xx_hal_dma.c ****   uint32_t tmp = hdma->Init.FIFOThreshold;
 306              		.loc 1 1222 21 view .LVU84
 307 006a 0020     		movs	r0, #0
 308              	.LVL29:
1222:Drivers/STM32F7xx_HAL_Driver/Src/stm32f7xx_hal_dma.c ****   uint32_t tmp = hdma->Init.FIFOThreshold;
 309              		.loc 1 1222 21 view .LVU85
 310 006c 7047     		bx	lr
 311              	.LVL30:
 312              	.L23:
1234:Drivers/STM32F7xx_HAL_Driver/Src/stm32f7xx_hal_dma.c ****       }
 313              		.loc 1 1234 16 view .LVU86
 314 006e 0120     		movs	r0, #1
 315              	.LVL31:
1234:Drivers/STM32F7xx_HAL_Driver/Src/stm32f7xx_hal_dma.c ****       }
 316              		.loc 1 1234 16 view .LVU87
 317 0070 7047     		bx	lr
 318              	.LVL32:
 319              	.L24:
1240:Drivers/STM32F7xx_HAL_Driver/Src/stm32f7xx_hal_dma.c ****       }
 320              		.loc 1 1240 16 view .LVU88
 321 0072 0120     		movs	r0, #1
 322              	.LVL33:
1240:Drivers/STM32F7xx_HAL_Driver/Src/stm32f7xx_hal_dma.c ****       }
 323              		.loc 1 1240 16 view .LVU89
 324 0074 7047     		bx	lr
 325              	.LVL34:
 326              	.L25:
1257:Drivers/STM32F7xx_HAL_Driver/Src/stm32f7xx_hal_dma.c ****       break;
 327              		.loc 1 1257 14 view .LVU90
 328 0076 0120     		movs	r0, #1
 329              	.LVL35:
1257:Drivers/STM32F7xx_HAL_Driver/Src/stm32f7xx_hal_dma.c ****       break;
 330              		.loc 1 1257 14 view .LVU91
 331 0078 7047     		bx	lr
 332              	.LVL36:
 333              	.L26:
1262:Drivers/STM32F7xx_HAL_Driver/Src/stm32f7xx_hal_dma.c ****       }
 334              		.loc 1 1262 16 view .LVU92
 335 007a 0120     		movs	r0, #1
 336              	.LVL37:
1262:Drivers/STM32F7xx_HAL_Driver/Src/stm32f7xx_hal_dma.c ****       }
ARM GAS  /tmp/cclJgRLT.s 			page 30


 337              		.loc 1 1262 16 view .LVU93
 338 007c 7047     		bx	lr
 339              	.LVL38:
 340              	.L27:
1268:Drivers/STM32F7xx_HAL_Driver/Src/stm32f7xx_hal_dma.c ****       }
 341              		.loc 1 1268 16 view .LVU94
 342 007e 0120     		movs	r0, #1
 343              	.LVL39:
1268:Drivers/STM32F7xx_HAL_Driver/Src/stm32f7xx_hal_dma.c ****       }
 344              		.loc 1 1268 16 view .LVU95
 345 0080 7047     		bx	lr
 346              	.LVL40:
 347              	.L28:
1284:Drivers/STM32F7xx_HAL_Driver/Src/stm32f7xx_hal_dma.c ****       break;
 348              		.loc 1 1284 14 view .LVU96
 349 0082 0120     		movs	r0, #1
 350              	.LVL41:
1284:Drivers/STM32F7xx_HAL_Driver/Src/stm32f7xx_hal_dma.c ****       break;
 351              		.loc 1 1284 14 view .LVU97
 352 0084 7047     		bx	lr
 353              	.LVL42:
 354              	.L29:
1279:Drivers/STM32F7xx_HAL_Driver/Src/stm32f7xx_hal_dma.c ****     {
 355              		.loc 1 1279 5 view .LVU98
 356 0086 0020     		movs	r0, #0
 357              	.LVL43:
1279:Drivers/STM32F7xx_HAL_Driver/Src/stm32f7xx_hal_dma.c ****     {
 358              		.loc 1 1279 5 view .LVU99
 359 0088 7047     		bx	lr
 360              	.LVL44:
 361              	.L30:
1288:Drivers/STM32F7xx_HAL_Driver/Src/stm32f7xx_hal_dma.c ****       {
1289:Drivers/STM32F7xx_HAL_Driver/Src/stm32f7xx_hal_dma.c ****         status = HAL_ERROR;
 362              		.loc 1 1289 16 view .LVU100
 363 008a 0120     		movs	r0, #1
 364              	.LVL45:
1290:Drivers/STM32F7xx_HAL_Driver/Src/stm32f7xx_hal_dma.c ****       }
1291:Drivers/STM32F7xx_HAL_Driver/Src/stm32f7xx_hal_dma.c ****       break;
1292:Drivers/STM32F7xx_HAL_Driver/Src/stm32f7xx_hal_dma.c ****     default:
1293:Drivers/STM32F7xx_HAL_Driver/Src/stm32f7xx_hal_dma.c ****       break;
1294:Drivers/STM32F7xx_HAL_Driver/Src/stm32f7xx_hal_dma.c ****     }
1295:Drivers/STM32F7xx_HAL_Driver/Src/stm32f7xx_hal_dma.c ****   } 
1296:Drivers/STM32F7xx_HAL_Driver/Src/stm32f7xx_hal_dma.c ****   
1297:Drivers/STM32F7xx_HAL_Driver/Src/stm32f7xx_hal_dma.c ****   return status; 
 365              		.loc 1 1297 3 is_stmt 1 view .LVU101
1298:Drivers/STM32F7xx_HAL_Driver/Src/stm32f7xx_hal_dma.c **** }
 366              		.loc 1 1298 1 is_stmt 0 view .LVU102
 367 008c 7047     		bx	lr
 368              		.cfi_endproc
 369              	.LFE155:
 371              		.section	.text.HAL_DMA_Init,"ax",%progbits
 372              		.align	1
 373              		.global	HAL_DMA_Init
 374              		.syntax unified
 375              		.thumb
 376              		.thumb_func
 378              	HAL_DMA_Init:
ARM GAS  /tmp/cclJgRLT.s 			page 31


 379              	.LVL46:
 380              	.LFB141:
 172:Drivers/STM32F7xx_HAL_Driver/Src/stm32f7xx_hal_dma.c ****   uint32_t tmp = 0U;
 381              		.loc 1 172 1 is_stmt 1 view -0
 382              		.cfi_startproc
 383              		@ args = 0, pretend = 0, frame = 0
 384              		@ frame_needed = 0, uses_anonymous_args = 0
 172:Drivers/STM32F7xx_HAL_Driver/Src/stm32f7xx_hal_dma.c ****   uint32_t tmp = 0U;
 385              		.loc 1 172 1 is_stmt 0 view .LVU104
 386 0000 70B5     		push	{r4, r5, r6, lr}
 387              	.LCFI6:
 388              		.cfi_def_cfa_offset 16
 389              		.cfi_offset 4, -16
 390              		.cfi_offset 5, -12
 391              		.cfi_offset 6, -8
 392              		.cfi_offset 14, -4
 393 0002 0446     		mov	r4, r0
 173:Drivers/STM32F7xx_HAL_Driver/Src/stm32f7xx_hal_dma.c ****   uint32_t tickstart = HAL_GetTick();
 394              		.loc 1 173 3 is_stmt 1 view .LVU105
 395              	.LVL47:
 174:Drivers/STM32F7xx_HAL_Driver/Src/stm32f7xx_hal_dma.c ****   DMA_Base_Registers *regs;
 396              		.loc 1 174 3 view .LVU106
 174:Drivers/STM32F7xx_HAL_Driver/Src/stm32f7xx_hal_dma.c ****   DMA_Base_Registers *regs;
 397              		.loc 1 174 24 is_stmt 0 view .LVU107
 398 0004 FFF7FEFF 		bl	HAL_GetTick
 399              	.LVL48:
 175:Drivers/STM32F7xx_HAL_Driver/Src/stm32f7xx_hal_dma.c **** 
 400              		.loc 1 175 3 is_stmt 1 view .LVU108
 178:Drivers/STM32F7xx_HAL_Driver/Src/stm32f7xx_hal_dma.c ****   {
 401              		.loc 1 178 3 view .LVU109
 178:Drivers/STM32F7xx_HAL_Driver/Src/stm32f7xx_hal_dma.c ****   {
 402              		.loc 1 178 5 is_stmt 0 view .LVU110
 403 0008 002C     		cmp	r4, #0
 404 000a 5BD0     		beq	.L38
 405 000c 0546     		mov	r5, r0
 184:Drivers/STM32F7xx_HAL_Driver/Src/stm32f7xx_hal_dma.c ****   assert_param(IS_DMA_CHANNEL(hdma->Init.Channel));
 406              		.loc 1 184 3 is_stmt 1 view .LVU111
 185:Drivers/STM32F7xx_HAL_Driver/Src/stm32f7xx_hal_dma.c ****   assert_param(IS_DMA_DIRECTION(hdma->Init.Direction));
 407              		.loc 1 185 3 view .LVU112
 186:Drivers/STM32F7xx_HAL_Driver/Src/stm32f7xx_hal_dma.c ****   assert_param(IS_DMA_PERIPHERAL_INC_STATE(hdma->Init.PeriphInc));
 408              		.loc 1 186 3 view .LVU113
 187:Drivers/STM32F7xx_HAL_Driver/Src/stm32f7xx_hal_dma.c ****   assert_param(IS_DMA_MEMORY_INC_STATE(hdma->Init.MemInc));
 409              		.loc 1 187 3 view .LVU114
 188:Drivers/STM32F7xx_HAL_Driver/Src/stm32f7xx_hal_dma.c ****   assert_param(IS_DMA_PERIPHERAL_DATA_SIZE(hdma->Init.PeriphDataAlignment));
 410              		.loc 1 188 3 view .LVU115
 189:Drivers/STM32F7xx_HAL_Driver/Src/stm32f7xx_hal_dma.c ****   assert_param(IS_DMA_MEMORY_DATA_SIZE(hdma->Init.MemDataAlignment));
 411              		.loc 1 189 3 view .LVU116
 190:Drivers/STM32F7xx_HAL_Driver/Src/stm32f7xx_hal_dma.c ****   assert_param(IS_DMA_MODE(hdma->Init.Mode));
 412              		.loc 1 190 3 view .LVU117
 191:Drivers/STM32F7xx_HAL_Driver/Src/stm32f7xx_hal_dma.c ****   assert_param(IS_DMA_PRIORITY(hdma->Init.Priority));
 413              		.loc 1 191 3 view .LVU118
 192:Drivers/STM32F7xx_HAL_Driver/Src/stm32f7xx_hal_dma.c ****   assert_param(IS_DMA_FIFO_MODE_STATE(hdma->Init.FIFOMode));
 414              		.loc 1 192 3 view .LVU119
 193:Drivers/STM32F7xx_HAL_Driver/Src/stm32f7xx_hal_dma.c ****   /* Check the memory burst, peripheral burst and FIFO threshold parameters only
 415              		.loc 1 193 3 view .LVU120
 196:Drivers/STM32F7xx_HAL_Driver/Src/stm32f7xx_hal_dma.c ****   {
 416              		.loc 1 196 3 view .LVU121
ARM GAS  /tmp/cclJgRLT.s 			page 32


 198:Drivers/STM32F7xx_HAL_Driver/Src/stm32f7xx_hal_dma.c ****     assert_param(IS_DMA_MEMORY_BURST(hdma->Init.MemBurst));
 417              		.loc 1 198 5 view .LVU122
 199:Drivers/STM32F7xx_HAL_Driver/Src/stm32f7xx_hal_dma.c ****     assert_param(IS_DMA_PERIPHERAL_BURST(hdma->Init.PeriphBurst));
 418              		.loc 1 199 5 view .LVU123
 200:Drivers/STM32F7xx_HAL_Driver/Src/stm32f7xx_hal_dma.c ****   }
 419              		.loc 1 200 5 view .LVU124
 204:Drivers/STM32F7xx_HAL_Driver/Src/stm32f7xx_hal_dma.c ****   
 420              		.loc 1 204 3 view .LVU125
 204:Drivers/STM32F7xx_HAL_Driver/Src/stm32f7xx_hal_dma.c ****   
 421              		.loc 1 204 15 is_stmt 0 view .LVU126
 422 000e 0223     		movs	r3, #2
 423 0010 84F83530 		strb	r3, [r4, #53]
 207:Drivers/STM32F7xx_HAL_Driver/Src/stm32f7xx_hal_dma.c **** 
 424              		.loc 1 207 3 is_stmt 1 view .LVU127
 207:Drivers/STM32F7xx_HAL_Driver/Src/stm32f7xx_hal_dma.c **** 
 425              		.loc 1 207 3 view .LVU128
 426 0014 0023     		movs	r3, #0
 427 0016 84F83430 		strb	r3, [r4, #52]
 207:Drivers/STM32F7xx_HAL_Driver/Src/stm32f7xx_hal_dma.c **** 
 428              		.loc 1 207 3 view .LVU129
 211:Drivers/STM32F7xx_HAL_Driver/Src/stm32f7xx_hal_dma.c ****   
 429              		.loc 1 211 3 view .LVU130
 430 001a 2268     		ldr	r2, [r4]
 431 001c 1368     		ldr	r3, [r2]
 432 001e 23F00103 		bic	r3, r3, #1
 433 0022 1360     		str	r3, [r2]
 214:Drivers/STM32F7xx_HAL_Driver/Src/stm32f7xx_hal_dma.c ****   {
 434              		.loc 1 214 3 view .LVU131
 435              	.LVL49:
 436              	.L34:
 214:Drivers/STM32F7xx_HAL_Driver/Src/stm32f7xx_hal_dma.c ****   {
 437              		.loc 1 214 8 view .LVU132
 214:Drivers/STM32F7xx_HAL_Driver/Src/stm32f7xx_hal_dma.c ****   {
 438              		.loc 1 214 14 is_stmt 0 view .LVU133
 439 0024 2368     		ldr	r3, [r4]
 214:Drivers/STM32F7xx_HAL_Driver/Src/stm32f7xx_hal_dma.c ****   {
 440              		.loc 1 214 24 view .LVU134
 441 0026 1A68     		ldr	r2, [r3]
 214:Drivers/STM32F7xx_HAL_Driver/Src/stm32f7xx_hal_dma.c ****   {
 442              		.loc 1 214 8 view .LVU135
 443 0028 12F0010F 		tst	r2, #1
 444 002c 0AD0     		beq	.L40
 217:Drivers/STM32F7xx_HAL_Driver/Src/stm32f7xx_hal_dma.c ****     {
 445              		.loc 1 217 5 is_stmt 1 view .LVU136
 217:Drivers/STM32F7xx_HAL_Driver/Src/stm32f7xx_hal_dma.c ****     {
 446              		.loc 1 217 9 is_stmt 0 view .LVU137
 447 002e FFF7FEFF 		bl	HAL_GetTick
 448              	.LVL50:
 217:Drivers/STM32F7xx_HAL_Driver/Src/stm32f7xx_hal_dma.c ****     {
 449              		.loc 1 217 23 view .LVU138
 450 0032 431B     		subs	r3, r0, r5
 217:Drivers/STM32F7xx_HAL_Driver/Src/stm32f7xx_hal_dma.c ****     {
 451              		.loc 1 217 7 view .LVU139
 452 0034 052B     		cmp	r3, #5
 453 0036 F5D9     		bls	.L34
 220:Drivers/STM32F7xx_HAL_Driver/Src/stm32f7xx_hal_dma.c ****       
 454              		.loc 1 220 7 is_stmt 1 view .LVU140
ARM GAS  /tmp/cclJgRLT.s 			page 33


 220:Drivers/STM32F7xx_HAL_Driver/Src/stm32f7xx_hal_dma.c ****       
 455              		.loc 1 220 23 is_stmt 0 view .LVU141
 456 0038 2023     		movs	r3, #32
 457 003a 6365     		str	r3, [r4, #84]
 223:Drivers/STM32F7xx_HAL_Driver/Src/stm32f7xx_hal_dma.c ****       
 458              		.loc 1 223 7 is_stmt 1 view .LVU142
 223:Drivers/STM32F7xx_HAL_Driver/Src/stm32f7xx_hal_dma.c ****       
 459              		.loc 1 223 19 is_stmt 0 view .LVU143
 460 003c 0320     		movs	r0, #3
 461 003e 84F83500 		strb	r0, [r4, #53]
 225:Drivers/STM32F7xx_HAL_Driver/Src/stm32f7xx_hal_dma.c ****     }
 462              		.loc 1 225 7 is_stmt 1 view .LVU144
 463              	.LVL51:
 464              	.L33:
 303:Drivers/STM32F7xx_HAL_Driver/Src/stm32f7xx_hal_dma.c **** 
 465              		.loc 1 303 1 is_stmt 0 view .LVU145
 466 0042 70BD     		pop	{r4, r5, r6, pc}
 467              	.LVL52:
 468              	.L40:
 230:Drivers/STM32F7xx_HAL_Driver/Src/stm32f7xx_hal_dma.c **** 
 469              		.loc 1 230 3 is_stmt 1 view .LVU146
 230:Drivers/STM32F7xx_HAL_Driver/Src/stm32f7xx_hal_dma.c **** 
 470              		.loc 1 230 7 is_stmt 0 view .LVU147
 471 0044 1A68     		ldr	r2, [r3]
 472              	.LVL53:
 233:Drivers/STM32F7xx_HAL_Driver/Src/stm32f7xx_hal_dma.c ****                       DMA_SxCR_PL    | DMA_SxCR_MSIZE  | DMA_SxCR_PSIZE  | \
 473              		.loc 1 233 3 is_stmt 1 view .LVU148
 233:Drivers/STM32F7xx_HAL_Driver/Src/stm32f7xx_hal_dma.c ****                       DMA_SxCR_PL    | DMA_SxCR_MSIZE  | DMA_SxCR_PSIZE  | \
 474              		.loc 1 233 7 is_stmt 0 view .LVU149
 475 0046 2048     		ldr	r0, .L43
 476 0048 1040     		ands	r0, r0, r2
 477              	.LVL54:
 239:Drivers/STM32F7xx_HAL_Driver/Src/stm32f7xx_hal_dma.c ****           hdma->Init.PeriphInc           | hdma->Init.MemInc           |
 478              		.loc 1 239 3 is_stmt 1 view .LVU150
 239:Drivers/STM32F7xx_HAL_Driver/Src/stm32f7xx_hal_dma.c ****           hdma->Init.PeriphInc           | hdma->Init.MemInc           |
 479              		.loc 1 239 21 is_stmt 0 view .LVU151
 480 004a 6168     		ldr	r1, [r4, #4]
 239:Drivers/STM32F7xx_HAL_Driver/Src/stm32f7xx_hal_dma.c ****           hdma->Init.PeriphInc           | hdma->Init.MemInc           |
 481              		.loc 1 239 54 view .LVU152
 482 004c A268     		ldr	r2, [r4, #8]
 239:Drivers/STM32F7xx_HAL_Driver/Src/stm32f7xx_hal_dma.c ****           hdma->Init.PeriphInc           | hdma->Init.MemInc           |
 483              		.loc 1 239 42 view .LVU153
 484 004e 0A43     		orrs	r2, r2, r1
 240:Drivers/STM32F7xx_HAL_Driver/Src/stm32f7xx_hal_dma.c ****           hdma->Init.PeriphDataAlignment | hdma->Init.MemDataAlignment |
 485              		.loc 1 240 21 view .LVU154
 486 0050 E168     		ldr	r1, [r4, #12]
 239:Drivers/STM32F7xx_HAL_Driver/Src/stm32f7xx_hal_dma.c ****           hdma->Init.PeriphInc           | hdma->Init.MemInc           |
 487              		.loc 1 239 72 view .LVU155
 488 0052 0A43     		orrs	r2, r2, r1
 240:Drivers/STM32F7xx_HAL_Driver/Src/stm32f7xx_hal_dma.c ****           hdma->Init.PeriphDataAlignment | hdma->Init.MemDataAlignment |
 489              		.loc 1 240 54 view .LVU156
 490 0054 2169     		ldr	r1, [r4, #16]
 240:Drivers/STM32F7xx_HAL_Driver/Src/stm32f7xx_hal_dma.c ****           hdma->Init.PeriphDataAlignment | hdma->Init.MemDataAlignment |
 491              		.loc 1 240 42 view .LVU157
 492 0056 0A43     		orrs	r2, r2, r1
 241:Drivers/STM32F7xx_HAL_Driver/Src/stm32f7xx_hal_dma.c ****           hdma->Init.Mode                | hdma->Init.Priority;
 493              		.loc 1 241 21 view .LVU158
ARM GAS  /tmp/cclJgRLT.s 			page 34


 494 0058 6169     		ldr	r1, [r4, #20]
 240:Drivers/STM32F7xx_HAL_Driver/Src/stm32f7xx_hal_dma.c ****           hdma->Init.PeriphDataAlignment | hdma->Init.MemDataAlignment |
 495              		.loc 1 240 72 view .LVU159
 496 005a 0A43     		orrs	r2, r2, r1
 241:Drivers/STM32F7xx_HAL_Driver/Src/stm32f7xx_hal_dma.c ****           hdma->Init.Mode                | hdma->Init.Priority;
 497              		.loc 1 241 54 view .LVU160
 498 005c A169     		ldr	r1, [r4, #24]
 241:Drivers/STM32F7xx_HAL_Driver/Src/stm32f7xx_hal_dma.c ****           hdma->Init.Mode                | hdma->Init.Priority;
 499              		.loc 1 241 42 view .LVU161
 500 005e 0A43     		orrs	r2, r2, r1
 242:Drivers/STM32F7xx_HAL_Driver/Src/stm32f7xx_hal_dma.c **** 
 501              		.loc 1 242 21 view .LVU162
 502 0060 E169     		ldr	r1, [r4, #28]
 241:Drivers/STM32F7xx_HAL_Driver/Src/stm32f7xx_hal_dma.c ****           hdma->Init.Mode                | hdma->Init.Priority;
 503              		.loc 1 241 72 view .LVU163
 504 0062 0A43     		orrs	r2, r2, r1
 242:Drivers/STM32F7xx_HAL_Driver/Src/stm32f7xx_hal_dma.c **** 
 505              		.loc 1 242 54 view .LVU164
 506 0064 216A     		ldr	r1, [r4, #32]
 242:Drivers/STM32F7xx_HAL_Driver/Src/stm32f7xx_hal_dma.c **** 
 507              		.loc 1 242 42 view .LVU165
 508 0066 0A43     		orrs	r2, r2, r1
 239:Drivers/STM32F7xx_HAL_Driver/Src/stm32f7xx_hal_dma.c ****           hdma->Init.PeriphInc           | hdma->Init.MemInc           |
 509              		.loc 1 239 7 view .LVU166
 510 0068 0243     		orrs	r2, r2, r0
 511              	.LVL55:
 245:Drivers/STM32F7xx_HAL_Driver/Src/stm32f7xx_hal_dma.c ****   {
 512              		.loc 1 245 3 is_stmt 1 view .LVU167
 245:Drivers/STM32F7xx_HAL_Driver/Src/stm32f7xx_hal_dma.c ****   {
 513              		.loc 1 245 16 is_stmt 0 view .LVU168
 514 006a 616A     		ldr	r1, [r4, #36]
 245:Drivers/STM32F7xx_HAL_Driver/Src/stm32f7xx_hal_dma.c ****   {
 515              		.loc 1 245 5 view .LVU169
 516 006c 0429     		cmp	r1, #4
 517 006e 1ED0     		beq	.L41
 518              	.L36:
 252:Drivers/STM32F7xx_HAL_Driver/Src/stm32f7xx_hal_dma.c **** 
 519              		.loc 1 252 3 is_stmt 1 view .LVU170
 252:Drivers/STM32F7xx_HAL_Driver/Src/stm32f7xx_hal_dma.c **** 
 520              		.loc 1 252 22 is_stmt 0 view .LVU171
 521 0070 1A60     		str	r2, [r3]
 255:Drivers/STM32F7xx_HAL_Driver/Src/stm32f7xx_hal_dma.c **** 
 522              		.loc 1 255 3 is_stmt 1 view .LVU172
 255:Drivers/STM32F7xx_HAL_Driver/Src/stm32f7xx_hal_dma.c **** 
 523              		.loc 1 255 13 is_stmt 0 view .LVU173
 524 0072 2668     		ldr	r6, [r4]
 255:Drivers/STM32F7xx_HAL_Driver/Src/stm32f7xx_hal_dma.c **** 
 525              		.loc 1 255 7 view .LVU174
 526 0074 7569     		ldr	r5, [r6, #20]
 527              	.LVL56:
 258:Drivers/STM32F7xx_HAL_Driver/Src/stm32f7xx_hal_dma.c **** 
 528              		.loc 1 258 3 is_stmt 1 view .LVU175
 258:Drivers/STM32F7xx_HAL_Driver/Src/stm32f7xx_hal_dma.c **** 
 529              		.loc 1 258 7 is_stmt 0 view .LVU176
 530 0076 25F00705 		bic	r5, r5, #7
 531              	.LVL57:
 261:Drivers/STM32F7xx_HAL_Driver/Src/stm32f7xx_hal_dma.c **** 
ARM GAS  /tmp/cclJgRLT.s 			page 35


 532              		.loc 1 261 3 is_stmt 1 view .LVU177
 261:Drivers/STM32F7xx_HAL_Driver/Src/stm32f7xx_hal_dma.c **** 
 533              		.loc 1 261 20 is_stmt 0 view .LVU178
 534 007a 636A     		ldr	r3, [r4, #36]
 261:Drivers/STM32F7xx_HAL_Driver/Src/stm32f7xx_hal_dma.c **** 
 535              		.loc 1 261 7 view .LVU179
 536 007c 1D43     		orrs	r5, r5, r3
 537              	.LVL58:
 264:Drivers/STM32F7xx_HAL_Driver/Src/stm32f7xx_hal_dma.c ****   {
 538              		.loc 1 264 3 is_stmt 1 view .LVU180
 264:Drivers/STM32F7xx_HAL_Driver/Src/stm32f7xx_hal_dma.c ****   {
 539              		.loc 1 264 5 is_stmt 0 view .LVU181
 540 007e 042B     		cmp	r3, #4
 541 0080 07D1     		bne	.L37
 267:Drivers/STM32F7xx_HAL_Driver/Src/stm32f7xx_hal_dma.c ****     
 542              		.loc 1 267 5 is_stmt 1 view .LVU182
 267:Drivers/STM32F7xx_HAL_Driver/Src/stm32f7xx_hal_dma.c ****     
 543              		.loc 1 267 22 is_stmt 0 view .LVU183
 544 0082 A36A     		ldr	r3, [r4, #40]
 267:Drivers/STM32F7xx_HAL_Driver/Src/stm32f7xx_hal_dma.c ****     
 545              		.loc 1 267 9 view .LVU184
 546 0084 1D43     		orrs	r5, r5, r3
 547              	.LVL59:
 271:Drivers/STM32F7xx_HAL_Driver/Src/stm32f7xx_hal_dma.c ****     {
 548              		.loc 1 271 5 is_stmt 1 view .LVU185
 271:Drivers/STM32F7xx_HAL_Driver/Src/stm32f7xx_hal_dma.c ****     {
 549              		.loc 1 271 19 is_stmt 0 view .LVU186
 550 0086 E36A     		ldr	r3, [r4, #44]
 271:Drivers/STM32F7xx_HAL_Driver/Src/stm32f7xx_hal_dma.c ****     {
 551              		.loc 1 271 8 view .LVU187
 552 0088 1BB1     		cbz	r3, .L37
 273:Drivers/STM32F7xx_HAL_Driver/Src/stm32f7xx_hal_dma.c ****       {
 553              		.loc 1 273 7 is_stmt 1 view .LVU188
 273:Drivers/STM32F7xx_HAL_Driver/Src/stm32f7xx_hal_dma.c ****       {
 554              		.loc 1 273 11 is_stmt 0 view .LVU189
 555 008a 2046     		mov	r0, r4
 556 008c FFF7FEFF 		bl	DMA_CheckFifoParam
 557              	.LVL60:
 273:Drivers/STM32F7xx_HAL_Driver/Src/stm32f7xx_hal_dma.c ****       {
 558              		.loc 1 273 10 view .LVU190
 559 0090 90B9     		cbnz	r0, .L42
 560              	.L37:
 287:Drivers/STM32F7xx_HAL_Driver/Src/stm32f7xx_hal_dma.c **** 
 561              		.loc 1 287 3 is_stmt 1 view .LVU191
 287:Drivers/STM32F7xx_HAL_Driver/Src/stm32f7xx_hal_dma.c **** 
 562              		.loc 1 287 23 is_stmt 0 view .LVU192
 563 0092 7561     		str	r5, [r6, #20]
 291:Drivers/STM32F7xx_HAL_Driver/Src/stm32f7xx_hal_dma.c ****   
 564              		.loc 1 291 3 is_stmt 1 view .LVU193
 291:Drivers/STM32F7xx_HAL_Driver/Src/stm32f7xx_hal_dma.c ****   
 565              		.loc 1 291 32 is_stmt 0 view .LVU194
 566 0094 2046     		mov	r0, r4
 567 0096 FFF7FEFF 		bl	DMA_CalcBaseAndBitshift
 568              	.LVL61:
 294:Drivers/STM32F7xx_HAL_Driver/Src/stm32f7xx_hal_dma.c **** 
 569              		.loc 1 294 3 is_stmt 1 view .LVU195
 294:Drivers/STM32F7xx_HAL_Driver/Src/stm32f7xx_hal_dma.c **** 
ARM GAS  /tmp/cclJgRLT.s 			page 36


 570              		.loc 1 294 29 is_stmt 0 view .LVU196
 571 009a E26D     		ldr	r2, [r4, #92]
 294:Drivers/STM32F7xx_HAL_Driver/Src/stm32f7xx_hal_dma.c **** 
 572              		.loc 1 294 22 view .LVU197
 573 009c 3F23     		movs	r3, #63
 574 009e 9340     		lsls	r3, r3, r2
 294:Drivers/STM32F7xx_HAL_Driver/Src/stm32f7xx_hal_dma.c **** 
 575              		.loc 1 294 14 view .LVU198
 576 00a0 8360     		str	r3, [r0, #8]
 297:Drivers/STM32F7xx_HAL_Driver/Src/stm32f7xx_hal_dma.c ****                                                                                      
 577              		.loc 1 297 3 is_stmt 1 view .LVU199
 297:Drivers/STM32F7xx_HAL_Driver/Src/stm32f7xx_hal_dma.c ****                                                                                      
 578              		.loc 1 297 19 is_stmt 0 view .LVU200
 579 00a2 0020     		movs	r0, #0
 580              	.LVL62:
 297:Drivers/STM32F7xx_HAL_Driver/Src/stm32f7xx_hal_dma.c ****                                                                                      
 581              		.loc 1 297 19 view .LVU201
 582 00a4 6065     		str	r0, [r4, #84]
 300:Drivers/STM32F7xx_HAL_Driver/Src/stm32f7xx_hal_dma.c **** 
 583              		.loc 1 300 3 is_stmt 1 view .LVU202
 300:Drivers/STM32F7xx_HAL_Driver/Src/stm32f7xx_hal_dma.c **** 
 584              		.loc 1 300 15 is_stmt 0 view .LVU203
 585 00a6 0123     		movs	r3, #1
 586 00a8 84F83530 		strb	r3, [r4, #53]
 302:Drivers/STM32F7xx_HAL_Driver/Src/stm32f7xx_hal_dma.c **** }
 587              		.loc 1 302 3 is_stmt 1 view .LVU204
 302:Drivers/STM32F7xx_HAL_Driver/Src/stm32f7xx_hal_dma.c **** }
 588              		.loc 1 302 10 is_stmt 0 view .LVU205
 589 00ac C9E7     		b	.L33
 590              	.LVL63:
 591              	.L41:
 248:Drivers/STM32F7xx_HAL_Driver/Src/stm32f7xx_hal_dma.c ****   }
 592              		.loc 1 248 5 is_stmt 1 view .LVU206
 248:Drivers/STM32F7xx_HAL_Driver/Src/stm32f7xx_hal_dma.c ****   }
 593              		.loc 1 248 23 is_stmt 0 view .LVU207
 594 00ae E16A     		ldr	r1, [r4, #44]
 248:Drivers/STM32F7xx_HAL_Driver/Src/stm32f7xx_hal_dma.c ****   }
 595              		.loc 1 248 45 view .LVU208
 596 00b0 206B     		ldr	r0, [r4, #48]
 248:Drivers/STM32F7xx_HAL_Driver/Src/stm32f7xx_hal_dma.c ****   }
 597              		.loc 1 248 33 view .LVU209
 598 00b2 0143     		orrs	r1, r1, r0
 248:Drivers/STM32F7xx_HAL_Driver/Src/stm32f7xx_hal_dma.c ****   }
 599              		.loc 1 248 9 view .LVU210
 600 00b4 0A43     		orrs	r2, r2, r1
 601              	.LVL64:
 248:Drivers/STM32F7xx_HAL_Driver/Src/stm32f7xx_hal_dma.c ****   }
 602              		.loc 1 248 9 view .LVU211
 603 00b6 DBE7     		b	.L36
 604              	.LVL65:
 605              	.L42:
 276:Drivers/STM32F7xx_HAL_Driver/Src/stm32f7xx_hal_dma.c ****         
 606              		.loc 1 276 9 is_stmt 1 view .LVU212
 276:Drivers/STM32F7xx_HAL_Driver/Src/stm32f7xx_hal_dma.c ****         
 607              		.loc 1 276 25 is_stmt 0 view .LVU213
 608 00b8 4023     		movs	r3, #64
 609 00ba 6365     		str	r3, [r4, #84]
ARM GAS  /tmp/cclJgRLT.s 			page 37


 279:Drivers/STM32F7xx_HAL_Driver/Src/stm32f7xx_hal_dma.c ****         
 610              		.loc 1 279 9 is_stmt 1 view .LVU214
 279:Drivers/STM32F7xx_HAL_Driver/Src/stm32f7xx_hal_dma.c ****         
 611              		.loc 1 279 21 is_stmt 0 view .LVU215
 612 00bc 0120     		movs	r0, #1
 613 00be 84F83500 		strb	r0, [r4, #53]
 281:Drivers/STM32F7xx_HAL_Driver/Src/stm32f7xx_hal_dma.c ****       }
 614              		.loc 1 281 9 is_stmt 1 view .LVU216
 281:Drivers/STM32F7xx_HAL_Driver/Src/stm32f7xx_hal_dma.c ****       }
 615              		.loc 1 281 16 is_stmt 0 view .LVU217
 616 00c2 BEE7     		b	.L33
 617              	.LVL66:
 618              	.L38:
 180:Drivers/STM32F7xx_HAL_Driver/Src/stm32f7xx_hal_dma.c ****   }
 619              		.loc 1 180 12 view .LVU218
 620 00c4 0120     		movs	r0, #1
 621              	.LVL67:
 180:Drivers/STM32F7xx_HAL_Driver/Src/stm32f7xx_hal_dma.c ****   }
 622              		.loc 1 180 12 view .LVU219
 623 00c6 BCE7     		b	.L33
 624              	.L44:
 625              		.align	2
 626              	.L43:
 627 00c8 3F8010E0 		.word	-535789505
 628              		.cfi_endproc
 629              	.LFE141:
 631              		.section	.text.HAL_DMA_DeInit,"ax",%progbits
 632              		.align	1
 633              		.global	HAL_DMA_DeInit
 634              		.syntax unified
 635              		.thumb
 636              		.thumb_func
 638              	HAL_DMA_DeInit:
 639              	.LVL68:
 640              	.LFB142:
 312:Drivers/STM32F7xx_HAL_Driver/Src/stm32f7xx_hal_dma.c ****   DMA_Base_Registers *regs;
 641              		.loc 1 312 1 is_stmt 1 view -0
 642              		.cfi_startproc
 643              		@ args = 0, pretend = 0, frame = 0
 644              		@ frame_needed = 0, uses_anonymous_args = 0
 313:Drivers/STM32F7xx_HAL_Driver/Src/stm32f7xx_hal_dma.c **** 
 645              		.loc 1 313 3 view .LVU221
 316:Drivers/STM32F7xx_HAL_Driver/Src/stm32f7xx_hal_dma.c ****   {
 646              		.loc 1 316 3 view .LVU222
 316:Drivers/STM32F7xx_HAL_Driver/Src/stm32f7xx_hal_dma.c ****   {
 647              		.loc 1 316 5 is_stmt 0 view .LVU223
 648 0000 0028     		cmp	r0, #0
 649 0002 2DD0     		beq	.L47
 312:Drivers/STM32F7xx_HAL_Driver/Src/stm32f7xx_hal_dma.c ****   DMA_Base_Registers *regs;
 650              		.loc 1 312 1 view .LVU224
 651 0004 38B5     		push	{r3, r4, r5, lr}
 652              	.LCFI7:
 653              		.cfi_def_cfa_offset 16
 654              		.cfi_offset 3, -16
 655              		.cfi_offset 4, -12
 656              		.cfi_offset 5, -8
 657              		.cfi_offset 14, -4
ARM GAS  /tmp/cclJgRLT.s 			page 38


 658 0006 0546     		mov	r5, r0
 322:Drivers/STM32F7xx_HAL_Driver/Src/stm32f7xx_hal_dma.c ****   {
 659              		.loc 1 322 3 is_stmt 1 view .LVU225
 322:Drivers/STM32F7xx_HAL_Driver/Src/stm32f7xx_hal_dma.c ****   {
 660              		.loc 1 322 10 is_stmt 0 view .LVU226
 661 0008 90F83500 		ldrb	r0, [r0, #53]	@ zero_extendqisi2
 662              	.LVL69:
 322:Drivers/STM32F7xx_HAL_Driver/Src/stm32f7xx_hal_dma.c ****   {
 663              		.loc 1 322 10 view .LVU227
 664 000c C0B2     		uxtb	r0, r0
 322:Drivers/STM32F7xx_HAL_Driver/Src/stm32f7xx_hal_dma.c ****   {
 665              		.loc 1 322 5 view .LVU228
 666 000e 0228     		cmp	r0, #2
 667 0010 25D0     		beq	.L46
 329:Drivers/STM32F7xx_HAL_Driver/Src/stm32f7xx_hal_dma.c **** 
 668              		.loc 1 329 3 is_stmt 1 view .LVU229
 332:Drivers/STM32F7xx_HAL_Driver/Src/stm32f7xx_hal_dma.c **** 
 669              		.loc 1 332 3 view .LVU230
 670 0012 2A68     		ldr	r2, [r5]
 671 0014 1368     		ldr	r3, [r2]
 672 0016 23F00103 		bic	r3, r3, #1
 673 001a 1360     		str	r3, [r2]
 335:Drivers/STM32F7xx_HAL_Driver/Src/stm32f7xx_hal_dma.c **** 
 674              		.loc 1 335 3 view .LVU231
 335:Drivers/STM32F7xx_HAL_Driver/Src/stm32f7xx_hal_dma.c **** 
 675              		.loc 1 335 7 is_stmt 0 view .LVU232
 676 001c 2B68     		ldr	r3, [r5]
 335:Drivers/STM32F7xx_HAL_Driver/Src/stm32f7xx_hal_dma.c **** 
 677              		.loc 1 335 24 view .LVU233
 678 001e 0024     		movs	r4, #0
 679 0020 1C60     		str	r4, [r3]
 338:Drivers/STM32F7xx_HAL_Driver/Src/stm32f7xx_hal_dma.c **** 
 680              		.loc 1 338 3 is_stmt 1 view .LVU234
 338:Drivers/STM32F7xx_HAL_Driver/Src/stm32f7xx_hal_dma.c **** 
 681              		.loc 1 338 7 is_stmt 0 view .LVU235
 682 0022 2B68     		ldr	r3, [r5]
 338:Drivers/STM32F7xx_HAL_Driver/Src/stm32f7xx_hal_dma.c **** 
 683              		.loc 1 338 24 view .LVU236
 684 0024 5C60     		str	r4, [r3, #4]
 341:Drivers/STM32F7xx_HAL_Driver/Src/stm32f7xx_hal_dma.c **** 
 685              		.loc 1 341 3 is_stmt 1 view .LVU237
 341:Drivers/STM32F7xx_HAL_Driver/Src/stm32f7xx_hal_dma.c **** 
 686              		.loc 1 341 7 is_stmt 0 view .LVU238
 687 0026 2B68     		ldr	r3, [r5]
 341:Drivers/STM32F7xx_HAL_Driver/Src/stm32f7xx_hal_dma.c **** 
 688              		.loc 1 341 24 view .LVU239
 689 0028 9C60     		str	r4, [r3, #8]
 344:Drivers/STM32F7xx_HAL_Driver/Src/stm32f7xx_hal_dma.c ****   
 690              		.loc 1 344 3 is_stmt 1 view .LVU240
 344:Drivers/STM32F7xx_HAL_Driver/Src/stm32f7xx_hal_dma.c ****   
 691              		.loc 1 344 7 is_stmt 0 view .LVU241
 692 002a 2B68     		ldr	r3, [r5]
 344:Drivers/STM32F7xx_HAL_Driver/Src/stm32f7xx_hal_dma.c ****   
 693              		.loc 1 344 24 view .LVU242
 694 002c DC60     		str	r4, [r3, #12]
 347:Drivers/STM32F7xx_HAL_Driver/Src/stm32f7xx_hal_dma.c ****   
 695              		.loc 1 347 3 is_stmt 1 view .LVU243
ARM GAS  /tmp/cclJgRLT.s 			page 39


 347:Drivers/STM32F7xx_HAL_Driver/Src/stm32f7xx_hal_dma.c ****   
 696              		.loc 1 347 7 is_stmt 0 view .LVU244
 697 002e 2B68     		ldr	r3, [r5]
 347:Drivers/STM32F7xx_HAL_Driver/Src/stm32f7xx_hal_dma.c ****   
 698              		.loc 1 347 24 view .LVU245
 699 0030 1C61     		str	r4, [r3, #16]
 350:Drivers/STM32F7xx_HAL_Driver/Src/stm32f7xx_hal_dma.c ****   
 700              		.loc 1 350 3 is_stmt 1 view .LVU246
 350:Drivers/STM32F7xx_HAL_Driver/Src/stm32f7xx_hal_dma.c ****   
 701              		.loc 1 350 7 is_stmt 0 view .LVU247
 702 0032 2B68     		ldr	r3, [r5]
 350:Drivers/STM32F7xx_HAL_Driver/Src/stm32f7xx_hal_dma.c ****   
 703              		.loc 1 350 24 view .LVU248
 704 0034 2122     		movs	r2, #33
 705 0036 5A61     		str	r2, [r3, #20]
 353:Drivers/STM32F7xx_HAL_Driver/Src/stm32f7xx_hal_dma.c ****   
 706              		.loc 1 353 3 is_stmt 1 view .LVU249
 353:Drivers/STM32F7xx_HAL_Driver/Src/stm32f7xx_hal_dma.c ****   
 707              		.loc 1 353 32 is_stmt 0 view .LVU250
 708 0038 2846     		mov	r0, r5
 709 003a FFF7FEFF 		bl	DMA_CalcBaseAndBitshift
 710              	.LVL70:
 356:Drivers/STM32F7xx_HAL_Driver/Src/stm32f7xx_hal_dma.c ****   
 711              		.loc 1 356 3 is_stmt 1 view .LVU251
 356:Drivers/STM32F7xx_HAL_Driver/Src/stm32f7xx_hal_dma.c ****   
 712              		.loc 1 356 29 is_stmt 0 view .LVU252
 713 003e EA6D     		ldr	r2, [r5, #92]
 356:Drivers/STM32F7xx_HAL_Driver/Src/stm32f7xx_hal_dma.c ****   
 714              		.loc 1 356 22 view .LVU253
 715 0040 3F23     		movs	r3, #63
 716 0042 9340     		lsls	r3, r3, r2
 356:Drivers/STM32F7xx_HAL_Driver/Src/stm32f7xx_hal_dma.c ****   
 717              		.loc 1 356 14 view .LVU254
 718 0044 8360     		str	r3, [r0, #8]
 359:Drivers/STM32F7xx_HAL_Driver/Src/stm32f7xx_hal_dma.c ****   hdma->XferHalfCpltCallback = NULL;
 719              		.loc 1 359 3 is_stmt 1 view .LVU255
 359:Drivers/STM32F7xx_HAL_Driver/Src/stm32f7xx_hal_dma.c ****   hdma->XferHalfCpltCallback = NULL;
 720              		.loc 1 359 26 is_stmt 0 view .LVU256
 721 0046 EC63     		str	r4, [r5, #60]
 360:Drivers/STM32F7xx_HAL_Driver/Src/stm32f7xx_hal_dma.c ****   hdma->XferM1CpltCallback = NULL;
 722              		.loc 1 360 3 is_stmt 1 view .LVU257
 360:Drivers/STM32F7xx_HAL_Driver/Src/stm32f7xx_hal_dma.c ****   hdma->XferM1CpltCallback = NULL;
 723              		.loc 1 360 30 is_stmt 0 view .LVU258
 724 0048 2C64     		str	r4, [r5, #64]
 361:Drivers/STM32F7xx_HAL_Driver/Src/stm32f7xx_hal_dma.c ****   hdma->XferM1HalfCpltCallback = NULL;
 725              		.loc 1 361 3 is_stmt 1 view .LVU259
 361:Drivers/STM32F7xx_HAL_Driver/Src/stm32f7xx_hal_dma.c ****   hdma->XferM1HalfCpltCallback = NULL;
 726              		.loc 1 361 28 is_stmt 0 view .LVU260
 727 004a 6C64     		str	r4, [r5, #68]
 362:Drivers/STM32F7xx_HAL_Driver/Src/stm32f7xx_hal_dma.c ****   hdma->XferErrorCallback = NULL;
 728              		.loc 1 362 3 is_stmt 1 view .LVU261
 362:Drivers/STM32F7xx_HAL_Driver/Src/stm32f7xx_hal_dma.c ****   hdma->XferErrorCallback = NULL;
 729              		.loc 1 362 32 is_stmt 0 view .LVU262
 730 004c AC64     		str	r4, [r5, #72]
 363:Drivers/STM32F7xx_HAL_Driver/Src/stm32f7xx_hal_dma.c ****   hdma->XferAbortCallback = NULL;  
 731              		.loc 1 363 3 is_stmt 1 view .LVU263
 363:Drivers/STM32F7xx_HAL_Driver/Src/stm32f7xx_hal_dma.c ****   hdma->XferAbortCallback = NULL;  
ARM GAS  /tmp/cclJgRLT.s 			page 40


 732              		.loc 1 363 27 is_stmt 0 view .LVU264
 733 004e EC64     		str	r4, [r5, #76]
 364:Drivers/STM32F7xx_HAL_Driver/Src/stm32f7xx_hal_dma.c **** 
 734              		.loc 1 364 3 is_stmt 1 view .LVU265
 364:Drivers/STM32F7xx_HAL_Driver/Src/stm32f7xx_hal_dma.c **** 
 735              		.loc 1 364 27 is_stmt 0 view .LVU266
 736 0050 2C65     		str	r4, [r5, #80]
 367:Drivers/STM32F7xx_HAL_Driver/Src/stm32f7xx_hal_dma.c **** 
 737              		.loc 1 367 3 is_stmt 1 view .LVU267
 367:Drivers/STM32F7xx_HAL_Driver/Src/stm32f7xx_hal_dma.c **** 
 738              		.loc 1 367 19 is_stmt 0 view .LVU268
 739 0052 6C65     		str	r4, [r5, #84]
 370:Drivers/STM32F7xx_HAL_Driver/Src/stm32f7xx_hal_dma.c **** 
 740              		.loc 1 370 3 is_stmt 1 view .LVU269
 370:Drivers/STM32F7xx_HAL_Driver/Src/stm32f7xx_hal_dma.c **** 
 741              		.loc 1 370 15 is_stmt 0 view .LVU270
 742 0054 85F83540 		strb	r4, [r5, #53]
 373:Drivers/STM32F7xx_HAL_Driver/Src/stm32f7xx_hal_dma.c **** 
 743              		.loc 1 373 3 is_stmt 1 view .LVU271
 373:Drivers/STM32F7xx_HAL_Driver/Src/stm32f7xx_hal_dma.c **** 
 744              		.loc 1 373 3 view .LVU272
 745 0058 85F83440 		strb	r4, [r5, #52]
 373:Drivers/STM32F7xx_HAL_Driver/Src/stm32f7xx_hal_dma.c **** 
 746              		.loc 1 373 3 view .LVU273
 375:Drivers/STM32F7xx_HAL_Driver/Src/stm32f7xx_hal_dma.c **** }
 747              		.loc 1 375 3 view .LVU274
 375:Drivers/STM32F7xx_HAL_Driver/Src/stm32f7xx_hal_dma.c **** }
 748              		.loc 1 375 10 is_stmt 0 view .LVU275
 749 005c 2046     		mov	r0, r4
 750              	.LVL71:
 751              	.L46:
 376:Drivers/STM32F7xx_HAL_Driver/Src/stm32f7xx_hal_dma.c **** 
 752              		.loc 1 376 1 view .LVU276
 753 005e 38BD     		pop	{r3, r4, r5, pc}
 754              	.LVL72:
 755              	.L47:
 756              	.LCFI8:
 757              		.cfi_def_cfa_offset 0
 758              		.cfi_restore 3
 759              		.cfi_restore 4
 760              		.cfi_restore 5
 761              		.cfi_restore 14
 318:Drivers/STM32F7xx_HAL_Driver/Src/stm32f7xx_hal_dma.c ****   }
 762              		.loc 1 318 12 view .LVU277
 763 0060 0120     		movs	r0, #1
 764              	.LVL73:
 376:Drivers/STM32F7xx_HAL_Driver/Src/stm32f7xx_hal_dma.c **** 
 765              		.loc 1 376 1 view .LVU278
 766 0062 7047     		bx	lr
 767              		.cfi_endproc
 768              	.LFE142:
 770              		.section	.text.HAL_DMA_Start,"ax",%progbits
 771              		.align	1
 772              		.global	HAL_DMA_Start
 773              		.syntax unified
 774              		.thumb
 775              		.thumb_func
ARM GAS  /tmp/cclJgRLT.s 			page 41


 777              	HAL_DMA_Start:
 778              	.LVL74:
 779              	.LFB143:
 410:Drivers/STM32F7xx_HAL_Driver/Src/stm32f7xx_hal_dma.c ****   HAL_StatusTypeDef status = HAL_OK;
 780              		.loc 1 410 1 is_stmt 1 view -0
 781              		.cfi_startproc
 782              		@ args = 0, pretend = 0, frame = 0
 783              		@ frame_needed = 0, uses_anonymous_args = 0
 410:Drivers/STM32F7xx_HAL_Driver/Src/stm32f7xx_hal_dma.c ****   HAL_StatusTypeDef status = HAL_OK;
 784              		.loc 1 410 1 is_stmt 0 view .LVU280
 785 0000 38B5     		push	{r3, r4, r5, lr}
 786              	.LCFI9:
 787              		.cfi_def_cfa_offset 16
 788              		.cfi_offset 3, -16
 789              		.cfi_offset 4, -12
 790              		.cfi_offset 5, -8
 791              		.cfi_offset 14, -4
 792 0002 0446     		mov	r4, r0
 411:Drivers/STM32F7xx_HAL_Driver/Src/stm32f7xx_hal_dma.c ****   
 793              		.loc 1 411 3 is_stmt 1 view .LVU281
 794              	.LVL75:
 414:Drivers/STM32F7xx_HAL_Driver/Src/stm32f7xx_hal_dma.c **** 
 795              		.loc 1 414 3 view .LVU282
 417:Drivers/STM32F7xx_HAL_Driver/Src/stm32f7xx_hal_dma.c **** 
 796              		.loc 1 417 3 view .LVU283
 417:Drivers/STM32F7xx_HAL_Driver/Src/stm32f7xx_hal_dma.c **** 
 797              		.loc 1 417 3 view .LVU284
 798 0004 90F83400 		ldrb	r0, [r0, #52]	@ zero_extendqisi2
 799              	.LVL76:
 417:Drivers/STM32F7xx_HAL_Driver/Src/stm32f7xx_hal_dma.c **** 
 800              		.loc 1 417 3 is_stmt 0 view .LVU285
 801 0008 0128     		cmp	r0, #1
 802 000a 1BD0     		beq	.L55
 417:Drivers/STM32F7xx_HAL_Driver/Src/stm32f7xx_hal_dma.c **** 
 803              		.loc 1 417 3 is_stmt 1 discriminator 2 view .LVU286
 804 000c 0120     		movs	r0, #1
 805 000e 84F83400 		strb	r0, [r4, #52]
 417:Drivers/STM32F7xx_HAL_Driver/Src/stm32f7xx_hal_dma.c **** 
 806              		.loc 1 417 3 discriminator 2 view .LVU287
 419:Drivers/STM32F7xx_HAL_Driver/Src/stm32f7xx_hal_dma.c ****   {
 807              		.loc 1 419 3 discriminator 2 view .LVU288
 419:Drivers/STM32F7xx_HAL_Driver/Src/stm32f7xx_hal_dma.c ****   {
 808              		.loc 1 419 33 is_stmt 0 discriminator 2 view .LVU289
 809 0012 94F83500 		ldrb	r0, [r4, #53]	@ zero_extendqisi2
 810 0016 C0B2     		uxtb	r0, r0
 419:Drivers/STM32F7xx_HAL_Driver/Src/stm32f7xx_hal_dma.c ****   {
 811              		.loc 1 419 5 discriminator 2 view .LVU290
 812 0018 0128     		cmp	r0, #1
 813 001a 04D0     		beq	.L57
 436:Drivers/STM32F7xx_HAL_Driver/Src/stm32f7xx_hal_dma.c ****     
 814              		.loc 1 436 5 is_stmt 1 view .LVU291
 436:Drivers/STM32F7xx_HAL_Driver/Src/stm32f7xx_hal_dma.c ****     
 815              		.loc 1 436 5 view .LVU292
 816 001c 0023     		movs	r3, #0
 817              	.LVL77:
 436:Drivers/STM32F7xx_HAL_Driver/Src/stm32f7xx_hal_dma.c ****     
 818              		.loc 1 436 5 is_stmt 0 view .LVU293
ARM GAS  /tmp/cclJgRLT.s 			page 42


 819 001e 84F83430 		strb	r3, [r4, #52]
 436:Drivers/STM32F7xx_HAL_Driver/Src/stm32f7xx_hal_dma.c ****     
 820              		.loc 1 436 5 is_stmt 1 view .LVU294
 439:Drivers/STM32F7xx_HAL_Driver/Src/stm32f7xx_hal_dma.c ****   } 
 821              		.loc 1 439 5 view .LVU295
 822              	.LVL78:
 439:Drivers/STM32F7xx_HAL_Driver/Src/stm32f7xx_hal_dma.c ****   } 
 823              		.loc 1 439 12 is_stmt 0 view .LVU296
 824 0022 0220     		movs	r0, #2
 825              	.LVL79:
 826              	.L53:
 442:Drivers/STM32F7xx_HAL_Driver/Src/stm32f7xx_hal_dma.c **** 
 827              		.loc 1 442 1 view .LVU297
 828 0024 38BD     		pop	{r3, r4, r5, pc}
 829              	.LVL80:
 830              	.L57:
 422:Drivers/STM32F7xx_HAL_Driver/Src/stm32f7xx_hal_dma.c ****     
 831              		.loc 1 422 5 is_stmt 1 view .LVU298
 422:Drivers/STM32F7xx_HAL_Driver/Src/stm32f7xx_hal_dma.c ****     
 832              		.loc 1 422 17 is_stmt 0 view .LVU299
 833 0026 0220     		movs	r0, #2
 834 0028 84F83500 		strb	r0, [r4, #53]
 425:Drivers/STM32F7xx_HAL_Driver/Src/stm32f7xx_hal_dma.c ****     
 835              		.loc 1 425 5 is_stmt 1 view .LVU300
 425:Drivers/STM32F7xx_HAL_Driver/Src/stm32f7xx_hal_dma.c ****     
 836              		.loc 1 425 21 is_stmt 0 view .LVU301
 837 002c 0025     		movs	r5, #0
 838 002e 6565     		str	r5, [r4, #84]
 428:Drivers/STM32F7xx_HAL_Driver/Src/stm32f7xx_hal_dma.c **** 
 839              		.loc 1 428 5 is_stmt 1 view .LVU302
 840 0030 2046     		mov	r0, r4
 841 0032 FFF7FEFF 		bl	DMA_SetConfig
 842              	.LVL81:
 431:Drivers/STM32F7xx_HAL_Driver/Src/stm32f7xx_hal_dma.c ****   }
 843              		.loc 1 431 5 view .LVU303
 844 0036 2268     		ldr	r2, [r4]
 845 0038 1368     		ldr	r3, [r2]
 846 003a 43F00103 		orr	r3, r3, #1
 847 003e 1360     		str	r3, [r2]
 411:Drivers/STM32F7xx_HAL_Driver/Src/stm32f7xx_hal_dma.c ****   
 848              		.loc 1 411 21 is_stmt 0 view .LVU304
 849 0040 2846     		mov	r0, r5
 850 0042 EFE7     		b	.L53
 851              	.LVL82:
 852              	.L55:
 417:Drivers/STM32F7xx_HAL_Driver/Src/stm32f7xx_hal_dma.c **** 
 853              		.loc 1 417 3 view .LVU305
 854 0044 0220     		movs	r0, #2
 855 0046 EDE7     		b	.L53
 856              		.cfi_endproc
 857              	.LFE143:
 859              		.section	.text.HAL_DMA_Start_IT,"ax",%progbits
 860              		.align	1
 861              		.global	HAL_DMA_Start_IT
 862              		.syntax unified
 863              		.thumb
 864              		.thumb_func
ARM GAS  /tmp/cclJgRLT.s 			page 43


 866              	HAL_DMA_Start_IT:
 867              	.LVL83:
 868              	.LFB144:
 454:Drivers/STM32F7xx_HAL_Driver/Src/stm32f7xx_hal_dma.c ****   HAL_StatusTypeDef status = HAL_OK;
 869              		.loc 1 454 1 is_stmt 1 view -0
 870              		.cfi_startproc
 871              		@ args = 0, pretend = 0, frame = 0
 872              		@ frame_needed = 0, uses_anonymous_args = 0
 454:Drivers/STM32F7xx_HAL_Driver/Src/stm32f7xx_hal_dma.c ****   HAL_StatusTypeDef status = HAL_OK;
 873              		.loc 1 454 1 is_stmt 0 view .LVU307
 874 0000 38B5     		push	{r3, r4, r5, lr}
 875              	.LCFI10:
 876              		.cfi_def_cfa_offset 16
 877              		.cfi_offset 3, -16
 878              		.cfi_offset 4, -12
 879              		.cfi_offset 5, -8
 880              		.cfi_offset 14, -4
 881 0002 0446     		mov	r4, r0
 455:Drivers/STM32F7xx_HAL_Driver/Src/stm32f7xx_hal_dma.c **** 
 882              		.loc 1 455 3 is_stmt 1 view .LVU308
 883              	.LVL84:
 458:Drivers/STM32F7xx_HAL_Driver/Src/stm32f7xx_hal_dma.c ****   
 884              		.loc 1 458 3 view .LVU309
 458:Drivers/STM32F7xx_HAL_Driver/Src/stm32f7xx_hal_dma.c ****   
 885              		.loc 1 458 56 is_stmt 0 view .LVU310
 886 0004 856D     		ldr	r5, [r0, #88]
 887              	.LVL85:
 461:Drivers/STM32F7xx_HAL_Driver/Src/stm32f7xx_hal_dma.c ****  
 888              		.loc 1 461 3 is_stmt 1 view .LVU311
 464:Drivers/STM32F7xx_HAL_Driver/Src/stm32f7xx_hal_dma.c ****   
 889              		.loc 1 464 3 view .LVU312
 464:Drivers/STM32F7xx_HAL_Driver/Src/stm32f7xx_hal_dma.c ****   
 890              		.loc 1 464 3 view .LVU313
 891 0006 90F83400 		ldrb	r0, [r0, #52]	@ zero_extendqisi2
 892              	.LVL86:
 464:Drivers/STM32F7xx_HAL_Driver/Src/stm32f7xx_hal_dma.c ****   
 893              		.loc 1 464 3 is_stmt 0 view .LVU314
 894 000a 0128     		cmp	r0, #1
 895 000c 30D0     		beq	.L62
 464:Drivers/STM32F7xx_HAL_Driver/Src/stm32f7xx_hal_dma.c ****   
 896              		.loc 1 464 3 is_stmt 1 discriminator 2 view .LVU315
 897 000e 0120     		movs	r0, #1
 898 0010 84F83400 		strb	r0, [r4, #52]
 464:Drivers/STM32F7xx_HAL_Driver/Src/stm32f7xx_hal_dma.c ****   
 899              		.loc 1 464 3 discriminator 2 view .LVU316
 466:Drivers/STM32F7xx_HAL_Driver/Src/stm32f7xx_hal_dma.c ****   {
 900              		.loc 1 466 3 discriminator 2 view .LVU317
 466:Drivers/STM32F7xx_HAL_Driver/Src/stm32f7xx_hal_dma.c ****   {
 901              		.loc 1 466 33 is_stmt 0 discriminator 2 view .LVU318
 902 0014 94F83500 		ldrb	r0, [r4, #53]	@ zero_extendqisi2
 903 0018 C0B2     		uxtb	r0, r0
 466:Drivers/STM32F7xx_HAL_Driver/Src/stm32f7xx_hal_dma.c ****   {
 904              		.loc 1 466 5 discriminator 2 view .LVU319
 905 001a 0128     		cmp	r0, #1
 906 001c 04D0     		beq	.L64
 495:Drivers/STM32F7xx_HAL_Driver/Src/stm32f7xx_hal_dma.c ****     
 907              		.loc 1 495 5 is_stmt 1 view .LVU320
ARM GAS  /tmp/cclJgRLT.s 			page 44


 495:Drivers/STM32F7xx_HAL_Driver/Src/stm32f7xx_hal_dma.c ****     
 908              		.loc 1 495 5 view .LVU321
 909 001e 0023     		movs	r3, #0
 910              	.LVL87:
 495:Drivers/STM32F7xx_HAL_Driver/Src/stm32f7xx_hal_dma.c ****     
 911              		.loc 1 495 5 is_stmt 0 view .LVU322
 912 0020 84F83430 		strb	r3, [r4, #52]
 495:Drivers/STM32F7xx_HAL_Driver/Src/stm32f7xx_hal_dma.c ****     
 913              		.loc 1 495 5 is_stmt 1 view .LVU323
 498:Drivers/STM32F7xx_HAL_Driver/Src/stm32f7xx_hal_dma.c ****   }
 914              		.loc 1 498 5 view .LVU324
 915              	.LVL88:
 498:Drivers/STM32F7xx_HAL_Driver/Src/stm32f7xx_hal_dma.c ****   }
 916              		.loc 1 498 12 is_stmt 0 view .LVU325
 917 0024 0220     		movs	r0, #2
 918              	.LVL89:
 919              	.L59:
 502:Drivers/STM32F7xx_HAL_Driver/Src/stm32f7xx_hal_dma.c **** 
 920              		.loc 1 502 1 view .LVU326
 921 0026 38BD     		pop	{r3, r4, r5, pc}
 922              	.LVL90:
 923              	.L64:
 469:Drivers/STM32F7xx_HAL_Driver/Src/stm32f7xx_hal_dma.c ****     
 924              		.loc 1 469 5 is_stmt 1 view .LVU327
 469:Drivers/STM32F7xx_HAL_Driver/Src/stm32f7xx_hal_dma.c ****     
 925              		.loc 1 469 17 is_stmt 0 view .LVU328
 926 0028 0220     		movs	r0, #2
 927 002a 84F83500 		strb	r0, [r4, #53]
 472:Drivers/STM32F7xx_HAL_Driver/Src/stm32f7xx_hal_dma.c ****     
 928              		.loc 1 472 5 is_stmt 1 view .LVU329
 472:Drivers/STM32F7xx_HAL_Driver/Src/stm32f7xx_hal_dma.c ****     
 929              		.loc 1 472 21 is_stmt 0 view .LVU330
 930 002e 0020     		movs	r0, #0
 931 0030 6065     		str	r0, [r4, #84]
 475:Drivers/STM32F7xx_HAL_Driver/Src/stm32f7xx_hal_dma.c ****     
 932              		.loc 1 475 5 is_stmt 1 view .LVU331
 933 0032 2046     		mov	r0, r4
 934 0034 FFF7FEFF 		bl	DMA_SetConfig
 935              	.LVL91:
 478:Drivers/STM32F7xx_HAL_Driver/Src/stm32f7xx_hal_dma.c ****     
 936              		.loc 1 478 5 view .LVU332
 478:Drivers/STM32F7xx_HAL_Driver/Src/stm32f7xx_hal_dma.c ****     
 937              		.loc 1 478 31 is_stmt 0 view .LVU333
 938 0038 E26D     		ldr	r2, [r4, #92]
 478:Drivers/STM32F7xx_HAL_Driver/Src/stm32f7xx_hal_dma.c ****     
 939              		.loc 1 478 24 view .LVU334
 940 003a 3F23     		movs	r3, #63
 941 003c 9340     		lsls	r3, r3, r2
 478:Drivers/STM32F7xx_HAL_Driver/Src/stm32f7xx_hal_dma.c ****     
 942              		.loc 1 478 16 view .LVU335
 943 003e AB60     		str	r3, [r5, #8]
 481:Drivers/STM32F7xx_HAL_Driver/Src/stm32f7xx_hal_dma.c ****     hdma->Instance->FCR |= DMA_IT_FE;
 944              		.loc 1 481 5 is_stmt 1 view .LVU336
 481:Drivers/STM32F7xx_HAL_Driver/Src/stm32f7xx_hal_dma.c ****     hdma->Instance->FCR |= DMA_IT_FE;
 945              		.loc 1 481 9 is_stmt 0 view .LVU337
 946 0040 2268     		ldr	r2, [r4]
 481:Drivers/STM32F7xx_HAL_Driver/Src/stm32f7xx_hal_dma.c ****     hdma->Instance->FCR |= DMA_IT_FE;
ARM GAS  /tmp/cclJgRLT.s 			page 45


 947              		.loc 1 481 25 view .LVU338
 948 0042 1368     		ldr	r3, [r2]
 949 0044 43F01603 		orr	r3, r3, #22
 950 0048 1360     		str	r3, [r2]
 482:Drivers/STM32F7xx_HAL_Driver/Src/stm32f7xx_hal_dma.c ****     
 951              		.loc 1 482 5 is_stmt 1 view .LVU339
 482:Drivers/STM32F7xx_HAL_Driver/Src/stm32f7xx_hal_dma.c ****     
 952              		.loc 1 482 9 is_stmt 0 view .LVU340
 953 004a 2268     		ldr	r2, [r4]
 482:Drivers/STM32F7xx_HAL_Driver/Src/stm32f7xx_hal_dma.c ****     
 954              		.loc 1 482 25 view .LVU341
 955 004c 5369     		ldr	r3, [r2, #20]
 956 004e 43F08003 		orr	r3, r3, #128
 957 0052 5361     		str	r3, [r2, #20]
 484:Drivers/STM32F7xx_HAL_Driver/Src/stm32f7xx_hal_dma.c ****     {
 958              		.loc 1 484 5 is_stmt 1 view .LVU342
 484:Drivers/STM32F7xx_HAL_Driver/Src/stm32f7xx_hal_dma.c ****     {
 959              		.loc 1 484 12 is_stmt 0 view .LVU343
 960 0054 236C     		ldr	r3, [r4, #64]
 484:Drivers/STM32F7xx_HAL_Driver/Src/stm32f7xx_hal_dma.c ****     {
 961              		.loc 1 484 7 view .LVU344
 962 0056 23B1     		cbz	r3, .L61
 486:Drivers/STM32F7xx_HAL_Driver/Src/stm32f7xx_hal_dma.c ****     }
 963              		.loc 1 486 7 is_stmt 1 view .LVU345
 486:Drivers/STM32F7xx_HAL_Driver/Src/stm32f7xx_hal_dma.c ****     }
 964              		.loc 1 486 11 is_stmt 0 view .LVU346
 965 0058 2268     		ldr	r2, [r4]
 486:Drivers/STM32F7xx_HAL_Driver/Src/stm32f7xx_hal_dma.c ****     }
 966              		.loc 1 486 27 view .LVU347
 967 005a 1368     		ldr	r3, [r2]
 968 005c 43F00803 		orr	r3, r3, #8
 969 0060 1360     		str	r3, [r2]
 970              	.L61:
 490:Drivers/STM32F7xx_HAL_Driver/Src/stm32f7xx_hal_dma.c ****   }
 971              		.loc 1 490 5 is_stmt 1 view .LVU348
 972 0062 2268     		ldr	r2, [r4]
 973 0064 1368     		ldr	r3, [r2]
 974 0066 43F00103 		orr	r3, r3, #1
 975 006a 1360     		str	r3, [r2]
 455:Drivers/STM32F7xx_HAL_Driver/Src/stm32f7xx_hal_dma.c **** 
 976              		.loc 1 455 21 is_stmt 0 view .LVU349
 977 006c 0020     		movs	r0, #0
 978 006e DAE7     		b	.L59
 979              	.LVL92:
 980              	.L62:
 464:Drivers/STM32F7xx_HAL_Driver/Src/stm32f7xx_hal_dma.c ****   
 981              		.loc 1 464 3 view .LVU350
 982 0070 0220     		movs	r0, #2
 983 0072 D8E7     		b	.L59
 984              		.cfi_endproc
 985              	.LFE144:
 987              		.section	.text.HAL_DMA_Abort,"ax",%progbits
 988              		.align	1
 989              		.global	HAL_DMA_Abort
 990              		.syntax unified
 991              		.thumb
 992              		.thumb_func
ARM GAS  /tmp/cclJgRLT.s 			page 46


 994              	HAL_DMA_Abort:
 995              	.LVL93:
 996              	.LFB145:
 517:Drivers/STM32F7xx_HAL_Driver/Src/stm32f7xx_hal_dma.c ****   /* calculate DMA base and stream number */
 997              		.loc 1 517 1 is_stmt 1 view -0
 998              		.cfi_startproc
 999              		@ args = 0, pretend = 0, frame = 0
 1000              		@ frame_needed = 0, uses_anonymous_args = 0
 517:Drivers/STM32F7xx_HAL_Driver/Src/stm32f7xx_hal_dma.c ****   /* calculate DMA base and stream number */
 1001              		.loc 1 517 1 is_stmt 0 view .LVU352
 1002 0000 70B5     		push	{r4, r5, r6, lr}
 1003              	.LCFI11:
 1004              		.cfi_def_cfa_offset 16
 1005              		.cfi_offset 4, -16
 1006              		.cfi_offset 5, -12
 1007              		.cfi_offset 6, -8
 1008              		.cfi_offset 14, -4
 1009 0002 0446     		mov	r4, r0
 519:Drivers/STM32F7xx_HAL_Driver/Src/stm32f7xx_hal_dma.c ****   
 1010              		.loc 1 519 3 is_stmt 1 view .LVU353
 519:Drivers/STM32F7xx_HAL_Driver/Src/stm32f7xx_hal_dma.c ****   
 1011              		.loc 1 519 56 is_stmt 0 view .LVU354
 1012 0004 866D     		ldr	r6, [r0, #88]
 1013              	.LVL94:
 521:Drivers/STM32F7xx_HAL_Driver/Src/stm32f7xx_hal_dma.c ****   
 1014              		.loc 1 521 3 is_stmt 1 view .LVU355
 521:Drivers/STM32F7xx_HAL_Driver/Src/stm32f7xx_hal_dma.c ****   
 1015              		.loc 1 521 24 is_stmt 0 view .LVU356
 1016 0006 FFF7FEFF 		bl	HAL_GetTick
 1017              	.LVL95:
 523:Drivers/STM32F7xx_HAL_Driver/Src/stm32f7xx_hal_dma.c ****   {
 1018              		.loc 1 523 3 is_stmt 1 view .LVU357
 523:Drivers/STM32F7xx_HAL_Driver/Src/stm32f7xx_hal_dma.c ****   {
 1019              		.loc 1 523 10 is_stmt 0 view .LVU358
 1020 000a 94F83530 		ldrb	r3, [r4, #53]	@ zero_extendqisi2
 1021 000e DBB2     		uxtb	r3, r3
 523:Drivers/STM32F7xx_HAL_Driver/Src/stm32f7xx_hal_dma.c ****   {
 1022              		.loc 1 523 5 view .LVU359
 1023 0010 022B     		cmp	r3, #2
 1024 0012 06D0     		beq	.L66
 525:Drivers/STM32F7xx_HAL_Driver/Src/stm32f7xx_hal_dma.c ****     
 1025              		.loc 1 525 5 is_stmt 1 view .LVU360
 525:Drivers/STM32F7xx_HAL_Driver/Src/stm32f7xx_hal_dma.c ****     
 1026              		.loc 1 525 21 is_stmt 0 view .LVU361
 1027 0014 8023     		movs	r3, #128
 1028 0016 6365     		str	r3, [r4, #84]
 528:Drivers/STM32F7xx_HAL_Driver/Src/stm32f7xx_hal_dma.c ****     
 1029              		.loc 1 528 5 is_stmt 1 view .LVU362
 528:Drivers/STM32F7xx_HAL_Driver/Src/stm32f7xx_hal_dma.c ****     
 1030              		.loc 1 528 5 view .LVU363
 1031 0018 0023     		movs	r3, #0
 1032 001a 84F83430 		strb	r3, [r4, #52]
 528:Drivers/STM32F7xx_HAL_Driver/Src/stm32f7xx_hal_dma.c ****     
 1033              		.loc 1 528 5 view .LVU364
 530:Drivers/STM32F7xx_HAL_Driver/Src/stm32f7xx_hal_dma.c ****   }
 1034              		.loc 1 530 5 view .LVU365
 530:Drivers/STM32F7xx_HAL_Driver/Src/stm32f7xx_hal_dma.c ****   }
ARM GAS  /tmp/cclJgRLT.s 			page 47


 1035              		.loc 1 530 12 is_stmt 0 view .LVU366
 1036 001e 0120     		movs	r0, #1
 1037              	.LVL96:
 1038              	.L67:
 576:Drivers/STM32F7xx_HAL_Driver/Src/stm32f7xx_hal_dma.c **** 
 1039              		.loc 1 576 1 view .LVU367
 1040 0020 70BD     		pop	{r4, r5, r6, pc}
 1041              	.LVL97:
 1042              	.L66:
 576:Drivers/STM32F7xx_HAL_Driver/Src/stm32f7xx_hal_dma.c **** 
 1043              		.loc 1 576 1 view .LVU368
 1044 0022 0546     		mov	r5, r0
 535:Drivers/STM32F7xx_HAL_Driver/Src/stm32f7xx_hal_dma.c ****     hdma->Instance->FCR &= ~(DMA_IT_FE);
 1045              		.loc 1 535 5 is_stmt 1 view .LVU369
 535:Drivers/STM32F7xx_HAL_Driver/Src/stm32f7xx_hal_dma.c ****     hdma->Instance->FCR &= ~(DMA_IT_FE);
 1046              		.loc 1 535 9 is_stmt 0 view .LVU370
 1047 0024 2268     		ldr	r2, [r4]
 535:Drivers/STM32F7xx_HAL_Driver/Src/stm32f7xx_hal_dma.c ****     hdma->Instance->FCR &= ~(DMA_IT_FE);
 1048              		.loc 1 535 25 view .LVU371
 1049 0026 1368     		ldr	r3, [r2]
 1050 0028 23F01603 		bic	r3, r3, #22
 1051 002c 1360     		str	r3, [r2]
 536:Drivers/STM32F7xx_HAL_Driver/Src/stm32f7xx_hal_dma.c ****     
 1052              		.loc 1 536 5 is_stmt 1 view .LVU372
 536:Drivers/STM32F7xx_HAL_Driver/Src/stm32f7xx_hal_dma.c ****     
 1053              		.loc 1 536 9 is_stmt 0 view .LVU373
 1054 002e 2268     		ldr	r2, [r4]
 536:Drivers/STM32F7xx_HAL_Driver/Src/stm32f7xx_hal_dma.c ****     
 1055              		.loc 1 536 25 view .LVU374
 1056 0030 5369     		ldr	r3, [r2, #20]
 1057 0032 23F08003 		bic	r3, r3, #128
 1058 0036 5361     		str	r3, [r2, #20]
 538:Drivers/STM32F7xx_HAL_Driver/Src/stm32f7xx_hal_dma.c ****     {
 1059              		.loc 1 538 5 is_stmt 1 view .LVU375
 538:Drivers/STM32F7xx_HAL_Driver/Src/stm32f7xx_hal_dma.c ****     {
 1060              		.loc 1 538 13 is_stmt 0 view .LVU376
 1061 0038 236C     		ldr	r3, [r4, #64]
 538:Drivers/STM32F7xx_HAL_Driver/Src/stm32f7xx_hal_dma.c ****     {
 1062              		.loc 1 538 7 view .LVU377
 1063 003a E3B1     		cbz	r3, .L73
 1064              	.L68:
 540:Drivers/STM32F7xx_HAL_Driver/Src/stm32f7xx_hal_dma.c ****     }
 1065              		.loc 1 540 7 is_stmt 1 view .LVU378
 540:Drivers/STM32F7xx_HAL_Driver/Src/stm32f7xx_hal_dma.c ****     }
 1066              		.loc 1 540 11 is_stmt 0 view .LVU379
 1067 003c 2268     		ldr	r2, [r4]
 540:Drivers/STM32F7xx_HAL_Driver/Src/stm32f7xx_hal_dma.c ****     }
 1068              		.loc 1 540 27 view .LVU380
 1069 003e 1368     		ldr	r3, [r2]
 1070 0040 23F00803 		bic	r3, r3, #8
 1071 0044 1360     		str	r3, [r2]
 1072              	.L69:
 544:Drivers/STM32F7xx_HAL_Driver/Src/stm32f7xx_hal_dma.c ****     
 1073              		.loc 1 544 5 is_stmt 1 view .LVU381
 1074 0046 2268     		ldr	r2, [r4]
 1075 0048 1368     		ldr	r3, [r2]
 1076 004a 23F00103 		bic	r3, r3, #1
ARM GAS  /tmp/cclJgRLT.s 			page 48


 1077 004e 1360     		str	r3, [r2]
 547:Drivers/STM32F7xx_HAL_Driver/Src/stm32f7xx_hal_dma.c ****     {
 1078              		.loc 1 547 5 view .LVU382
 1079              	.LVL98:
 1080              	.L70:
 547:Drivers/STM32F7xx_HAL_Driver/Src/stm32f7xx_hal_dma.c ****     {
 1081              		.loc 1 547 10 view .LVU383
 547:Drivers/STM32F7xx_HAL_Driver/Src/stm32f7xx_hal_dma.c ****     {
 1082              		.loc 1 547 16 is_stmt 0 view .LVU384
 1083 0050 2368     		ldr	r3, [r4]
 547:Drivers/STM32F7xx_HAL_Driver/Src/stm32f7xx_hal_dma.c ****     {
 1084              		.loc 1 547 26 view .LVU385
 1085 0052 1B68     		ldr	r3, [r3]
 547:Drivers/STM32F7xx_HAL_Driver/Src/stm32f7xx_hal_dma.c ****     {
 1086              		.loc 1 547 10 view .LVU386
 1087 0054 13F0010F 		tst	r3, #1
 1088 0058 11D0     		beq	.L74
 550:Drivers/STM32F7xx_HAL_Driver/Src/stm32f7xx_hal_dma.c ****       {
 1089              		.loc 1 550 7 is_stmt 1 view .LVU387
 550:Drivers/STM32F7xx_HAL_Driver/Src/stm32f7xx_hal_dma.c ****       {
 1090              		.loc 1 550 11 is_stmt 0 view .LVU388
 1091 005a FFF7FEFF 		bl	HAL_GetTick
 1092              	.LVL99:
 550:Drivers/STM32F7xx_HAL_Driver/Src/stm32f7xx_hal_dma.c ****       {
 1093              		.loc 1 550 25 view .LVU389
 1094 005e 431B     		subs	r3, r0, r5
 550:Drivers/STM32F7xx_HAL_Driver/Src/stm32f7xx_hal_dma.c ****       {
 1095              		.loc 1 550 9 view .LVU390
 1096 0060 052B     		cmp	r3, #5
 1097 0062 F5D9     		bls	.L70
 553:Drivers/STM32F7xx_HAL_Driver/Src/stm32f7xx_hal_dma.c ****         
 1098              		.loc 1 553 9 is_stmt 1 view .LVU391
 553:Drivers/STM32F7xx_HAL_Driver/Src/stm32f7xx_hal_dma.c ****         
 1099              		.loc 1 553 25 is_stmt 0 view .LVU392
 1100 0064 2023     		movs	r3, #32
 1101 0066 6365     		str	r3, [r4, #84]
 556:Drivers/STM32F7xx_HAL_Driver/Src/stm32f7xx_hal_dma.c ****         
 1102              		.loc 1 556 9 is_stmt 1 view .LVU393
 556:Drivers/STM32F7xx_HAL_Driver/Src/stm32f7xx_hal_dma.c ****         
 1103              		.loc 1 556 21 is_stmt 0 view .LVU394
 1104 0068 0320     		movs	r0, #3
 1105 006a 84F83500 		strb	r0, [r4, #53]
 559:Drivers/STM32F7xx_HAL_Driver/Src/stm32f7xx_hal_dma.c **** 
 1106              		.loc 1 559 9 is_stmt 1 view .LVU395
 559:Drivers/STM32F7xx_HAL_Driver/Src/stm32f7xx_hal_dma.c **** 
 1107              		.loc 1 559 9 view .LVU396
 1108 006e 0023     		movs	r3, #0
 1109 0070 84F83430 		strb	r3, [r4, #52]
 559:Drivers/STM32F7xx_HAL_Driver/Src/stm32f7xx_hal_dma.c **** 
 1110              		.loc 1 559 9 view .LVU397
 561:Drivers/STM32F7xx_HAL_Driver/Src/stm32f7xx_hal_dma.c ****       }
 1111              		.loc 1 561 9 view .LVU398
 561:Drivers/STM32F7xx_HAL_Driver/Src/stm32f7xx_hal_dma.c ****       }
 1112              		.loc 1 561 16 is_stmt 0 view .LVU399
 1113 0074 D4E7     		b	.L67
 1114              	.LVL100:
 1115              	.L73:
ARM GAS  /tmp/cclJgRLT.s 			page 49


 538:Drivers/STM32F7xx_HAL_Driver/Src/stm32f7xx_hal_dma.c ****     {
 1116              		.loc 1 538 53 discriminator 1 view .LVU400
 1117 0076 A36C     		ldr	r3, [r4, #72]
 538:Drivers/STM32F7xx_HAL_Driver/Src/stm32f7xx_hal_dma.c ****     {
 1118              		.loc 1 538 45 discriminator 1 view .LVU401
 1119 0078 002B     		cmp	r3, #0
 1120 007a DFD1     		bne	.L68
 1121 007c E3E7     		b	.L69
 1122              	.LVL101:
 1123              	.L74:
 566:Drivers/STM32F7xx_HAL_Driver/Src/stm32f7xx_hal_dma.c ****     
 1124              		.loc 1 566 5 is_stmt 1 view .LVU402
 566:Drivers/STM32F7xx_HAL_Driver/Src/stm32f7xx_hal_dma.c ****     
 1125              		.loc 1 566 31 is_stmt 0 view .LVU403
 1126 007e E26D     		ldr	r2, [r4, #92]
 566:Drivers/STM32F7xx_HAL_Driver/Src/stm32f7xx_hal_dma.c ****     
 1127              		.loc 1 566 24 view .LVU404
 1128 0080 3F23     		movs	r3, #63
 1129 0082 9340     		lsls	r3, r3, r2
 566:Drivers/STM32F7xx_HAL_Driver/Src/stm32f7xx_hal_dma.c ****     
 1130              		.loc 1 566 16 view .LVU405
 1131 0084 B360     		str	r3, [r6, #8]
 569:Drivers/STM32F7xx_HAL_Driver/Src/stm32f7xx_hal_dma.c ****     
 1132              		.loc 1 569 5 is_stmt 1 view .LVU406
 569:Drivers/STM32F7xx_HAL_Driver/Src/stm32f7xx_hal_dma.c ****     
 1133              		.loc 1 569 17 is_stmt 0 view .LVU407
 1134 0086 0123     		movs	r3, #1
 1135 0088 84F83530 		strb	r3, [r4, #53]
 572:Drivers/STM32F7xx_HAL_Driver/Src/stm32f7xx_hal_dma.c ****     
 1136              		.loc 1 572 5 is_stmt 1 view .LVU408
 572:Drivers/STM32F7xx_HAL_Driver/Src/stm32f7xx_hal_dma.c ****     
 1137              		.loc 1 572 5 view .LVU409
 1138 008c 0020     		movs	r0, #0
 1139 008e 84F83400 		strb	r0, [r4, #52]
 572:Drivers/STM32F7xx_HAL_Driver/Src/stm32f7xx_hal_dma.c ****     
 1140              		.loc 1 572 5 view .LVU410
 575:Drivers/STM32F7xx_HAL_Driver/Src/stm32f7xx_hal_dma.c **** }
 1141              		.loc 1 575 3 view .LVU411
 575:Drivers/STM32F7xx_HAL_Driver/Src/stm32f7xx_hal_dma.c **** }
 1142              		.loc 1 575 10 is_stmt 0 view .LVU412
 1143 0092 C5E7     		b	.L67
 1144              		.cfi_endproc
 1145              	.LFE145:
 1147              		.section	.text.HAL_DMA_Abort_IT,"ax",%progbits
 1148              		.align	1
 1149              		.global	HAL_DMA_Abort_IT
 1150              		.syntax unified
 1151              		.thumb
 1152              		.thumb_func
 1154              	HAL_DMA_Abort_IT:
 1155              	.LVL102:
 1156              	.LFB146:
 585:Drivers/STM32F7xx_HAL_Driver/Src/stm32f7xx_hal_dma.c ****   if(hdma->State != HAL_DMA_STATE_BUSY)
 1157              		.loc 1 585 1 is_stmt 1 view -0
 1158              		.cfi_startproc
 1159              		@ args = 0, pretend = 0, frame = 0
 1160              		@ frame_needed = 0, uses_anonymous_args = 0
ARM GAS  /tmp/cclJgRLT.s 			page 50


 1161              		@ link register save eliminated.
 586:Drivers/STM32F7xx_HAL_Driver/Src/stm32f7xx_hal_dma.c ****   {
 1162              		.loc 1 586 3 view .LVU414
 586:Drivers/STM32F7xx_HAL_Driver/Src/stm32f7xx_hal_dma.c ****   {
 1163              		.loc 1 586 10 is_stmt 0 view .LVU415
 1164 0000 90F83530 		ldrb	r3, [r0, #53]	@ zero_extendqisi2
 1165 0004 DBB2     		uxtb	r3, r3
 586:Drivers/STM32F7xx_HAL_Driver/Src/stm32f7xx_hal_dma.c ****   {
 1166              		.loc 1 586 5 view .LVU416
 1167 0006 022B     		cmp	r3, #2
 1168 0008 03D0     		beq	.L76
 588:Drivers/STM32F7xx_HAL_Driver/Src/stm32f7xx_hal_dma.c ****     return HAL_ERROR;
 1169              		.loc 1 588 5 is_stmt 1 view .LVU417
 588:Drivers/STM32F7xx_HAL_Driver/Src/stm32f7xx_hal_dma.c ****     return HAL_ERROR;
 1170              		.loc 1 588 21 is_stmt 0 view .LVU418
 1171 000a 8023     		movs	r3, #128
 1172 000c 4365     		str	r3, [r0, #84]
 589:Drivers/STM32F7xx_HAL_Driver/Src/stm32f7xx_hal_dma.c ****   }
 1173              		.loc 1 589 5 is_stmt 1 view .LVU419
 589:Drivers/STM32F7xx_HAL_Driver/Src/stm32f7xx_hal_dma.c ****   }
 1174              		.loc 1 589 12 is_stmt 0 view .LVU420
 1175 000e 0120     		movs	r0, #1
 1176              	.LVL103:
 589:Drivers/STM32F7xx_HAL_Driver/Src/stm32f7xx_hal_dma.c ****   }
 1177              		.loc 1 589 12 view .LVU421
 1178 0010 7047     		bx	lr
 1179              	.LVL104:
 1180              	.L76:
 594:Drivers/STM32F7xx_HAL_Driver/Src/stm32f7xx_hal_dma.c ****     
 1181              		.loc 1 594 5 is_stmt 1 view .LVU422
 594:Drivers/STM32F7xx_HAL_Driver/Src/stm32f7xx_hal_dma.c ****     
 1182              		.loc 1 594 17 is_stmt 0 view .LVU423
 1183 0012 0523     		movs	r3, #5
 1184 0014 80F83530 		strb	r3, [r0, #53]
 597:Drivers/STM32F7xx_HAL_Driver/Src/stm32f7xx_hal_dma.c ****   }
 1185              		.loc 1 597 5 is_stmt 1 view .LVU424
 1186 0018 0268     		ldr	r2, [r0]
 1187 001a 1368     		ldr	r3, [r2]
 1188 001c 23F00103 		bic	r3, r3, #1
 1189 0020 1360     		str	r3, [r2]
 600:Drivers/STM32F7xx_HAL_Driver/Src/stm32f7xx_hal_dma.c **** }
 1190              		.loc 1 600 3 view .LVU425
 600:Drivers/STM32F7xx_HAL_Driver/Src/stm32f7xx_hal_dma.c **** }
 1191              		.loc 1 600 10 is_stmt 0 view .LVU426
 1192 0022 0020     		movs	r0, #0
 1193              	.LVL105:
 601:Drivers/STM32F7xx_HAL_Driver/Src/stm32f7xx_hal_dma.c **** 
 1194              		.loc 1 601 1 view .LVU427
 1195 0024 7047     		bx	lr
 1196              		.cfi_endproc
 1197              	.LFE146:
 1199              		.section	.text.HAL_DMA_PollForTransfer,"ax",%progbits
 1200              		.align	1
 1201              		.global	HAL_DMA_PollForTransfer
 1202              		.syntax unified
 1203              		.thumb
 1204              		.thumb_func
ARM GAS  /tmp/cclJgRLT.s 			page 51


 1206              	HAL_DMA_PollForTransfer:
 1207              	.LVL106:
 1208              	.LFB147:
 615:Drivers/STM32F7xx_HAL_Driver/Src/stm32f7xx_hal_dma.c ****   HAL_StatusTypeDef status = HAL_OK; 
 1209              		.loc 1 615 1 is_stmt 1 view -0
 1210              		.cfi_startproc
 1211              		@ args = 0, pretend = 0, frame = 0
 1212              		@ frame_needed = 0, uses_anonymous_args = 0
 615:Drivers/STM32F7xx_HAL_Driver/Src/stm32f7xx_hal_dma.c ****   HAL_StatusTypeDef status = HAL_OK; 
 1213              		.loc 1 615 1 is_stmt 0 view .LVU429
 1214 0000 2DE9F047 		push	{r4, r5, r6, r7, r8, r9, r10, lr}
 1215              	.LCFI12:
 1216              		.cfi_def_cfa_offset 32
 1217              		.cfi_offset 4, -32
 1218              		.cfi_offset 5, -28
 1219              		.cfi_offset 6, -24
 1220              		.cfi_offset 7, -20
 1221              		.cfi_offset 8, -16
 1222              		.cfi_offset 9, -12
 1223              		.cfi_offset 10, -8
 1224              		.cfi_offset 14, -4
 1225 0004 0446     		mov	r4, r0
 1226 0006 8846     		mov	r8, r1
 1227 0008 1646     		mov	r6, r2
 616:Drivers/STM32F7xx_HAL_Driver/Src/stm32f7xx_hal_dma.c ****   uint32_t mask_cpltlevel;
 1228              		.loc 1 616 3 is_stmt 1 view .LVU430
 1229              	.LVL107:
 617:Drivers/STM32F7xx_HAL_Driver/Src/stm32f7xx_hal_dma.c ****   uint32_t tickstart = HAL_GetTick(); 
 1230              		.loc 1 617 3 view .LVU431
 618:Drivers/STM32F7xx_HAL_Driver/Src/stm32f7xx_hal_dma.c ****   uint32_t tmpisr;
 1231              		.loc 1 618 3 view .LVU432
 618:Drivers/STM32F7xx_HAL_Driver/Src/stm32f7xx_hal_dma.c ****   uint32_t tmpisr;
 1232              		.loc 1 618 24 is_stmt 0 view .LVU433
 1233 000a FFF7FEFF 		bl	HAL_GetTick
 1234              	.LVL108:
 619:Drivers/STM32F7xx_HAL_Driver/Src/stm32f7xx_hal_dma.c ****   
 1235              		.loc 1 619 3 is_stmt 1 view .LVU434
 622:Drivers/STM32F7xx_HAL_Driver/Src/stm32f7xx_hal_dma.c **** 
 1236              		.loc 1 622 3 view .LVU435
 624:Drivers/STM32F7xx_HAL_Driver/Src/stm32f7xx_hal_dma.c ****   {
 1237              		.loc 1 624 3 view .LVU436
 624:Drivers/STM32F7xx_HAL_Driver/Src/stm32f7xx_hal_dma.c ****   {
 1238              		.loc 1 624 32 is_stmt 0 view .LVU437
 1239 000e 94F83530 		ldrb	r3, [r4, #53]	@ zero_extendqisi2
 1240 0012 DBB2     		uxtb	r3, r3
 624:Drivers/STM32F7xx_HAL_Driver/Src/stm32f7xx_hal_dma.c ****   {
 1241              		.loc 1 624 5 view .LVU438
 1242 0014 022B     		cmp	r3, #2
 1243 0016 07D0     		beq	.L79
 627:Drivers/STM32F7xx_HAL_Driver/Src/stm32f7xx_hal_dma.c ****     __HAL_UNLOCK(hdma);
 1244              		.loc 1 627 5 is_stmt 1 view .LVU439
 627:Drivers/STM32F7xx_HAL_Driver/Src/stm32f7xx_hal_dma.c ****     __HAL_UNLOCK(hdma);
 1245              		.loc 1 627 21 is_stmt 0 view .LVU440
 1246 0018 8023     		movs	r3, #128
 1247 001a 6365     		str	r3, [r4, #84]
 628:Drivers/STM32F7xx_HAL_Driver/Src/stm32f7xx_hal_dma.c ****     return HAL_ERROR;
 1248              		.loc 1 628 5 is_stmt 1 view .LVU441
ARM GAS  /tmp/cclJgRLT.s 			page 52


 628:Drivers/STM32F7xx_HAL_Driver/Src/stm32f7xx_hal_dma.c ****     return HAL_ERROR;
 1249              		.loc 1 628 5 view .LVU442
 1250 001c 0023     		movs	r3, #0
 1251 001e 84F83430 		strb	r3, [r4, #52]
 628:Drivers/STM32F7xx_HAL_Driver/Src/stm32f7xx_hal_dma.c ****     return HAL_ERROR;
 1252              		.loc 1 628 5 view .LVU443
 629:Drivers/STM32F7xx_HAL_Driver/Src/stm32f7xx_hal_dma.c ****   }
 1253              		.loc 1 629 5 view .LVU444
 629:Drivers/STM32F7xx_HAL_Driver/Src/stm32f7xx_hal_dma.c ****   }
 1254              		.loc 1 629 12 is_stmt 0 view .LVU445
 1255 0022 0120     		movs	r0, #1
 1256              	.LVL109:
 1257              	.L80:
 743:Drivers/STM32F7xx_HAL_Driver/Src/stm32f7xx_hal_dma.c **** 
 1258              		.loc 1 743 1 view .LVU446
 1259 0024 BDE8F087 		pop	{r4, r5, r6, r7, r8, r9, r10, pc}
 1260              	.LVL110:
 1261              	.L79:
 743:Drivers/STM32F7xx_HAL_Driver/Src/stm32f7xx_hal_dma.c **** 
 1262              		.loc 1 743 1 view .LVU447
 1263 0028 8146     		mov	r9, r0
 633:Drivers/STM32F7xx_HAL_Driver/Src/stm32f7xx_hal_dma.c ****   {
 1264              		.loc 1 633 3 is_stmt 1 view .LVU448
 633:Drivers/STM32F7xx_HAL_Driver/Src/stm32f7xx_hal_dma.c ****   {
 1265              		.loc 1 633 12 is_stmt 0 view .LVU449
 1266 002a 2368     		ldr	r3, [r4]
 633:Drivers/STM32F7xx_HAL_Driver/Src/stm32f7xx_hal_dma.c ****   {
 1267              		.loc 1 633 22 view .LVU450
 1268 002c 1B68     		ldr	r3, [r3]
 633:Drivers/STM32F7xx_HAL_Driver/Src/stm32f7xx_hal_dma.c ****   {
 1269              		.loc 1 633 6 view .LVU451
 1270 002e 13F4807F 		tst	r3, #256
 1271 0032 3BD1     		bne	.L95
 640:Drivers/STM32F7xx_HAL_Driver/Src/stm32f7xx_hal_dma.c ****   {
 1272              		.loc 1 640 3 is_stmt 1 view .LVU452
 640:Drivers/STM32F7xx_HAL_Driver/Src/stm32f7xx_hal_dma.c ****   {
 1273              		.loc 1 640 5 is_stmt 0 view .LVU453
 1274 0034 B8F1000F 		cmp	r8, #0
 1275 0038 3DD1     		bne	.L82
 643:Drivers/STM32F7xx_HAL_Driver/Src/stm32f7xx_hal_dma.c ****   }
 1276              		.loc 1 643 5 is_stmt 1 view .LVU454
 643:Drivers/STM32F7xx_HAL_Driver/Src/stm32f7xx_hal_dma.c ****   }
 1277              		.loc 1 643 46 is_stmt 0 view .LVU455
 1278 003a E36D     		ldr	r3, [r4, #92]
 643:Drivers/STM32F7xx_HAL_Driver/Src/stm32f7xx_hal_dma.c ****   }
 1279              		.loc 1 643 20 view .LVU456
 1280 003c 4FF0200A 		mov	r10, #32
 1281 0040 0AFA03FA 		lsl	r10, r10, r3
 1282              	.LVL111:
 1283              	.L83:
 651:Drivers/STM32F7xx_HAL_Driver/Src/stm32f7xx_hal_dma.c ****   tmpisr = regs->ISR;
 1284              		.loc 1 651 3 is_stmt 1 view .LVU457
 651:Drivers/STM32F7xx_HAL_Driver/Src/stm32f7xx_hal_dma.c ****   tmpisr = regs->ISR;
 1285              		.loc 1 651 36 is_stmt 0 view .LVU458
 1286 0044 A76D     		ldr	r7, [r4, #88]
 1287              	.LVL112:
 652:Drivers/STM32F7xx_HAL_Driver/Src/stm32f7xx_hal_dma.c ****   
ARM GAS  /tmp/cclJgRLT.s 			page 53


 1288              		.loc 1 652 3 is_stmt 1 view .LVU459
 652:Drivers/STM32F7xx_HAL_Driver/Src/stm32f7xx_hal_dma.c ****   
 1289              		.loc 1 652 10 is_stmt 0 view .LVU460
 1290 0046 3B68     		ldr	r3, [r7]
 1291              	.LVL113:
 654:Drivers/STM32F7xx_HAL_Driver/Src/stm32f7xx_hal_dma.c ****   {
 1292              		.loc 1 654 3 is_stmt 1 view .LVU461
 1293              	.L84:
 654:Drivers/STM32F7xx_HAL_Driver/Src/stm32f7xx_hal_dma.c ****   {
 1294              		.loc 1 654 8 view .LVU462
 1295 0048 1AEA030F 		tst	r10, r3
 1296 004c 43D1     		bne	.L90
 654:Drivers/STM32F7xx_HAL_Driver/Src/stm32f7xx_hal_dma.c ****   {
 1297              		.loc 1 654 55 is_stmt 0 discriminator 1 view .LVU463
 1298 004e 636D     		ldr	r3, [r4, #84]
 1299              	.LVL114:
 654:Drivers/STM32F7xx_HAL_Driver/Src/stm32f7xx_hal_dma.c ****   {
 1300              		.loc 1 654 46 discriminator 1 view .LVU464
 1301 0050 13F0010F 		tst	r3, #1
 1302 0054 3FD1     		bne	.L90
 657:Drivers/STM32F7xx_HAL_Driver/Src/stm32f7xx_hal_dma.c ****     {
 1303              		.loc 1 657 5 is_stmt 1 view .LVU465
 657:Drivers/STM32F7xx_HAL_Driver/Src/stm32f7xx_hal_dma.c ****     {
 1304              		.loc 1 657 7 is_stmt 0 view .LVU466
 1305 0056 B6F1FF3F 		cmp	r6, #-1
 1306 005a 07D0     		beq	.L85
 659:Drivers/STM32F7xx_HAL_Driver/Src/stm32f7xx_hal_dma.c ****       {
 1307              		.loc 1 659 7 is_stmt 1 view .LVU467
 659:Drivers/STM32F7xx_HAL_Driver/Src/stm32f7xx_hal_dma.c ****       {
 1308              		.loc 1 659 9 is_stmt 0 view .LVU468
 1309 005c 002E     		cmp	r6, #0
 1310 005e 30D0     		beq	.L86
 659:Drivers/STM32F7xx_HAL_Driver/Src/stm32f7xx_hal_dma.c ****       {
 1311              		.loc 1 659 28 discriminator 1 view .LVU469
 1312 0060 FFF7FEFF 		bl	HAL_GetTick
 1313              	.LVL115:
 659:Drivers/STM32F7xx_HAL_Driver/Src/stm32f7xx_hal_dma.c ****       {
 1314              		.loc 1 659 42 discriminator 1 view .LVU470
 1315 0064 A0EB0900 		sub	r0, r0, r9
 659:Drivers/STM32F7xx_HAL_Driver/Src/stm32f7xx_hal_dma.c ****       {
 1316              		.loc 1 659 24 discriminator 1 view .LVU471
 1317 0068 B042     		cmp	r0, r6
 1318 006a 2AD8     		bhi	.L86
 1319              	.L85:
 675:Drivers/STM32F7xx_HAL_Driver/Src/stm32f7xx_hal_dma.c **** 
 1320              		.loc 1 675 5 is_stmt 1 view .LVU472
 675:Drivers/STM32F7xx_HAL_Driver/Src/stm32f7xx_hal_dma.c **** 
 1321              		.loc 1 675 12 is_stmt 0 view .LVU473
 1322 006c 3B68     		ldr	r3, [r7]
 1323              	.LVL116:
 677:Drivers/STM32F7xx_HAL_Driver/Src/stm32f7xx_hal_dma.c ****     {
 1324              		.loc 1 677 5 is_stmt 1 view .LVU474
 677:Drivers/STM32F7xx_HAL_Driver/Src/stm32f7xx_hal_dma.c ****     {
 1325              		.loc 1 677 43 is_stmt 0 view .LVU475
 1326 006e E16D     		ldr	r1, [r4, #92]
 677:Drivers/STM32F7xx_HAL_Driver/Src/stm32f7xx_hal_dma.c ****     {
 1327              		.loc 1 677 36 view .LVU476
ARM GAS  /tmp/cclJgRLT.s 			page 54


 1328 0070 0822     		movs	r2, #8
 1329 0072 8A40     		lsls	r2, r2, r1
 677:Drivers/STM32F7xx_HAL_Driver/Src/stm32f7xx_hal_dma.c ****     {
 1330              		.loc 1 677 7 view .LVU477
 1331 0074 1A42     		tst	r2, r3
 1332 0076 04D0     		beq	.L87
 680:Drivers/STM32F7xx_HAL_Driver/Src/stm32f7xx_hal_dma.c ****       
 1333              		.loc 1 680 7 is_stmt 1 view .LVU478
 680:Drivers/STM32F7xx_HAL_Driver/Src/stm32f7xx_hal_dma.c ****       
 1334              		.loc 1 680 23 is_stmt 0 view .LVU479
 1335 0078 616D     		ldr	r1, [r4, #84]
 1336 007a 41F00101 		orr	r1, r1, #1
 1337 007e 6165     		str	r1, [r4, #84]
 683:Drivers/STM32F7xx_HAL_Driver/Src/stm32f7xx_hal_dma.c ****     }
 1338              		.loc 1 683 7 is_stmt 1 view .LVU480
 683:Drivers/STM32F7xx_HAL_Driver/Src/stm32f7xx_hal_dma.c ****     }
 1339              		.loc 1 683 18 is_stmt 0 view .LVU481
 1340 0080 BA60     		str	r2, [r7, #8]
 1341              	.L87:
 686:Drivers/STM32F7xx_HAL_Driver/Src/stm32f7xx_hal_dma.c ****     {
 1342              		.loc 1 686 5 is_stmt 1 view .LVU482
 686:Drivers/STM32F7xx_HAL_Driver/Src/stm32f7xx_hal_dma.c ****     {
 1343              		.loc 1 686 43 is_stmt 0 view .LVU483
 1344 0082 E16D     		ldr	r1, [r4, #92]
 686:Drivers/STM32F7xx_HAL_Driver/Src/stm32f7xx_hal_dma.c ****     {
 1345              		.loc 1 686 36 view .LVU484
 1346 0084 0122     		movs	r2, #1
 1347 0086 8A40     		lsls	r2, r2, r1
 686:Drivers/STM32F7xx_HAL_Driver/Src/stm32f7xx_hal_dma.c ****     {
 1348              		.loc 1 686 7 view .LVU485
 1349 0088 1A42     		tst	r2, r3
 1350 008a 04D0     		beq	.L88
 689:Drivers/STM32F7xx_HAL_Driver/Src/stm32f7xx_hal_dma.c ****       
 1351              		.loc 1 689 7 is_stmt 1 view .LVU486
 689:Drivers/STM32F7xx_HAL_Driver/Src/stm32f7xx_hal_dma.c ****       
 1352              		.loc 1 689 23 is_stmt 0 view .LVU487
 1353 008c 616D     		ldr	r1, [r4, #84]
 1354 008e 41F00201 		orr	r1, r1, #2
 1355 0092 6165     		str	r1, [r4, #84]
 692:Drivers/STM32F7xx_HAL_Driver/Src/stm32f7xx_hal_dma.c ****     }
 1356              		.loc 1 692 7 is_stmt 1 view .LVU488
 692:Drivers/STM32F7xx_HAL_Driver/Src/stm32f7xx_hal_dma.c ****     }
 1357              		.loc 1 692 18 is_stmt 0 view .LVU489
 1358 0094 BA60     		str	r2, [r7, #8]
 1359              	.L88:
 695:Drivers/STM32F7xx_HAL_Driver/Src/stm32f7xx_hal_dma.c ****     {
 1360              		.loc 1 695 5 is_stmt 1 view .LVU490
 695:Drivers/STM32F7xx_HAL_Driver/Src/stm32f7xx_hal_dma.c ****     {
 1361              		.loc 1 695 44 is_stmt 0 view .LVU491
 1362 0096 E26D     		ldr	r2, [r4, #92]
 695:Drivers/STM32F7xx_HAL_Driver/Src/stm32f7xx_hal_dma.c ****     {
 1363              		.loc 1 695 37 view .LVU492
 1364 0098 0425     		movs	r5, #4
 1365 009a 9540     		lsls	r5, r5, r2
 695:Drivers/STM32F7xx_HAL_Driver/Src/stm32f7xx_hal_dma.c ****     {
 1366              		.loc 1 695 7 view .LVU493
 1367 009c 1D42     		tst	r5, r3
ARM GAS  /tmp/cclJgRLT.s 			page 55


 1368 009e D3D0     		beq	.L84
 698:Drivers/STM32F7xx_HAL_Driver/Src/stm32f7xx_hal_dma.c ****       
 1369              		.loc 1 698 7 is_stmt 1 view .LVU494
 698:Drivers/STM32F7xx_HAL_Driver/Src/stm32f7xx_hal_dma.c ****       
 1370              		.loc 1 698 23 is_stmt 0 view .LVU495
 1371 00a0 626D     		ldr	r2, [r4, #84]
 1372 00a2 42F00402 		orr	r2, r2, #4
 1373 00a6 6265     		str	r2, [r4, #84]
 701:Drivers/STM32F7xx_HAL_Driver/Src/stm32f7xx_hal_dma.c ****     }
 1374              		.loc 1 701 7 is_stmt 1 view .LVU496
 701:Drivers/STM32F7xx_HAL_Driver/Src/stm32f7xx_hal_dma.c ****     }
 1375              		.loc 1 701 18 is_stmt 0 view .LVU497
 1376 00a8 BD60     		str	r5, [r7, #8]
 1377 00aa CDE7     		b	.L84
 1378              	.LVL117:
 1379              	.L95:
 635:Drivers/STM32F7xx_HAL_Driver/Src/stm32f7xx_hal_dma.c ****     return HAL_ERROR;
 1380              		.loc 1 635 5 is_stmt 1 view .LVU498
 635:Drivers/STM32F7xx_HAL_Driver/Src/stm32f7xx_hal_dma.c ****     return HAL_ERROR;
 1381              		.loc 1 635 21 is_stmt 0 view .LVU499
 1382 00ac 4FF48073 		mov	r3, #256
 1383 00b0 6365     		str	r3, [r4, #84]
 636:Drivers/STM32F7xx_HAL_Driver/Src/stm32f7xx_hal_dma.c ****   }
 1384              		.loc 1 636 5 is_stmt 1 view .LVU500
 636:Drivers/STM32F7xx_HAL_Driver/Src/stm32f7xx_hal_dma.c ****   }
 1385              		.loc 1 636 12 is_stmt 0 view .LVU501
 1386 00b2 0120     		movs	r0, #1
 1387              	.LVL118:
 636:Drivers/STM32F7xx_HAL_Driver/Src/stm32f7xx_hal_dma.c ****   }
 1388              		.loc 1 636 12 view .LVU502
 1389 00b4 B6E7     		b	.L80
 1390              	.LVL119:
 1391              	.L82:
 648:Drivers/STM32F7xx_HAL_Driver/Src/stm32f7xx_hal_dma.c ****   }
 1392              		.loc 1 648 5 is_stmt 1 view .LVU503
 648:Drivers/STM32F7xx_HAL_Driver/Src/stm32f7xx_hal_dma.c ****   }
 1393              		.loc 1 648 46 is_stmt 0 view .LVU504
 1394 00b6 E36D     		ldr	r3, [r4, #92]
 648:Drivers/STM32F7xx_HAL_Driver/Src/stm32f7xx_hal_dma.c ****   }
 1395              		.loc 1 648 20 view .LVU505
 1396 00b8 4FF0100A 		mov	r10, #16
 1397 00bc 0AFA03FA 		lsl	r10, r10, r3
 1398              	.LVL120:
 648:Drivers/STM32F7xx_HAL_Driver/Src/stm32f7xx_hal_dma.c ****   }
 1399              		.loc 1 648 20 view .LVU506
 1400 00c0 C0E7     		b	.L83
 1401              	.LVL121:
 1402              	.L86:
 662:Drivers/STM32F7xx_HAL_Driver/Src/stm32f7xx_hal_dma.c ****         
 1403              		.loc 1 662 9 is_stmt 1 view .LVU507
 662:Drivers/STM32F7xx_HAL_Driver/Src/stm32f7xx_hal_dma.c ****         
 1404              		.loc 1 662 25 is_stmt 0 view .LVU508
 1405 00c2 2023     		movs	r3, #32
 1406 00c4 6365     		str	r3, [r4, #84]
 665:Drivers/STM32F7xx_HAL_Driver/Src/stm32f7xx_hal_dma.c **** 
 1407              		.loc 1 665 9 is_stmt 1 view .LVU509
 665:Drivers/STM32F7xx_HAL_Driver/Src/stm32f7xx_hal_dma.c **** 
ARM GAS  /tmp/cclJgRLT.s 			page 56


 1408              		.loc 1 665 21 is_stmt 0 view .LVU510
 1409 00c6 0123     		movs	r3, #1
 1410 00c8 84F83530 		strb	r3, [r4, #53]
 668:Drivers/STM32F7xx_HAL_Driver/Src/stm32f7xx_hal_dma.c **** 
 1411              		.loc 1 668 9 is_stmt 1 view .LVU511
 668:Drivers/STM32F7xx_HAL_Driver/Src/stm32f7xx_hal_dma.c **** 
 1412              		.loc 1 668 9 view .LVU512
 1413 00cc 0023     		movs	r3, #0
 1414 00ce 84F83430 		strb	r3, [r4, #52]
 668:Drivers/STM32F7xx_HAL_Driver/Src/stm32f7xx_hal_dma.c **** 
 1415              		.loc 1 668 9 view .LVU513
 670:Drivers/STM32F7xx_HAL_Driver/Src/stm32f7xx_hal_dma.c ****       }
 1416              		.loc 1 670 9 view .LVU514
 670:Drivers/STM32F7xx_HAL_Driver/Src/stm32f7xx_hal_dma.c ****       }
 1417              		.loc 1 670 16 is_stmt 0 view .LVU515
 1418 00d2 0320     		movs	r0, #3
 1419 00d4 A6E7     		b	.L80
 1420              	.L90:
 705:Drivers/STM32F7xx_HAL_Driver/Src/stm32f7xx_hal_dma.c ****   {
 1421              		.loc 1 705 3 is_stmt 1 view .LVU516
 705:Drivers/STM32F7xx_HAL_Driver/Src/stm32f7xx_hal_dma.c ****   {
 1422              		.loc 1 705 10 is_stmt 0 view .LVU517
 1423 00d6 636D     		ldr	r3, [r4, #84]
 705:Drivers/STM32F7xx_HAL_Driver/Src/stm32f7xx_hal_dma.c ****   {
 1424              		.loc 1 705 5 view .LVU518
 1425 00d8 1BB1     		cbz	r3, .L92
 707:Drivers/STM32F7xx_HAL_Driver/Src/stm32f7xx_hal_dma.c ****     {
 1426              		.loc 1 707 5 is_stmt 1 view .LVU519
 707:Drivers/STM32F7xx_HAL_Driver/Src/stm32f7xx_hal_dma.c ****     {
 1427              		.loc 1 707 13 is_stmt 0 view .LVU520
 1428 00da 636D     		ldr	r3, [r4, #84]
 707:Drivers/STM32F7xx_HAL_Driver/Src/stm32f7xx_hal_dma.c ****     {
 1429              		.loc 1 707 7 view .LVU521
 1430 00dc 13F0010F 		tst	r3, #1
 1431 00e0 0ED1     		bne	.L96
 1432              	.L92:
 725:Drivers/STM32F7xx_HAL_Driver/Src/stm32f7xx_hal_dma.c ****   {
 1433              		.loc 1 725 3 is_stmt 1 view .LVU522
 725:Drivers/STM32F7xx_HAL_Driver/Src/stm32f7xx_hal_dma.c ****   {
 1434              		.loc 1 725 5 is_stmt 0 view .LVU523
 1435 00e2 B8F1000F 		cmp	r8, #0
 1436 00e6 19D1     		bne	.L93
 728:Drivers/STM32F7xx_HAL_Driver/Src/stm32f7xx_hal_dma.c ****     
 1437              		.loc 1 728 5 is_stmt 1 view .LVU524
 728:Drivers/STM32F7xx_HAL_Driver/Src/stm32f7xx_hal_dma.c ****     
 1438              		.loc 1 728 63 is_stmt 0 view .LVU525
 1439 00e8 E26D     		ldr	r2, [r4, #92]
 728:Drivers/STM32F7xx_HAL_Driver/Src/stm32f7xx_hal_dma.c ****     
 1440              		.loc 1 728 56 view .LVU526
 1441 00ea 3023     		movs	r3, #48
 1442 00ec 9340     		lsls	r3, r3, r2
 728:Drivers/STM32F7xx_HAL_Driver/Src/stm32f7xx_hal_dma.c ****     
 1443              		.loc 1 728 16 view .LVU527
 1444 00ee BB60     		str	r3, [r7, #8]
 730:Drivers/STM32F7xx_HAL_Driver/Src/stm32f7xx_hal_dma.c **** 
 1445              		.loc 1 730 5 is_stmt 1 view .LVU528
 730:Drivers/STM32F7xx_HAL_Driver/Src/stm32f7xx_hal_dma.c **** 
ARM GAS  /tmp/cclJgRLT.s 			page 57


 1446              		.loc 1 730 17 is_stmt 0 view .LVU529
 1447 00f0 0123     		movs	r3, #1
 1448 00f2 84F83530 		strb	r3, [r4, #53]
 733:Drivers/STM32F7xx_HAL_Driver/Src/stm32f7xx_hal_dma.c **** 
 1449              		.loc 1 733 5 is_stmt 1 view .LVU530
 733:Drivers/STM32F7xx_HAL_Driver/Src/stm32f7xx_hal_dma.c **** 
 1450              		.loc 1 733 5 view .LVU531
 1451 00f6 0023     		movs	r3, #0
 1452 00f8 84F83430 		strb	r3, [r4, #52]
 733:Drivers/STM32F7xx_HAL_Driver/Src/stm32f7xx_hal_dma.c **** 
 1453              		.loc 1 733 5 view .LVU532
 742:Drivers/STM32F7xx_HAL_Driver/Src/stm32f7xx_hal_dma.c **** }
 1454              		.loc 1 742 10 is_stmt 0 view .LVU533
 1455 00fc 4046     		mov	r0, r8
 1456 00fe 91E7     		b	.L80
 1457              	.L96:
 709:Drivers/STM32F7xx_HAL_Driver/Src/stm32f7xx_hal_dma.c ****     
 1458              		.loc 1 709 7 is_stmt 1 view .LVU534
 1459 0100 2046     		mov	r0, r4
 1460 0102 FFF7FEFF 		bl	HAL_DMA_Abort
 1461              	.LVL122:
 712:Drivers/STM32F7xx_HAL_Driver/Src/stm32f7xx_hal_dma.c ****     
 1462              		.loc 1 712 7 view .LVU535
 712:Drivers/STM32F7xx_HAL_Driver/Src/stm32f7xx_hal_dma.c ****     
 1463              		.loc 1 712 65 is_stmt 0 view .LVU536
 1464 0106 E26D     		ldr	r2, [r4, #92]
 712:Drivers/STM32F7xx_HAL_Driver/Src/stm32f7xx_hal_dma.c ****     
 1465              		.loc 1 712 58 view .LVU537
 1466 0108 3023     		movs	r3, #48
 1467 010a 9340     		lsls	r3, r3, r2
 712:Drivers/STM32F7xx_HAL_Driver/Src/stm32f7xx_hal_dma.c ****     
 1468              		.loc 1 712 18 view .LVU538
 1469 010c BB60     		str	r3, [r7, #8]
 715:Drivers/STM32F7xx_HAL_Driver/Src/stm32f7xx_hal_dma.c **** 
 1470              		.loc 1 715 7 is_stmt 1 view .LVU539
 715:Drivers/STM32F7xx_HAL_Driver/Src/stm32f7xx_hal_dma.c **** 
 1471              		.loc 1 715 18 is_stmt 0 view .LVU540
 1472 010e 0120     		movs	r0, #1
 1473 0110 84F83500 		strb	r0, [r4, #53]
 718:Drivers/STM32F7xx_HAL_Driver/Src/stm32f7xx_hal_dma.c **** 
 1474              		.loc 1 718 7 is_stmt 1 view .LVU541
 718:Drivers/STM32F7xx_HAL_Driver/Src/stm32f7xx_hal_dma.c **** 
 1475              		.loc 1 718 7 view .LVU542
 1476 0114 0023     		movs	r3, #0
 1477 0116 84F83430 		strb	r3, [r4, #52]
 718:Drivers/STM32F7xx_HAL_Driver/Src/stm32f7xx_hal_dma.c **** 
 1478              		.loc 1 718 7 view .LVU543
 720:Drivers/STM32F7xx_HAL_Driver/Src/stm32f7xx_hal_dma.c ****    }
 1479              		.loc 1 720 7 view .LVU544
 720:Drivers/STM32F7xx_HAL_Driver/Src/stm32f7xx_hal_dma.c ****    }
 1480              		.loc 1 720 14 is_stmt 0 view .LVU545
 1481 011a 83E7     		b	.L80
 1482              	.L93:
 739:Drivers/STM32F7xx_HAL_Driver/Src/stm32f7xx_hal_dma.c ****   }
 1483              		.loc 1 739 5 is_stmt 1 view .LVU546
 739:Drivers/STM32F7xx_HAL_Driver/Src/stm32f7xx_hal_dma.c ****   }
 1484              		.loc 1 739 44 is_stmt 0 view .LVU547
ARM GAS  /tmp/cclJgRLT.s 			page 58


 1485 011c E26D     		ldr	r2, [r4, #92]
 739:Drivers/STM32F7xx_HAL_Driver/Src/stm32f7xx_hal_dma.c ****   }
 1486              		.loc 1 739 37 view .LVU548
 1487 011e 1023     		movs	r3, #16
 1488 0120 9340     		lsls	r3, r3, r2
 739:Drivers/STM32F7xx_HAL_Driver/Src/stm32f7xx_hal_dma.c ****   }
 1489              		.loc 1 739 16 view .LVU549
 1490 0122 BB60     		str	r3, [r7, #8]
 742:Drivers/STM32F7xx_HAL_Driver/Src/stm32f7xx_hal_dma.c **** }
 1491              		.loc 1 742 10 view .LVU550
 1492 0124 0020     		movs	r0, #0
 1493 0126 7DE7     		b	.L80
 1494              		.cfi_endproc
 1495              	.LFE147:
 1497              		.section	.text.HAL_DMA_IRQHandler,"ax",%progbits
 1498              		.align	1
 1499              		.global	HAL_DMA_IRQHandler
 1500              		.syntax unified
 1501              		.thumb
 1502              		.thumb_func
 1504              	HAL_DMA_IRQHandler:
 1505              	.LVL123:
 1506              	.LFB148:
 752:Drivers/STM32F7xx_HAL_Driver/Src/stm32f7xx_hal_dma.c ****   uint32_t tmpisr;
 1507              		.loc 1 752 1 is_stmt 1 view -0
 1508              		.cfi_startproc
 1509              		@ args = 0, pretend = 0, frame = 8
 1510              		@ frame_needed = 0, uses_anonymous_args = 0
 752:Drivers/STM32F7xx_HAL_Driver/Src/stm32f7xx_hal_dma.c ****   uint32_t tmpisr;
 1511              		.loc 1 752 1 is_stmt 0 view .LVU552
 1512 0000 F0B5     		push	{r4, r5, r6, r7, lr}
 1513              	.LCFI13:
 1514              		.cfi_def_cfa_offset 20
 1515              		.cfi_offset 4, -20
 1516              		.cfi_offset 5, -16
 1517              		.cfi_offset 6, -12
 1518              		.cfi_offset 7, -8
 1519              		.cfi_offset 14, -4
 1520 0002 83B0     		sub	sp, sp, #12
 1521              	.LCFI14:
 1522              		.cfi_def_cfa_offset 32
 1523 0004 0446     		mov	r4, r0
 753:Drivers/STM32F7xx_HAL_Driver/Src/stm32f7xx_hal_dma.c ****   __IO uint32_t count = 0;
 1524              		.loc 1 753 3 is_stmt 1 view .LVU553
 754:Drivers/STM32F7xx_HAL_Driver/Src/stm32f7xx_hal_dma.c ****   uint32_t timeout = SystemCoreClock / 9600;
 1525              		.loc 1 754 3 view .LVU554
 754:Drivers/STM32F7xx_HAL_Driver/Src/stm32f7xx_hal_dma.c ****   uint32_t timeout = SystemCoreClock / 9600;
 1526              		.loc 1 754 17 is_stmt 0 view .LVU555
 1527 0006 0023     		movs	r3, #0
 1528 0008 0193     		str	r3, [sp, #4]
 755:Drivers/STM32F7xx_HAL_Driver/Src/stm32f7xx_hal_dma.c **** 
 1529              		.loc 1 755 3 is_stmt 1 view .LVU556
 755:Drivers/STM32F7xx_HAL_Driver/Src/stm32f7xx_hal_dma.c **** 
 1530              		.loc 1 755 38 is_stmt 0 view .LVU557
 1531 000a 724B     		ldr	r3, .L120
 1532 000c 1D68     		ldr	r5, [r3]
 755:Drivers/STM32F7xx_HAL_Driver/Src/stm32f7xx_hal_dma.c **** 
ARM GAS  /tmp/cclJgRLT.s 			page 59


 1533              		.loc 1 755 12 view .LVU558
 1534 000e 724B     		ldr	r3, .L120+4
 1535 0010 A3FB0535 		umull	r3, r5, r3, r5
 1536 0014 AD0A     		lsrs	r5, r5, #10
 1537              	.LVL124:
 758:Drivers/STM32F7xx_HAL_Driver/Src/stm32f7xx_hal_dma.c **** 
 1538              		.loc 1 758 3 is_stmt 1 view .LVU559
 758:Drivers/STM32F7xx_HAL_Driver/Src/stm32f7xx_hal_dma.c **** 
 1539              		.loc 1 758 56 is_stmt 0 view .LVU560
 1540 0016 876D     		ldr	r7, [r0, #88]
 1541              	.LVL125:
 760:Drivers/STM32F7xx_HAL_Driver/Src/stm32f7xx_hal_dma.c **** 
 1542              		.loc 1 760 3 is_stmt 1 view .LVU561
 760:Drivers/STM32F7xx_HAL_Driver/Src/stm32f7xx_hal_dma.c **** 
 1543              		.loc 1 760 10 is_stmt 0 view .LVU562
 1544 0018 3E68     		ldr	r6, [r7]
 1545              	.LVL126:
 763:Drivers/STM32F7xx_HAL_Driver/Src/stm32f7xx_hal_dma.c ****   {
 1546              		.loc 1 763 3 is_stmt 1 view .LVU563
 763:Drivers/STM32F7xx_HAL_Driver/Src/stm32f7xx_hal_dma.c ****   {
 1547              		.loc 1 763 42 is_stmt 0 view .LVU564
 1548 001a C26D     		ldr	r2, [r0, #92]
 763:Drivers/STM32F7xx_HAL_Driver/Src/stm32f7xx_hal_dma.c ****   {
 1549              		.loc 1 763 35 view .LVU565
 1550 001c 0823     		movs	r3, #8
 1551 001e 9340     		lsls	r3, r3, r2
 763:Drivers/STM32F7xx_HAL_Driver/Src/stm32f7xx_hal_dma.c ****   {
 1552              		.loc 1 763 6 view .LVU566
 1553 0020 3342     		tst	r3, r6
 1554 0022 10D0     		beq	.L98
 765:Drivers/STM32F7xx_HAL_Driver/Src/stm32f7xx_hal_dma.c ****     {
 1555              		.loc 1 765 5 is_stmt 1 view .LVU567
 765:Drivers/STM32F7xx_HAL_Driver/Src/stm32f7xx_hal_dma.c ****     {
 1556              		.loc 1 765 8 is_stmt 0 view .LVU568
 1557 0024 0368     		ldr	r3, [r0]
 1558 0026 1A68     		ldr	r2, [r3]
 765:Drivers/STM32F7xx_HAL_Driver/Src/stm32f7xx_hal_dma.c ****     {
 1559              		.loc 1 765 7 view .LVU569
 1560 0028 12F0040F 		tst	r2, #4
 1561 002c 0BD0     		beq	.L98
 768:Drivers/STM32F7xx_HAL_Driver/Src/stm32f7xx_hal_dma.c ****       
 1562              		.loc 1 768 7 is_stmt 1 view .LVU570
 768:Drivers/STM32F7xx_HAL_Driver/Src/stm32f7xx_hal_dma.c ****       
 1563              		.loc 1 768 27 is_stmt 0 view .LVU571
 1564 002e 1A68     		ldr	r2, [r3]
 1565 0030 22F00402 		bic	r2, r2, #4
 1566 0034 1A60     		str	r2, [r3]
 771:Drivers/STM32F7xx_HAL_Driver/Src/stm32f7xx_hal_dma.c ****       
 1567              		.loc 1 771 7 is_stmt 1 view .LVU572
 771:Drivers/STM32F7xx_HAL_Driver/Src/stm32f7xx_hal_dma.c ****       
 1568              		.loc 1 771 44 is_stmt 0 view .LVU573
 1569 0036 C26D     		ldr	r2, [r0, #92]
 771:Drivers/STM32F7xx_HAL_Driver/Src/stm32f7xx_hal_dma.c ****       
 1570              		.loc 1 771 37 view .LVU574
 1571 0038 0823     		movs	r3, #8
 1572 003a 9340     		lsls	r3, r3, r2
 771:Drivers/STM32F7xx_HAL_Driver/Src/stm32f7xx_hal_dma.c ****       
ARM GAS  /tmp/cclJgRLT.s 			page 60


 1573              		.loc 1 771 18 view .LVU575
 1574 003c BB60     		str	r3, [r7, #8]
 774:Drivers/STM32F7xx_HAL_Driver/Src/stm32f7xx_hal_dma.c ****     }
 1575              		.loc 1 774 7 is_stmt 1 view .LVU576
 774:Drivers/STM32F7xx_HAL_Driver/Src/stm32f7xx_hal_dma.c ****     }
 1576              		.loc 1 774 23 is_stmt 0 view .LVU577
 1577 003e 436D     		ldr	r3, [r0, #84]
 1578 0040 43F00103 		orr	r3, r3, #1
 1579 0044 4365     		str	r3, [r0, #84]
 1580              	.L98:
 778:Drivers/STM32F7xx_HAL_Driver/Src/stm32f7xx_hal_dma.c ****   {
 1581              		.loc 1 778 3 is_stmt 1 view .LVU578
 778:Drivers/STM32F7xx_HAL_Driver/Src/stm32f7xx_hal_dma.c ****   {
 1582              		.loc 1 778 42 is_stmt 0 view .LVU579
 1583 0046 E26D     		ldr	r2, [r4, #92]
 778:Drivers/STM32F7xx_HAL_Driver/Src/stm32f7xx_hal_dma.c ****   {
 1584              		.loc 1 778 35 view .LVU580
 1585 0048 0123     		movs	r3, #1
 1586 004a 9340     		lsls	r3, r3, r2
 778:Drivers/STM32F7xx_HAL_Driver/Src/stm32f7xx_hal_dma.c ****   {
 1587              		.loc 1 778 6 view .LVU581
 1588 004c 3342     		tst	r3, r6
 1589 004e 09D0     		beq	.L99
 780:Drivers/STM32F7xx_HAL_Driver/Src/stm32f7xx_hal_dma.c ****     {
 1590              		.loc 1 780 5 is_stmt 1 view .LVU582
 780:Drivers/STM32F7xx_HAL_Driver/Src/stm32f7xx_hal_dma.c ****     {
 1591              		.loc 1 780 8 is_stmt 0 view .LVU583
 1592 0050 2268     		ldr	r2, [r4]
 1593 0052 5269     		ldr	r2, [r2, #20]
 780:Drivers/STM32F7xx_HAL_Driver/Src/stm32f7xx_hal_dma.c ****     {
 1594              		.loc 1 780 7 view .LVU584
 1595 0054 12F0800F 		tst	r2, #128
 1596 0058 04D0     		beq	.L99
 783:Drivers/STM32F7xx_HAL_Driver/Src/stm32f7xx_hal_dma.c **** 
 1597              		.loc 1 783 7 is_stmt 1 view .LVU585
 783:Drivers/STM32F7xx_HAL_Driver/Src/stm32f7xx_hal_dma.c **** 
 1598              		.loc 1 783 18 is_stmt 0 view .LVU586
 1599 005a BB60     		str	r3, [r7, #8]
 786:Drivers/STM32F7xx_HAL_Driver/Src/stm32f7xx_hal_dma.c ****     }
 1600              		.loc 1 786 7 is_stmt 1 view .LVU587
 786:Drivers/STM32F7xx_HAL_Driver/Src/stm32f7xx_hal_dma.c ****     }
 1601              		.loc 1 786 23 is_stmt 0 view .LVU588
 1602 005c 636D     		ldr	r3, [r4, #84]
 1603 005e 43F00203 		orr	r3, r3, #2
 1604 0062 6365     		str	r3, [r4, #84]
 1605              	.L99:
 790:Drivers/STM32F7xx_HAL_Driver/Src/stm32f7xx_hal_dma.c ****   {
 1606              		.loc 1 790 3 is_stmt 1 view .LVU589
 790:Drivers/STM32F7xx_HAL_Driver/Src/stm32f7xx_hal_dma.c ****   {
 1607              		.loc 1 790 43 is_stmt 0 view .LVU590
 1608 0064 E26D     		ldr	r2, [r4, #92]
 790:Drivers/STM32F7xx_HAL_Driver/Src/stm32f7xx_hal_dma.c ****   {
 1609              		.loc 1 790 36 view .LVU591
 1610 0066 0423     		movs	r3, #4
 1611 0068 9340     		lsls	r3, r3, r2
 790:Drivers/STM32F7xx_HAL_Driver/Src/stm32f7xx_hal_dma.c ****   {
 1612              		.loc 1 790 6 view .LVU592
ARM GAS  /tmp/cclJgRLT.s 			page 61


 1613 006a 3342     		tst	r3, r6
 1614 006c 09D0     		beq	.L100
 792:Drivers/STM32F7xx_HAL_Driver/Src/stm32f7xx_hal_dma.c ****     {
 1615              		.loc 1 792 5 is_stmt 1 view .LVU593
 792:Drivers/STM32F7xx_HAL_Driver/Src/stm32f7xx_hal_dma.c ****     {
 1616              		.loc 1 792 8 is_stmt 0 view .LVU594
 1617 006e 2268     		ldr	r2, [r4]
 1618 0070 1268     		ldr	r2, [r2]
 792:Drivers/STM32F7xx_HAL_Driver/Src/stm32f7xx_hal_dma.c ****     {
 1619              		.loc 1 792 7 view .LVU595
 1620 0072 12F0020F 		tst	r2, #2
 1621 0076 04D0     		beq	.L100
 795:Drivers/STM32F7xx_HAL_Driver/Src/stm32f7xx_hal_dma.c **** 
 1622              		.loc 1 795 7 is_stmt 1 view .LVU596
 795:Drivers/STM32F7xx_HAL_Driver/Src/stm32f7xx_hal_dma.c **** 
 1623              		.loc 1 795 18 is_stmt 0 view .LVU597
 1624 0078 BB60     		str	r3, [r7, #8]
 798:Drivers/STM32F7xx_HAL_Driver/Src/stm32f7xx_hal_dma.c ****     }
 1625              		.loc 1 798 7 is_stmt 1 view .LVU598
 798:Drivers/STM32F7xx_HAL_Driver/Src/stm32f7xx_hal_dma.c ****     }
 1626              		.loc 1 798 23 is_stmt 0 view .LVU599
 1627 007a 636D     		ldr	r3, [r4, #84]
 1628 007c 43F00403 		orr	r3, r3, #4
 1629 0080 6365     		str	r3, [r4, #84]
 1630              	.L100:
 802:Drivers/STM32F7xx_HAL_Driver/Src/stm32f7xx_hal_dma.c ****   {
 1631              		.loc 1 802 3 is_stmt 1 view .LVU600
 802:Drivers/STM32F7xx_HAL_Driver/Src/stm32f7xx_hal_dma.c ****   {
 1632              		.loc 1 802 42 is_stmt 0 view .LVU601
 1633 0082 E26D     		ldr	r2, [r4, #92]
 802:Drivers/STM32F7xx_HAL_Driver/Src/stm32f7xx_hal_dma.c ****   {
 1634              		.loc 1 802 35 view .LVU602
 1635 0084 1023     		movs	r3, #16
 1636 0086 9340     		lsls	r3, r3, r2
 802:Drivers/STM32F7xx_HAL_Driver/Src/stm32f7xx_hal_dma.c ****   {
 1637              		.loc 1 802 6 view .LVU603
 1638 0088 3342     		tst	r3, r6
 1639 008a 24D0     		beq	.L101
 804:Drivers/STM32F7xx_HAL_Driver/Src/stm32f7xx_hal_dma.c ****     {
 1640              		.loc 1 804 5 is_stmt 1 view .LVU604
 804:Drivers/STM32F7xx_HAL_Driver/Src/stm32f7xx_hal_dma.c ****     {
 1641              		.loc 1 804 8 is_stmt 0 view .LVU605
 1642 008c 2268     		ldr	r2, [r4]
 1643 008e 1268     		ldr	r2, [r2]
 804:Drivers/STM32F7xx_HAL_Driver/Src/stm32f7xx_hal_dma.c ****     {
 1644              		.loc 1 804 7 view .LVU606
 1645 0090 12F0080F 		tst	r2, #8
 1646 0094 1FD0     		beq	.L101
 807:Drivers/STM32F7xx_HAL_Driver/Src/stm32f7xx_hal_dma.c ****       
 1647              		.loc 1 807 7 is_stmt 1 view .LVU607
 807:Drivers/STM32F7xx_HAL_Driver/Src/stm32f7xx_hal_dma.c ****       
 1648              		.loc 1 807 18 is_stmt 0 view .LVU608
 1649 0096 BB60     		str	r3, [r7, #8]
 810:Drivers/STM32F7xx_HAL_Driver/Src/stm32f7xx_hal_dma.c ****       {
 1650              		.loc 1 810 7 is_stmt 1 view .LVU609
 810:Drivers/STM32F7xx_HAL_Driver/Src/stm32f7xx_hal_dma.c ****       {
 1651              		.loc 1 810 16 is_stmt 0 view .LVU610
ARM GAS  /tmp/cclJgRLT.s 			page 62


 1652 0098 2368     		ldr	r3, [r4]
 810:Drivers/STM32F7xx_HAL_Driver/Src/stm32f7xx_hal_dma.c ****       {
 1653              		.loc 1 810 26 view .LVU611
 1654 009a 1A68     		ldr	r2, [r3]
 810:Drivers/STM32F7xx_HAL_Driver/Src/stm32f7xx_hal_dma.c ****       {
 1655              		.loc 1 810 9 view .LVU612
 1656 009c 12F4802F 		tst	r2, #262144
 1657 00a0 0DD0     		beq	.L102
 813:Drivers/STM32F7xx_HAL_Driver/Src/stm32f7xx_hal_dma.c ****         {
 1658              		.loc 1 813 9 is_stmt 1 view .LVU613
 813:Drivers/STM32F7xx_HAL_Driver/Src/stm32f7xx_hal_dma.c ****         {
 1659              		.loc 1 813 27 is_stmt 0 view .LVU614
 1660 00a2 1B68     		ldr	r3, [r3]
 813:Drivers/STM32F7xx_HAL_Driver/Src/stm32f7xx_hal_dma.c ****         {
 1661              		.loc 1 813 11 view .LVU615
 1662 00a4 13F4002F 		tst	r3, #524288
 1663 00a8 04D1     		bne	.L103
 815:Drivers/STM32F7xx_HAL_Driver/Src/stm32f7xx_hal_dma.c ****           {
 1664              		.loc 1 815 11 is_stmt 1 view .LVU616
 815:Drivers/STM32F7xx_HAL_Driver/Src/stm32f7xx_hal_dma.c ****           {
 1665              		.loc 1 815 18 is_stmt 0 view .LVU617
 1666 00aa 236C     		ldr	r3, [r4, #64]
 815:Drivers/STM32F7xx_HAL_Driver/Src/stm32f7xx_hal_dma.c ****           {
 1667              		.loc 1 815 13 view .LVU618
 1668 00ac 9BB1     		cbz	r3, .L101
 818:Drivers/STM32F7xx_HAL_Driver/Src/stm32f7xx_hal_dma.c ****           }
 1669              		.loc 1 818 13 is_stmt 1 view .LVU619
 1670 00ae 2046     		mov	r0, r4
 1671              	.LVL127:
 818:Drivers/STM32F7xx_HAL_Driver/Src/stm32f7xx_hal_dma.c ****           }
 1672              		.loc 1 818 13 is_stmt 0 view .LVU620
 1673 00b0 9847     		blx	r3
 1674              	.LVL128:
 1675 00b2 10E0     		b	.L101
 1676              	.LVL129:
 1677              	.L103:
 824:Drivers/STM32F7xx_HAL_Driver/Src/stm32f7xx_hal_dma.c ****           {
 1678              		.loc 1 824 11 is_stmt 1 view .LVU621
 824:Drivers/STM32F7xx_HAL_Driver/Src/stm32f7xx_hal_dma.c ****           {
 1679              		.loc 1 824 18 is_stmt 0 view .LVU622
 1680 00b4 A36C     		ldr	r3, [r4, #72]
 824:Drivers/STM32F7xx_HAL_Driver/Src/stm32f7xx_hal_dma.c ****           {
 1681              		.loc 1 824 13 view .LVU623
 1682 00b6 73B1     		cbz	r3, .L101
 827:Drivers/STM32F7xx_HAL_Driver/Src/stm32f7xx_hal_dma.c ****           }
 1683              		.loc 1 827 13 is_stmt 1 view .LVU624
 1684 00b8 2046     		mov	r0, r4
 1685              	.LVL130:
 827:Drivers/STM32F7xx_HAL_Driver/Src/stm32f7xx_hal_dma.c ****           }
 1686              		.loc 1 827 13 is_stmt 0 view .LVU625
 1687 00ba 9847     		blx	r3
 1688              	.LVL131:
 1689 00bc 0BE0     		b	.L101
 1690              	.LVL132:
 1691              	.L102:
 834:Drivers/STM32F7xx_HAL_Driver/Src/stm32f7xx_hal_dma.c ****         {
 1692              		.loc 1 834 9 is_stmt 1 view .LVU626
ARM GAS  /tmp/cclJgRLT.s 			page 63


 834:Drivers/STM32F7xx_HAL_Driver/Src/stm32f7xx_hal_dma.c ****         {
 1693              		.loc 1 834 27 is_stmt 0 view .LVU627
 1694 00be 1A68     		ldr	r2, [r3]
 834:Drivers/STM32F7xx_HAL_Driver/Src/stm32f7xx_hal_dma.c ****         {
 1695              		.loc 1 834 11 view .LVU628
 1696 00c0 12F4807F 		tst	r2, #256
 1697 00c4 03D1     		bne	.L104
 837:Drivers/STM32F7xx_HAL_Driver/Src/stm32f7xx_hal_dma.c ****         }
 1698              		.loc 1 837 11 is_stmt 1 view .LVU629
 837:Drivers/STM32F7xx_HAL_Driver/Src/stm32f7xx_hal_dma.c ****         }
 1699              		.loc 1 837 31 is_stmt 0 view .LVU630
 1700 00c6 1A68     		ldr	r2, [r3]
 1701 00c8 22F00802 		bic	r2, r2, #8
 1702 00cc 1A60     		str	r2, [r3]
 1703              	.L104:
 840:Drivers/STM32F7xx_HAL_Driver/Src/stm32f7xx_hal_dma.c ****         {
 1704              		.loc 1 840 9 is_stmt 1 view .LVU631
 840:Drivers/STM32F7xx_HAL_Driver/Src/stm32f7xx_hal_dma.c ****         {
 1705              		.loc 1 840 16 is_stmt 0 view .LVU632
 1706 00ce 236C     		ldr	r3, [r4, #64]
 840:Drivers/STM32F7xx_HAL_Driver/Src/stm32f7xx_hal_dma.c ****         {
 1707              		.loc 1 840 11 view .LVU633
 1708 00d0 0BB1     		cbz	r3, .L101
 843:Drivers/STM32F7xx_HAL_Driver/Src/stm32f7xx_hal_dma.c ****         }
 1709              		.loc 1 843 11 is_stmt 1 view .LVU634
 1710 00d2 2046     		mov	r0, r4
 1711              	.LVL133:
 843:Drivers/STM32F7xx_HAL_Driver/Src/stm32f7xx_hal_dma.c ****         }
 1712              		.loc 1 843 11 is_stmt 0 view .LVU635
 1713 00d4 9847     		blx	r3
 1714              	.LVL134:
 1715              	.L101:
 849:Drivers/STM32F7xx_HAL_Driver/Src/stm32f7xx_hal_dma.c ****   {
 1716              		.loc 1 849 3 is_stmt 1 view .LVU636
 849:Drivers/STM32F7xx_HAL_Driver/Src/stm32f7xx_hal_dma.c ****   {
 1717              		.loc 1 849 42 is_stmt 0 view .LVU637
 1718 00d6 E26D     		ldr	r2, [r4, #92]
 849:Drivers/STM32F7xx_HAL_Driver/Src/stm32f7xx_hal_dma.c ****   {
 1719              		.loc 1 849 35 view .LVU638
 1720 00d8 2023     		movs	r3, #32
 1721 00da 9340     		lsls	r3, r3, r2
 849:Drivers/STM32F7xx_HAL_Driver/Src/stm32f7xx_hal_dma.c ****   {
 1722              		.loc 1 849 6 view .LVU639
 1723 00dc 3342     		tst	r3, r6
 1724 00de 55D0     		beq	.L105
 851:Drivers/STM32F7xx_HAL_Driver/Src/stm32f7xx_hal_dma.c ****     {
 1725              		.loc 1 851 5 is_stmt 1 view .LVU640
 851:Drivers/STM32F7xx_HAL_Driver/Src/stm32f7xx_hal_dma.c ****     {
 1726              		.loc 1 851 8 is_stmt 0 view .LVU641
 1727 00e0 2268     		ldr	r2, [r4]
 1728 00e2 1268     		ldr	r2, [r2]
 851:Drivers/STM32F7xx_HAL_Driver/Src/stm32f7xx_hal_dma.c ****     {
 1729              		.loc 1 851 7 view .LVU642
 1730 00e4 12F0100F 		tst	r2, #16
 1731 00e8 50D0     		beq	.L105
 854:Drivers/STM32F7xx_HAL_Driver/Src/stm32f7xx_hal_dma.c ****       
 1732              		.loc 1 854 7 is_stmt 1 view .LVU643
ARM GAS  /tmp/cclJgRLT.s 			page 64


 854:Drivers/STM32F7xx_HAL_Driver/Src/stm32f7xx_hal_dma.c ****       
 1733              		.loc 1 854 18 is_stmt 0 view .LVU644
 1734 00ea BB60     		str	r3, [r7, #8]
 856:Drivers/STM32F7xx_HAL_Driver/Src/stm32f7xx_hal_dma.c ****       {
 1735              		.loc 1 856 7 is_stmt 1 view .LVU645
 856:Drivers/STM32F7xx_HAL_Driver/Src/stm32f7xx_hal_dma.c ****       {
 1736              		.loc 1 856 37 is_stmt 0 view .LVU646
 1737 00ec 94F83530 		ldrb	r3, [r4, #53]	@ zero_extendqisi2
 1738 00f0 DBB2     		uxtb	r3, r3
 856:Drivers/STM32F7xx_HAL_Driver/Src/stm32f7xx_hal_dma.c ****       {
 1739              		.loc 1 856 9 view .LVU647
 1740 00f2 052B     		cmp	r3, #5
 1741 00f4 0ED0     		beq	.L118
 883:Drivers/STM32F7xx_HAL_Driver/Src/stm32f7xx_hal_dma.c ****       {
 1742              		.loc 1 883 7 is_stmt 1 view .LVU648
 883:Drivers/STM32F7xx_HAL_Driver/Src/stm32f7xx_hal_dma.c ****       {
 1743              		.loc 1 883 16 is_stmt 0 view .LVU649
 1744 00f6 2368     		ldr	r3, [r4]
 883:Drivers/STM32F7xx_HAL_Driver/Src/stm32f7xx_hal_dma.c ****       {
 1745              		.loc 1 883 26 view .LVU650
 1746 00f8 1A68     		ldr	r2, [r3]
 883:Drivers/STM32F7xx_HAL_Driver/Src/stm32f7xx_hal_dma.c ****       {
 1747              		.loc 1 883 9 view .LVU651
 1748 00fa 12F4802F 		tst	r2, #262144
 1749 00fe 33D0     		beq	.L111
 886:Drivers/STM32F7xx_HAL_Driver/Src/stm32f7xx_hal_dma.c ****         {
 1750              		.loc 1 886 9 is_stmt 1 view .LVU652
 886:Drivers/STM32F7xx_HAL_Driver/Src/stm32f7xx_hal_dma.c ****         {
 1751              		.loc 1 886 27 is_stmt 0 view .LVU653
 1752 0100 1B68     		ldr	r3, [r3]
 886:Drivers/STM32F7xx_HAL_Driver/Src/stm32f7xx_hal_dma.c ****         {
 1753              		.loc 1 886 11 view .LVU654
 1754 0102 13F4002F 		tst	r3, #524288
 1755 0106 2AD1     		bne	.L112
 888:Drivers/STM32F7xx_HAL_Driver/Src/stm32f7xx_hal_dma.c ****           {
 1756              		.loc 1 888 11 is_stmt 1 view .LVU655
 888:Drivers/STM32F7xx_HAL_Driver/Src/stm32f7xx_hal_dma.c ****           {
 1757              		.loc 1 888 18 is_stmt 0 view .LVU656
 1758 0108 636C     		ldr	r3, [r4, #68]
 888:Drivers/STM32F7xx_HAL_Driver/Src/stm32f7xx_hal_dma.c ****           {
 1759              		.loc 1 888 13 view .LVU657
 1760 010a 002B     		cmp	r3, #0
 1761 010c 3ED0     		beq	.L105
 891:Drivers/STM32F7xx_HAL_Driver/Src/stm32f7xx_hal_dma.c ****           }
 1762              		.loc 1 891 13 is_stmt 1 view .LVU658
 1763 010e 2046     		mov	r0, r4
 1764 0110 9847     		blx	r3
 1765              	.LVL135:
 1766 0112 3BE0     		b	.L105
 1767              	.L118:
 859:Drivers/STM32F7xx_HAL_Driver/Src/stm32f7xx_hal_dma.c ****         hdma->Instance->FCR &= ~(DMA_IT_FE);
 1768              		.loc 1 859 9 view .LVU659
 859:Drivers/STM32F7xx_HAL_Driver/Src/stm32f7xx_hal_dma.c ****         hdma->Instance->FCR &= ~(DMA_IT_FE);
 1769              		.loc 1 859 13 is_stmt 0 view .LVU660
 1770 0114 2268     		ldr	r2, [r4]
 859:Drivers/STM32F7xx_HAL_Driver/Src/stm32f7xx_hal_dma.c ****         hdma->Instance->FCR &= ~(DMA_IT_FE);
 1771              		.loc 1 859 29 view .LVU661
ARM GAS  /tmp/cclJgRLT.s 			page 65


 1772 0116 1368     		ldr	r3, [r2]
 1773 0118 23F01603 		bic	r3, r3, #22
 1774 011c 1360     		str	r3, [r2]
 860:Drivers/STM32F7xx_HAL_Driver/Src/stm32f7xx_hal_dma.c ****         
 1775              		.loc 1 860 9 is_stmt 1 view .LVU662
 860:Drivers/STM32F7xx_HAL_Driver/Src/stm32f7xx_hal_dma.c ****         
 1776              		.loc 1 860 13 is_stmt 0 view .LVU663
 1777 011e 2268     		ldr	r2, [r4]
 860:Drivers/STM32F7xx_HAL_Driver/Src/stm32f7xx_hal_dma.c ****         
 1778              		.loc 1 860 29 view .LVU664
 1779 0120 5369     		ldr	r3, [r2, #20]
 1780 0122 23F08003 		bic	r3, r3, #128
 1781 0126 5361     		str	r3, [r2, #20]
 862:Drivers/STM32F7xx_HAL_Driver/Src/stm32f7xx_hal_dma.c ****         {
 1782              		.loc 1 862 9 is_stmt 1 view .LVU665
 862:Drivers/STM32F7xx_HAL_Driver/Src/stm32f7xx_hal_dma.c ****         {
 1783              		.loc 1 862 17 is_stmt 0 view .LVU666
 1784 0128 236C     		ldr	r3, [r4, #64]
 862:Drivers/STM32F7xx_HAL_Driver/Src/stm32f7xx_hal_dma.c ****         {
 1785              		.loc 1 862 11 view .LVU667
 1786 012a A3B1     		cbz	r3, .L119
 1787              	.L107:
 864:Drivers/STM32F7xx_HAL_Driver/Src/stm32f7xx_hal_dma.c ****         }
 1788              		.loc 1 864 11 is_stmt 1 view .LVU668
 864:Drivers/STM32F7xx_HAL_Driver/Src/stm32f7xx_hal_dma.c ****         }
 1789              		.loc 1 864 15 is_stmt 0 view .LVU669
 1790 012c 2268     		ldr	r2, [r4]
 864:Drivers/STM32F7xx_HAL_Driver/Src/stm32f7xx_hal_dma.c ****         }
 1791              		.loc 1 864 31 view .LVU670
 1792 012e 1368     		ldr	r3, [r2]
 1793 0130 23F00803 		bic	r3, r3, #8
 1794 0134 1360     		str	r3, [r2]
 1795              	.L108:
 868:Drivers/STM32F7xx_HAL_Driver/Src/stm32f7xx_hal_dma.c **** 
 1796              		.loc 1 868 9 is_stmt 1 view .LVU671
 868:Drivers/STM32F7xx_HAL_Driver/Src/stm32f7xx_hal_dma.c **** 
 1797              		.loc 1 868 35 is_stmt 0 view .LVU672
 1798 0136 E26D     		ldr	r2, [r4, #92]
 868:Drivers/STM32F7xx_HAL_Driver/Src/stm32f7xx_hal_dma.c **** 
 1799              		.loc 1 868 28 view .LVU673
 1800 0138 3F23     		movs	r3, #63
 1801 013a 9340     		lsls	r3, r3, r2
 868:Drivers/STM32F7xx_HAL_Driver/Src/stm32f7xx_hal_dma.c **** 
 1802              		.loc 1 868 20 view .LVU674
 1803 013c BB60     		str	r3, [r7, #8]
 871:Drivers/STM32F7xx_HAL_Driver/Src/stm32f7xx_hal_dma.c **** 
 1804              		.loc 1 871 9 is_stmt 1 view .LVU675
 871:Drivers/STM32F7xx_HAL_Driver/Src/stm32f7xx_hal_dma.c **** 
 1805              		.loc 1 871 21 is_stmt 0 view .LVU676
 1806 013e 0123     		movs	r3, #1
 1807 0140 84F83530 		strb	r3, [r4, #53]
 874:Drivers/STM32F7xx_HAL_Driver/Src/stm32f7xx_hal_dma.c **** 
 1808              		.loc 1 874 9 is_stmt 1 view .LVU677
 874:Drivers/STM32F7xx_HAL_Driver/Src/stm32f7xx_hal_dma.c **** 
 1809              		.loc 1 874 9 view .LVU678
 1810 0144 0023     		movs	r3, #0
 1811 0146 84F83430 		strb	r3, [r4, #52]
ARM GAS  /tmp/cclJgRLT.s 			page 66


 874:Drivers/STM32F7xx_HAL_Driver/Src/stm32f7xx_hal_dma.c **** 
 1812              		.loc 1 874 9 view .LVU679
 876:Drivers/STM32F7xx_HAL_Driver/Src/stm32f7xx_hal_dma.c ****         {
 1813              		.loc 1 876 9 view .LVU680
 876:Drivers/STM32F7xx_HAL_Driver/Src/stm32f7xx_hal_dma.c ****         {
 1814              		.loc 1 876 16 is_stmt 0 view .LVU681
 1815 014a 236D     		ldr	r3, [r4, #80]
 876:Drivers/STM32F7xx_HAL_Driver/Src/stm32f7xx_hal_dma.c ****         {
 1816              		.loc 1 876 11 view .LVU682
 1817 014c 002B     		cmp	r3, #0
 1818 014e 3FD0     		beq	.L97
 878:Drivers/STM32F7xx_HAL_Driver/Src/stm32f7xx_hal_dma.c ****         }
 1819              		.loc 1 878 11 is_stmt 1 view .LVU683
 1820 0150 2046     		mov	r0, r4
 1821 0152 9847     		blx	r3
 1822              	.LVL136:
 880:Drivers/STM32F7xx_HAL_Driver/Src/stm32f7xx_hal_dma.c ****       }
 1823              		.loc 1 880 9 view .LVU684
 1824 0154 3CE0     		b	.L97
 1825              	.L119:
 862:Drivers/STM32F7xx_HAL_Driver/Src/stm32f7xx_hal_dma.c ****         {
 1826              		.loc 1 862 57 is_stmt 0 discriminator 1 view .LVU685
 1827 0156 A36C     		ldr	r3, [r4, #72]
 862:Drivers/STM32F7xx_HAL_Driver/Src/stm32f7xx_hal_dma.c ****         {
 1828              		.loc 1 862 49 discriminator 1 view .LVU686
 1829 0158 002B     		cmp	r3, #0
 1830 015a E7D1     		bne	.L107
 1831 015c EBE7     		b	.L108
 1832              	.L112:
 897:Drivers/STM32F7xx_HAL_Driver/Src/stm32f7xx_hal_dma.c ****           {
 1833              		.loc 1 897 11 is_stmt 1 view .LVU687
 897:Drivers/STM32F7xx_HAL_Driver/Src/stm32f7xx_hal_dma.c ****           {
 1834              		.loc 1 897 18 is_stmt 0 view .LVU688
 1835 015e E36B     		ldr	r3, [r4, #60]
 897:Drivers/STM32F7xx_HAL_Driver/Src/stm32f7xx_hal_dma.c ****           {
 1836              		.loc 1 897 13 view .LVU689
 1837 0160 A3B1     		cbz	r3, .L105
 900:Drivers/STM32F7xx_HAL_Driver/Src/stm32f7xx_hal_dma.c ****           }
 1838              		.loc 1 900 13 is_stmt 1 view .LVU690
 1839 0162 2046     		mov	r0, r4
 1840 0164 9847     		blx	r3
 1841              	.LVL137:
 1842 0166 11E0     		b	.L105
 1843              	.L111:
 907:Drivers/STM32F7xx_HAL_Driver/Src/stm32f7xx_hal_dma.c ****         {
 1844              		.loc 1 907 9 view .LVU691
 907:Drivers/STM32F7xx_HAL_Driver/Src/stm32f7xx_hal_dma.c ****         {
 1845              		.loc 1 907 27 is_stmt 0 view .LVU692
 1846 0168 1A68     		ldr	r2, [r3]
 907:Drivers/STM32F7xx_HAL_Driver/Src/stm32f7xx_hal_dma.c ****         {
 1847              		.loc 1 907 11 view .LVU693
 1848 016a 12F4807F 		tst	r2, #256
 1849 016e 09D1     		bne	.L113
 910:Drivers/STM32F7xx_HAL_Driver/Src/stm32f7xx_hal_dma.c **** 
 1850              		.loc 1 910 11 is_stmt 1 view .LVU694
 910:Drivers/STM32F7xx_HAL_Driver/Src/stm32f7xx_hal_dma.c **** 
 1851              		.loc 1 910 31 is_stmt 0 view .LVU695
ARM GAS  /tmp/cclJgRLT.s 			page 67


 1852 0170 1A68     		ldr	r2, [r3]
 1853 0172 22F01002 		bic	r2, r2, #16
 1854 0176 1A60     		str	r2, [r3]
 913:Drivers/STM32F7xx_HAL_Driver/Src/stm32f7xx_hal_dma.c **** 
 1855              		.loc 1 913 11 is_stmt 1 view .LVU696
 913:Drivers/STM32F7xx_HAL_Driver/Src/stm32f7xx_hal_dma.c **** 
 1856              		.loc 1 913 23 is_stmt 0 view .LVU697
 1857 0178 0123     		movs	r3, #1
 1858 017a 84F83530 		strb	r3, [r4, #53]
 916:Drivers/STM32F7xx_HAL_Driver/Src/stm32f7xx_hal_dma.c **** 
 1859              		.loc 1 916 11 is_stmt 1 view .LVU698
 916:Drivers/STM32F7xx_HAL_Driver/Src/stm32f7xx_hal_dma.c **** 
 1860              		.loc 1 916 11 view .LVU699
 1861 017e 0023     		movs	r3, #0
 1862 0180 84F83430 		strb	r3, [r4, #52]
 1863              	.L113:
 916:Drivers/STM32F7xx_HAL_Driver/Src/stm32f7xx_hal_dma.c **** 
 1864              		.loc 1 916 11 discriminator 1 view .LVU700
 920:Drivers/STM32F7xx_HAL_Driver/Src/stm32f7xx_hal_dma.c ****         {
 1865              		.loc 1 920 9 discriminator 1 view .LVU701
 920:Drivers/STM32F7xx_HAL_Driver/Src/stm32f7xx_hal_dma.c ****         {
 1866              		.loc 1 920 16 is_stmt 0 discriminator 1 view .LVU702
 1867 0184 E36B     		ldr	r3, [r4, #60]
 920:Drivers/STM32F7xx_HAL_Driver/Src/stm32f7xx_hal_dma.c ****         {
 1868              		.loc 1 920 11 discriminator 1 view .LVU703
 1869 0186 0BB1     		cbz	r3, .L105
 923:Drivers/STM32F7xx_HAL_Driver/Src/stm32f7xx_hal_dma.c ****         }
 1870              		.loc 1 923 11 is_stmt 1 view .LVU704
 1871 0188 2046     		mov	r0, r4
 1872 018a 9847     		blx	r3
 1873              	.LVL138:
 1874              	.L105:
 930:Drivers/STM32F7xx_HAL_Driver/Src/stm32f7xx_hal_dma.c ****   {
 1875              		.loc 1 930 3 view .LVU705
 930:Drivers/STM32F7xx_HAL_Driver/Src/stm32f7xx_hal_dma.c ****   {
 1876              		.loc 1 930 10 is_stmt 0 view .LVU706
 1877 018c 636D     		ldr	r3, [r4, #84]
 930:Drivers/STM32F7xx_HAL_Driver/Src/stm32f7xx_hal_dma.c ****   {
 1878              		.loc 1 930 5 view .LVU707
 1879 018e FBB1     		cbz	r3, .L97
 932:Drivers/STM32F7xx_HAL_Driver/Src/stm32f7xx_hal_dma.c ****     {
 1880              		.loc 1 932 5 is_stmt 1 view .LVU708
 932:Drivers/STM32F7xx_HAL_Driver/Src/stm32f7xx_hal_dma.c ****     {
 1881              		.loc 1 932 13 is_stmt 0 view .LVU709
 1882 0190 636D     		ldr	r3, [r4, #84]
 932:Drivers/STM32F7xx_HAL_Driver/Src/stm32f7xx_hal_dma.c ****     {
 1883              		.loc 1 932 7 view .LVU710
 1884 0192 13F0010F 		tst	r3, #1
 1885 0196 17D0     		beq	.L114
 934:Drivers/STM32F7xx_HAL_Driver/Src/stm32f7xx_hal_dma.c **** 
 1886              		.loc 1 934 7 is_stmt 1 view .LVU711
 934:Drivers/STM32F7xx_HAL_Driver/Src/stm32f7xx_hal_dma.c **** 
 1887              		.loc 1 934 19 is_stmt 0 view .LVU712
 1888 0198 0523     		movs	r3, #5
 1889 019a 84F83530 		strb	r3, [r4, #53]
 937:Drivers/STM32F7xx_HAL_Driver/Src/stm32f7xx_hal_dma.c **** 
 1890              		.loc 1 937 7 is_stmt 1 view .LVU713
ARM GAS  /tmp/cclJgRLT.s 			page 68


 1891 019e 2268     		ldr	r2, [r4]
 1892 01a0 1368     		ldr	r3, [r2]
 1893 01a2 23F00103 		bic	r3, r3, #1
 1894 01a6 1360     		str	r3, [r2]
 1895              	.L116:
 939:Drivers/STM32F7xx_HAL_Driver/Src/stm32f7xx_hal_dma.c ****       {
 1896              		.loc 1 939 7 view .LVU714
 941:Drivers/STM32F7xx_HAL_Driver/Src/stm32f7xx_hal_dma.c ****         {
 1897              		.loc 1 941 9 view .LVU715
 941:Drivers/STM32F7xx_HAL_Driver/Src/stm32f7xx_hal_dma.c ****         {
 1898              		.loc 1 941 13 is_stmt 0 view .LVU716
 1899 01a8 019B     		ldr	r3, [sp, #4]
 1900 01aa 0133     		adds	r3, r3, #1
 941:Drivers/STM32F7xx_HAL_Driver/Src/stm32f7xx_hal_dma.c ****         {
 1901              		.loc 1 941 12 view .LVU717
 1902 01ac 0193     		str	r3, [sp, #4]
 1903 01ae AB42     		cmp	r3, r5
 1904 01b0 04D8     		bhi	.L115
 946:Drivers/STM32F7xx_HAL_Driver/Src/stm32f7xx_hal_dma.c **** 
 1905              		.loc 1 946 12 is_stmt 1 view .LVU718
 946:Drivers/STM32F7xx_HAL_Driver/Src/stm32f7xx_hal_dma.c **** 
 1906              		.loc 1 946 18 is_stmt 0 view .LVU719
 1907 01b2 2368     		ldr	r3, [r4]
 946:Drivers/STM32F7xx_HAL_Driver/Src/stm32f7xx_hal_dma.c **** 
 1908              		.loc 1 946 28 view .LVU720
 1909 01b4 1B68     		ldr	r3, [r3]
 946:Drivers/STM32F7xx_HAL_Driver/Src/stm32f7xx_hal_dma.c **** 
 1910              		.loc 1 946 7 view .LVU721
 1911 01b6 13F0010F 		tst	r3, #1
 1912 01ba F5D1     		bne	.L116
 1913              	.L115:
 949:Drivers/STM32F7xx_HAL_Driver/Src/stm32f7xx_hal_dma.c **** 
 1914              		.loc 1 949 7 is_stmt 1 view .LVU722
 949:Drivers/STM32F7xx_HAL_Driver/Src/stm32f7xx_hal_dma.c **** 
 1915              		.loc 1 949 19 is_stmt 0 view .LVU723
 1916 01bc 0123     		movs	r3, #1
 1917 01be 84F83530 		strb	r3, [r4, #53]
 952:Drivers/STM32F7xx_HAL_Driver/Src/stm32f7xx_hal_dma.c **** 
 1918              		.loc 1 952 7 is_stmt 1 view .LVU724
 952:Drivers/STM32F7xx_HAL_Driver/Src/stm32f7xx_hal_dma.c **** 
 1919              		.loc 1 952 7 view .LVU725
 1920 01c2 0023     		movs	r3, #0
 1921 01c4 84F83430 		strb	r3, [r4, #52]
 1922              	.L114:
 952:Drivers/STM32F7xx_HAL_Driver/Src/stm32f7xx_hal_dma.c **** 
 1923              		.loc 1 952 7 discriminator 1 view .LVU726
 956:Drivers/STM32F7xx_HAL_Driver/Src/stm32f7xx_hal_dma.c ****     {
 1924              		.loc 1 956 5 discriminator 1 view .LVU727
 956:Drivers/STM32F7xx_HAL_Driver/Src/stm32f7xx_hal_dma.c ****     {
 1925              		.loc 1 956 12 is_stmt 0 discriminator 1 view .LVU728
 1926 01c8 E36C     		ldr	r3, [r4, #76]
 956:Drivers/STM32F7xx_HAL_Driver/Src/stm32f7xx_hal_dma.c ****     {
 1927              		.loc 1 956 7 discriminator 1 view .LVU729
 1928 01ca 0BB1     		cbz	r3, .L97
 959:Drivers/STM32F7xx_HAL_Driver/Src/stm32f7xx_hal_dma.c ****     }
 1929              		.loc 1 959 7 is_stmt 1 view .LVU730
 1930 01cc 2046     		mov	r0, r4
ARM GAS  /tmp/cclJgRLT.s 			page 69


 1931 01ce 9847     		blx	r3
 1932              	.LVL139:
 1933              	.L97:
 962:Drivers/STM32F7xx_HAL_Driver/Src/stm32f7xx_hal_dma.c **** 
 1934              		.loc 1 962 1 is_stmt 0 view .LVU731
 1935 01d0 03B0     		add	sp, sp, #12
 1936              	.LCFI15:
 1937              		.cfi_def_cfa_offset 20
 1938              		@ sp needed
 1939 01d2 F0BD     		pop	{r4, r5, r6, r7, pc}
 1940              	.LVL140:
 1941              	.L121:
 962:Drivers/STM32F7xx_HAL_Driver/Src/stm32f7xx_hal_dma.c **** 
 1942              		.loc 1 962 1 view .LVU732
 1943              		.align	2
 1944              	.L120:
 1945 01d4 00000000 		.word	SystemCoreClock
 1946 01d8 B5814E1B 		.word	458129845
 1947              		.cfi_endproc
 1948              	.LFE148:
 1950              		.section	.text.HAL_DMA_RegisterCallback,"ax",%progbits
 1951              		.align	1
 1952              		.global	HAL_DMA_RegisterCallback
 1953              		.syntax unified
 1954              		.thumb
 1955              		.thumb_func
 1957              	HAL_DMA_RegisterCallback:
 1958              	.LVL141:
 1959              	.LFB149:
 975:Drivers/STM32F7xx_HAL_Driver/Src/stm32f7xx_hal_dma.c **** 
 1960              		.loc 1 975 1 is_stmt 1 view -0
 1961              		.cfi_startproc
 1962              		@ args = 0, pretend = 0, frame = 0
 1963              		@ frame_needed = 0, uses_anonymous_args = 0
 1964              		@ link register save eliminated.
 975:Drivers/STM32F7xx_HAL_Driver/Src/stm32f7xx_hal_dma.c **** 
 1965              		.loc 1 975 1 is_stmt 0 view .LVU734
 1966 0000 0346     		mov	r3, r0
 977:Drivers/STM32F7xx_HAL_Driver/Src/stm32f7xx_hal_dma.c **** 
 1967              		.loc 1 977 3 is_stmt 1 view .LVU735
 1968              	.LVL142:
 980:Drivers/STM32F7xx_HAL_Driver/Src/stm32f7xx_hal_dma.c **** 
 1969              		.loc 1 980 3 view .LVU736
 980:Drivers/STM32F7xx_HAL_Driver/Src/stm32f7xx_hal_dma.c **** 
 1970              		.loc 1 980 3 view .LVU737
 1971 0002 90F83400 		ldrb	r0, [r0, #52]	@ zero_extendqisi2
 1972              	.LVL143:
 980:Drivers/STM32F7xx_HAL_Driver/Src/stm32f7xx_hal_dma.c **** 
 1973              		.loc 1 980 3 is_stmt 0 view .LVU738
 1974 0006 0128     		cmp	r0, #1
 1975 0008 25D0     		beq	.L132
 980:Drivers/STM32F7xx_HAL_Driver/Src/stm32f7xx_hal_dma.c **** 
 1976              		.loc 1 980 3 is_stmt 1 discriminator 2 view .LVU739
 1977 000a 0120     		movs	r0, #1
 1978 000c 83F83400 		strb	r0, [r3, #52]
 980:Drivers/STM32F7xx_HAL_Driver/Src/stm32f7xx_hal_dma.c **** 
 1979              		.loc 1 980 3 discriminator 2 view .LVU740
ARM GAS  /tmp/cclJgRLT.s 			page 70


 982:Drivers/STM32F7xx_HAL_Driver/Src/stm32f7xx_hal_dma.c ****   {
 1980              		.loc 1 982 3 discriminator 2 view .LVU741
 982:Drivers/STM32F7xx_HAL_Driver/Src/stm32f7xx_hal_dma.c ****   {
 1981              		.loc 1 982 33 is_stmt 0 discriminator 2 view .LVU742
 1982 0010 93F83500 		ldrb	r0, [r3, #53]	@ zero_extendqisi2
 1983 0014 C0B2     		uxtb	r0, r0
 982:Drivers/STM32F7xx_HAL_Driver/Src/stm32f7xx_hal_dma.c ****   {
 1984              		.loc 1 982 5 discriminator 2 view .LVU743
 1985 0016 0128     		cmp	r0, #1
 1986 0018 04D0     		beq	.L134
1019:Drivers/STM32F7xx_HAL_Driver/Src/stm32f7xx_hal_dma.c ****   }
 1987              		.loc 1 1019 12 view .LVU744
 1988 001a 0120     		movs	r0, #1
 1989              	.L124:
 1990              	.LVL144:
1023:Drivers/STM32F7xx_HAL_Driver/Src/stm32f7xx_hal_dma.c ****   
 1991              		.loc 1 1023 3 is_stmt 1 view .LVU745
1023:Drivers/STM32F7xx_HAL_Driver/Src/stm32f7xx_hal_dma.c ****   
 1992              		.loc 1 1023 3 view .LVU746
 1993 001c 0022     		movs	r2, #0
 1994              	.LVL145:
1023:Drivers/STM32F7xx_HAL_Driver/Src/stm32f7xx_hal_dma.c ****   
 1995              		.loc 1 1023 3 is_stmt 0 view .LVU747
 1996 001e 83F83420 		strb	r2, [r3, #52]
1023:Drivers/STM32F7xx_HAL_Driver/Src/stm32f7xx_hal_dma.c ****   
 1997              		.loc 1 1023 3 is_stmt 1 view .LVU748
1025:Drivers/STM32F7xx_HAL_Driver/Src/stm32f7xx_hal_dma.c **** }
 1998              		.loc 1 1025 3 view .LVU749
1025:Drivers/STM32F7xx_HAL_Driver/Src/stm32f7xx_hal_dma.c **** }
 1999              		.loc 1 1025 10 is_stmt 0 view .LVU750
 2000 0022 7047     		bx	lr
 2001              	.LVL146:
 2002              	.L134:
 984:Drivers/STM32F7xx_HAL_Driver/Src/stm32f7xx_hal_dma.c ****     {
 2003              		.loc 1 984 5 is_stmt 1 view .LVU751
 2004 0024 0529     		cmp	r1, #5
 2005 0026 F9D8     		bhi	.L124
 2006 0028 DFE801F0 		tbb	[pc, r1]
 2007              	.L126:
 2008 002c 03       		.byte	(.L131-.L126)/2
 2009 002d 06       		.byte	(.L130-.L126)/2
 2010 002e 09       		.byte	(.L129-.L126)/2
 2011 002f 0C       		.byte	(.L128-.L126)/2
 2012 0030 0F       		.byte	(.L127-.L126)/2
 2013 0031 12       		.byte	(.L125-.L126)/2
 2014              		.p2align 1
 2015              	.L131:
 987:Drivers/STM32F7xx_HAL_Driver/Src/stm32f7xx_hal_dma.c ****       break;
 2016              		.loc 1 987 7 view .LVU752
 987:Drivers/STM32F7xx_HAL_Driver/Src/stm32f7xx_hal_dma.c ****       break;
 2017              		.loc 1 987 30 is_stmt 0 view .LVU753
 2018 0032 DA63     		str	r2, [r3, #60]
 988:Drivers/STM32F7xx_HAL_Driver/Src/stm32f7xx_hal_dma.c **** 
 2019              		.loc 1 988 7 is_stmt 1 view .LVU754
 977:Drivers/STM32F7xx_HAL_Driver/Src/stm32f7xx_hal_dma.c **** 
 2020              		.loc 1 977 21 is_stmt 0 view .LVU755
 2021 0034 0846     		mov	r0, r1
ARM GAS  /tmp/cclJgRLT.s 			page 71


 988:Drivers/STM32F7xx_HAL_Driver/Src/stm32f7xx_hal_dma.c **** 
 2022              		.loc 1 988 7 view .LVU756
 2023 0036 F1E7     		b	.L124
 2024              	.L130:
 991:Drivers/STM32F7xx_HAL_Driver/Src/stm32f7xx_hal_dma.c ****       break;
 2025              		.loc 1 991 7 is_stmt 1 view .LVU757
 991:Drivers/STM32F7xx_HAL_Driver/Src/stm32f7xx_hal_dma.c ****       break;
 2026              		.loc 1 991 34 is_stmt 0 view .LVU758
 2027 0038 1A64     		str	r2, [r3, #64]
 992:Drivers/STM32F7xx_HAL_Driver/Src/stm32f7xx_hal_dma.c **** 
 2028              		.loc 1 992 7 is_stmt 1 view .LVU759
 977:Drivers/STM32F7xx_HAL_Driver/Src/stm32f7xx_hal_dma.c **** 
 2029              		.loc 1 977 21 is_stmt 0 view .LVU760
 2030 003a 0020     		movs	r0, #0
 992:Drivers/STM32F7xx_HAL_Driver/Src/stm32f7xx_hal_dma.c **** 
 2031              		.loc 1 992 7 view .LVU761
 2032 003c EEE7     		b	.L124
 2033              	.L129:
 995:Drivers/STM32F7xx_HAL_Driver/Src/stm32f7xx_hal_dma.c ****       break;
 2034              		.loc 1 995 7 is_stmt 1 view .LVU762
 995:Drivers/STM32F7xx_HAL_Driver/Src/stm32f7xx_hal_dma.c ****       break;
 2035              		.loc 1 995 32 is_stmt 0 view .LVU763
 2036 003e 5A64     		str	r2, [r3, #68]
 996:Drivers/STM32F7xx_HAL_Driver/Src/stm32f7xx_hal_dma.c **** 
 2037              		.loc 1 996 7 is_stmt 1 view .LVU764
 977:Drivers/STM32F7xx_HAL_Driver/Src/stm32f7xx_hal_dma.c **** 
 2038              		.loc 1 977 21 is_stmt 0 view .LVU765
 2039 0040 0020     		movs	r0, #0
 996:Drivers/STM32F7xx_HAL_Driver/Src/stm32f7xx_hal_dma.c **** 
 2040              		.loc 1 996 7 view .LVU766
 2041 0042 EBE7     		b	.L124
 2042              	.L128:
 999:Drivers/STM32F7xx_HAL_Driver/Src/stm32f7xx_hal_dma.c ****       break;
 2043              		.loc 1 999 7 is_stmt 1 view .LVU767
 999:Drivers/STM32F7xx_HAL_Driver/Src/stm32f7xx_hal_dma.c ****       break;
 2044              		.loc 1 999 36 is_stmt 0 view .LVU768
 2045 0044 9A64     		str	r2, [r3, #72]
1000:Drivers/STM32F7xx_HAL_Driver/Src/stm32f7xx_hal_dma.c **** 
 2046              		.loc 1 1000 7 is_stmt 1 view .LVU769
 977:Drivers/STM32F7xx_HAL_Driver/Src/stm32f7xx_hal_dma.c **** 
 2047              		.loc 1 977 21 is_stmt 0 view .LVU770
 2048 0046 0020     		movs	r0, #0
1000:Drivers/STM32F7xx_HAL_Driver/Src/stm32f7xx_hal_dma.c **** 
 2049              		.loc 1 1000 7 view .LVU771
 2050 0048 E8E7     		b	.L124
 2051              	.L127:
1003:Drivers/STM32F7xx_HAL_Driver/Src/stm32f7xx_hal_dma.c ****       break;
 2052              		.loc 1 1003 7 is_stmt 1 view .LVU772
1003:Drivers/STM32F7xx_HAL_Driver/Src/stm32f7xx_hal_dma.c ****       break;
 2053              		.loc 1 1003 31 is_stmt 0 view .LVU773
 2054 004a DA64     		str	r2, [r3, #76]
1004:Drivers/STM32F7xx_HAL_Driver/Src/stm32f7xx_hal_dma.c **** 
 2055              		.loc 1 1004 7 is_stmt 1 view .LVU774
 977:Drivers/STM32F7xx_HAL_Driver/Src/stm32f7xx_hal_dma.c **** 
 2056              		.loc 1 977 21 is_stmt 0 view .LVU775
 2057 004c 0020     		movs	r0, #0
1004:Drivers/STM32F7xx_HAL_Driver/Src/stm32f7xx_hal_dma.c **** 
ARM GAS  /tmp/cclJgRLT.s 			page 72


 2058              		.loc 1 1004 7 view .LVU776
 2059 004e E5E7     		b	.L124
 2060              	.L125:
1007:Drivers/STM32F7xx_HAL_Driver/Src/stm32f7xx_hal_dma.c ****       break;
 2061              		.loc 1 1007 7 is_stmt 1 view .LVU777
1007:Drivers/STM32F7xx_HAL_Driver/Src/stm32f7xx_hal_dma.c ****       break;
 2062              		.loc 1 1007 31 is_stmt 0 view .LVU778
 2063 0050 1A65     		str	r2, [r3, #80]
1008:Drivers/STM32F7xx_HAL_Driver/Src/stm32f7xx_hal_dma.c **** 
 2064              		.loc 1 1008 7 is_stmt 1 view .LVU779
 977:Drivers/STM32F7xx_HAL_Driver/Src/stm32f7xx_hal_dma.c **** 
 2065              		.loc 1 977 21 is_stmt 0 view .LVU780
 2066 0052 0020     		movs	r0, #0
1008:Drivers/STM32F7xx_HAL_Driver/Src/stm32f7xx_hal_dma.c **** 
 2067              		.loc 1 1008 7 view .LVU781
 2068 0054 E2E7     		b	.L124
 2069              	.L132:
 980:Drivers/STM32F7xx_HAL_Driver/Src/stm32f7xx_hal_dma.c **** 
 2070              		.loc 1 980 3 view .LVU782
 2071 0056 0220     		movs	r0, #2
1026:Drivers/STM32F7xx_HAL_Driver/Src/stm32f7xx_hal_dma.c **** 
 2072              		.loc 1 1026 1 view .LVU783
 2073 0058 7047     		bx	lr
 2074              		.cfi_endproc
 2075              	.LFE149:
 2077              		.section	.text.HAL_DMA_UnRegisterCallback,"ax",%progbits
 2078              		.align	1
 2079              		.global	HAL_DMA_UnRegisterCallback
 2080              		.syntax unified
 2081              		.thumb
 2082              		.thumb_func
 2084              	HAL_DMA_UnRegisterCallback:
 2085              	.LVL147:
 2086              	.LFB150:
1037:Drivers/STM32F7xx_HAL_Driver/Src/stm32f7xx_hal_dma.c ****   HAL_StatusTypeDef status = HAL_OK;
 2087              		.loc 1 1037 1 is_stmt 1 view -0
 2088              		.cfi_startproc
 2089              		@ args = 0, pretend = 0, frame = 0
 2090              		@ frame_needed = 0, uses_anonymous_args = 0
 2091              		@ link register save eliminated.
1037:Drivers/STM32F7xx_HAL_Driver/Src/stm32f7xx_hal_dma.c ****   HAL_StatusTypeDef status = HAL_OK;
 2092              		.loc 1 1037 1 is_stmt 0 view .LVU785
 2093 0000 0346     		mov	r3, r0
1038:Drivers/STM32F7xx_HAL_Driver/Src/stm32f7xx_hal_dma.c ****   
 2094              		.loc 1 1038 3 is_stmt 1 view .LVU786
 2095              	.LVL148:
1041:Drivers/STM32F7xx_HAL_Driver/Src/stm32f7xx_hal_dma.c ****   
 2096              		.loc 1 1041 3 view .LVU787
1041:Drivers/STM32F7xx_HAL_Driver/Src/stm32f7xx_hal_dma.c ****   
 2097              		.loc 1 1041 3 view .LVU788
 2098 0002 90F83420 		ldrb	r2, [r0, #52]	@ zero_extendqisi2
 2099 0006 012A     		cmp	r2, #1
 2100 0008 2FD0     		beq	.L146
1041:Drivers/STM32F7xx_HAL_Driver/Src/stm32f7xx_hal_dma.c ****   
 2101              		.loc 1 1041 3 discriminator 2 view .LVU789
 2102 000a 0122     		movs	r2, #1
 2103 000c 80F83420 		strb	r2, [r0, #52]
ARM GAS  /tmp/cclJgRLT.s 			page 73


1041:Drivers/STM32F7xx_HAL_Driver/Src/stm32f7xx_hal_dma.c ****   
 2104              		.loc 1 1041 3 discriminator 2 view .LVU790
1043:Drivers/STM32F7xx_HAL_Driver/Src/stm32f7xx_hal_dma.c ****   {
 2105              		.loc 1 1043 3 discriminator 2 view .LVU791
1043:Drivers/STM32F7xx_HAL_Driver/Src/stm32f7xx_hal_dma.c ****   {
 2106              		.loc 1 1043 33 is_stmt 0 discriminator 2 view .LVU792
 2107 0010 90F83500 		ldrb	r0, [r0, #53]	@ zero_extendqisi2
 2108              	.LVL149:
1043:Drivers/STM32F7xx_HAL_Driver/Src/stm32f7xx_hal_dma.c ****   {
 2109              		.loc 1 1043 33 discriminator 2 view .LVU793
 2110 0014 C0B2     		uxtb	r0, r0
1043:Drivers/STM32F7xx_HAL_Driver/Src/stm32f7xx_hal_dma.c ****   {
 2111              		.loc 1 1043 5 discriminator 2 view .LVU794
 2112 0016 9042     		cmp	r0, r2
 2113 0018 04D0     		beq	.L148
1087:Drivers/STM32F7xx_HAL_Driver/Src/stm32f7xx_hal_dma.c ****   }
 2114              		.loc 1 1087 12 view .LVU795
 2115 001a 0120     		movs	r0, #1
 2116              	.L137:
 2117              	.LVL150:
1091:Drivers/STM32F7xx_HAL_Driver/Src/stm32f7xx_hal_dma.c ****   
 2118              		.loc 1 1091 3 is_stmt 1 view .LVU796
1091:Drivers/STM32F7xx_HAL_Driver/Src/stm32f7xx_hal_dma.c ****   
 2119              		.loc 1 1091 3 view .LVU797
 2120 001c 0022     		movs	r2, #0
 2121 001e 83F83420 		strb	r2, [r3, #52]
1091:Drivers/STM32F7xx_HAL_Driver/Src/stm32f7xx_hal_dma.c ****   
 2122              		.loc 1 1091 3 view .LVU798
1093:Drivers/STM32F7xx_HAL_Driver/Src/stm32f7xx_hal_dma.c **** }
 2123              		.loc 1 1093 3 view .LVU799
1093:Drivers/STM32F7xx_HAL_Driver/Src/stm32f7xx_hal_dma.c **** }
 2124              		.loc 1 1093 10 is_stmt 0 view .LVU800
 2125 0022 7047     		bx	lr
 2126              	.LVL151:
 2127              	.L148:
1045:Drivers/STM32F7xx_HAL_Driver/Src/stm32f7xx_hal_dma.c ****     {
 2128              		.loc 1 1045 5 is_stmt 1 view .LVU801
 2129 0024 0629     		cmp	r1, #6
 2130 0026 F9D8     		bhi	.L137
 2131 0028 DFE801F0 		tbb	[pc, r1]
 2132              	.L139:
 2133 002c 04       		.byte	(.L145-.L139)/2
 2134 002d 08       		.byte	(.L144-.L139)/2
 2135 002e 0B       		.byte	(.L143-.L139)/2
 2136 002f 0E       		.byte	(.L142-.L139)/2
 2137 0030 11       		.byte	(.L141-.L139)/2
 2138 0031 14       		.byte	(.L140-.L139)/2
 2139 0032 17       		.byte	(.L138-.L139)/2
 2140 0033 00       		.p2align 1
 2141              	.L145:
1048:Drivers/STM32F7xx_HAL_Driver/Src/stm32f7xx_hal_dma.c ****       break;
 2142              		.loc 1 1048 7 view .LVU802
1048:Drivers/STM32F7xx_HAL_Driver/Src/stm32f7xx_hal_dma.c ****       break;
 2143              		.loc 1 1048 30 is_stmt 0 view .LVU803
 2144 0034 0022     		movs	r2, #0
 2145 0036 DA63     		str	r2, [r3, #60]
1049:Drivers/STM32F7xx_HAL_Driver/Src/stm32f7xx_hal_dma.c ****       
ARM GAS  /tmp/cclJgRLT.s 			page 74


 2146              		.loc 1 1049 7 is_stmt 1 view .LVU804
1038:Drivers/STM32F7xx_HAL_Driver/Src/stm32f7xx_hal_dma.c ****   
 2147              		.loc 1 1038 21 is_stmt 0 view .LVU805
 2148 0038 0846     		mov	r0, r1
1049:Drivers/STM32F7xx_HAL_Driver/Src/stm32f7xx_hal_dma.c ****       
 2149              		.loc 1 1049 7 view .LVU806
 2150 003a EFE7     		b	.L137
 2151              	.L144:
1052:Drivers/STM32F7xx_HAL_Driver/Src/stm32f7xx_hal_dma.c ****       break;
 2152              		.loc 1 1052 7 is_stmt 1 view .LVU807
1052:Drivers/STM32F7xx_HAL_Driver/Src/stm32f7xx_hal_dma.c ****       break;
 2153              		.loc 1 1052 34 is_stmt 0 view .LVU808
 2154 003c 0020     		movs	r0, #0
 2155 003e 1864     		str	r0, [r3, #64]
1053:Drivers/STM32F7xx_HAL_Driver/Src/stm32f7xx_hal_dma.c ****       
 2156              		.loc 1 1053 7 is_stmt 1 view .LVU809
 2157 0040 ECE7     		b	.L137
 2158              	.L143:
1056:Drivers/STM32F7xx_HAL_Driver/Src/stm32f7xx_hal_dma.c ****       break;
 2159              		.loc 1 1056 7 view .LVU810
1056:Drivers/STM32F7xx_HAL_Driver/Src/stm32f7xx_hal_dma.c ****       break;
 2160              		.loc 1 1056 32 is_stmt 0 view .LVU811
 2161 0042 0020     		movs	r0, #0
 2162 0044 5864     		str	r0, [r3, #68]
1057:Drivers/STM32F7xx_HAL_Driver/Src/stm32f7xx_hal_dma.c ****       
 2163              		.loc 1 1057 7 is_stmt 1 view .LVU812
 2164 0046 E9E7     		b	.L137
 2165              	.L142:
1060:Drivers/STM32F7xx_HAL_Driver/Src/stm32f7xx_hal_dma.c ****       break;
 2166              		.loc 1 1060 7 view .LVU813
1060:Drivers/STM32F7xx_HAL_Driver/Src/stm32f7xx_hal_dma.c ****       break;
 2167              		.loc 1 1060 36 is_stmt 0 view .LVU814
 2168 0048 0020     		movs	r0, #0
 2169 004a 9864     		str	r0, [r3, #72]
1061:Drivers/STM32F7xx_HAL_Driver/Src/stm32f7xx_hal_dma.c ****       
 2170              		.loc 1 1061 7 is_stmt 1 view .LVU815
 2171 004c E6E7     		b	.L137
 2172              	.L141:
1064:Drivers/STM32F7xx_HAL_Driver/Src/stm32f7xx_hal_dma.c ****       break;
 2173              		.loc 1 1064 7 view .LVU816
1064:Drivers/STM32F7xx_HAL_Driver/Src/stm32f7xx_hal_dma.c ****       break;
 2174              		.loc 1 1064 31 is_stmt 0 view .LVU817
 2175 004e 0020     		movs	r0, #0
 2176 0050 D864     		str	r0, [r3, #76]
1065:Drivers/STM32F7xx_HAL_Driver/Src/stm32f7xx_hal_dma.c ****       
 2177              		.loc 1 1065 7 is_stmt 1 view .LVU818
 2178 0052 E3E7     		b	.L137
 2179              	.L140:
1068:Drivers/STM32F7xx_HAL_Driver/Src/stm32f7xx_hal_dma.c ****       break; 
 2180              		.loc 1 1068 7 view .LVU819
1068:Drivers/STM32F7xx_HAL_Driver/Src/stm32f7xx_hal_dma.c ****       break; 
 2181              		.loc 1 1068 31 is_stmt 0 view .LVU820
 2182 0054 0020     		movs	r0, #0
 2183 0056 1865     		str	r0, [r3, #80]
1069:Drivers/STM32F7xx_HAL_Driver/Src/stm32f7xx_hal_dma.c ****       
 2184              		.loc 1 1069 7 is_stmt 1 view .LVU821
 2185 0058 E0E7     		b	.L137
ARM GAS  /tmp/cclJgRLT.s 			page 75


 2186              	.L138:
1072:Drivers/STM32F7xx_HAL_Driver/Src/stm32f7xx_hal_dma.c ****       hdma->XferHalfCpltCallback = NULL;
 2187              		.loc 1 1072 7 view .LVU822
1072:Drivers/STM32F7xx_HAL_Driver/Src/stm32f7xx_hal_dma.c ****       hdma->XferHalfCpltCallback = NULL;
 2188              		.loc 1 1072 30 is_stmt 0 view .LVU823
 2189 005a 0020     		movs	r0, #0
 2190 005c D863     		str	r0, [r3, #60]
1073:Drivers/STM32F7xx_HAL_Driver/Src/stm32f7xx_hal_dma.c ****       hdma->XferM1CpltCallback = NULL;
 2191              		.loc 1 1073 7 is_stmt 1 view .LVU824
1073:Drivers/STM32F7xx_HAL_Driver/Src/stm32f7xx_hal_dma.c ****       hdma->XferM1CpltCallback = NULL;
 2192              		.loc 1 1073 34 is_stmt 0 view .LVU825
 2193 005e 1864     		str	r0, [r3, #64]
1074:Drivers/STM32F7xx_HAL_Driver/Src/stm32f7xx_hal_dma.c ****       hdma->XferM1HalfCpltCallback = NULL;
 2194              		.loc 1 1074 7 is_stmt 1 view .LVU826
1074:Drivers/STM32F7xx_HAL_Driver/Src/stm32f7xx_hal_dma.c ****       hdma->XferM1HalfCpltCallback = NULL;
 2195              		.loc 1 1074 32 is_stmt 0 view .LVU827
 2196 0060 5864     		str	r0, [r3, #68]
1075:Drivers/STM32F7xx_HAL_Driver/Src/stm32f7xx_hal_dma.c ****       hdma->XferErrorCallback = NULL;
 2197              		.loc 1 1075 7 is_stmt 1 view .LVU828
1075:Drivers/STM32F7xx_HAL_Driver/Src/stm32f7xx_hal_dma.c ****       hdma->XferErrorCallback = NULL;
 2198              		.loc 1 1075 36 is_stmt 0 view .LVU829
 2199 0062 9864     		str	r0, [r3, #72]
1076:Drivers/STM32F7xx_HAL_Driver/Src/stm32f7xx_hal_dma.c ****       hdma->XferAbortCallback = NULL;
 2200              		.loc 1 1076 7 is_stmt 1 view .LVU830
1076:Drivers/STM32F7xx_HAL_Driver/Src/stm32f7xx_hal_dma.c ****       hdma->XferAbortCallback = NULL;
 2201              		.loc 1 1076 31 is_stmt 0 view .LVU831
 2202 0064 D864     		str	r0, [r3, #76]
1077:Drivers/STM32F7xx_HAL_Driver/Src/stm32f7xx_hal_dma.c ****       break; 
 2203              		.loc 1 1077 7 is_stmt 1 view .LVU832
1077:Drivers/STM32F7xx_HAL_Driver/Src/stm32f7xx_hal_dma.c ****       break; 
 2204              		.loc 1 1077 31 is_stmt 0 view .LVU833
 2205 0066 1865     		str	r0, [r3, #80]
1078:Drivers/STM32F7xx_HAL_Driver/Src/stm32f7xx_hal_dma.c ****       
 2206              		.loc 1 1078 7 is_stmt 1 view .LVU834
 2207 0068 D8E7     		b	.L137
 2208              	.LVL152:
 2209              	.L146:
1041:Drivers/STM32F7xx_HAL_Driver/Src/stm32f7xx_hal_dma.c ****   
 2210              		.loc 1 1041 3 is_stmt 0 view .LVU835
 2211 006a 0220     		movs	r0, #2
 2212              	.LVL153:
1094:Drivers/STM32F7xx_HAL_Driver/Src/stm32f7xx_hal_dma.c **** 
 2213              		.loc 1 1094 1 view .LVU836
 2214 006c 7047     		bx	lr
 2215              		.cfi_endproc
 2216              	.LFE150:
 2218              		.section	.text.HAL_DMA_GetState,"ax",%progbits
 2219              		.align	1
 2220              		.global	HAL_DMA_GetState
 2221              		.syntax unified
 2222              		.thumb
 2223              		.thumb_func
 2225              	HAL_DMA_GetState:
 2226              	.LVL154:
 2227              	.LFB151:
1122:Drivers/STM32F7xx_HAL_Driver/Src/stm32f7xx_hal_dma.c ****   return hdma->State;
 2228              		.loc 1 1122 1 is_stmt 1 view -0
ARM GAS  /tmp/cclJgRLT.s 			page 76


 2229              		.cfi_startproc
 2230              		@ args = 0, pretend = 0, frame = 0
 2231              		@ frame_needed = 0, uses_anonymous_args = 0
 2232              		@ link register save eliminated.
1123:Drivers/STM32F7xx_HAL_Driver/Src/stm32f7xx_hal_dma.c **** }
 2233              		.loc 1 1123 3 view .LVU838
1123:Drivers/STM32F7xx_HAL_Driver/Src/stm32f7xx_hal_dma.c **** }
 2234              		.loc 1 1123 14 is_stmt 0 view .LVU839
 2235 0000 90F83500 		ldrb	r0, [r0, #53]	@ zero_extendqisi2
 2236              	.LVL155:
1124:Drivers/STM32F7xx_HAL_Driver/Src/stm32f7xx_hal_dma.c **** 
 2237              		.loc 1 1124 1 view .LVU840
 2238 0004 7047     		bx	lr
 2239              		.cfi_endproc
 2240              	.LFE151:
 2242              		.section	.text.HAL_DMA_GetError,"ax",%progbits
 2243              		.align	1
 2244              		.global	HAL_DMA_GetError
 2245              		.syntax unified
 2246              		.thumb
 2247              		.thumb_func
 2249              	HAL_DMA_GetError:
 2250              	.LVL156:
 2251              	.LFB152:
1133:Drivers/STM32F7xx_HAL_Driver/Src/stm32f7xx_hal_dma.c ****   return hdma->ErrorCode;
 2252              		.loc 1 1133 1 is_stmt 1 view -0
 2253              		.cfi_startproc
 2254              		@ args = 0, pretend = 0, frame = 0
 2255              		@ frame_needed = 0, uses_anonymous_args = 0
 2256              		@ link register save eliminated.
1134:Drivers/STM32F7xx_HAL_Driver/Src/stm32f7xx_hal_dma.c **** }
 2257              		.loc 1 1134 3 view .LVU842
1134:Drivers/STM32F7xx_HAL_Driver/Src/stm32f7xx_hal_dma.c **** }
 2258              		.loc 1 1134 14 is_stmt 0 view .LVU843
 2259 0000 406D     		ldr	r0, [r0, #84]
 2260              	.LVL157:
1135:Drivers/STM32F7xx_HAL_Driver/Src/stm32f7xx_hal_dma.c **** 
 2261              		.loc 1 1135 1 view .LVU844
 2262 0002 7047     		bx	lr
 2263              		.cfi_endproc
 2264              	.LFE152:
 2266              		.section	.rodata.flagBitshiftOffset.0,"a"
 2267              		.align	2
 2268              		.set	.LANCHOR0,. + 0
 2271              	flagBitshiftOffset.0:
 2272 0000 00061016 		.ascii	"\000\006\020\026\000\006\020\026"
 2272      00061016 
 2273              		.text
 2274              	.Letext0:
 2275              		.file 2 "/opt/gcc-arm-none-eabi-10.3-2021.10/arm-none-eabi/include/machine/_default_types.h"
 2276              		.file 3 "/opt/gcc-arm-none-eabi-10.3-2021.10/arm-none-eabi/include/sys/_stdint.h"
 2277              		.file 4 "Drivers/CMSIS/Device/ST/STM32F7xx/Include/stm32f723xx.h"
 2278              		.file 5 "Drivers/CMSIS/Device/ST/STM32F7xx/Include/stm32f7xx.h"
 2279              		.file 6 "Drivers/STM32F7xx_HAL_Driver/Inc/stm32f7xx_hal_def.h"
 2280              		.file 7 "Drivers/STM32F7xx_HAL_Driver/Inc/stm32f7xx_hal_dma.h"
 2281              		.file 8 "Drivers/CMSIS/Device/ST/STM32F7xx/Include/system_stm32f7xx.h"
 2282              		.file 9 "Drivers/STM32F7xx_HAL_Driver/Inc/stm32f7xx_hal.h"
ARM GAS  /tmp/cclJgRLT.s 			page 77


ARM GAS  /tmp/cclJgRLT.s 			page 78


DEFINED SYMBOLS
                            *ABS*:0000000000000000 stm32f7xx_hal_dma.c
     /tmp/cclJgRLT.s:20     .text.DMA_SetConfig:0000000000000000 $t
     /tmp/cclJgRLT.s:25     .text.DMA_SetConfig:0000000000000000 DMA_SetConfig
     /tmp/cclJgRLT.s:99     .text.DMA_CalcBaseAndBitshift:0000000000000000 $t
     /tmp/cclJgRLT.s:104    .text.DMA_CalcBaseAndBitshift:0000000000000000 DMA_CalcBaseAndBitshift
     /tmp/cclJgRLT.s:175    .text.DMA_CalcBaseAndBitshift:0000000000000034 $d
     /tmp/cclJgRLT.s:182    .text.DMA_CheckFifoParam:0000000000000000 $t
     /tmp/cclJgRLT.s:187    .text.DMA_CheckFifoParam:0000000000000000 DMA_CheckFifoParam
     /tmp/cclJgRLT.s:273    .text.DMA_CheckFifoParam:000000000000004e $d
     /tmp/cclJgRLT.s:277    .text.DMA_CheckFifoParam:0000000000000052 $t
     /tmp/cclJgRLT.s:372    .text.HAL_DMA_Init:0000000000000000 $t
     /tmp/cclJgRLT.s:378    .text.HAL_DMA_Init:0000000000000000 HAL_DMA_Init
     /tmp/cclJgRLT.s:627    .text.HAL_DMA_Init:00000000000000c8 $d
     /tmp/cclJgRLT.s:632    .text.HAL_DMA_DeInit:0000000000000000 $t
     /tmp/cclJgRLT.s:638    .text.HAL_DMA_DeInit:0000000000000000 HAL_DMA_DeInit
     /tmp/cclJgRLT.s:771    .text.HAL_DMA_Start:0000000000000000 $t
     /tmp/cclJgRLT.s:777    .text.HAL_DMA_Start:0000000000000000 HAL_DMA_Start
     /tmp/cclJgRLT.s:860    .text.HAL_DMA_Start_IT:0000000000000000 $t
     /tmp/cclJgRLT.s:866    .text.HAL_DMA_Start_IT:0000000000000000 HAL_DMA_Start_IT
     /tmp/cclJgRLT.s:988    .text.HAL_DMA_Abort:0000000000000000 $t
     /tmp/cclJgRLT.s:994    .text.HAL_DMA_Abort:0000000000000000 HAL_DMA_Abort
     /tmp/cclJgRLT.s:1148   .text.HAL_DMA_Abort_IT:0000000000000000 $t
     /tmp/cclJgRLT.s:1154   .text.HAL_DMA_Abort_IT:0000000000000000 HAL_DMA_Abort_IT
     /tmp/cclJgRLT.s:1200   .text.HAL_DMA_PollForTransfer:0000000000000000 $t
     /tmp/cclJgRLT.s:1206   .text.HAL_DMA_PollForTransfer:0000000000000000 HAL_DMA_PollForTransfer
     /tmp/cclJgRLT.s:1498   .text.HAL_DMA_IRQHandler:0000000000000000 $t
     /tmp/cclJgRLT.s:1504   .text.HAL_DMA_IRQHandler:0000000000000000 HAL_DMA_IRQHandler
     /tmp/cclJgRLT.s:1945   .text.HAL_DMA_IRQHandler:00000000000001d4 $d
     /tmp/cclJgRLT.s:1951   .text.HAL_DMA_RegisterCallback:0000000000000000 $t
     /tmp/cclJgRLT.s:1957   .text.HAL_DMA_RegisterCallback:0000000000000000 HAL_DMA_RegisterCallback
     /tmp/cclJgRLT.s:2008   .text.HAL_DMA_RegisterCallback:000000000000002c $d
     /tmp/cclJgRLT.s:2014   .text.HAL_DMA_RegisterCallback:0000000000000032 $t
     /tmp/cclJgRLT.s:2078   .text.HAL_DMA_UnRegisterCallback:0000000000000000 $t
     /tmp/cclJgRLT.s:2084   .text.HAL_DMA_UnRegisterCallback:0000000000000000 HAL_DMA_UnRegisterCallback
     /tmp/cclJgRLT.s:2133   .text.HAL_DMA_UnRegisterCallback:000000000000002c $d
     /tmp/cclJgRLT.s:2219   .text.HAL_DMA_GetState:0000000000000000 $t
     /tmp/cclJgRLT.s:2225   .text.HAL_DMA_GetState:0000000000000000 HAL_DMA_GetState
     /tmp/cclJgRLT.s:2243   .text.HAL_DMA_GetError:0000000000000000 $t
     /tmp/cclJgRLT.s:2249   .text.HAL_DMA_GetError:0000000000000000 HAL_DMA_GetError
     /tmp/cclJgRLT.s:2267   .rodata.flagBitshiftOffset.0:0000000000000000 $d
     /tmp/cclJgRLT.s:2271   .rodata.flagBitshiftOffset.0:0000000000000000 flagBitshiftOffset.0
     /tmp/cclJgRLT.s:2140   .text.HAL_DMA_UnRegisterCallback:0000000000000033 $d
     /tmp/cclJgRLT.s:2140   .text.HAL_DMA_UnRegisterCallback:0000000000000034 $t

UNDEFINED SYMBOLS
HAL_GetTick
SystemCoreClock
