ARM GAS  /tmp/cc8ZLjKA.s 			page 1


   1              		.cpu cortex-m7
   2              		.arch armv7e-m
   3              		.fpu fpv5-sp-d16
   4              		.eabi_attribute 27, 1
   5              		.eabi_attribute 28, 1
   6              		.eabi_attribute 20, 1
   7              		.eabi_attribute 21, 1
   8              		.eabi_attribute 23, 3
   9              		.eabi_attribute 24, 1
  10              		.eabi_attribute 25, 1
  11              		.eabi_attribute 26, 1
  12              		.eabi_attribute 30, 1
  13              		.eabi_attribute 34, 1
  14              		.eabi_attribute 18, 4
  15              		.file	"stm32f7xx_ll_usb.c"
  16              		.text
  17              	.Ltext0:
  18              		.cfi_sections	.debug_frame
  19              		.file 1 "Drivers/STM32F7xx_HAL_Driver/Src/stm32f7xx_ll_usb.c"
  20              		.section	.text.USB_CoreReset,"ax",%progbits
  21              		.align	1
  22              		.syntax unified
  23              		.thumb
  24              		.thumb_func
  26              	USB_CoreReset:
  27              	.LVL0:
  28              	.LFB176:
   1:Drivers/STM32F7xx_HAL_Driver/Src/stm32f7xx_ll_usb.c **** /**
   2:Drivers/STM32F7xx_HAL_Driver/Src/stm32f7xx_ll_usb.c ****   ******************************************************************************
   3:Drivers/STM32F7xx_HAL_Driver/Src/stm32f7xx_ll_usb.c ****   * @file    stm32f7xx_ll_usb.c
   4:Drivers/STM32F7xx_HAL_Driver/Src/stm32f7xx_ll_usb.c ****   * @author  MCD Application Team
   5:Drivers/STM32F7xx_HAL_Driver/Src/stm32f7xx_ll_usb.c ****   * @brief   USB Low Layer HAL module driver.
   6:Drivers/STM32F7xx_HAL_Driver/Src/stm32f7xx_ll_usb.c ****   *
   7:Drivers/STM32F7xx_HAL_Driver/Src/stm32f7xx_ll_usb.c ****   *          This file provides firmware functions to manage the following
   8:Drivers/STM32F7xx_HAL_Driver/Src/stm32f7xx_ll_usb.c ****   *          functionalities of the USB Peripheral Controller:
   9:Drivers/STM32F7xx_HAL_Driver/Src/stm32f7xx_ll_usb.c ****   *           + Initialization/de-initialization functions
  10:Drivers/STM32F7xx_HAL_Driver/Src/stm32f7xx_ll_usb.c ****   *           + I/O operation functions
  11:Drivers/STM32F7xx_HAL_Driver/Src/stm32f7xx_ll_usb.c ****   *           + Peripheral Control functions
  12:Drivers/STM32F7xx_HAL_Driver/Src/stm32f7xx_ll_usb.c ****   *           + Peripheral State functions
  13:Drivers/STM32F7xx_HAL_Driver/Src/stm32f7xx_ll_usb.c ****   *
  14:Drivers/STM32F7xx_HAL_Driver/Src/stm32f7xx_ll_usb.c ****   ******************************************************************************
  15:Drivers/STM32F7xx_HAL_Driver/Src/stm32f7xx_ll_usb.c ****   * @attention
  16:Drivers/STM32F7xx_HAL_Driver/Src/stm32f7xx_ll_usb.c ****   *
  17:Drivers/STM32F7xx_HAL_Driver/Src/stm32f7xx_ll_usb.c ****   * Copyright (c) 2017 STMicroelectronics.
  18:Drivers/STM32F7xx_HAL_Driver/Src/stm32f7xx_ll_usb.c ****   * All rights reserved.
  19:Drivers/STM32F7xx_HAL_Driver/Src/stm32f7xx_ll_usb.c ****   *
  20:Drivers/STM32F7xx_HAL_Driver/Src/stm32f7xx_ll_usb.c ****   * This software is licensed under terms that can be found in the LICENSE file
  21:Drivers/STM32F7xx_HAL_Driver/Src/stm32f7xx_ll_usb.c ****   * in the root directory of this software component.
  22:Drivers/STM32F7xx_HAL_Driver/Src/stm32f7xx_ll_usb.c ****   * If no LICENSE file comes with this software, it is provided AS-IS.
  23:Drivers/STM32F7xx_HAL_Driver/Src/stm32f7xx_ll_usb.c ****   *
  24:Drivers/STM32F7xx_HAL_Driver/Src/stm32f7xx_ll_usb.c ****   ******************************************************************************
  25:Drivers/STM32F7xx_HAL_Driver/Src/stm32f7xx_ll_usb.c ****   @verbatim
  26:Drivers/STM32F7xx_HAL_Driver/Src/stm32f7xx_ll_usb.c ****   ==============================================================================
  27:Drivers/STM32F7xx_HAL_Driver/Src/stm32f7xx_ll_usb.c ****                     ##### How to use this driver #####
  28:Drivers/STM32F7xx_HAL_Driver/Src/stm32f7xx_ll_usb.c ****   ==============================================================================
  29:Drivers/STM32F7xx_HAL_Driver/Src/stm32f7xx_ll_usb.c ****     [..]
  30:Drivers/STM32F7xx_HAL_Driver/Src/stm32f7xx_ll_usb.c ****       (#) Fill parameters of Init structure in USB_OTG_CfgTypeDef structure.
ARM GAS  /tmp/cc8ZLjKA.s 			page 2


  31:Drivers/STM32F7xx_HAL_Driver/Src/stm32f7xx_ll_usb.c **** 
  32:Drivers/STM32F7xx_HAL_Driver/Src/stm32f7xx_ll_usb.c ****       (#) Call USB_CoreInit() API to initialize the USB Core peripheral.
  33:Drivers/STM32F7xx_HAL_Driver/Src/stm32f7xx_ll_usb.c **** 
  34:Drivers/STM32F7xx_HAL_Driver/Src/stm32f7xx_ll_usb.c ****       (#) The upper HAL HCD/PCD driver will call the right routines for its internal processes.
  35:Drivers/STM32F7xx_HAL_Driver/Src/stm32f7xx_ll_usb.c **** 
  36:Drivers/STM32F7xx_HAL_Driver/Src/stm32f7xx_ll_usb.c ****   @endverbatim
  37:Drivers/STM32F7xx_HAL_Driver/Src/stm32f7xx_ll_usb.c **** 
  38:Drivers/STM32F7xx_HAL_Driver/Src/stm32f7xx_ll_usb.c ****   ******************************************************************************
  39:Drivers/STM32F7xx_HAL_Driver/Src/stm32f7xx_ll_usb.c ****   */
  40:Drivers/STM32F7xx_HAL_Driver/Src/stm32f7xx_ll_usb.c **** 
  41:Drivers/STM32F7xx_HAL_Driver/Src/stm32f7xx_ll_usb.c **** /* Includes ------------------------------------------------------------------*/
  42:Drivers/STM32F7xx_HAL_Driver/Src/stm32f7xx_ll_usb.c **** #include "stm32f7xx_hal.h"
  43:Drivers/STM32F7xx_HAL_Driver/Src/stm32f7xx_ll_usb.c **** 
  44:Drivers/STM32F7xx_HAL_Driver/Src/stm32f7xx_ll_usb.c **** /** @addtogroup STM32F7xx_LL_USB_DRIVER
  45:Drivers/STM32F7xx_HAL_Driver/Src/stm32f7xx_ll_usb.c ****   * @{
  46:Drivers/STM32F7xx_HAL_Driver/Src/stm32f7xx_ll_usb.c ****   */
  47:Drivers/STM32F7xx_HAL_Driver/Src/stm32f7xx_ll_usb.c **** 
  48:Drivers/STM32F7xx_HAL_Driver/Src/stm32f7xx_ll_usb.c **** #if defined (HAL_PCD_MODULE_ENABLED) || defined (HAL_HCD_MODULE_ENABLED)
  49:Drivers/STM32F7xx_HAL_Driver/Src/stm32f7xx_ll_usb.c **** #if defined (USB_OTG_FS) || defined (USB_OTG_HS)
  50:Drivers/STM32F7xx_HAL_Driver/Src/stm32f7xx_ll_usb.c **** /* Private typedef -----------------------------------------------------------*/
  51:Drivers/STM32F7xx_HAL_Driver/Src/stm32f7xx_ll_usb.c **** /* Private define ------------------------------------------------------------*/
  52:Drivers/STM32F7xx_HAL_Driver/Src/stm32f7xx_ll_usb.c **** /* Private macro -------------------------------------------------------------*/
  53:Drivers/STM32F7xx_HAL_Driver/Src/stm32f7xx_ll_usb.c **** /* Private variables ---------------------------------------------------------*/
  54:Drivers/STM32F7xx_HAL_Driver/Src/stm32f7xx_ll_usb.c **** /* Private function prototypes -----------------------------------------------*/
  55:Drivers/STM32F7xx_HAL_Driver/Src/stm32f7xx_ll_usb.c **** /* Private functions ---------------------------------------------------------*/
  56:Drivers/STM32F7xx_HAL_Driver/Src/stm32f7xx_ll_usb.c **** #if defined (USB_OTG_FS) || defined (USB_OTG_HS)
  57:Drivers/STM32F7xx_HAL_Driver/Src/stm32f7xx_ll_usb.c **** static HAL_StatusTypeDef USB_CoreReset(USB_OTG_GlobalTypeDef *USBx);
  58:Drivers/STM32F7xx_HAL_Driver/Src/stm32f7xx_ll_usb.c **** #ifdef USBPHYC
  59:Drivers/STM32F7xx_HAL_Driver/Src/stm32f7xx_ll_usb.c **** static HAL_StatusTypeDef USB_HS_PHYCInit(USB_OTG_GlobalTypeDef *USBx);
  60:Drivers/STM32F7xx_HAL_Driver/Src/stm32f7xx_ll_usb.c **** #endif /* USBPHYC */
  61:Drivers/STM32F7xx_HAL_Driver/Src/stm32f7xx_ll_usb.c **** 
  62:Drivers/STM32F7xx_HAL_Driver/Src/stm32f7xx_ll_usb.c **** /* Exported functions --------------------------------------------------------*/
  63:Drivers/STM32F7xx_HAL_Driver/Src/stm32f7xx_ll_usb.c **** /** @defgroup USB_LL_Exported_Functions USB Low Layer Exported Functions
  64:Drivers/STM32F7xx_HAL_Driver/Src/stm32f7xx_ll_usb.c ****   * @{
  65:Drivers/STM32F7xx_HAL_Driver/Src/stm32f7xx_ll_usb.c ****   */
  66:Drivers/STM32F7xx_HAL_Driver/Src/stm32f7xx_ll_usb.c **** 
  67:Drivers/STM32F7xx_HAL_Driver/Src/stm32f7xx_ll_usb.c **** /** @defgroup USB_LL_Exported_Functions_Group1 Initialization/de-initialization functions
  68:Drivers/STM32F7xx_HAL_Driver/Src/stm32f7xx_ll_usb.c ****   *  @brief    Initialization and Configuration functions
  69:Drivers/STM32F7xx_HAL_Driver/Src/stm32f7xx_ll_usb.c ****   *
  70:Drivers/STM32F7xx_HAL_Driver/Src/stm32f7xx_ll_usb.c **** @verbatim
  71:Drivers/STM32F7xx_HAL_Driver/Src/stm32f7xx_ll_usb.c ****  ===============================================================================
  72:Drivers/STM32F7xx_HAL_Driver/Src/stm32f7xx_ll_usb.c ****                       ##### Initialization/de-initialization functions #####
  73:Drivers/STM32F7xx_HAL_Driver/Src/stm32f7xx_ll_usb.c ****  ===============================================================================
  74:Drivers/STM32F7xx_HAL_Driver/Src/stm32f7xx_ll_usb.c **** 
  75:Drivers/STM32F7xx_HAL_Driver/Src/stm32f7xx_ll_usb.c **** @endverbatim
  76:Drivers/STM32F7xx_HAL_Driver/Src/stm32f7xx_ll_usb.c ****   * @{
  77:Drivers/STM32F7xx_HAL_Driver/Src/stm32f7xx_ll_usb.c ****   */
  78:Drivers/STM32F7xx_HAL_Driver/Src/stm32f7xx_ll_usb.c **** 
  79:Drivers/STM32F7xx_HAL_Driver/Src/stm32f7xx_ll_usb.c **** /**
  80:Drivers/STM32F7xx_HAL_Driver/Src/stm32f7xx_ll_usb.c ****   * @brief  Initializes the USB Core
  81:Drivers/STM32F7xx_HAL_Driver/Src/stm32f7xx_ll_usb.c ****   * @param  USBx USB Instance
  82:Drivers/STM32F7xx_HAL_Driver/Src/stm32f7xx_ll_usb.c ****   * @param  cfg pointer to a USB_OTG_CfgTypeDef structure that contains
  83:Drivers/STM32F7xx_HAL_Driver/Src/stm32f7xx_ll_usb.c ****   *         the configuration information for the specified USBx peripheral.
  84:Drivers/STM32F7xx_HAL_Driver/Src/stm32f7xx_ll_usb.c ****   * @retval HAL status
  85:Drivers/STM32F7xx_HAL_Driver/Src/stm32f7xx_ll_usb.c ****   */
  86:Drivers/STM32F7xx_HAL_Driver/Src/stm32f7xx_ll_usb.c **** HAL_StatusTypeDef USB_CoreInit(USB_OTG_GlobalTypeDef *USBx, USB_OTG_CfgTypeDef cfg)
  87:Drivers/STM32F7xx_HAL_Driver/Src/stm32f7xx_ll_usb.c **** {
ARM GAS  /tmp/cc8ZLjKA.s 			page 3


  88:Drivers/STM32F7xx_HAL_Driver/Src/stm32f7xx_ll_usb.c ****   HAL_StatusTypeDef ret;
  89:Drivers/STM32F7xx_HAL_Driver/Src/stm32f7xx_ll_usb.c **** 
  90:Drivers/STM32F7xx_HAL_Driver/Src/stm32f7xx_ll_usb.c ****   if (cfg.phy_itface == USB_OTG_ULPI_PHY)
  91:Drivers/STM32F7xx_HAL_Driver/Src/stm32f7xx_ll_usb.c ****   {
  92:Drivers/STM32F7xx_HAL_Driver/Src/stm32f7xx_ll_usb.c ****     USBx->GCCFG &= ~(USB_OTG_GCCFG_PWRDWN);
  93:Drivers/STM32F7xx_HAL_Driver/Src/stm32f7xx_ll_usb.c **** 
  94:Drivers/STM32F7xx_HAL_Driver/Src/stm32f7xx_ll_usb.c ****     /* Init The ULPI Interface */
  95:Drivers/STM32F7xx_HAL_Driver/Src/stm32f7xx_ll_usb.c ****     USBx->GUSBCFG &= ~(USB_OTG_GUSBCFG_TSDPS | USB_OTG_GUSBCFG_ULPIFSLS | USB_OTG_GUSBCFG_PHYSEL);
  96:Drivers/STM32F7xx_HAL_Driver/Src/stm32f7xx_ll_usb.c **** 
  97:Drivers/STM32F7xx_HAL_Driver/Src/stm32f7xx_ll_usb.c **** #if defined(STM32F722xx) || defined(STM32F723xx) || defined(STM32F730xx) || defined(STM32F732xx) ||
  98:Drivers/STM32F7xx_HAL_Driver/Src/stm32f7xx_ll_usb.c ****     /* Select ULPI Interface */
  99:Drivers/STM32F7xx_HAL_Driver/Src/stm32f7xx_ll_usb.c ****     USBx->GUSBCFG |= USB_OTG_GUSBCFG_ULPI_UTMI_SEL;
 100:Drivers/STM32F7xx_HAL_Driver/Src/stm32f7xx_ll_usb.c **** #endif /* defined(STM32F722xx) || defined(STM32F723xx) || defined(STM32F730xx) || defined(STM32F732
 101:Drivers/STM32F7xx_HAL_Driver/Src/stm32f7xx_ll_usb.c **** 
 102:Drivers/STM32F7xx_HAL_Driver/Src/stm32f7xx_ll_usb.c ****     /* Select vbus source */
 103:Drivers/STM32F7xx_HAL_Driver/Src/stm32f7xx_ll_usb.c ****     USBx->GUSBCFG &= ~(USB_OTG_GUSBCFG_ULPIEVBUSD | USB_OTG_GUSBCFG_ULPIEVBUSI);
 104:Drivers/STM32F7xx_HAL_Driver/Src/stm32f7xx_ll_usb.c ****     if (cfg.use_external_vbus == 1U)
 105:Drivers/STM32F7xx_HAL_Driver/Src/stm32f7xx_ll_usb.c ****     {
 106:Drivers/STM32F7xx_HAL_Driver/Src/stm32f7xx_ll_usb.c ****       USBx->GUSBCFG |= USB_OTG_GUSBCFG_ULPIEVBUSD;
 107:Drivers/STM32F7xx_HAL_Driver/Src/stm32f7xx_ll_usb.c ****     }
 108:Drivers/STM32F7xx_HAL_Driver/Src/stm32f7xx_ll_usb.c **** 
 109:Drivers/STM32F7xx_HAL_Driver/Src/stm32f7xx_ll_usb.c ****     /* Reset after a PHY select */
 110:Drivers/STM32F7xx_HAL_Driver/Src/stm32f7xx_ll_usb.c ****     ret = USB_CoreReset(USBx);
 111:Drivers/STM32F7xx_HAL_Driver/Src/stm32f7xx_ll_usb.c ****   }
 112:Drivers/STM32F7xx_HAL_Driver/Src/stm32f7xx_ll_usb.c **** #if defined(STM32F722xx) || defined(STM32F723xx) || defined(STM32F730xx) || defined(STM32F732xx) ||
 113:Drivers/STM32F7xx_HAL_Driver/Src/stm32f7xx_ll_usb.c ****   else if (cfg.phy_itface == USB_OTG_HS_EMBEDDED_PHY)
 114:Drivers/STM32F7xx_HAL_Driver/Src/stm32f7xx_ll_usb.c ****   {
 115:Drivers/STM32F7xx_HAL_Driver/Src/stm32f7xx_ll_usb.c ****     USBx->GCCFG &= ~(USB_OTG_GCCFG_PWRDWN);
 116:Drivers/STM32F7xx_HAL_Driver/Src/stm32f7xx_ll_usb.c **** 
 117:Drivers/STM32F7xx_HAL_Driver/Src/stm32f7xx_ll_usb.c ****     /* Init The UTMI Interface */
 118:Drivers/STM32F7xx_HAL_Driver/Src/stm32f7xx_ll_usb.c ****     USBx->GUSBCFG &= ~(USB_OTG_GUSBCFG_TSDPS | USB_OTG_GUSBCFG_ULPIFSLS | USB_OTG_GUSBCFG_PHYSEL);
 119:Drivers/STM32F7xx_HAL_Driver/Src/stm32f7xx_ll_usb.c **** 
 120:Drivers/STM32F7xx_HAL_Driver/Src/stm32f7xx_ll_usb.c ****     /* Select vbus source */
 121:Drivers/STM32F7xx_HAL_Driver/Src/stm32f7xx_ll_usb.c ****     USBx->GUSBCFG &= ~(USB_OTG_GUSBCFG_ULPIEVBUSD | USB_OTG_GUSBCFG_ULPIEVBUSI);
 122:Drivers/STM32F7xx_HAL_Driver/Src/stm32f7xx_ll_usb.c **** 
 123:Drivers/STM32F7xx_HAL_Driver/Src/stm32f7xx_ll_usb.c ****     /* Select UTMI Interface */
 124:Drivers/STM32F7xx_HAL_Driver/Src/stm32f7xx_ll_usb.c ****     USBx->GUSBCFG &= ~USB_OTG_GUSBCFG_ULPI_UTMI_SEL;
 125:Drivers/STM32F7xx_HAL_Driver/Src/stm32f7xx_ll_usb.c **** #ifdef USBPHYC
 126:Drivers/STM32F7xx_HAL_Driver/Src/stm32f7xx_ll_usb.c ****     /* Enable USB HS PHY */
 127:Drivers/STM32F7xx_HAL_Driver/Src/stm32f7xx_ll_usb.c ****     USBx->GCCFG |= USB_OTG_GCCFG_PHYHSEN;
 128:Drivers/STM32F7xx_HAL_Driver/Src/stm32f7xx_ll_usb.c **** 
 129:Drivers/STM32F7xx_HAL_Driver/Src/stm32f7xx_ll_usb.c ****     /* Enables control of a High Speed USB PHY */
 130:Drivers/STM32F7xx_HAL_Driver/Src/stm32f7xx_ll_usb.c ****     if (USB_HS_PHYCInit(USBx) != HAL_OK)
 131:Drivers/STM32F7xx_HAL_Driver/Src/stm32f7xx_ll_usb.c ****     {
 132:Drivers/STM32F7xx_HAL_Driver/Src/stm32f7xx_ll_usb.c ****       return HAL_ERROR;
 133:Drivers/STM32F7xx_HAL_Driver/Src/stm32f7xx_ll_usb.c ****     }
 134:Drivers/STM32F7xx_HAL_Driver/Src/stm32f7xx_ll_usb.c **** #endif /* USBPHYC */
 135:Drivers/STM32F7xx_HAL_Driver/Src/stm32f7xx_ll_usb.c **** 
 136:Drivers/STM32F7xx_HAL_Driver/Src/stm32f7xx_ll_usb.c ****     if (cfg.use_external_vbus == 1U)
 137:Drivers/STM32F7xx_HAL_Driver/Src/stm32f7xx_ll_usb.c ****     {
 138:Drivers/STM32F7xx_HAL_Driver/Src/stm32f7xx_ll_usb.c ****       USBx->GUSBCFG |= USB_OTG_GUSBCFG_ULPIEVBUSD;
 139:Drivers/STM32F7xx_HAL_Driver/Src/stm32f7xx_ll_usb.c ****     }
 140:Drivers/STM32F7xx_HAL_Driver/Src/stm32f7xx_ll_usb.c **** 
 141:Drivers/STM32F7xx_HAL_Driver/Src/stm32f7xx_ll_usb.c ****     /* Reset after a PHY select */
 142:Drivers/STM32F7xx_HAL_Driver/Src/stm32f7xx_ll_usb.c ****     ret = USB_CoreReset(USBx);
 143:Drivers/STM32F7xx_HAL_Driver/Src/stm32f7xx_ll_usb.c ****   }
 144:Drivers/STM32F7xx_HAL_Driver/Src/stm32f7xx_ll_usb.c **** #endif /* defined(STM32F722xx) || defined(STM32F723xx) || defined(STM32F730xx) || defined(STM32F732
ARM GAS  /tmp/cc8ZLjKA.s 			page 4


 145:Drivers/STM32F7xx_HAL_Driver/Src/stm32f7xx_ll_usb.c ****   else /* FS interface (embedded Phy) */
 146:Drivers/STM32F7xx_HAL_Driver/Src/stm32f7xx_ll_usb.c ****   {
 147:Drivers/STM32F7xx_HAL_Driver/Src/stm32f7xx_ll_usb.c ****     /* Select FS Embedded PHY */
 148:Drivers/STM32F7xx_HAL_Driver/Src/stm32f7xx_ll_usb.c ****     USBx->GUSBCFG |= USB_OTG_GUSBCFG_PHYSEL;
 149:Drivers/STM32F7xx_HAL_Driver/Src/stm32f7xx_ll_usb.c **** 
 150:Drivers/STM32F7xx_HAL_Driver/Src/stm32f7xx_ll_usb.c ****     /* Reset after a PHY select */
 151:Drivers/STM32F7xx_HAL_Driver/Src/stm32f7xx_ll_usb.c ****     ret = USB_CoreReset(USBx);
 152:Drivers/STM32F7xx_HAL_Driver/Src/stm32f7xx_ll_usb.c **** 
 153:Drivers/STM32F7xx_HAL_Driver/Src/stm32f7xx_ll_usb.c ****     /* Activate the USB Transceiver */
 154:Drivers/STM32F7xx_HAL_Driver/Src/stm32f7xx_ll_usb.c ****     USBx->GCCFG |= USB_OTG_GCCFG_PWRDWN;
 155:Drivers/STM32F7xx_HAL_Driver/Src/stm32f7xx_ll_usb.c ****   }
 156:Drivers/STM32F7xx_HAL_Driver/Src/stm32f7xx_ll_usb.c **** 
 157:Drivers/STM32F7xx_HAL_Driver/Src/stm32f7xx_ll_usb.c ****   if (cfg.dma_enable == 1U)
 158:Drivers/STM32F7xx_HAL_Driver/Src/stm32f7xx_ll_usb.c ****   {
 159:Drivers/STM32F7xx_HAL_Driver/Src/stm32f7xx_ll_usb.c ****     USBx->GAHBCFG |= USB_OTG_GAHBCFG_HBSTLEN_2;
 160:Drivers/STM32F7xx_HAL_Driver/Src/stm32f7xx_ll_usb.c ****     USBx->GAHBCFG |= USB_OTG_GAHBCFG_DMAEN;
 161:Drivers/STM32F7xx_HAL_Driver/Src/stm32f7xx_ll_usb.c ****   }
 162:Drivers/STM32F7xx_HAL_Driver/Src/stm32f7xx_ll_usb.c **** 
 163:Drivers/STM32F7xx_HAL_Driver/Src/stm32f7xx_ll_usb.c ****   return ret;
 164:Drivers/STM32F7xx_HAL_Driver/Src/stm32f7xx_ll_usb.c **** }
 165:Drivers/STM32F7xx_HAL_Driver/Src/stm32f7xx_ll_usb.c **** 
 166:Drivers/STM32F7xx_HAL_Driver/Src/stm32f7xx_ll_usb.c **** 
 167:Drivers/STM32F7xx_HAL_Driver/Src/stm32f7xx_ll_usb.c **** /**
 168:Drivers/STM32F7xx_HAL_Driver/Src/stm32f7xx_ll_usb.c ****   * @brief  Set the USB turnaround time
 169:Drivers/STM32F7xx_HAL_Driver/Src/stm32f7xx_ll_usb.c ****   * @param  USBx USB Instance
 170:Drivers/STM32F7xx_HAL_Driver/Src/stm32f7xx_ll_usb.c ****   * @param  hclk: AHB clock frequency
 171:Drivers/STM32F7xx_HAL_Driver/Src/stm32f7xx_ll_usb.c ****   * @retval USB turnaround time In PHY Clocks number
 172:Drivers/STM32F7xx_HAL_Driver/Src/stm32f7xx_ll_usb.c ****   */
 173:Drivers/STM32F7xx_HAL_Driver/Src/stm32f7xx_ll_usb.c **** HAL_StatusTypeDef USB_SetTurnaroundTime(USB_OTG_GlobalTypeDef *USBx,
 174:Drivers/STM32F7xx_HAL_Driver/Src/stm32f7xx_ll_usb.c ****                                         uint32_t hclk, uint8_t speed)
 175:Drivers/STM32F7xx_HAL_Driver/Src/stm32f7xx_ll_usb.c **** {
 176:Drivers/STM32F7xx_HAL_Driver/Src/stm32f7xx_ll_usb.c ****   uint32_t UsbTrd;
 177:Drivers/STM32F7xx_HAL_Driver/Src/stm32f7xx_ll_usb.c **** 
 178:Drivers/STM32F7xx_HAL_Driver/Src/stm32f7xx_ll_usb.c ****   /* The USBTRD is configured according to the tables below, depending on AHB frequency
 179:Drivers/STM32F7xx_HAL_Driver/Src/stm32f7xx_ll_usb.c ****   used by application. In the low AHB frequency range it is used to stretch enough the USB response
 180:Drivers/STM32F7xx_HAL_Driver/Src/stm32f7xx_ll_usb.c ****   time to IN tokens, the USB turnaround time, so to compensate for the longer AHB read access
 181:Drivers/STM32F7xx_HAL_Driver/Src/stm32f7xx_ll_usb.c ****   latency to the Data FIFO */
 182:Drivers/STM32F7xx_HAL_Driver/Src/stm32f7xx_ll_usb.c ****   if (speed == USBD_FS_SPEED)
 183:Drivers/STM32F7xx_HAL_Driver/Src/stm32f7xx_ll_usb.c ****   {
 184:Drivers/STM32F7xx_HAL_Driver/Src/stm32f7xx_ll_usb.c ****     if ((hclk >= 14200000U) && (hclk < 15000000U))
 185:Drivers/STM32F7xx_HAL_Driver/Src/stm32f7xx_ll_usb.c ****     {
 186:Drivers/STM32F7xx_HAL_Driver/Src/stm32f7xx_ll_usb.c ****       /* hclk Clock Range between 14.2-15 MHz */
 187:Drivers/STM32F7xx_HAL_Driver/Src/stm32f7xx_ll_usb.c ****       UsbTrd = 0xFU;
 188:Drivers/STM32F7xx_HAL_Driver/Src/stm32f7xx_ll_usb.c ****     }
 189:Drivers/STM32F7xx_HAL_Driver/Src/stm32f7xx_ll_usb.c ****     else if ((hclk >= 15000000U) && (hclk < 16000000U))
 190:Drivers/STM32F7xx_HAL_Driver/Src/stm32f7xx_ll_usb.c ****     {
 191:Drivers/STM32F7xx_HAL_Driver/Src/stm32f7xx_ll_usb.c ****       /* hclk Clock Range between 15-16 MHz */
 192:Drivers/STM32F7xx_HAL_Driver/Src/stm32f7xx_ll_usb.c ****       UsbTrd = 0xEU;
 193:Drivers/STM32F7xx_HAL_Driver/Src/stm32f7xx_ll_usb.c ****     }
 194:Drivers/STM32F7xx_HAL_Driver/Src/stm32f7xx_ll_usb.c ****     else if ((hclk >= 16000000U) && (hclk < 17200000U))
 195:Drivers/STM32F7xx_HAL_Driver/Src/stm32f7xx_ll_usb.c ****     {
 196:Drivers/STM32F7xx_HAL_Driver/Src/stm32f7xx_ll_usb.c ****       /* hclk Clock Range between 16-17.2 MHz */
 197:Drivers/STM32F7xx_HAL_Driver/Src/stm32f7xx_ll_usb.c ****       UsbTrd = 0xDU;
 198:Drivers/STM32F7xx_HAL_Driver/Src/stm32f7xx_ll_usb.c ****     }
 199:Drivers/STM32F7xx_HAL_Driver/Src/stm32f7xx_ll_usb.c ****     else if ((hclk >= 17200000U) && (hclk < 18500000U))
 200:Drivers/STM32F7xx_HAL_Driver/Src/stm32f7xx_ll_usb.c ****     {
 201:Drivers/STM32F7xx_HAL_Driver/Src/stm32f7xx_ll_usb.c ****       /* hclk Clock Range between 17.2-18.5 MHz */
ARM GAS  /tmp/cc8ZLjKA.s 			page 5


 202:Drivers/STM32F7xx_HAL_Driver/Src/stm32f7xx_ll_usb.c ****       UsbTrd = 0xCU;
 203:Drivers/STM32F7xx_HAL_Driver/Src/stm32f7xx_ll_usb.c ****     }
 204:Drivers/STM32F7xx_HAL_Driver/Src/stm32f7xx_ll_usb.c ****     else if ((hclk >= 18500000U) && (hclk < 20000000U))
 205:Drivers/STM32F7xx_HAL_Driver/Src/stm32f7xx_ll_usb.c ****     {
 206:Drivers/STM32F7xx_HAL_Driver/Src/stm32f7xx_ll_usb.c ****       /* hclk Clock Range between 18.5-20 MHz */
 207:Drivers/STM32F7xx_HAL_Driver/Src/stm32f7xx_ll_usb.c ****       UsbTrd = 0xBU;
 208:Drivers/STM32F7xx_HAL_Driver/Src/stm32f7xx_ll_usb.c ****     }
 209:Drivers/STM32F7xx_HAL_Driver/Src/stm32f7xx_ll_usb.c ****     else if ((hclk >= 20000000U) && (hclk < 21800000U))
 210:Drivers/STM32F7xx_HAL_Driver/Src/stm32f7xx_ll_usb.c ****     {
 211:Drivers/STM32F7xx_HAL_Driver/Src/stm32f7xx_ll_usb.c ****       /* hclk Clock Range between 20-21.8 MHz */
 212:Drivers/STM32F7xx_HAL_Driver/Src/stm32f7xx_ll_usb.c ****       UsbTrd = 0xAU;
 213:Drivers/STM32F7xx_HAL_Driver/Src/stm32f7xx_ll_usb.c ****     }
 214:Drivers/STM32F7xx_HAL_Driver/Src/stm32f7xx_ll_usb.c ****     else if ((hclk >= 21800000U) && (hclk < 24000000U))
 215:Drivers/STM32F7xx_HAL_Driver/Src/stm32f7xx_ll_usb.c ****     {
 216:Drivers/STM32F7xx_HAL_Driver/Src/stm32f7xx_ll_usb.c ****       /* hclk Clock Range between 21.8-24 MHz */
 217:Drivers/STM32F7xx_HAL_Driver/Src/stm32f7xx_ll_usb.c ****       UsbTrd = 0x9U;
 218:Drivers/STM32F7xx_HAL_Driver/Src/stm32f7xx_ll_usb.c ****     }
 219:Drivers/STM32F7xx_HAL_Driver/Src/stm32f7xx_ll_usb.c ****     else if ((hclk >= 24000000U) && (hclk < 27700000U))
 220:Drivers/STM32F7xx_HAL_Driver/Src/stm32f7xx_ll_usb.c ****     {
 221:Drivers/STM32F7xx_HAL_Driver/Src/stm32f7xx_ll_usb.c ****       /* hclk Clock Range between 24-27.7 MHz */
 222:Drivers/STM32F7xx_HAL_Driver/Src/stm32f7xx_ll_usb.c ****       UsbTrd = 0x8U;
 223:Drivers/STM32F7xx_HAL_Driver/Src/stm32f7xx_ll_usb.c ****     }
 224:Drivers/STM32F7xx_HAL_Driver/Src/stm32f7xx_ll_usb.c ****     else if ((hclk >= 27700000U) && (hclk < 32000000U))
 225:Drivers/STM32F7xx_HAL_Driver/Src/stm32f7xx_ll_usb.c ****     {
 226:Drivers/STM32F7xx_HAL_Driver/Src/stm32f7xx_ll_usb.c ****       /* hclk Clock Range between 27.7-32 MHz */
 227:Drivers/STM32F7xx_HAL_Driver/Src/stm32f7xx_ll_usb.c ****       UsbTrd = 0x7U;
 228:Drivers/STM32F7xx_HAL_Driver/Src/stm32f7xx_ll_usb.c ****     }
 229:Drivers/STM32F7xx_HAL_Driver/Src/stm32f7xx_ll_usb.c ****     else /* if(hclk >= 32000000) */
 230:Drivers/STM32F7xx_HAL_Driver/Src/stm32f7xx_ll_usb.c ****     {
 231:Drivers/STM32F7xx_HAL_Driver/Src/stm32f7xx_ll_usb.c ****       /* hclk Clock Range between 32-200 MHz */
 232:Drivers/STM32F7xx_HAL_Driver/Src/stm32f7xx_ll_usb.c ****       UsbTrd = 0x6U;
 233:Drivers/STM32F7xx_HAL_Driver/Src/stm32f7xx_ll_usb.c ****     }
 234:Drivers/STM32F7xx_HAL_Driver/Src/stm32f7xx_ll_usb.c ****   }
 235:Drivers/STM32F7xx_HAL_Driver/Src/stm32f7xx_ll_usb.c ****   else if (speed == USBD_HS_SPEED)
 236:Drivers/STM32F7xx_HAL_Driver/Src/stm32f7xx_ll_usb.c ****   {
 237:Drivers/STM32F7xx_HAL_Driver/Src/stm32f7xx_ll_usb.c ****     UsbTrd = USBD_HS_TRDT_VALUE;
 238:Drivers/STM32F7xx_HAL_Driver/Src/stm32f7xx_ll_usb.c ****   }
 239:Drivers/STM32F7xx_HAL_Driver/Src/stm32f7xx_ll_usb.c ****   else
 240:Drivers/STM32F7xx_HAL_Driver/Src/stm32f7xx_ll_usb.c ****   {
 241:Drivers/STM32F7xx_HAL_Driver/Src/stm32f7xx_ll_usb.c ****     UsbTrd = USBD_DEFAULT_TRDT_VALUE;
 242:Drivers/STM32F7xx_HAL_Driver/Src/stm32f7xx_ll_usb.c ****   }
 243:Drivers/STM32F7xx_HAL_Driver/Src/stm32f7xx_ll_usb.c **** 
 244:Drivers/STM32F7xx_HAL_Driver/Src/stm32f7xx_ll_usb.c ****   USBx->GUSBCFG &= ~USB_OTG_GUSBCFG_TRDT;
 245:Drivers/STM32F7xx_HAL_Driver/Src/stm32f7xx_ll_usb.c ****   USBx->GUSBCFG |= (uint32_t)((UsbTrd << 10) & USB_OTG_GUSBCFG_TRDT);
 246:Drivers/STM32F7xx_HAL_Driver/Src/stm32f7xx_ll_usb.c **** 
 247:Drivers/STM32F7xx_HAL_Driver/Src/stm32f7xx_ll_usb.c ****   return HAL_OK;
 248:Drivers/STM32F7xx_HAL_Driver/Src/stm32f7xx_ll_usb.c **** }
 249:Drivers/STM32F7xx_HAL_Driver/Src/stm32f7xx_ll_usb.c **** 
 250:Drivers/STM32F7xx_HAL_Driver/Src/stm32f7xx_ll_usb.c **** /**
 251:Drivers/STM32F7xx_HAL_Driver/Src/stm32f7xx_ll_usb.c ****   * @brief  USB_EnableGlobalInt
 252:Drivers/STM32F7xx_HAL_Driver/Src/stm32f7xx_ll_usb.c ****   *         Enables the controller's Global Int in the AHB Config reg
 253:Drivers/STM32F7xx_HAL_Driver/Src/stm32f7xx_ll_usb.c ****   * @param  USBx  Selected device
 254:Drivers/STM32F7xx_HAL_Driver/Src/stm32f7xx_ll_usb.c ****   * @retval HAL status
 255:Drivers/STM32F7xx_HAL_Driver/Src/stm32f7xx_ll_usb.c ****   */
 256:Drivers/STM32F7xx_HAL_Driver/Src/stm32f7xx_ll_usb.c **** HAL_StatusTypeDef USB_EnableGlobalInt(USB_OTG_GlobalTypeDef *USBx)
 257:Drivers/STM32F7xx_HAL_Driver/Src/stm32f7xx_ll_usb.c **** {
 258:Drivers/STM32F7xx_HAL_Driver/Src/stm32f7xx_ll_usb.c ****   USBx->GAHBCFG |= USB_OTG_GAHBCFG_GINT;
ARM GAS  /tmp/cc8ZLjKA.s 			page 6


 259:Drivers/STM32F7xx_HAL_Driver/Src/stm32f7xx_ll_usb.c ****   return HAL_OK;
 260:Drivers/STM32F7xx_HAL_Driver/Src/stm32f7xx_ll_usb.c **** }
 261:Drivers/STM32F7xx_HAL_Driver/Src/stm32f7xx_ll_usb.c **** 
 262:Drivers/STM32F7xx_HAL_Driver/Src/stm32f7xx_ll_usb.c **** /**
 263:Drivers/STM32F7xx_HAL_Driver/Src/stm32f7xx_ll_usb.c ****   * @brief  USB_DisableGlobalInt
 264:Drivers/STM32F7xx_HAL_Driver/Src/stm32f7xx_ll_usb.c ****   *         Disable the controller's Global Int in the AHB Config reg
 265:Drivers/STM32F7xx_HAL_Driver/Src/stm32f7xx_ll_usb.c ****   * @param  USBx  Selected device
 266:Drivers/STM32F7xx_HAL_Driver/Src/stm32f7xx_ll_usb.c ****   * @retval HAL status
 267:Drivers/STM32F7xx_HAL_Driver/Src/stm32f7xx_ll_usb.c ****   */
 268:Drivers/STM32F7xx_HAL_Driver/Src/stm32f7xx_ll_usb.c **** HAL_StatusTypeDef USB_DisableGlobalInt(USB_OTG_GlobalTypeDef *USBx)
 269:Drivers/STM32F7xx_HAL_Driver/Src/stm32f7xx_ll_usb.c **** {
 270:Drivers/STM32F7xx_HAL_Driver/Src/stm32f7xx_ll_usb.c ****   USBx->GAHBCFG &= ~USB_OTG_GAHBCFG_GINT;
 271:Drivers/STM32F7xx_HAL_Driver/Src/stm32f7xx_ll_usb.c ****   return HAL_OK;
 272:Drivers/STM32F7xx_HAL_Driver/Src/stm32f7xx_ll_usb.c **** }
 273:Drivers/STM32F7xx_HAL_Driver/Src/stm32f7xx_ll_usb.c **** 
 274:Drivers/STM32F7xx_HAL_Driver/Src/stm32f7xx_ll_usb.c **** /**
 275:Drivers/STM32F7xx_HAL_Driver/Src/stm32f7xx_ll_usb.c ****   * @brief  USB_SetCurrentMode Set functional mode
 276:Drivers/STM32F7xx_HAL_Driver/Src/stm32f7xx_ll_usb.c ****   * @param  USBx  Selected device
 277:Drivers/STM32F7xx_HAL_Driver/Src/stm32f7xx_ll_usb.c ****   * @param  mode  current core mode
 278:Drivers/STM32F7xx_HAL_Driver/Src/stm32f7xx_ll_usb.c ****   *          This parameter can be one of these values:
 279:Drivers/STM32F7xx_HAL_Driver/Src/stm32f7xx_ll_usb.c ****   *            @arg USB_DEVICE_MODE Peripheral mode
 280:Drivers/STM32F7xx_HAL_Driver/Src/stm32f7xx_ll_usb.c ****   *            @arg USB_HOST_MODE Host mode
 281:Drivers/STM32F7xx_HAL_Driver/Src/stm32f7xx_ll_usb.c ****   * @retval HAL status
 282:Drivers/STM32F7xx_HAL_Driver/Src/stm32f7xx_ll_usb.c ****   */
 283:Drivers/STM32F7xx_HAL_Driver/Src/stm32f7xx_ll_usb.c **** HAL_StatusTypeDef USB_SetCurrentMode(USB_OTG_GlobalTypeDef *USBx, USB_OTG_ModeTypeDef mode)
 284:Drivers/STM32F7xx_HAL_Driver/Src/stm32f7xx_ll_usb.c **** {
 285:Drivers/STM32F7xx_HAL_Driver/Src/stm32f7xx_ll_usb.c ****   uint32_t ms = 0U;
 286:Drivers/STM32F7xx_HAL_Driver/Src/stm32f7xx_ll_usb.c **** 
 287:Drivers/STM32F7xx_HAL_Driver/Src/stm32f7xx_ll_usb.c ****   USBx->GUSBCFG &= ~(USB_OTG_GUSBCFG_FHMOD | USB_OTG_GUSBCFG_FDMOD);
 288:Drivers/STM32F7xx_HAL_Driver/Src/stm32f7xx_ll_usb.c **** 
 289:Drivers/STM32F7xx_HAL_Driver/Src/stm32f7xx_ll_usb.c ****   if (mode == USB_HOST_MODE)
 290:Drivers/STM32F7xx_HAL_Driver/Src/stm32f7xx_ll_usb.c ****   {
 291:Drivers/STM32F7xx_HAL_Driver/Src/stm32f7xx_ll_usb.c ****     USBx->GUSBCFG |= USB_OTG_GUSBCFG_FHMOD;
 292:Drivers/STM32F7xx_HAL_Driver/Src/stm32f7xx_ll_usb.c **** 
 293:Drivers/STM32F7xx_HAL_Driver/Src/stm32f7xx_ll_usb.c ****     do
 294:Drivers/STM32F7xx_HAL_Driver/Src/stm32f7xx_ll_usb.c ****     {
 295:Drivers/STM32F7xx_HAL_Driver/Src/stm32f7xx_ll_usb.c ****       HAL_Delay(1U);
 296:Drivers/STM32F7xx_HAL_Driver/Src/stm32f7xx_ll_usb.c ****       ms++;
 297:Drivers/STM32F7xx_HAL_Driver/Src/stm32f7xx_ll_usb.c ****     } while ((USB_GetMode(USBx) != (uint32_t)USB_HOST_MODE) && (ms < 50U));
 298:Drivers/STM32F7xx_HAL_Driver/Src/stm32f7xx_ll_usb.c ****   }
 299:Drivers/STM32F7xx_HAL_Driver/Src/stm32f7xx_ll_usb.c ****   else if (mode == USB_DEVICE_MODE)
 300:Drivers/STM32F7xx_HAL_Driver/Src/stm32f7xx_ll_usb.c ****   {
 301:Drivers/STM32F7xx_HAL_Driver/Src/stm32f7xx_ll_usb.c ****     USBx->GUSBCFG |= USB_OTG_GUSBCFG_FDMOD;
 302:Drivers/STM32F7xx_HAL_Driver/Src/stm32f7xx_ll_usb.c **** 
 303:Drivers/STM32F7xx_HAL_Driver/Src/stm32f7xx_ll_usb.c ****     do
 304:Drivers/STM32F7xx_HAL_Driver/Src/stm32f7xx_ll_usb.c ****     {
 305:Drivers/STM32F7xx_HAL_Driver/Src/stm32f7xx_ll_usb.c ****       HAL_Delay(1U);
 306:Drivers/STM32F7xx_HAL_Driver/Src/stm32f7xx_ll_usb.c ****       ms++;
 307:Drivers/STM32F7xx_HAL_Driver/Src/stm32f7xx_ll_usb.c ****     } while ((USB_GetMode(USBx) != (uint32_t)USB_DEVICE_MODE) && (ms < 50U));
 308:Drivers/STM32F7xx_HAL_Driver/Src/stm32f7xx_ll_usb.c ****   }
 309:Drivers/STM32F7xx_HAL_Driver/Src/stm32f7xx_ll_usb.c ****   else
 310:Drivers/STM32F7xx_HAL_Driver/Src/stm32f7xx_ll_usb.c ****   {
 311:Drivers/STM32F7xx_HAL_Driver/Src/stm32f7xx_ll_usb.c ****     return HAL_ERROR;
 312:Drivers/STM32F7xx_HAL_Driver/Src/stm32f7xx_ll_usb.c ****   }
 313:Drivers/STM32F7xx_HAL_Driver/Src/stm32f7xx_ll_usb.c **** 
 314:Drivers/STM32F7xx_HAL_Driver/Src/stm32f7xx_ll_usb.c ****   if (ms == 50U)
 315:Drivers/STM32F7xx_HAL_Driver/Src/stm32f7xx_ll_usb.c ****   {
ARM GAS  /tmp/cc8ZLjKA.s 			page 7


 316:Drivers/STM32F7xx_HAL_Driver/Src/stm32f7xx_ll_usb.c ****     return HAL_ERROR;
 317:Drivers/STM32F7xx_HAL_Driver/Src/stm32f7xx_ll_usb.c ****   }
 318:Drivers/STM32F7xx_HAL_Driver/Src/stm32f7xx_ll_usb.c **** 
 319:Drivers/STM32F7xx_HAL_Driver/Src/stm32f7xx_ll_usb.c ****   return HAL_OK;
 320:Drivers/STM32F7xx_HAL_Driver/Src/stm32f7xx_ll_usb.c **** }
 321:Drivers/STM32F7xx_HAL_Driver/Src/stm32f7xx_ll_usb.c **** 
 322:Drivers/STM32F7xx_HAL_Driver/Src/stm32f7xx_ll_usb.c **** /**
 323:Drivers/STM32F7xx_HAL_Driver/Src/stm32f7xx_ll_usb.c ****   * @brief  USB_DevInit Initializes the USB_OTG controller registers
 324:Drivers/STM32F7xx_HAL_Driver/Src/stm32f7xx_ll_usb.c ****   *         for device mode
 325:Drivers/STM32F7xx_HAL_Driver/Src/stm32f7xx_ll_usb.c ****   * @param  USBx  Selected device
 326:Drivers/STM32F7xx_HAL_Driver/Src/stm32f7xx_ll_usb.c ****   * @param  cfg   pointer to a USB_OTG_CfgTypeDef structure that contains
 327:Drivers/STM32F7xx_HAL_Driver/Src/stm32f7xx_ll_usb.c ****   *         the configuration information for the specified USBx peripheral.
 328:Drivers/STM32F7xx_HAL_Driver/Src/stm32f7xx_ll_usb.c ****   * @retval HAL status
 329:Drivers/STM32F7xx_HAL_Driver/Src/stm32f7xx_ll_usb.c ****   */
 330:Drivers/STM32F7xx_HAL_Driver/Src/stm32f7xx_ll_usb.c **** HAL_StatusTypeDef USB_DevInit(USB_OTG_GlobalTypeDef *USBx, USB_OTG_CfgTypeDef cfg)
 331:Drivers/STM32F7xx_HAL_Driver/Src/stm32f7xx_ll_usb.c **** {
 332:Drivers/STM32F7xx_HAL_Driver/Src/stm32f7xx_ll_usb.c ****   HAL_StatusTypeDef ret = HAL_OK;
 333:Drivers/STM32F7xx_HAL_Driver/Src/stm32f7xx_ll_usb.c ****   uint32_t USBx_BASE = (uint32_t)USBx;
 334:Drivers/STM32F7xx_HAL_Driver/Src/stm32f7xx_ll_usb.c ****   uint32_t i;
 335:Drivers/STM32F7xx_HAL_Driver/Src/stm32f7xx_ll_usb.c **** 
 336:Drivers/STM32F7xx_HAL_Driver/Src/stm32f7xx_ll_usb.c ****   for (i = 0U; i < 15U; i++)
 337:Drivers/STM32F7xx_HAL_Driver/Src/stm32f7xx_ll_usb.c ****   {
 338:Drivers/STM32F7xx_HAL_Driver/Src/stm32f7xx_ll_usb.c ****     USBx->DIEPTXF[i] = 0U;
 339:Drivers/STM32F7xx_HAL_Driver/Src/stm32f7xx_ll_usb.c ****   }
 340:Drivers/STM32F7xx_HAL_Driver/Src/stm32f7xx_ll_usb.c **** 
 341:Drivers/STM32F7xx_HAL_Driver/Src/stm32f7xx_ll_usb.c ****   /* VBUS Sensing setup */
 342:Drivers/STM32F7xx_HAL_Driver/Src/stm32f7xx_ll_usb.c ****   if (cfg.vbus_sensing_enable == 0U)
 343:Drivers/STM32F7xx_HAL_Driver/Src/stm32f7xx_ll_usb.c ****   {
 344:Drivers/STM32F7xx_HAL_Driver/Src/stm32f7xx_ll_usb.c ****     USBx_DEVICE->DCTL |= USB_OTG_DCTL_SDIS;
 345:Drivers/STM32F7xx_HAL_Driver/Src/stm32f7xx_ll_usb.c **** 
 346:Drivers/STM32F7xx_HAL_Driver/Src/stm32f7xx_ll_usb.c ****     /* Deactivate VBUS Sensing B */
 347:Drivers/STM32F7xx_HAL_Driver/Src/stm32f7xx_ll_usb.c ****     USBx->GCCFG &= ~USB_OTG_GCCFG_VBDEN;
 348:Drivers/STM32F7xx_HAL_Driver/Src/stm32f7xx_ll_usb.c **** 
 349:Drivers/STM32F7xx_HAL_Driver/Src/stm32f7xx_ll_usb.c ****     /* B-peripheral session valid override enable */
 350:Drivers/STM32F7xx_HAL_Driver/Src/stm32f7xx_ll_usb.c ****     USBx->GOTGCTL |= USB_OTG_GOTGCTL_BVALOEN;
 351:Drivers/STM32F7xx_HAL_Driver/Src/stm32f7xx_ll_usb.c ****     USBx->GOTGCTL |= USB_OTG_GOTGCTL_BVALOVAL;
 352:Drivers/STM32F7xx_HAL_Driver/Src/stm32f7xx_ll_usb.c ****   }
 353:Drivers/STM32F7xx_HAL_Driver/Src/stm32f7xx_ll_usb.c ****   else
 354:Drivers/STM32F7xx_HAL_Driver/Src/stm32f7xx_ll_usb.c ****   {
 355:Drivers/STM32F7xx_HAL_Driver/Src/stm32f7xx_ll_usb.c ****     /* Enable HW VBUS sensing */
 356:Drivers/STM32F7xx_HAL_Driver/Src/stm32f7xx_ll_usb.c ****     USBx->GCCFG |= USB_OTG_GCCFG_VBDEN;
 357:Drivers/STM32F7xx_HAL_Driver/Src/stm32f7xx_ll_usb.c ****   }
 358:Drivers/STM32F7xx_HAL_Driver/Src/stm32f7xx_ll_usb.c **** 
 359:Drivers/STM32F7xx_HAL_Driver/Src/stm32f7xx_ll_usb.c ****   /* Restart the Phy Clock */
 360:Drivers/STM32F7xx_HAL_Driver/Src/stm32f7xx_ll_usb.c ****   USBx_PCGCCTL = 0U;
 361:Drivers/STM32F7xx_HAL_Driver/Src/stm32f7xx_ll_usb.c **** 
 362:Drivers/STM32F7xx_HAL_Driver/Src/stm32f7xx_ll_usb.c ****   /* Device mode configuration */
 363:Drivers/STM32F7xx_HAL_Driver/Src/stm32f7xx_ll_usb.c ****   USBx_DEVICE->DCFG |= DCFG_FRAME_INTERVAL_80;
 364:Drivers/STM32F7xx_HAL_Driver/Src/stm32f7xx_ll_usb.c **** 
 365:Drivers/STM32F7xx_HAL_Driver/Src/stm32f7xx_ll_usb.c ****   if (cfg.phy_itface == USB_OTG_ULPI_PHY)
 366:Drivers/STM32F7xx_HAL_Driver/Src/stm32f7xx_ll_usb.c ****   {
 367:Drivers/STM32F7xx_HAL_Driver/Src/stm32f7xx_ll_usb.c ****     if (cfg.speed == USBD_HS_SPEED)
 368:Drivers/STM32F7xx_HAL_Driver/Src/stm32f7xx_ll_usb.c ****     {
 369:Drivers/STM32F7xx_HAL_Driver/Src/stm32f7xx_ll_usb.c ****       /* Set Core speed to High speed mode */
 370:Drivers/STM32F7xx_HAL_Driver/Src/stm32f7xx_ll_usb.c ****       (void)USB_SetDevSpeed(USBx, USB_OTG_SPEED_HIGH);
 371:Drivers/STM32F7xx_HAL_Driver/Src/stm32f7xx_ll_usb.c ****     }
 372:Drivers/STM32F7xx_HAL_Driver/Src/stm32f7xx_ll_usb.c ****     else
ARM GAS  /tmp/cc8ZLjKA.s 			page 8


 373:Drivers/STM32F7xx_HAL_Driver/Src/stm32f7xx_ll_usb.c ****     {
 374:Drivers/STM32F7xx_HAL_Driver/Src/stm32f7xx_ll_usb.c ****       /* Set Core speed to Full speed mode */
 375:Drivers/STM32F7xx_HAL_Driver/Src/stm32f7xx_ll_usb.c ****       (void)USB_SetDevSpeed(USBx, USB_OTG_SPEED_HIGH_IN_FULL);
 376:Drivers/STM32F7xx_HAL_Driver/Src/stm32f7xx_ll_usb.c ****     }
 377:Drivers/STM32F7xx_HAL_Driver/Src/stm32f7xx_ll_usb.c ****   }
 378:Drivers/STM32F7xx_HAL_Driver/Src/stm32f7xx_ll_usb.c **** #if defined(STM32F722xx) || defined(STM32F723xx) || defined(STM32F730xx) || defined(STM32F732xx) ||
 379:Drivers/STM32F7xx_HAL_Driver/Src/stm32f7xx_ll_usb.c ****   else if (cfg.phy_itface == USB_OTG_HS_EMBEDDED_PHY)
 380:Drivers/STM32F7xx_HAL_Driver/Src/stm32f7xx_ll_usb.c ****   {
 381:Drivers/STM32F7xx_HAL_Driver/Src/stm32f7xx_ll_usb.c ****     if (cfg.speed == USBD_HS_SPEED)
 382:Drivers/STM32F7xx_HAL_Driver/Src/stm32f7xx_ll_usb.c ****     {
 383:Drivers/STM32F7xx_HAL_Driver/Src/stm32f7xx_ll_usb.c ****       /* Set Core speed to High speed mode */
 384:Drivers/STM32F7xx_HAL_Driver/Src/stm32f7xx_ll_usb.c ****       (void)USB_SetDevSpeed(USBx, USB_OTG_SPEED_HIGH);
 385:Drivers/STM32F7xx_HAL_Driver/Src/stm32f7xx_ll_usb.c ****     }
 386:Drivers/STM32F7xx_HAL_Driver/Src/stm32f7xx_ll_usb.c ****     else
 387:Drivers/STM32F7xx_HAL_Driver/Src/stm32f7xx_ll_usb.c ****     {
 388:Drivers/STM32F7xx_HAL_Driver/Src/stm32f7xx_ll_usb.c ****       /* Set Core speed to Full speed mode */
 389:Drivers/STM32F7xx_HAL_Driver/Src/stm32f7xx_ll_usb.c ****       (void)USB_SetDevSpeed(USBx, USB_OTG_SPEED_HIGH_IN_FULL);
 390:Drivers/STM32F7xx_HAL_Driver/Src/stm32f7xx_ll_usb.c ****     }
 391:Drivers/STM32F7xx_HAL_Driver/Src/stm32f7xx_ll_usb.c ****   }
 392:Drivers/STM32F7xx_HAL_Driver/Src/stm32f7xx_ll_usb.c **** #endif /* defined(STM32F722xx) || defined(STM32F723xx) || defined(STM32F730xx) || defined(STM32F732
 393:Drivers/STM32F7xx_HAL_Driver/Src/stm32f7xx_ll_usb.c ****   else
 394:Drivers/STM32F7xx_HAL_Driver/Src/stm32f7xx_ll_usb.c ****   {
 395:Drivers/STM32F7xx_HAL_Driver/Src/stm32f7xx_ll_usb.c ****     /* Set Core speed to Full speed mode */
 396:Drivers/STM32F7xx_HAL_Driver/Src/stm32f7xx_ll_usb.c ****     (void)USB_SetDevSpeed(USBx, USB_OTG_SPEED_FULL);
 397:Drivers/STM32F7xx_HAL_Driver/Src/stm32f7xx_ll_usb.c ****   }
 398:Drivers/STM32F7xx_HAL_Driver/Src/stm32f7xx_ll_usb.c **** 
 399:Drivers/STM32F7xx_HAL_Driver/Src/stm32f7xx_ll_usb.c ****   /* Flush the FIFOs */
 400:Drivers/STM32F7xx_HAL_Driver/Src/stm32f7xx_ll_usb.c ****   if (USB_FlushTxFifo(USBx, 0x10U) != HAL_OK) /* all Tx FIFOs */
 401:Drivers/STM32F7xx_HAL_Driver/Src/stm32f7xx_ll_usb.c ****   {
 402:Drivers/STM32F7xx_HAL_Driver/Src/stm32f7xx_ll_usb.c ****     ret = HAL_ERROR;
 403:Drivers/STM32F7xx_HAL_Driver/Src/stm32f7xx_ll_usb.c ****   }
 404:Drivers/STM32F7xx_HAL_Driver/Src/stm32f7xx_ll_usb.c **** 
 405:Drivers/STM32F7xx_HAL_Driver/Src/stm32f7xx_ll_usb.c ****   if (USB_FlushRxFifo(USBx) != HAL_OK)
 406:Drivers/STM32F7xx_HAL_Driver/Src/stm32f7xx_ll_usb.c ****   {
 407:Drivers/STM32F7xx_HAL_Driver/Src/stm32f7xx_ll_usb.c ****     ret = HAL_ERROR;
 408:Drivers/STM32F7xx_HAL_Driver/Src/stm32f7xx_ll_usb.c ****   }
 409:Drivers/STM32F7xx_HAL_Driver/Src/stm32f7xx_ll_usb.c **** 
 410:Drivers/STM32F7xx_HAL_Driver/Src/stm32f7xx_ll_usb.c ****   /* Clear all pending Device Interrupts */
 411:Drivers/STM32F7xx_HAL_Driver/Src/stm32f7xx_ll_usb.c ****   USBx_DEVICE->DIEPMSK = 0U;
 412:Drivers/STM32F7xx_HAL_Driver/Src/stm32f7xx_ll_usb.c ****   USBx_DEVICE->DOEPMSK = 0U;
 413:Drivers/STM32F7xx_HAL_Driver/Src/stm32f7xx_ll_usb.c ****   USBx_DEVICE->DAINTMSK = 0U;
 414:Drivers/STM32F7xx_HAL_Driver/Src/stm32f7xx_ll_usb.c **** 
 415:Drivers/STM32F7xx_HAL_Driver/Src/stm32f7xx_ll_usb.c ****   for (i = 0U; i < cfg.dev_endpoints; i++)
 416:Drivers/STM32F7xx_HAL_Driver/Src/stm32f7xx_ll_usb.c ****   {
 417:Drivers/STM32F7xx_HAL_Driver/Src/stm32f7xx_ll_usb.c ****     if ((USBx_INEP(i)->DIEPCTL & USB_OTG_DIEPCTL_EPENA) == USB_OTG_DIEPCTL_EPENA)
 418:Drivers/STM32F7xx_HAL_Driver/Src/stm32f7xx_ll_usb.c ****     {
 419:Drivers/STM32F7xx_HAL_Driver/Src/stm32f7xx_ll_usb.c ****       if (i == 0U)
 420:Drivers/STM32F7xx_HAL_Driver/Src/stm32f7xx_ll_usb.c ****       {
 421:Drivers/STM32F7xx_HAL_Driver/Src/stm32f7xx_ll_usb.c ****         USBx_INEP(i)->DIEPCTL = USB_OTG_DIEPCTL_SNAK;
 422:Drivers/STM32F7xx_HAL_Driver/Src/stm32f7xx_ll_usb.c ****       }
 423:Drivers/STM32F7xx_HAL_Driver/Src/stm32f7xx_ll_usb.c ****       else
 424:Drivers/STM32F7xx_HAL_Driver/Src/stm32f7xx_ll_usb.c ****       {
 425:Drivers/STM32F7xx_HAL_Driver/Src/stm32f7xx_ll_usb.c ****         USBx_INEP(i)->DIEPCTL = USB_OTG_DIEPCTL_EPDIS | USB_OTG_DIEPCTL_SNAK;
 426:Drivers/STM32F7xx_HAL_Driver/Src/stm32f7xx_ll_usb.c ****       }
 427:Drivers/STM32F7xx_HAL_Driver/Src/stm32f7xx_ll_usb.c ****     }
 428:Drivers/STM32F7xx_HAL_Driver/Src/stm32f7xx_ll_usb.c ****     else
 429:Drivers/STM32F7xx_HAL_Driver/Src/stm32f7xx_ll_usb.c ****     {
ARM GAS  /tmp/cc8ZLjKA.s 			page 9


 430:Drivers/STM32F7xx_HAL_Driver/Src/stm32f7xx_ll_usb.c ****       USBx_INEP(i)->DIEPCTL = 0U;
 431:Drivers/STM32F7xx_HAL_Driver/Src/stm32f7xx_ll_usb.c ****     }
 432:Drivers/STM32F7xx_HAL_Driver/Src/stm32f7xx_ll_usb.c **** 
 433:Drivers/STM32F7xx_HAL_Driver/Src/stm32f7xx_ll_usb.c ****     USBx_INEP(i)->DIEPTSIZ = 0U;
 434:Drivers/STM32F7xx_HAL_Driver/Src/stm32f7xx_ll_usb.c ****     USBx_INEP(i)->DIEPINT  = 0xFB7FU;
 435:Drivers/STM32F7xx_HAL_Driver/Src/stm32f7xx_ll_usb.c ****   }
 436:Drivers/STM32F7xx_HAL_Driver/Src/stm32f7xx_ll_usb.c **** 
 437:Drivers/STM32F7xx_HAL_Driver/Src/stm32f7xx_ll_usb.c ****   for (i = 0U; i < cfg.dev_endpoints; i++)
 438:Drivers/STM32F7xx_HAL_Driver/Src/stm32f7xx_ll_usb.c ****   {
 439:Drivers/STM32F7xx_HAL_Driver/Src/stm32f7xx_ll_usb.c ****     if ((USBx_OUTEP(i)->DOEPCTL & USB_OTG_DOEPCTL_EPENA) == USB_OTG_DOEPCTL_EPENA)
 440:Drivers/STM32F7xx_HAL_Driver/Src/stm32f7xx_ll_usb.c ****     {
 441:Drivers/STM32F7xx_HAL_Driver/Src/stm32f7xx_ll_usb.c ****       if (i == 0U)
 442:Drivers/STM32F7xx_HAL_Driver/Src/stm32f7xx_ll_usb.c ****       {
 443:Drivers/STM32F7xx_HAL_Driver/Src/stm32f7xx_ll_usb.c ****         USBx_OUTEP(i)->DOEPCTL = USB_OTG_DOEPCTL_SNAK;
 444:Drivers/STM32F7xx_HAL_Driver/Src/stm32f7xx_ll_usb.c ****       }
 445:Drivers/STM32F7xx_HAL_Driver/Src/stm32f7xx_ll_usb.c ****       else
 446:Drivers/STM32F7xx_HAL_Driver/Src/stm32f7xx_ll_usb.c ****       {
 447:Drivers/STM32F7xx_HAL_Driver/Src/stm32f7xx_ll_usb.c ****         USBx_OUTEP(i)->DOEPCTL = USB_OTG_DOEPCTL_EPDIS | USB_OTG_DOEPCTL_SNAK;
 448:Drivers/STM32F7xx_HAL_Driver/Src/stm32f7xx_ll_usb.c ****       }
 449:Drivers/STM32F7xx_HAL_Driver/Src/stm32f7xx_ll_usb.c ****     }
 450:Drivers/STM32F7xx_HAL_Driver/Src/stm32f7xx_ll_usb.c ****     else
 451:Drivers/STM32F7xx_HAL_Driver/Src/stm32f7xx_ll_usb.c ****     {
 452:Drivers/STM32F7xx_HAL_Driver/Src/stm32f7xx_ll_usb.c ****       USBx_OUTEP(i)->DOEPCTL = 0U;
 453:Drivers/STM32F7xx_HAL_Driver/Src/stm32f7xx_ll_usb.c ****     }
 454:Drivers/STM32F7xx_HAL_Driver/Src/stm32f7xx_ll_usb.c **** 
 455:Drivers/STM32F7xx_HAL_Driver/Src/stm32f7xx_ll_usb.c ****     USBx_OUTEP(i)->DOEPTSIZ = 0U;
 456:Drivers/STM32F7xx_HAL_Driver/Src/stm32f7xx_ll_usb.c ****     USBx_OUTEP(i)->DOEPINT  = 0xFB7FU;
 457:Drivers/STM32F7xx_HAL_Driver/Src/stm32f7xx_ll_usb.c ****   }
 458:Drivers/STM32F7xx_HAL_Driver/Src/stm32f7xx_ll_usb.c **** 
 459:Drivers/STM32F7xx_HAL_Driver/Src/stm32f7xx_ll_usb.c ****   USBx_DEVICE->DIEPMSK &= ~(USB_OTG_DIEPMSK_TXFURM);
 460:Drivers/STM32F7xx_HAL_Driver/Src/stm32f7xx_ll_usb.c **** 
 461:Drivers/STM32F7xx_HAL_Driver/Src/stm32f7xx_ll_usb.c ****   /* Disable all interrupts. */
 462:Drivers/STM32F7xx_HAL_Driver/Src/stm32f7xx_ll_usb.c ****   USBx->GINTMSK = 0U;
 463:Drivers/STM32F7xx_HAL_Driver/Src/stm32f7xx_ll_usb.c **** 
 464:Drivers/STM32F7xx_HAL_Driver/Src/stm32f7xx_ll_usb.c ****   /* Clear any pending interrupts */
 465:Drivers/STM32F7xx_HAL_Driver/Src/stm32f7xx_ll_usb.c ****   USBx->GINTSTS = 0xBFFFFFFFU;
 466:Drivers/STM32F7xx_HAL_Driver/Src/stm32f7xx_ll_usb.c **** 
 467:Drivers/STM32F7xx_HAL_Driver/Src/stm32f7xx_ll_usb.c ****   /* Enable the common interrupts */
 468:Drivers/STM32F7xx_HAL_Driver/Src/stm32f7xx_ll_usb.c ****   if (cfg.dma_enable == 0U)
 469:Drivers/STM32F7xx_HAL_Driver/Src/stm32f7xx_ll_usb.c ****   {
 470:Drivers/STM32F7xx_HAL_Driver/Src/stm32f7xx_ll_usb.c ****     USBx->GINTMSK |= USB_OTG_GINTMSK_RXFLVLM;
 471:Drivers/STM32F7xx_HAL_Driver/Src/stm32f7xx_ll_usb.c ****   }
 472:Drivers/STM32F7xx_HAL_Driver/Src/stm32f7xx_ll_usb.c **** 
 473:Drivers/STM32F7xx_HAL_Driver/Src/stm32f7xx_ll_usb.c ****   /* Enable interrupts matching to the Device mode ONLY */
 474:Drivers/STM32F7xx_HAL_Driver/Src/stm32f7xx_ll_usb.c ****   USBx->GINTMSK |= USB_OTG_GINTMSK_USBSUSPM | USB_OTG_GINTMSK_USBRST |
 475:Drivers/STM32F7xx_HAL_Driver/Src/stm32f7xx_ll_usb.c ****                    USB_OTG_GINTMSK_ENUMDNEM | USB_OTG_GINTMSK_IEPINT |
 476:Drivers/STM32F7xx_HAL_Driver/Src/stm32f7xx_ll_usb.c ****                    USB_OTG_GINTMSK_OEPINT   | USB_OTG_GINTMSK_IISOIXFRM |
 477:Drivers/STM32F7xx_HAL_Driver/Src/stm32f7xx_ll_usb.c ****                    USB_OTG_GINTMSK_PXFRM_IISOOXFRM | USB_OTG_GINTMSK_WUIM;
 478:Drivers/STM32F7xx_HAL_Driver/Src/stm32f7xx_ll_usb.c **** 
 479:Drivers/STM32F7xx_HAL_Driver/Src/stm32f7xx_ll_usb.c ****   if (cfg.Sof_enable != 0U)
 480:Drivers/STM32F7xx_HAL_Driver/Src/stm32f7xx_ll_usb.c ****   {
 481:Drivers/STM32F7xx_HAL_Driver/Src/stm32f7xx_ll_usb.c ****     USBx->GINTMSK |= USB_OTG_GINTMSK_SOFM;
 482:Drivers/STM32F7xx_HAL_Driver/Src/stm32f7xx_ll_usb.c ****   }
 483:Drivers/STM32F7xx_HAL_Driver/Src/stm32f7xx_ll_usb.c **** 
 484:Drivers/STM32F7xx_HAL_Driver/Src/stm32f7xx_ll_usb.c ****   if (cfg.vbus_sensing_enable == 1U)
 485:Drivers/STM32F7xx_HAL_Driver/Src/stm32f7xx_ll_usb.c ****   {
 486:Drivers/STM32F7xx_HAL_Driver/Src/stm32f7xx_ll_usb.c ****     USBx->GINTMSK |= (USB_OTG_GINTMSK_SRQIM | USB_OTG_GINTMSK_OTGINT);
ARM GAS  /tmp/cc8ZLjKA.s 			page 10


 487:Drivers/STM32F7xx_HAL_Driver/Src/stm32f7xx_ll_usb.c ****   }
 488:Drivers/STM32F7xx_HAL_Driver/Src/stm32f7xx_ll_usb.c **** 
 489:Drivers/STM32F7xx_HAL_Driver/Src/stm32f7xx_ll_usb.c ****   return ret;
 490:Drivers/STM32F7xx_HAL_Driver/Src/stm32f7xx_ll_usb.c **** }
 491:Drivers/STM32F7xx_HAL_Driver/Src/stm32f7xx_ll_usb.c **** 
 492:Drivers/STM32F7xx_HAL_Driver/Src/stm32f7xx_ll_usb.c **** /**
 493:Drivers/STM32F7xx_HAL_Driver/Src/stm32f7xx_ll_usb.c ****   * @brief  USB_FlushTxFifo Flush a Tx FIFO
 494:Drivers/STM32F7xx_HAL_Driver/Src/stm32f7xx_ll_usb.c ****   * @param  USBx  Selected device
 495:Drivers/STM32F7xx_HAL_Driver/Src/stm32f7xx_ll_usb.c ****   * @param  num  FIFO number
 496:Drivers/STM32F7xx_HAL_Driver/Src/stm32f7xx_ll_usb.c ****   *         This parameter can be a value from 1 to 15
 497:Drivers/STM32F7xx_HAL_Driver/Src/stm32f7xx_ll_usb.c ****             15 means Flush all Tx FIFOs
 498:Drivers/STM32F7xx_HAL_Driver/Src/stm32f7xx_ll_usb.c ****   * @retval HAL status
 499:Drivers/STM32F7xx_HAL_Driver/Src/stm32f7xx_ll_usb.c ****   */
 500:Drivers/STM32F7xx_HAL_Driver/Src/stm32f7xx_ll_usb.c **** HAL_StatusTypeDef USB_FlushTxFifo(USB_OTG_GlobalTypeDef *USBx, uint32_t num)
 501:Drivers/STM32F7xx_HAL_Driver/Src/stm32f7xx_ll_usb.c **** {
 502:Drivers/STM32F7xx_HAL_Driver/Src/stm32f7xx_ll_usb.c ****   __IO uint32_t count = 0U;
 503:Drivers/STM32F7xx_HAL_Driver/Src/stm32f7xx_ll_usb.c **** 
 504:Drivers/STM32F7xx_HAL_Driver/Src/stm32f7xx_ll_usb.c ****   /* Wait for AHB master IDLE state. */
 505:Drivers/STM32F7xx_HAL_Driver/Src/stm32f7xx_ll_usb.c ****   do
 506:Drivers/STM32F7xx_HAL_Driver/Src/stm32f7xx_ll_usb.c ****   {
 507:Drivers/STM32F7xx_HAL_Driver/Src/stm32f7xx_ll_usb.c ****     count++;
 508:Drivers/STM32F7xx_HAL_Driver/Src/stm32f7xx_ll_usb.c **** 
 509:Drivers/STM32F7xx_HAL_Driver/Src/stm32f7xx_ll_usb.c ****     if (count > 200000U)
 510:Drivers/STM32F7xx_HAL_Driver/Src/stm32f7xx_ll_usb.c ****     {
 511:Drivers/STM32F7xx_HAL_Driver/Src/stm32f7xx_ll_usb.c ****       return HAL_TIMEOUT;
 512:Drivers/STM32F7xx_HAL_Driver/Src/stm32f7xx_ll_usb.c ****     }
 513:Drivers/STM32F7xx_HAL_Driver/Src/stm32f7xx_ll_usb.c ****   } while ((USBx->GRSTCTL & USB_OTG_GRSTCTL_AHBIDL) == 0U);
 514:Drivers/STM32F7xx_HAL_Driver/Src/stm32f7xx_ll_usb.c **** 
 515:Drivers/STM32F7xx_HAL_Driver/Src/stm32f7xx_ll_usb.c ****   /* Flush TX Fifo */
 516:Drivers/STM32F7xx_HAL_Driver/Src/stm32f7xx_ll_usb.c ****   count = 0U;
 517:Drivers/STM32F7xx_HAL_Driver/Src/stm32f7xx_ll_usb.c ****   USBx->GRSTCTL = (USB_OTG_GRSTCTL_TXFFLSH | (num << 6));
 518:Drivers/STM32F7xx_HAL_Driver/Src/stm32f7xx_ll_usb.c **** 
 519:Drivers/STM32F7xx_HAL_Driver/Src/stm32f7xx_ll_usb.c ****   do
 520:Drivers/STM32F7xx_HAL_Driver/Src/stm32f7xx_ll_usb.c ****   {
 521:Drivers/STM32F7xx_HAL_Driver/Src/stm32f7xx_ll_usb.c ****     count++;
 522:Drivers/STM32F7xx_HAL_Driver/Src/stm32f7xx_ll_usb.c **** 
 523:Drivers/STM32F7xx_HAL_Driver/Src/stm32f7xx_ll_usb.c ****     if (count > 200000U)
 524:Drivers/STM32F7xx_HAL_Driver/Src/stm32f7xx_ll_usb.c ****     {
 525:Drivers/STM32F7xx_HAL_Driver/Src/stm32f7xx_ll_usb.c ****       return HAL_TIMEOUT;
 526:Drivers/STM32F7xx_HAL_Driver/Src/stm32f7xx_ll_usb.c ****     }
 527:Drivers/STM32F7xx_HAL_Driver/Src/stm32f7xx_ll_usb.c ****   } while ((USBx->GRSTCTL & USB_OTG_GRSTCTL_TXFFLSH) == USB_OTG_GRSTCTL_TXFFLSH);
 528:Drivers/STM32F7xx_HAL_Driver/Src/stm32f7xx_ll_usb.c **** 
 529:Drivers/STM32F7xx_HAL_Driver/Src/stm32f7xx_ll_usb.c ****   return HAL_OK;
 530:Drivers/STM32F7xx_HAL_Driver/Src/stm32f7xx_ll_usb.c **** }
 531:Drivers/STM32F7xx_HAL_Driver/Src/stm32f7xx_ll_usb.c **** 
 532:Drivers/STM32F7xx_HAL_Driver/Src/stm32f7xx_ll_usb.c **** /**
 533:Drivers/STM32F7xx_HAL_Driver/Src/stm32f7xx_ll_usb.c ****   * @brief  USB_FlushRxFifo  Flush Rx FIFO
 534:Drivers/STM32F7xx_HAL_Driver/Src/stm32f7xx_ll_usb.c ****   * @param  USBx  Selected device
 535:Drivers/STM32F7xx_HAL_Driver/Src/stm32f7xx_ll_usb.c ****   * @retval HAL status
 536:Drivers/STM32F7xx_HAL_Driver/Src/stm32f7xx_ll_usb.c ****   */
 537:Drivers/STM32F7xx_HAL_Driver/Src/stm32f7xx_ll_usb.c **** HAL_StatusTypeDef USB_FlushRxFifo(USB_OTG_GlobalTypeDef *USBx)
 538:Drivers/STM32F7xx_HAL_Driver/Src/stm32f7xx_ll_usb.c **** {
 539:Drivers/STM32F7xx_HAL_Driver/Src/stm32f7xx_ll_usb.c ****   __IO uint32_t count = 0U;
 540:Drivers/STM32F7xx_HAL_Driver/Src/stm32f7xx_ll_usb.c **** 
 541:Drivers/STM32F7xx_HAL_Driver/Src/stm32f7xx_ll_usb.c ****   /* Wait for AHB master IDLE state. */
 542:Drivers/STM32F7xx_HAL_Driver/Src/stm32f7xx_ll_usb.c ****   do
 543:Drivers/STM32F7xx_HAL_Driver/Src/stm32f7xx_ll_usb.c ****   {
ARM GAS  /tmp/cc8ZLjKA.s 			page 11


 544:Drivers/STM32F7xx_HAL_Driver/Src/stm32f7xx_ll_usb.c ****     count++;
 545:Drivers/STM32F7xx_HAL_Driver/Src/stm32f7xx_ll_usb.c **** 
 546:Drivers/STM32F7xx_HAL_Driver/Src/stm32f7xx_ll_usb.c ****     if (count > 200000U)
 547:Drivers/STM32F7xx_HAL_Driver/Src/stm32f7xx_ll_usb.c ****     {
 548:Drivers/STM32F7xx_HAL_Driver/Src/stm32f7xx_ll_usb.c ****       return HAL_TIMEOUT;
 549:Drivers/STM32F7xx_HAL_Driver/Src/stm32f7xx_ll_usb.c ****     }
 550:Drivers/STM32F7xx_HAL_Driver/Src/stm32f7xx_ll_usb.c ****   } while ((USBx->GRSTCTL & USB_OTG_GRSTCTL_AHBIDL) == 0U);
 551:Drivers/STM32F7xx_HAL_Driver/Src/stm32f7xx_ll_usb.c **** 
 552:Drivers/STM32F7xx_HAL_Driver/Src/stm32f7xx_ll_usb.c ****   /* Flush RX Fifo */
 553:Drivers/STM32F7xx_HAL_Driver/Src/stm32f7xx_ll_usb.c ****   count = 0U;
 554:Drivers/STM32F7xx_HAL_Driver/Src/stm32f7xx_ll_usb.c ****   USBx->GRSTCTL = USB_OTG_GRSTCTL_RXFFLSH;
 555:Drivers/STM32F7xx_HAL_Driver/Src/stm32f7xx_ll_usb.c **** 
 556:Drivers/STM32F7xx_HAL_Driver/Src/stm32f7xx_ll_usb.c ****   do
 557:Drivers/STM32F7xx_HAL_Driver/Src/stm32f7xx_ll_usb.c ****   {
 558:Drivers/STM32F7xx_HAL_Driver/Src/stm32f7xx_ll_usb.c ****     count++;
 559:Drivers/STM32F7xx_HAL_Driver/Src/stm32f7xx_ll_usb.c **** 
 560:Drivers/STM32F7xx_HAL_Driver/Src/stm32f7xx_ll_usb.c ****     if (count > 200000U)
 561:Drivers/STM32F7xx_HAL_Driver/Src/stm32f7xx_ll_usb.c ****     {
 562:Drivers/STM32F7xx_HAL_Driver/Src/stm32f7xx_ll_usb.c ****       return HAL_TIMEOUT;
 563:Drivers/STM32F7xx_HAL_Driver/Src/stm32f7xx_ll_usb.c ****     }
 564:Drivers/STM32F7xx_HAL_Driver/Src/stm32f7xx_ll_usb.c ****   } while ((USBx->GRSTCTL & USB_OTG_GRSTCTL_RXFFLSH) == USB_OTG_GRSTCTL_RXFFLSH);
 565:Drivers/STM32F7xx_HAL_Driver/Src/stm32f7xx_ll_usb.c **** 
 566:Drivers/STM32F7xx_HAL_Driver/Src/stm32f7xx_ll_usb.c ****   return HAL_OK;
 567:Drivers/STM32F7xx_HAL_Driver/Src/stm32f7xx_ll_usb.c **** }
 568:Drivers/STM32F7xx_HAL_Driver/Src/stm32f7xx_ll_usb.c **** 
 569:Drivers/STM32F7xx_HAL_Driver/Src/stm32f7xx_ll_usb.c **** /**
 570:Drivers/STM32F7xx_HAL_Driver/Src/stm32f7xx_ll_usb.c ****   * @brief  USB_SetDevSpeed  Initializes the DevSpd field of DCFG register
 571:Drivers/STM32F7xx_HAL_Driver/Src/stm32f7xx_ll_usb.c ****   *         depending the PHY type and the enumeration speed of the device.
 572:Drivers/STM32F7xx_HAL_Driver/Src/stm32f7xx_ll_usb.c ****   * @param  USBx  Selected device
 573:Drivers/STM32F7xx_HAL_Driver/Src/stm32f7xx_ll_usb.c ****   * @param  speed  device speed
 574:Drivers/STM32F7xx_HAL_Driver/Src/stm32f7xx_ll_usb.c ****   *          This parameter can be one of these values:
 575:Drivers/STM32F7xx_HAL_Driver/Src/stm32f7xx_ll_usb.c ****   *            @arg USB_OTG_SPEED_HIGH: High speed mode
 576:Drivers/STM32F7xx_HAL_Driver/Src/stm32f7xx_ll_usb.c ****   *            @arg USB_OTG_SPEED_HIGH_IN_FULL: High speed core in Full Speed mode
 577:Drivers/STM32F7xx_HAL_Driver/Src/stm32f7xx_ll_usb.c ****   *            @arg USB_OTG_SPEED_FULL: Full speed mode
 578:Drivers/STM32F7xx_HAL_Driver/Src/stm32f7xx_ll_usb.c ****   * @retval  Hal status
 579:Drivers/STM32F7xx_HAL_Driver/Src/stm32f7xx_ll_usb.c ****   */
 580:Drivers/STM32F7xx_HAL_Driver/Src/stm32f7xx_ll_usb.c **** HAL_StatusTypeDef USB_SetDevSpeed(USB_OTG_GlobalTypeDef *USBx, uint8_t speed)
 581:Drivers/STM32F7xx_HAL_Driver/Src/stm32f7xx_ll_usb.c **** {
 582:Drivers/STM32F7xx_HAL_Driver/Src/stm32f7xx_ll_usb.c ****   uint32_t USBx_BASE = (uint32_t)USBx;
 583:Drivers/STM32F7xx_HAL_Driver/Src/stm32f7xx_ll_usb.c **** 
 584:Drivers/STM32F7xx_HAL_Driver/Src/stm32f7xx_ll_usb.c ****   USBx_DEVICE->DCFG |= speed;
 585:Drivers/STM32F7xx_HAL_Driver/Src/stm32f7xx_ll_usb.c ****   return HAL_OK;
 586:Drivers/STM32F7xx_HAL_Driver/Src/stm32f7xx_ll_usb.c **** }
 587:Drivers/STM32F7xx_HAL_Driver/Src/stm32f7xx_ll_usb.c **** 
 588:Drivers/STM32F7xx_HAL_Driver/Src/stm32f7xx_ll_usb.c **** /**
 589:Drivers/STM32F7xx_HAL_Driver/Src/stm32f7xx_ll_usb.c ****   * @brief  USB_GetDevSpeed  Return the Dev Speed
 590:Drivers/STM32F7xx_HAL_Driver/Src/stm32f7xx_ll_usb.c ****   * @param  USBx  Selected device
 591:Drivers/STM32F7xx_HAL_Driver/Src/stm32f7xx_ll_usb.c ****   * @retval speed  device speed
 592:Drivers/STM32F7xx_HAL_Driver/Src/stm32f7xx_ll_usb.c ****   *          This parameter can be one of these values:
 593:Drivers/STM32F7xx_HAL_Driver/Src/stm32f7xx_ll_usb.c ****   *            @arg USBD_HS_SPEED: High speed mode
 594:Drivers/STM32F7xx_HAL_Driver/Src/stm32f7xx_ll_usb.c ****   *            @arg USBD_FS_SPEED: Full speed mode
 595:Drivers/STM32F7xx_HAL_Driver/Src/stm32f7xx_ll_usb.c ****   */
 596:Drivers/STM32F7xx_HAL_Driver/Src/stm32f7xx_ll_usb.c **** uint8_t USB_GetDevSpeed(USB_OTG_GlobalTypeDef *USBx)
 597:Drivers/STM32F7xx_HAL_Driver/Src/stm32f7xx_ll_usb.c **** {
 598:Drivers/STM32F7xx_HAL_Driver/Src/stm32f7xx_ll_usb.c ****   uint32_t USBx_BASE = (uint32_t)USBx;
 599:Drivers/STM32F7xx_HAL_Driver/Src/stm32f7xx_ll_usb.c ****   uint8_t speed;
 600:Drivers/STM32F7xx_HAL_Driver/Src/stm32f7xx_ll_usb.c ****   uint32_t DevEnumSpeed = USBx_DEVICE->DSTS & USB_OTG_DSTS_ENUMSPD;
ARM GAS  /tmp/cc8ZLjKA.s 			page 12


 601:Drivers/STM32F7xx_HAL_Driver/Src/stm32f7xx_ll_usb.c **** 
 602:Drivers/STM32F7xx_HAL_Driver/Src/stm32f7xx_ll_usb.c ****   if (DevEnumSpeed == DSTS_ENUMSPD_HS_PHY_30MHZ_OR_60MHZ)
 603:Drivers/STM32F7xx_HAL_Driver/Src/stm32f7xx_ll_usb.c ****   {
 604:Drivers/STM32F7xx_HAL_Driver/Src/stm32f7xx_ll_usb.c ****     speed = USBD_HS_SPEED;
 605:Drivers/STM32F7xx_HAL_Driver/Src/stm32f7xx_ll_usb.c ****   }
 606:Drivers/STM32F7xx_HAL_Driver/Src/stm32f7xx_ll_usb.c ****   else if ((DevEnumSpeed == DSTS_ENUMSPD_FS_PHY_30MHZ_OR_60MHZ) ||
 607:Drivers/STM32F7xx_HAL_Driver/Src/stm32f7xx_ll_usb.c ****            (DevEnumSpeed == DSTS_ENUMSPD_FS_PHY_48MHZ))
 608:Drivers/STM32F7xx_HAL_Driver/Src/stm32f7xx_ll_usb.c ****   {
 609:Drivers/STM32F7xx_HAL_Driver/Src/stm32f7xx_ll_usb.c ****     speed = USBD_FS_SPEED;
 610:Drivers/STM32F7xx_HAL_Driver/Src/stm32f7xx_ll_usb.c ****   }
 611:Drivers/STM32F7xx_HAL_Driver/Src/stm32f7xx_ll_usb.c ****   else
 612:Drivers/STM32F7xx_HAL_Driver/Src/stm32f7xx_ll_usb.c ****   {
 613:Drivers/STM32F7xx_HAL_Driver/Src/stm32f7xx_ll_usb.c ****     speed = 0xFU;
 614:Drivers/STM32F7xx_HAL_Driver/Src/stm32f7xx_ll_usb.c ****   }
 615:Drivers/STM32F7xx_HAL_Driver/Src/stm32f7xx_ll_usb.c **** 
 616:Drivers/STM32F7xx_HAL_Driver/Src/stm32f7xx_ll_usb.c ****   return speed;
 617:Drivers/STM32F7xx_HAL_Driver/Src/stm32f7xx_ll_usb.c **** }
 618:Drivers/STM32F7xx_HAL_Driver/Src/stm32f7xx_ll_usb.c **** 
 619:Drivers/STM32F7xx_HAL_Driver/Src/stm32f7xx_ll_usb.c **** /**
 620:Drivers/STM32F7xx_HAL_Driver/Src/stm32f7xx_ll_usb.c ****   * @brief  Activate and configure an endpoint
 621:Drivers/STM32F7xx_HAL_Driver/Src/stm32f7xx_ll_usb.c ****   * @param  USBx  Selected device
 622:Drivers/STM32F7xx_HAL_Driver/Src/stm32f7xx_ll_usb.c ****   * @param  ep pointer to endpoint structure
 623:Drivers/STM32F7xx_HAL_Driver/Src/stm32f7xx_ll_usb.c ****   * @retval HAL status
 624:Drivers/STM32F7xx_HAL_Driver/Src/stm32f7xx_ll_usb.c ****   */
 625:Drivers/STM32F7xx_HAL_Driver/Src/stm32f7xx_ll_usb.c **** HAL_StatusTypeDef USB_ActivateEndpoint(USB_OTG_GlobalTypeDef *USBx, USB_OTG_EPTypeDef *ep)
 626:Drivers/STM32F7xx_HAL_Driver/Src/stm32f7xx_ll_usb.c **** {
 627:Drivers/STM32F7xx_HAL_Driver/Src/stm32f7xx_ll_usb.c ****   uint32_t USBx_BASE = (uint32_t)USBx;
 628:Drivers/STM32F7xx_HAL_Driver/Src/stm32f7xx_ll_usb.c ****   uint32_t epnum = (uint32_t)ep->num;
 629:Drivers/STM32F7xx_HAL_Driver/Src/stm32f7xx_ll_usb.c **** 
 630:Drivers/STM32F7xx_HAL_Driver/Src/stm32f7xx_ll_usb.c ****   if (ep->is_in == 1U)
 631:Drivers/STM32F7xx_HAL_Driver/Src/stm32f7xx_ll_usb.c ****   {
 632:Drivers/STM32F7xx_HAL_Driver/Src/stm32f7xx_ll_usb.c ****     USBx_DEVICE->DAINTMSK |= USB_OTG_DAINTMSK_IEPM & (uint32_t)(1UL << (ep->num & EP_ADDR_MSK));
 633:Drivers/STM32F7xx_HAL_Driver/Src/stm32f7xx_ll_usb.c **** 
 634:Drivers/STM32F7xx_HAL_Driver/Src/stm32f7xx_ll_usb.c ****     if ((USBx_INEP(epnum)->DIEPCTL & USB_OTG_DIEPCTL_USBAEP) == 0U)
 635:Drivers/STM32F7xx_HAL_Driver/Src/stm32f7xx_ll_usb.c ****     {
 636:Drivers/STM32F7xx_HAL_Driver/Src/stm32f7xx_ll_usb.c ****       USBx_INEP(epnum)->DIEPCTL |= (ep->maxpacket & USB_OTG_DIEPCTL_MPSIZ) |
 637:Drivers/STM32F7xx_HAL_Driver/Src/stm32f7xx_ll_usb.c ****                                    ((uint32_t)ep->type << 18) | (epnum << 22) |
 638:Drivers/STM32F7xx_HAL_Driver/Src/stm32f7xx_ll_usb.c ****                                    USB_OTG_DIEPCTL_SD0PID_SEVNFRM |
 639:Drivers/STM32F7xx_HAL_Driver/Src/stm32f7xx_ll_usb.c ****                                    USB_OTG_DIEPCTL_USBAEP;
 640:Drivers/STM32F7xx_HAL_Driver/Src/stm32f7xx_ll_usb.c ****     }
 641:Drivers/STM32F7xx_HAL_Driver/Src/stm32f7xx_ll_usb.c ****   }
 642:Drivers/STM32F7xx_HAL_Driver/Src/stm32f7xx_ll_usb.c ****   else
 643:Drivers/STM32F7xx_HAL_Driver/Src/stm32f7xx_ll_usb.c ****   {
 644:Drivers/STM32F7xx_HAL_Driver/Src/stm32f7xx_ll_usb.c ****     USBx_DEVICE->DAINTMSK |= USB_OTG_DAINTMSK_OEPM & ((uint32_t)(1UL << (ep->num & EP_ADDR_MSK)) <<
 645:Drivers/STM32F7xx_HAL_Driver/Src/stm32f7xx_ll_usb.c **** 
 646:Drivers/STM32F7xx_HAL_Driver/Src/stm32f7xx_ll_usb.c ****     if (((USBx_OUTEP(epnum)->DOEPCTL) & USB_OTG_DOEPCTL_USBAEP) == 0U)
 647:Drivers/STM32F7xx_HAL_Driver/Src/stm32f7xx_ll_usb.c ****     {
 648:Drivers/STM32F7xx_HAL_Driver/Src/stm32f7xx_ll_usb.c ****       USBx_OUTEP(epnum)->DOEPCTL |= (ep->maxpacket & USB_OTG_DOEPCTL_MPSIZ) |
 649:Drivers/STM32F7xx_HAL_Driver/Src/stm32f7xx_ll_usb.c ****                                     ((uint32_t)ep->type << 18) |
 650:Drivers/STM32F7xx_HAL_Driver/Src/stm32f7xx_ll_usb.c ****                                     USB_OTG_DIEPCTL_SD0PID_SEVNFRM |
 651:Drivers/STM32F7xx_HAL_Driver/Src/stm32f7xx_ll_usb.c ****                                     USB_OTG_DOEPCTL_USBAEP;
 652:Drivers/STM32F7xx_HAL_Driver/Src/stm32f7xx_ll_usb.c ****     }
 653:Drivers/STM32F7xx_HAL_Driver/Src/stm32f7xx_ll_usb.c ****   }
 654:Drivers/STM32F7xx_HAL_Driver/Src/stm32f7xx_ll_usb.c ****   return HAL_OK;
 655:Drivers/STM32F7xx_HAL_Driver/Src/stm32f7xx_ll_usb.c **** }
 656:Drivers/STM32F7xx_HAL_Driver/Src/stm32f7xx_ll_usb.c **** 
 657:Drivers/STM32F7xx_HAL_Driver/Src/stm32f7xx_ll_usb.c **** /**
ARM GAS  /tmp/cc8ZLjKA.s 			page 13


 658:Drivers/STM32F7xx_HAL_Driver/Src/stm32f7xx_ll_usb.c ****   * @brief  Activate and configure a dedicated endpoint
 659:Drivers/STM32F7xx_HAL_Driver/Src/stm32f7xx_ll_usb.c ****   * @param  USBx  Selected device
 660:Drivers/STM32F7xx_HAL_Driver/Src/stm32f7xx_ll_usb.c ****   * @param  ep pointer to endpoint structure
 661:Drivers/STM32F7xx_HAL_Driver/Src/stm32f7xx_ll_usb.c ****   * @retval HAL status
 662:Drivers/STM32F7xx_HAL_Driver/Src/stm32f7xx_ll_usb.c ****   */
 663:Drivers/STM32F7xx_HAL_Driver/Src/stm32f7xx_ll_usb.c **** HAL_StatusTypeDef USB_ActivateDedicatedEndpoint(USB_OTG_GlobalTypeDef *USBx, USB_OTG_EPTypeDef *ep)
 664:Drivers/STM32F7xx_HAL_Driver/Src/stm32f7xx_ll_usb.c **** {
 665:Drivers/STM32F7xx_HAL_Driver/Src/stm32f7xx_ll_usb.c ****   uint32_t USBx_BASE = (uint32_t)USBx;
 666:Drivers/STM32F7xx_HAL_Driver/Src/stm32f7xx_ll_usb.c ****   uint32_t epnum = (uint32_t)ep->num;
 667:Drivers/STM32F7xx_HAL_Driver/Src/stm32f7xx_ll_usb.c **** 
 668:Drivers/STM32F7xx_HAL_Driver/Src/stm32f7xx_ll_usb.c ****   /* Read DEPCTLn register */
 669:Drivers/STM32F7xx_HAL_Driver/Src/stm32f7xx_ll_usb.c ****   if (ep->is_in == 1U)
 670:Drivers/STM32F7xx_HAL_Driver/Src/stm32f7xx_ll_usb.c ****   {
 671:Drivers/STM32F7xx_HAL_Driver/Src/stm32f7xx_ll_usb.c ****     if (((USBx_INEP(epnum)->DIEPCTL) & USB_OTG_DIEPCTL_USBAEP) == 0U)
 672:Drivers/STM32F7xx_HAL_Driver/Src/stm32f7xx_ll_usb.c ****     {
 673:Drivers/STM32F7xx_HAL_Driver/Src/stm32f7xx_ll_usb.c ****       USBx_INEP(epnum)->DIEPCTL |= (ep->maxpacket & USB_OTG_DIEPCTL_MPSIZ) |
 674:Drivers/STM32F7xx_HAL_Driver/Src/stm32f7xx_ll_usb.c ****                                    ((uint32_t)ep->type << 18) | (epnum << 22) |
 675:Drivers/STM32F7xx_HAL_Driver/Src/stm32f7xx_ll_usb.c ****                                    USB_OTG_DIEPCTL_SD0PID_SEVNFRM |
 676:Drivers/STM32F7xx_HAL_Driver/Src/stm32f7xx_ll_usb.c ****                                    USB_OTG_DIEPCTL_USBAEP;
 677:Drivers/STM32F7xx_HAL_Driver/Src/stm32f7xx_ll_usb.c ****     }
 678:Drivers/STM32F7xx_HAL_Driver/Src/stm32f7xx_ll_usb.c **** 
 679:Drivers/STM32F7xx_HAL_Driver/Src/stm32f7xx_ll_usb.c ****     USBx_DEVICE->DEACHMSK |= USB_OTG_DAINTMSK_IEPM & (uint32_t)(1UL << (ep->num & EP_ADDR_MSK));
 680:Drivers/STM32F7xx_HAL_Driver/Src/stm32f7xx_ll_usb.c ****   }
 681:Drivers/STM32F7xx_HAL_Driver/Src/stm32f7xx_ll_usb.c ****   else
 682:Drivers/STM32F7xx_HAL_Driver/Src/stm32f7xx_ll_usb.c ****   {
 683:Drivers/STM32F7xx_HAL_Driver/Src/stm32f7xx_ll_usb.c ****     if (((USBx_OUTEP(epnum)->DOEPCTL) & USB_OTG_DOEPCTL_USBAEP) == 0U)
 684:Drivers/STM32F7xx_HAL_Driver/Src/stm32f7xx_ll_usb.c ****     {
 685:Drivers/STM32F7xx_HAL_Driver/Src/stm32f7xx_ll_usb.c ****       USBx_OUTEP(epnum)->DOEPCTL |= (ep->maxpacket & USB_OTG_DOEPCTL_MPSIZ) |
 686:Drivers/STM32F7xx_HAL_Driver/Src/stm32f7xx_ll_usb.c ****                                     ((uint32_t)ep->type << 18) | (epnum << 22) |
 687:Drivers/STM32F7xx_HAL_Driver/Src/stm32f7xx_ll_usb.c ****                                     USB_OTG_DOEPCTL_USBAEP;
 688:Drivers/STM32F7xx_HAL_Driver/Src/stm32f7xx_ll_usb.c ****     }
 689:Drivers/STM32F7xx_HAL_Driver/Src/stm32f7xx_ll_usb.c **** 
 690:Drivers/STM32F7xx_HAL_Driver/Src/stm32f7xx_ll_usb.c ****     USBx_DEVICE->DEACHMSK |= USB_OTG_DAINTMSK_OEPM & ((uint32_t)(1UL << (ep->num & EP_ADDR_MSK)) <<
 691:Drivers/STM32F7xx_HAL_Driver/Src/stm32f7xx_ll_usb.c ****   }
 692:Drivers/STM32F7xx_HAL_Driver/Src/stm32f7xx_ll_usb.c **** 
 693:Drivers/STM32F7xx_HAL_Driver/Src/stm32f7xx_ll_usb.c ****   return HAL_OK;
 694:Drivers/STM32F7xx_HAL_Driver/Src/stm32f7xx_ll_usb.c **** }
 695:Drivers/STM32F7xx_HAL_Driver/Src/stm32f7xx_ll_usb.c **** 
 696:Drivers/STM32F7xx_HAL_Driver/Src/stm32f7xx_ll_usb.c **** /**
 697:Drivers/STM32F7xx_HAL_Driver/Src/stm32f7xx_ll_usb.c ****   * @brief  De-activate and de-initialize an endpoint
 698:Drivers/STM32F7xx_HAL_Driver/Src/stm32f7xx_ll_usb.c ****   * @param  USBx  Selected device
 699:Drivers/STM32F7xx_HAL_Driver/Src/stm32f7xx_ll_usb.c ****   * @param  ep pointer to endpoint structure
 700:Drivers/STM32F7xx_HAL_Driver/Src/stm32f7xx_ll_usb.c ****   * @retval HAL status
 701:Drivers/STM32F7xx_HAL_Driver/Src/stm32f7xx_ll_usb.c ****   */
 702:Drivers/STM32F7xx_HAL_Driver/Src/stm32f7xx_ll_usb.c **** HAL_StatusTypeDef USB_DeactivateEndpoint(USB_OTG_GlobalTypeDef *USBx, USB_OTG_EPTypeDef *ep)
 703:Drivers/STM32F7xx_HAL_Driver/Src/stm32f7xx_ll_usb.c **** {
 704:Drivers/STM32F7xx_HAL_Driver/Src/stm32f7xx_ll_usb.c ****   uint32_t USBx_BASE = (uint32_t)USBx;
 705:Drivers/STM32F7xx_HAL_Driver/Src/stm32f7xx_ll_usb.c ****   uint32_t epnum = (uint32_t)ep->num;
 706:Drivers/STM32F7xx_HAL_Driver/Src/stm32f7xx_ll_usb.c **** 
 707:Drivers/STM32F7xx_HAL_Driver/Src/stm32f7xx_ll_usb.c ****   /* Read DEPCTLn register */
 708:Drivers/STM32F7xx_HAL_Driver/Src/stm32f7xx_ll_usb.c ****   if (ep->is_in == 1U)
 709:Drivers/STM32F7xx_HAL_Driver/Src/stm32f7xx_ll_usb.c ****   {
 710:Drivers/STM32F7xx_HAL_Driver/Src/stm32f7xx_ll_usb.c ****     if ((USBx_INEP(epnum)->DIEPCTL & USB_OTG_DIEPCTL_EPENA) == USB_OTG_DIEPCTL_EPENA)
 711:Drivers/STM32F7xx_HAL_Driver/Src/stm32f7xx_ll_usb.c ****     {
 712:Drivers/STM32F7xx_HAL_Driver/Src/stm32f7xx_ll_usb.c ****       USBx_INEP(epnum)->DIEPCTL |= USB_OTG_DIEPCTL_SNAK;
 713:Drivers/STM32F7xx_HAL_Driver/Src/stm32f7xx_ll_usb.c ****       USBx_INEP(epnum)->DIEPCTL |= USB_OTG_DIEPCTL_EPDIS;
 714:Drivers/STM32F7xx_HAL_Driver/Src/stm32f7xx_ll_usb.c ****     }
ARM GAS  /tmp/cc8ZLjKA.s 			page 14


 715:Drivers/STM32F7xx_HAL_Driver/Src/stm32f7xx_ll_usb.c **** 
 716:Drivers/STM32F7xx_HAL_Driver/Src/stm32f7xx_ll_usb.c ****     USBx_DEVICE->DEACHMSK &= ~(USB_OTG_DAINTMSK_IEPM & (uint32_t)(1UL << (ep->num & EP_ADDR_MSK)));
 717:Drivers/STM32F7xx_HAL_Driver/Src/stm32f7xx_ll_usb.c ****     USBx_DEVICE->DAINTMSK &= ~(USB_OTG_DAINTMSK_IEPM & (uint32_t)(1UL << (ep->num & EP_ADDR_MSK)));
 718:Drivers/STM32F7xx_HAL_Driver/Src/stm32f7xx_ll_usb.c ****     USBx_INEP(epnum)->DIEPCTL &= ~(USB_OTG_DIEPCTL_USBAEP |
 719:Drivers/STM32F7xx_HAL_Driver/Src/stm32f7xx_ll_usb.c ****                                    USB_OTG_DIEPCTL_MPSIZ |
 720:Drivers/STM32F7xx_HAL_Driver/Src/stm32f7xx_ll_usb.c ****                                    USB_OTG_DIEPCTL_TXFNUM |
 721:Drivers/STM32F7xx_HAL_Driver/Src/stm32f7xx_ll_usb.c ****                                    USB_OTG_DIEPCTL_SD0PID_SEVNFRM |
 722:Drivers/STM32F7xx_HAL_Driver/Src/stm32f7xx_ll_usb.c ****                                    USB_OTG_DIEPCTL_EPTYP);
 723:Drivers/STM32F7xx_HAL_Driver/Src/stm32f7xx_ll_usb.c ****   }
 724:Drivers/STM32F7xx_HAL_Driver/Src/stm32f7xx_ll_usb.c ****   else
 725:Drivers/STM32F7xx_HAL_Driver/Src/stm32f7xx_ll_usb.c ****   {
 726:Drivers/STM32F7xx_HAL_Driver/Src/stm32f7xx_ll_usb.c ****     if ((USBx_OUTEP(epnum)->DOEPCTL & USB_OTG_DOEPCTL_EPENA) == USB_OTG_DOEPCTL_EPENA)
 727:Drivers/STM32F7xx_HAL_Driver/Src/stm32f7xx_ll_usb.c ****     {
 728:Drivers/STM32F7xx_HAL_Driver/Src/stm32f7xx_ll_usb.c ****       USBx_OUTEP(epnum)->DOEPCTL |= USB_OTG_DOEPCTL_SNAK;
 729:Drivers/STM32F7xx_HAL_Driver/Src/stm32f7xx_ll_usb.c ****       USBx_OUTEP(epnum)->DOEPCTL |= USB_OTG_DOEPCTL_EPDIS;
 730:Drivers/STM32F7xx_HAL_Driver/Src/stm32f7xx_ll_usb.c ****     }
 731:Drivers/STM32F7xx_HAL_Driver/Src/stm32f7xx_ll_usb.c **** 
 732:Drivers/STM32F7xx_HAL_Driver/Src/stm32f7xx_ll_usb.c ****     USBx_DEVICE->DEACHMSK &= ~(USB_OTG_DAINTMSK_OEPM & ((uint32_t)(1UL << (ep->num & EP_ADDR_MSK)) 
 733:Drivers/STM32F7xx_HAL_Driver/Src/stm32f7xx_ll_usb.c ****     USBx_DEVICE->DAINTMSK &= ~(USB_OTG_DAINTMSK_OEPM & ((uint32_t)(1UL << (ep->num & EP_ADDR_MSK)) 
 734:Drivers/STM32F7xx_HAL_Driver/Src/stm32f7xx_ll_usb.c ****     USBx_OUTEP(epnum)->DOEPCTL &= ~(USB_OTG_DOEPCTL_USBAEP |
 735:Drivers/STM32F7xx_HAL_Driver/Src/stm32f7xx_ll_usb.c ****                                     USB_OTG_DOEPCTL_MPSIZ |
 736:Drivers/STM32F7xx_HAL_Driver/Src/stm32f7xx_ll_usb.c ****                                     USB_OTG_DOEPCTL_SD0PID_SEVNFRM |
 737:Drivers/STM32F7xx_HAL_Driver/Src/stm32f7xx_ll_usb.c ****                                     USB_OTG_DOEPCTL_EPTYP);
 738:Drivers/STM32F7xx_HAL_Driver/Src/stm32f7xx_ll_usb.c ****   }
 739:Drivers/STM32F7xx_HAL_Driver/Src/stm32f7xx_ll_usb.c **** 
 740:Drivers/STM32F7xx_HAL_Driver/Src/stm32f7xx_ll_usb.c ****   return HAL_OK;
 741:Drivers/STM32F7xx_HAL_Driver/Src/stm32f7xx_ll_usb.c **** }
 742:Drivers/STM32F7xx_HAL_Driver/Src/stm32f7xx_ll_usb.c **** 
 743:Drivers/STM32F7xx_HAL_Driver/Src/stm32f7xx_ll_usb.c **** /**
 744:Drivers/STM32F7xx_HAL_Driver/Src/stm32f7xx_ll_usb.c ****   * @brief  De-activate and de-initialize a dedicated endpoint
 745:Drivers/STM32F7xx_HAL_Driver/Src/stm32f7xx_ll_usb.c ****   * @param  USBx  Selected device
 746:Drivers/STM32F7xx_HAL_Driver/Src/stm32f7xx_ll_usb.c ****   * @param  ep pointer to endpoint structure
 747:Drivers/STM32F7xx_HAL_Driver/Src/stm32f7xx_ll_usb.c ****   * @retval HAL status
 748:Drivers/STM32F7xx_HAL_Driver/Src/stm32f7xx_ll_usb.c ****   */
 749:Drivers/STM32F7xx_HAL_Driver/Src/stm32f7xx_ll_usb.c **** HAL_StatusTypeDef USB_DeactivateDedicatedEndpoint(USB_OTG_GlobalTypeDef *USBx, USB_OTG_EPTypeDef *e
 750:Drivers/STM32F7xx_HAL_Driver/Src/stm32f7xx_ll_usb.c **** {
 751:Drivers/STM32F7xx_HAL_Driver/Src/stm32f7xx_ll_usb.c ****   uint32_t USBx_BASE = (uint32_t)USBx;
 752:Drivers/STM32F7xx_HAL_Driver/Src/stm32f7xx_ll_usb.c ****   uint32_t epnum = (uint32_t)ep->num;
 753:Drivers/STM32F7xx_HAL_Driver/Src/stm32f7xx_ll_usb.c **** 
 754:Drivers/STM32F7xx_HAL_Driver/Src/stm32f7xx_ll_usb.c ****   /* Read DEPCTLn register */
 755:Drivers/STM32F7xx_HAL_Driver/Src/stm32f7xx_ll_usb.c ****   if (ep->is_in == 1U)
 756:Drivers/STM32F7xx_HAL_Driver/Src/stm32f7xx_ll_usb.c ****   {
 757:Drivers/STM32F7xx_HAL_Driver/Src/stm32f7xx_ll_usb.c ****     if ((USBx_INEP(epnum)->DIEPCTL & USB_OTG_DIEPCTL_EPENA) == USB_OTG_DIEPCTL_EPENA)
 758:Drivers/STM32F7xx_HAL_Driver/Src/stm32f7xx_ll_usb.c ****     {
 759:Drivers/STM32F7xx_HAL_Driver/Src/stm32f7xx_ll_usb.c ****       USBx_INEP(epnum)->DIEPCTL  |= USB_OTG_DIEPCTL_SNAK;
 760:Drivers/STM32F7xx_HAL_Driver/Src/stm32f7xx_ll_usb.c ****       USBx_INEP(epnum)->DIEPCTL  |= USB_OTG_DIEPCTL_EPDIS;
 761:Drivers/STM32F7xx_HAL_Driver/Src/stm32f7xx_ll_usb.c ****     }
 762:Drivers/STM32F7xx_HAL_Driver/Src/stm32f7xx_ll_usb.c **** 
 763:Drivers/STM32F7xx_HAL_Driver/Src/stm32f7xx_ll_usb.c ****     USBx_INEP(epnum)->DIEPCTL &= ~ USB_OTG_DIEPCTL_USBAEP;
 764:Drivers/STM32F7xx_HAL_Driver/Src/stm32f7xx_ll_usb.c ****     USBx_DEVICE->DAINTMSK &= ~(USB_OTG_DAINTMSK_IEPM & (uint32_t)(1UL << (ep->num & EP_ADDR_MSK)));
 765:Drivers/STM32F7xx_HAL_Driver/Src/stm32f7xx_ll_usb.c ****   }
 766:Drivers/STM32F7xx_HAL_Driver/Src/stm32f7xx_ll_usb.c ****   else
 767:Drivers/STM32F7xx_HAL_Driver/Src/stm32f7xx_ll_usb.c ****   {
 768:Drivers/STM32F7xx_HAL_Driver/Src/stm32f7xx_ll_usb.c ****     if ((USBx_OUTEP(epnum)->DOEPCTL & USB_OTG_DOEPCTL_EPENA) == USB_OTG_DOEPCTL_EPENA)
 769:Drivers/STM32F7xx_HAL_Driver/Src/stm32f7xx_ll_usb.c ****     {
 770:Drivers/STM32F7xx_HAL_Driver/Src/stm32f7xx_ll_usb.c ****       USBx_OUTEP(epnum)->DOEPCTL  |= USB_OTG_DOEPCTL_SNAK;
 771:Drivers/STM32F7xx_HAL_Driver/Src/stm32f7xx_ll_usb.c ****       USBx_OUTEP(epnum)->DOEPCTL  |= USB_OTG_DOEPCTL_EPDIS;
ARM GAS  /tmp/cc8ZLjKA.s 			page 15


 772:Drivers/STM32F7xx_HAL_Driver/Src/stm32f7xx_ll_usb.c ****     }
 773:Drivers/STM32F7xx_HAL_Driver/Src/stm32f7xx_ll_usb.c **** 
 774:Drivers/STM32F7xx_HAL_Driver/Src/stm32f7xx_ll_usb.c ****     USBx_OUTEP(epnum)->DOEPCTL &= ~USB_OTG_DOEPCTL_USBAEP;
 775:Drivers/STM32F7xx_HAL_Driver/Src/stm32f7xx_ll_usb.c ****     USBx_DEVICE->DAINTMSK &= ~(USB_OTG_DAINTMSK_OEPM & ((uint32_t)(1UL << (ep->num & EP_ADDR_MSK)) 
 776:Drivers/STM32F7xx_HAL_Driver/Src/stm32f7xx_ll_usb.c ****   }
 777:Drivers/STM32F7xx_HAL_Driver/Src/stm32f7xx_ll_usb.c **** 
 778:Drivers/STM32F7xx_HAL_Driver/Src/stm32f7xx_ll_usb.c ****   return HAL_OK;
 779:Drivers/STM32F7xx_HAL_Driver/Src/stm32f7xx_ll_usb.c **** }
 780:Drivers/STM32F7xx_HAL_Driver/Src/stm32f7xx_ll_usb.c **** 
 781:Drivers/STM32F7xx_HAL_Driver/Src/stm32f7xx_ll_usb.c **** /**
 782:Drivers/STM32F7xx_HAL_Driver/Src/stm32f7xx_ll_usb.c ****   * @brief  USB_EPStartXfer : setup and starts a transfer over an EP
 783:Drivers/STM32F7xx_HAL_Driver/Src/stm32f7xx_ll_usb.c ****   * @param  USBx  Selected device
 784:Drivers/STM32F7xx_HAL_Driver/Src/stm32f7xx_ll_usb.c ****   * @param  ep pointer to endpoint structure
 785:Drivers/STM32F7xx_HAL_Driver/Src/stm32f7xx_ll_usb.c ****   * @param  dma USB dma enabled or disabled
 786:Drivers/STM32F7xx_HAL_Driver/Src/stm32f7xx_ll_usb.c ****   *          This parameter can be one of these values:
 787:Drivers/STM32F7xx_HAL_Driver/Src/stm32f7xx_ll_usb.c ****   *           0 : DMA feature not used
 788:Drivers/STM32F7xx_HAL_Driver/Src/stm32f7xx_ll_usb.c ****   *           1 : DMA feature used
 789:Drivers/STM32F7xx_HAL_Driver/Src/stm32f7xx_ll_usb.c ****   * @retval HAL status
 790:Drivers/STM32F7xx_HAL_Driver/Src/stm32f7xx_ll_usb.c ****   */
 791:Drivers/STM32F7xx_HAL_Driver/Src/stm32f7xx_ll_usb.c **** HAL_StatusTypeDef USB_EPStartXfer(USB_OTG_GlobalTypeDef *USBx, USB_OTG_EPTypeDef *ep, uint8_t dma)
 792:Drivers/STM32F7xx_HAL_Driver/Src/stm32f7xx_ll_usb.c **** {
 793:Drivers/STM32F7xx_HAL_Driver/Src/stm32f7xx_ll_usb.c ****   uint32_t USBx_BASE = (uint32_t)USBx;
 794:Drivers/STM32F7xx_HAL_Driver/Src/stm32f7xx_ll_usb.c ****   uint32_t epnum = (uint32_t)ep->num;
 795:Drivers/STM32F7xx_HAL_Driver/Src/stm32f7xx_ll_usb.c ****   uint16_t pktcnt;
 796:Drivers/STM32F7xx_HAL_Driver/Src/stm32f7xx_ll_usb.c **** 
 797:Drivers/STM32F7xx_HAL_Driver/Src/stm32f7xx_ll_usb.c ****   /* IN endpoint */
 798:Drivers/STM32F7xx_HAL_Driver/Src/stm32f7xx_ll_usb.c ****   if (ep->is_in == 1U)
 799:Drivers/STM32F7xx_HAL_Driver/Src/stm32f7xx_ll_usb.c ****   {
 800:Drivers/STM32F7xx_HAL_Driver/Src/stm32f7xx_ll_usb.c ****     /* Zero Length Packet? */
 801:Drivers/STM32F7xx_HAL_Driver/Src/stm32f7xx_ll_usb.c ****     if (ep->xfer_len == 0U)
 802:Drivers/STM32F7xx_HAL_Driver/Src/stm32f7xx_ll_usb.c ****     {
 803:Drivers/STM32F7xx_HAL_Driver/Src/stm32f7xx_ll_usb.c ****       USBx_INEP(epnum)->DIEPTSIZ &= ~(USB_OTG_DIEPTSIZ_PKTCNT);
 804:Drivers/STM32F7xx_HAL_Driver/Src/stm32f7xx_ll_usb.c ****       USBx_INEP(epnum)->DIEPTSIZ |= (USB_OTG_DIEPTSIZ_PKTCNT & (1U << 19));
 805:Drivers/STM32F7xx_HAL_Driver/Src/stm32f7xx_ll_usb.c ****       USBx_INEP(epnum)->DIEPTSIZ &= ~(USB_OTG_DIEPTSIZ_XFRSIZ);
 806:Drivers/STM32F7xx_HAL_Driver/Src/stm32f7xx_ll_usb.c ****     }
 807:Drivers/STM32F7xx_HAL_Driver/Src/stm32f7xx_ll_usb.c ****     else
 808:Drivers/STM32F7xx_HAL_Driver/Src/stm32f7xx_ll_usb.c ****     {
 809:Drivers/STM32F7xx_HAL_Driver/Src/stm32f7xx_ll_usb.c ****       /* Program the transfer size and packet count
 810:Drivers/STM32F7xx_HAL_Driver/Src/stm32f7xx_ll_usb.c ****       * as follows: xfersize = N * maxpacket +
 811:Drivers/STM32F7xx_HAL_Driver/Src/stm32f7xx_ll_usb.c ****       * short_packet pktcnt = N + (short_packet
 812:Drivers/STM32F7xx_HAL_Driver/Src/stm32f7xx_ll_usb.c ****       * exist ? 1 : 0)
 813:Drivers/STM32F7xx_HAL_Driver/Src/stm32f7xx_ll_usb.c ****       */
 814:Drivers/STM32F7xx_HAL_Driver/Src/stm32f7xx_ll_usb.c ****       USBx_INEP(epnum)->DIEPTSIZ &= ~(USB_OTG_DIEPTSIZ_XFRSIZ);
 815:Drivers/STM32F7xx_HAL_Driver/Src/stm32f7xx_ll_usb.c ****       USBx_INEP(epnum)->DIEPTSIZ &= ~(USB_OTG_DIEPTSIZ_PKTCNT);
 816:Drivers/STM32F7xx_HAL_Driver/Src/stm32f7xx_ll_usb.c ****       USBx_INEP(epnum)->DIEPTSIZ |= (USB_OTG_DIEPTSIZ_PKTCNT &
 817:Drivers/STM32F7xx_HAL_Driver/Src/stm32f7xx_ll_usb.c ****                                      (((ep->xfer_len + ep->maxpacket - 1U) / ep->maxpacket) << 19))
 818:Drivers/STM32F7xx_HAL_Driver/Src/stm32f7xx_ll_usb.c **** 
 819:Drivers/STM32F7xx_HAL_Driver/Src/stm32f7xx_ll_usb.c ****       USBx_INEP(epnum)->DIEPTSIZ |= (USB_OTG_DIEPTSIZ_XFRSIZ & ep->xfer_len);
 820:Drivers/STM32F7xx_HAL_Driver/Src/stm32f7xx_ll_usb.c **** 
 821:Drivers/STM32F7xx_HAL_Driver/Src/stm32f7xx_ll_usb.c ****       if (ep->type == EP_TYPE_ISOC)
 822:Drivers/STM32F7xx_HAL_Driver/Src/stm32f7xx_ll_usb.c ****       {
 823:Drivers/STM32F7xx_HAL_Driver/Src/stm32f7xx_ll_usb.c ****         USBx_INEP(epnum)->DIEPTSIZ &= ~(USB_OTG_DIEPTSIZ_MULCNT);
 824:Drivers/STM32F7xx_HAL_Driver/Src/stm32f7xx_ll_usb.c ****         USBx_INEP(epnum)->DIEPTSIZ |= (USB_OTG_DIEPTSIZ_MULCNT & (1U << 29));
 825:Drivers/STM32F7xx_HAL_Driver/Src/stm32f7xx_ll_usb.c ****       }
 826:Drivers/STM32F7xx_HAL_Driver/Src/stm32f7xx_ll_usb.c ****     }
 827:Drivers/STM32F7xx_HAL_Driver/Src/stm32f7xx_ll_usb.c **** 
 828:Drivers/STM32F7xx_HAL_Driver/Src/stm32f7xx_ll_usb.c ****     if (dma == 1U)
ARM GAS  /tmp/cc8ZLjKA.s 			page 16


 829:Drivers/STM32F7xx_HAL_Driver/Src/stm32f7xx_ll_usb.c ****     {
 830:Drivers/STM32F7xx_HAL_Driver/Src/stm32f7xx_ll_usb.c ****       if ((uint32_t)ep->dma_addr != 0U)
 831:Drivers/STM32F7xx_HAL_Driver/Src/stm32f7xx_ll_usb.c ****       {
 832:Drivers/STM32F7xx_HAL_Driver/Src/stm32f7xx_ll_usb.c ****         USBx_INEP(epnum)->DIEPDMA = (uint32_t)(ep->dma_addr);
 833:Drivers/STM32F7xx_HAL_Driver/Src/stm32f7xx_ll_usb.c ****       }
 834:Drivers/STM32F7xx_HAL_Driver/Src/stm32f7xx_ll_usb.c **** 
 835:Drivers/STM32F7xx_HAL_Driver/Src/stm32f7xx_ll_usb.c ****       if (ep->type == EP_TYPE_ISOC)
 836:Drivers/STM32F7xx_HAL_Driver/Src/stm32f7xx_ll_usb.c ****       {
 837:Drivers/STM32F7xx_HAL_Driver/Src/stm32f7xx_ll_usb.c ****         if ((USBx_DEVICE->DSTS & (1U << 8)) == 0U)
 838:Drivers/STM32F7xx_HAL_Driver/Src/stm32f7xx_ll_usb.c ****         {
 839:Drivers/STM32F7xx_HAL_Driver/Src/stm32f7xx_ll_usb.c ****           USBx_INEP(epnum)->DIEPCTL |= USB_OTG_DIEPCTL_SODDFRM;
 840:Drivers/STM32F7xx_HAL_Driver/Src/stm32f7xx_ll_usb.c ****         }
 841:Drivers/STM32F7xx_HAL_Driver/Src/stm32f7xx_ll_usb.c ****         else
 842:Drivers/STM32F7xx_HAL_Driver/Src/stm32f7xx_ll_usb.c ****         {
 843:Drivers/STM32F7xx_HAL_Driver/Src/stm32f7xx_ll_usb.c ****           USBx_INEP(epnum)->DIEPCTL |= USB_OTG_DIEPCTL_SD0PID_SEVNFRM;
 844:Drivers/STM32F7xx_HAL_Driver/Src/stm32f7xx_ll_usb.c ****         }
 845:Drivers/STM32F7xx_HAL_Driver/Src/stm32f7xx_ll_usb.c ****       }
 846:Drivers/STM32F7xx_HAL_Driver/Src/stm32f7xx_ll_usb.c **** 
 847:Drivers/STM32F7xx_HAL_Driver/Src/stm32f7xx_ll_usb.c ****       /* EP enable, IN data in FIFO */
 848:Drivers/STM32F7xx_HAL_Driver/Src/stm32f7xx_ll_usb.c ****       USBx_INEP(epnum)->DIEPCTL |= (USB_OTG_DIEPCTL_CNAK | USB_OTG_DIEPCTL_EPENA);
 849:Drivers/STM32F7xx_HAL_Driver/Src/stm32f7xx_ll_usb.c ****     }
 850:Drivers/STM32F7xx_HAL_Driver/Src/stm32f7xx_ll_usb.c ****     else
 851:Drivers/STM32F7xx_HAL_Driver/Src/stm32f7xx_ll_usb.c ****     {
 852:Drivers/STM32F7xx_HAL_Driver/Src/stm32f7xx_ll_usb.c ****       /* EP enable, IN data in FIFO */
 853:Drivers/STM32F7xx_HAL_Driver/Src/stm32f7xx_ll_usb.c ****       USBx_INEP(epnum)->DIEPCTL |= (USB_OTG_DIEPCTL_CNAK | USB_OTG_DIEPCTL_EPENA);
 854:Drivers/STM32F7xx_HAL_Driver/Src/stm32f7xx_ll_usb.c **** 
 855:Drivers/STM32F7xx_HAL_Driver/Src/stm32f7xx_ll_usb.c ****       if (ep->type != EP_TYPE_ISOC)
 856:Drivers/STM32F7xx_HAL_Driver/Src/stm32f7xx_ll_usb.c ****       {
 857:Drivers/STM32F7xx_HAL_Driver/Src/stm32f7xx_ll_usb.c ****         /* Enable the Tx FIFO Empty Interrupt for this EP */
 858:Drivers/STM32F7xx_HAL_Driver/Src/stm32f7xx_ll_usb.c ****         if (ep->xfer_len > 0U)
 859:Drivers/STM32F7xx_HAL_Driver/Src/stm32f7xx_ll_usb.c ****         {
 860:Drivers/STM32F7xx_HAL_Driver/Src/stm32f7xx_ll_usb.c ****           USBx_DEVICE->DIEPEMPMSK |= 1UL << (ep->num & EP_ADDR_MSK);
 861:Drivers/STM32F7xx_HAL_Driver/Src/stm32f7xx_ll_usb.c ****         }
 862:Drivers/STM32F7xx_HAL_Driver/Src/stm32f7xx_ll_usb.c ****       }
 863:Drivers/STM32F7xx_HAL_Driver/Src/stm32f7xx_ll_usb.c ****       else
 864:Drivers/STM32F7xx_HAL_Driver/Src/stm32f7xx_ll_usb.c ****       {
 865:Drivers/STM32F7xx_HAL_Driver/Src/stm32f7xx_ll_usb.c ****         if ((USBx_DEVICE->DSTS & (1U << 8)) == 0U)
 866:Drivers/STM32F7xx_HAL_Driver/Src/stm32f7xx_ll_usb.c ****         {
 867:Drivers/STM32F7xx_HAL_Driver/Src/stm32f7xx_ll_usb.c ****           USBx_INEP(epnum)->DIEPCTL |= USB_OTG_DIEPCTL_SODDFRM;
 868:Drivers/STM32F7xx_HAL_Driver/Src/stm32f7xx_ll_usb.c ****         }
 869:Drivers/STM32F7xx_HAL_Driver/Src/stm32f7xx_ll_usb.c ****         else
 870:Drivers/STM32F7xx_HAL_Driver/Src/stm32f7xx_ll_usb.c ****         {
 871:Drivers/STM32F7xx_HAL_Driver/Src/stm32f7xx_ll_usb.c ****           USBx_INEP(epnum)->DIEPCTL |= USB_OTG_DIEPCTL_SD0PID_SEVNFRM;
 872:Drivers/STM32F7xx_HAL_Driver/Src/stm32f7xx_ll_usb.c ****         }
 873:Drivers/STM32F7xx_HAL_Driver/Src/stm32f7xx_ll_usb.c **** 
 874:Drivers/STM32F7xx_HAL_Driver/Src/stm32f7xx_ll_usb.c ****         (void)USB_WritePacket(USBx, ep->xfer_buff, ep->num, (uint16_t)ep->xfer_len, dma);
 875:Drivers/STM32F7xx_HAL_Driver/Src/stm32f7xx_ll_usb.c ****       }
 876:Drivers/STM32F7xx_HAL_Driver/Src/stm32f7xx_ll_usb.c ****     }
 877:Drivers/STM32F7xx_HAL_Driver/Src/stm32f7xx_ll_usb.c ****   }
 878:Drivers/STM32F7xx_HAL_Driver/Src/stm32f7xx_ll_usb.c ****   else /* OUT endpoint */
 879:Drivers/STM32F7xx_HAL_Driver/Src/stm32f7xx_ll_usb.c ****   {
 880:Drivers/STM32F7xx_HAL_Driver/Src/stm32f7xx_ll_usb.c ****     /* Program the transfer size and packet count as follows:
 881:Drivers/STM32F7xx_HAL_Driver/Src/stm32f7xx_ll_usb.c ****     * pktcnt = N
 882:Drivers/STM32F7xx_HAL_Driver/Src/stm32f7xx_ll_usb.c ****     * xfersize = N * maxpacket
 883:Drivers/STM32F7xx_HAL_Driver/Src/stm32f7xx_ll_usb.c ****     */
 884:Drivers/STM32F7xx_HAL_Driver/Src/stm32f7xx_ll_usb.c ****     USBx_OUTEP(epnum)->DOEPTSIZ &= ~(USB_OTG_DOEPTSIZ_XFRSIZ);
 885:Drivers/STM32F7xx_HAL_Driver/Src/stm32f7xx_ll_usb.c ****     USBx_OUTEP(epnum)->DOEPTSIZ &= ~(USB_OTG_DOEPTSIZ_PKTCNT);
ARM GAS  /tmp/cc8ZLjKA.s 			page 17


 886:Drivers/STM32F7xx_HAL_Driver/Src/stm32f7xx_ll_usb.c **** 
 887:Drivers/STM32F7xx_HAL_Driver/Src/stm32f7xx_ll_usb.c ****     if (ep->xfer_len == 0U)
 888:Drivers/STM32F7xx_HAL_Driver/Src/stm32f7xx_ll_usb.c ****     {
 889:Drivers/STM32F7xx_HAL_Driver/Src/stm32f7xx_ll_usb.c ****       USBx_OUTEP(epnum)->DOEPTSIZ |= (USB_OTG_DOEPTSIZ_XFRSIZ & ep->maxpacket);
 890:Drivers/STM32F7xx_HAL_Driver/Src/stm32f7xx_ll_usb.c ****       USBx_OUTEP(epnum)->DOEPTSIZ |= (USB_OTG_DOEPTSIZ_PKTCNT & (1U << 19));
 891:Drivers/STM32F7xx_HAL_Driver/Src/stm32f7xx_ll_usb.c ****     }
 892:Drivers/STM32F7xx_HAL_Driver/Src/stm32f7xx_ll_usb.c ****     else
 893:Drivers/STM32F7xx_HAL_Driver/Src/stm32f7xx_ll_usb.c ****     {
 894:Drivers/STM32F7xx_HAL_Driver/Src/stm32f7xx_ll_usb.c ****       pktcnt = (uint16_t)((ep->xfer_len + ep->maxpacket - 1U) / ep->maxpacket);
 895:Drivers/STM32F7xx_HAL_Driver/Src/stm32f7xx_ll_usb.c ****       ep->xfer_size = ep->maxpacket * pktcnt;
 896:Drivers/STM32F7xx_HAL_Driver/Src/stm32f7xx_ll_usb.c **** 
 897:Drivers/STM32F7xx_HAL_Driver/Src/stm32f7xx_ll_usb.c ****       USBx_OUTEP(epnum)->DOEPTSIZ |= USB_OTG_DOEPTSIZ_PKTCNT & ((uint32_t)pktcnt << 19);
 898:Drivers/STM32F7xx_HAL_Driver/Src/stm32f7xx_ll_usb.c ****       USBx_OUTEP(epnum)->DOEPTSIZ |= USB_OTG_DOEPTSIZ_XFRSIZ & ep->xfer_size;
 899:Drivers/STM32F7xx_HAL_Driver/Src/stm32f7xx_ll_usb.c ****     }
 900:Drivers/STM32F7xx_HAL_Driver/Src/stm32f7xx_ll_usb.c **** 
 901:Drivers/STM32F7xx_HAL_Driver/Src/stm32f7xx_ll_usb.c ****     if (dma == 1U)
 902:Drivers/STM32F7xx_HAL_Driver/Src/stm32f7xx_ll_usb.c ****     {
 903:Drivers/STM32F7xx_HAL_Driver/Src/stm32f7xx_ll_usb.c ****       if ((uint32_t)ep->xfer_buff != 0U)
 904:Drivers/STM32F7xx_HAL_Driver/Src/stm32f7xx_ll_usb.c ****       {
 905:Drivers/STM32F7xx_HAL_Driver/Src/stm32f7xx_ll_usb.c ****         USBx_OUTEP(epnum)->DOEPDMA = (uint32_t)(ep->xfer_buff);
 906:Drivers/STM32F7xx_HAL_Driver/Src/stm32f7xx_ll_usb.c ****       }
 907:Drivers/STM32F7xx_HAL_Driver/Src/stm32f7xx_ll_usb.c ****     }
 908:Drivers/STM32F7xx_HAL_Driver/Src/stm32f7xx_ll_usb.c **** 
 909:Drivers/STM32F7xx_HAL_Driver/Src/stm32f7xx_ll_usb.c ****     if (ep->type == EP_TYPE_ISOC)
 910:Drivers/STM32F7xx_HAL_Driver/Src/stm32f7xx_ll_usb.c ****     {
 911:Drivers/STM32F7xx_HAL_Driver/Src/stm32f7xx_ll_usb.c ****       if ((USBx_DEVICE->DSTS & (1U << 8)) == 0U)
 912:Drivers/STM32F7xx_HAL_Driver/Src/stm32f7xx_ll_usb.c ****       {
 913:Drivers/STM32F7xx_HAL_Driver/Src/stm32f7xx_ll_usb.c ****         USBx_OUTEP(epnum)->DOEPCTL |= USB_OTG_DOEPCTL_SODDFRM;
 914:Drivers/STM32F7xx_HAL_Driver/Src/stm32f7xx_ll_usb.c ****       }
 915:Drivers/STM32F7xx_HAL_Driver/Src/stm32f7xx_ll_usb.c ****       else
 916:Drivers/STM32F7xx_HAL_Driver/Src/stm32f7xx_ll_usb.c ****       {
 917:Drivers/STM32F7xx_HAL_Driver/Src/stm32f7xx_ll_usb.c ****         USBx_OUTEP(epnum)->DOEPCTL |= USB_OTG_DOEPCTL_SD0PID_SEVNFRM;
 918:Drivers/STM32F7xx_HAL_Driver/Src/stm32f7xx_ll_usb.c ****       }
 919:Drivers/STM32F7xx_HAL_Driver/Src/stm32f7xx_ll_usb.c ****     }
 920:Drivers/STM32F7xx_HAL_Driver/Src/stm32f7xx_ll_usb.c ****     /* EP enable */
 921:Drivers/STM32F7xx_HAL_Driver/Src/stm32f7xx_ll_usb.c ****     USBx_OUTEP(epnum)->DOEPCTL |= (USB_OTG_DOEPCTL_CNAK | USB_OTG_DOEPCTL_EPENA);
 922:Drivers/STM32F7xx_HAL_Driver/Src/stm32f7xx_ll_usb.c ****   }
 923:Drivers/STM32F7xx_HAL_Driver/Src/stm32f7xx_ll_usb.c **** 
 924:Drivers/STM32F7xx_HAL_Driver/Src/stm32f7xx_ll_usb.c ****   return HAL_OK;
 925:Drivers/STM32F7xx_HAL_Driver/Src/stm32f7xx_ll_usb.c **** }
 926:Drivers/STM32F7xx_HAL_Driver/Src/stm32f7xx_ll_usb.c **** 
 927:Drivers/STM32F7xx_HAL_Driver/Src/stm32f7xx_ll_usb.c **** /**
 928:Drivers/STM32F7xx_HAL_Driver/Src/stm32f7xx_ll_usb.c ****   * @brief  USB_EP0StartXfer : setup and starts a transfer over the EP  0
 929:Drivers/STM32F7xx_HAL_Driver/Src/stm32f7xx_ll_usb.c ****   * @param  USBx  Selected device
 930:Drivers/STM32F7xx_HAL_Driver/Src/stm32f7xx_ll_usb.c ****   * @param  ep pointer to endpoint structure
 931:Drivers/STM32F7xx_HAL_Driver/Src/stm32f7xx_ll_usb.c ****   * @param  dma USB dma enabled or disabled
 932:Drivers/STM32F7xx_HAL_Driver/Src/stm32f7xx_ll_usb.c ****   *          This parameter can be one of these values:
 933:Drivers/STM32F7xx_HAL_Driver/Src/stm32f7xx_ll_usb.c ****   *           0 : DMA feature not used
 934:Drivers/STM32F7xx_HAL_Driver/Src/stm32f7xx_ll_usb.c ****   *           1 : DMA feature used
 935:Drivers/STM32F7xx_HAL_Driver/Src/stm32f7xx_ll_usb.c ****   * @retval HAL status
 936:Drivers/STM32F7xx_HAL_Driver/Src/stm32f7xx_ll_usb.c ****   */
 937:Drivers/STM32F7xx_HAL_Driver/Src/stm32f7xx_ll_usb.c **** HAL_StatusTypeDef USB_EP0StartXfer(USB_OTG_GlobalTypeDef *USBx, USB_OTG_EPTypeDef *ep, uint8_t dma)
 938:Drivers/STM32F7xx_HAL_Driver/Src/stm32f7xx_ll_usb.c **** {
 939:Drivers/STM32F7xx_HAL_Driver/Src/stm32f7xx_ll_usb.c ****   uint32_t USBx_BASE = (uint32_t)USBx;
 940:Drivers/STM32F7xx_HAL_Driver/Src/stm32f7xx_ll_usb.c ****   uint32_t epnum = (uint32_t)ep->num;
 941:Drivers/STM32F7xx_HAL_Driver/Src/stm32f7xx_ll_usb.c **** 
 942:Drivers/STM32F7xx_HAL_Driver/Src/stm32f7xx_ll_usb.c ****   /* IN endpoint */
ARM GAS  /tmp/cc8ZLjKA.s 			page 18


 943:Drivers/STM32F7xx_HAL_Driver/Src/stm32f7xx_ll_usb.c ****   if (ep->is_in == 1U)
 944:Drivers/STM32F7xx_HAL_Driver/Src/stm32f7xx_ll_usb.c ****   {
 945:Drivers/STM32F7xx_HAL_Driver/Src/stm32f7xx_ll_usb.c ****     /* Zero Length Packet? */
 946:Drivers/STM32F7xx_HAL_Driver/Src/stm32f7xx_ll_usb.c ****     if (ep->xfer_len == 0U)
 947:Drivers/STM32F7xx_HAL_Driver/Src/stm32f7xx_ll_usb.c ****     {
 948:Drivers/STM32F7xx_HAL_Driver/Src/stm32f7xx_ll_usb.c ****       USBx_INEP(epnum)->DIEPTSIZ &= ~(USB_OTG_DIEPTSIZ_PKTCNT);
 949:Drivers/STM32F7xx_HAL_Driver/Src/stm32f7xx_ll_usb.c ****       USBx_INEP(epnum)->DIEPTSIZ |= (USB_OTG_DIEPTSIZ_PKTCNT & (1U << 19));
 950:Drivers/STM32F7xx_HAL_Driver/Src/stm32f7xx_ll_usb.c ****       USBx_INEP(epnum)->DIEPTSIZ &= ~(USB_OTG_DIEPTSIZ_XFRSIZ);
 951:Drivers/STM32F7xx_HAL_Driver/Src/stm32f7xx_ll_usb.c ****     }
 952:Drivers/STM32F7xx_HAL_Driver/Src/stm32f7xx_ll_usb.c ****     else
 953:Drivers/STM32F7xx_HAL_Driver/Src/stm32f7xx_ll_usb.c ****     {
 954:Drivers/STM32F7xx_HAL_Driver/Src/stm32f7xx_ll_usb.c ****       /* Program the transfer size and packet count
 955:Drivers/STM32F7xx_HAL_Driver/Src/stm32f7xx_ll_usb.c ****       * as follows: xfersize = N * maxpacket +
 956:Drivers/STM32F7xx_HAL_Driver/Src/stm32f7xx_ll_usb.c ****       * short_packet pktcnt = N + (short_packet
 957:Drivers/STM32F7xx_HAL_Driver/Src/stm32f7xx_ll_usb.c ****       * exist ? 1 : 0)
 958:Drivers/STM32F7xx_HAL_Driver/Src/stm32f7xx_ll_usb.c ****       */
 959:Drivers/STM32F7xx_HAL_Driver/Src/stm32f7xx_ll_usb.c ****       USBx_INEP(epnum)->DIEPTSIZ &= ~(USB_OTG_DIEPTSIZ_XFRSIZ);
 960:Drivers/STM32F7xx_HAL_Driver/Src/stm32f7xx_ll_usb.c ****       USBx_INEP(epnum)->DIEPTSIZ &= ~(USB_OTG_DIEPTSIZ_PKTCNT);
 961:Drivers/STM32F7xx_HAL_Driver/Src/stm32f7xx_ll_usb.c **** 
 962:Drivers/STM32F7xx_HAL_Driver/Src/stm32f7xx_ll_usb.c ****       if (ep->xfer_len > ep->maxpacket)
 963:Drivers/STM32F7xx_HAL_Driver/Src/stm32f7xx_ll_usb.c ****       {
 964:Drivers/STM32F7xx_HAL_Driver/Src/stm32f7xx_ll_usb.c ****         ep->xfer_len = ep->maxpacket;
 965:Drivers/STM32F7xx_HAL_Driver/Src/stm32f7xx_ll_usb.c ****       }
 966:Drivers/STM32F7xx_HAL_Driver/Src/stm32f7xx_ll_usb.c ****       USBx_INEP(epnum)->DIEPTSIZ |= (USB_OTG_DIEPTSIZ_PKTCNT & (1U << 19));
 967:Drivers/STM32F7xx_HAL_Driver/Src/stm32f7xx_ll_usb.c ****       USBx_INEP(epnum)->DIEPTSIZ |= (USB_OTG_DIEPTSIZ_XFRSIZ & ep->xfer_len);
 968:Drivers/STM32F7xx_HAL_Driver/Src/stm32f7xx_ll_usb.c ****     }
 969:Drivers/STM32F7xx_HAL_Driver/Src/stm32f7xx_ll_usb.c **** 
 970:Drivers/STM32F7xx_HAL_Driver/Src/stm32f7xx_ll_usb.c ****     if (dma == 1U)
 971:Drivers/STM32F7xx_HAL_Driver/Src/stm32f7xx_ll_usb.c ****     {
 972:Drivers/STM32F7xx_HAL_Driver/Src/stm32f7xx_ll_usb.c ****       if ((uint32_t)ep->dma_addr != 0U)
 973:Drivers/STM32F7xx_HAL_Driver/Src/stm32f7xx_ll_usb.c ****       {
 974:Drivers/STM32F7xx_HAL_Driver/Src/stm32f7xx_ll_usb.c ****         USBx_INEP(epnum)->DIEPDMA = (uint32_t)(ep->dma_addr);
 975:Drivers/STM32F7xx_HAL_Driver/Src/stm32f7xx_ll_usb.c ****       }
 976:Drivers/STM32F7xx_HAL_Driver/Src/stm32f7xx_ll_usb.c **** 
 977:Drivers/STM32F7xx_HAL_Driver/Src/stm32f7xx_ll_usb.c ****       /* EP enable, IN data in FIFO */
 978:Drivers/STM32F7xx_HAL_Driver/Src/stm32f7xx_ll_usb.c ****       USBx_INEP(epnum)->DIEPCTL |= (USB_OTG_DIEPCTL_CNAK | USB_OTG_DIEPCTL_EPENA);
 979:Drivers/STM32F7xx_HAL_Driver/Src/stm32f7xx_ll_usb.c ****     }
 980:Drivers/STM32F7xx_HAL_Driver/Src/stm32f7xx_ll_usb.c ****     else
 981:Drivers/STM32F7xx_HAL_Driver/Src/stm32f7xx_ll_usb.c ****     {
 982:Drivers/STM32F7xx_HAL_Driver/Src/stm32f7xx_ll_usb.c ****       /* EP enable, IN data in FIFO */
 983:Drivers/STM32F7xx_HAL_Driver/Src/stm32f7xx_ll_usb.c ****       USBx_INEP(epnum)->DIEPCTL |= (USB_OTG_DIEPCTL_CNAK | USB_OTG_DIEPCTL_EPENA);
 984:Drivers/STM32F7xx_HAL_Driver/Src/stm32f7xx_ll_usb.c **** 
 985:Drivers/STM32F7xx_HAL_Driver/Src/stm32f7xx_ll_usb.c ****       /* Enable the Tx FIFO Empty Interrupt for this EP */
 986:Drivers/STM32F7xx_HAL_Driver/Src/stm32f7xx_ll_usb.c ****       if (ep->xfer_len > 0U)
 987:Drivers/STM32F7xx_HAL_Driver/Src/stm32f7xx_ll_usb.c ****       {
 988:Drivers/STM32F7xx_HAL_Driver/Src/stm32f7xx_ll_usb.c ****         USBx_DEVICE->DIEPEMPMSK |= 1UL << (ep->num & EP_ADDR_MSK);
 989:Drivers/STM32F7xx_HAL_Driver/Src/stm32f7xx_ll_usb.c ****       }
 990:Drivers/STM32F7xx_HAL_Driver/Src/stm32f7xx_ll_usb.c ****     }
 991:Drivers/STM32F7xx_HAL_Driver/Src/stm32f7xx_ll_usb.c ****   }
 992:Drivers/STM32F7xx_HAL_Driver/Src/stm32f7xx_ll_usb.c ****   else /* OUT endpoint */
 993:Drivers/STM32F7xx_HAL_Driver/Src/stm32f7xx_ll_usb.c ****   {
 994:Drivers/STM32F7xx_HAL_Driver/Src/stm32f7xx_ll_usb.c ****     /* Program the transfer size and packet count as follows:
 995:Drivers/STM32F7xx_HAL_Driver/Src/stm32f7xx_ll_usb.c ****     * pktcnt = N
 996:Drivers/STM32F7xx_HAL_Driver/Src/stm32f7xx_ll_usb.c ****     * xfersize = N * maxpacket
 997:Drivers/STM32F7xx_HAL_Driver/Src/stm32f7xx_ll_usb.c ****     */
 998:Drivers/STM32F7xx_HAL_Driver/Src/stm32f7xx_ll_usb.c ****     USBx_OUTEP(epnum)->DOEPTSIZ &= ~(USB_OTG_DOEPTSIZ_XFRSIZ);
 999:Drivers/STM32F7xx_HAL_Driver/Src/stm32f7xx_ll_usb.c ****     USBx_OUTEP(epnum)->DOEPTSIZ &= ~(USB_OTG_DOEPTSIZ_PKTCNT);
ARM GAS  /tmp/cc8ZLjKA.s 			page 19


1000:Drivers/STM32F7xx_HAL_Driver/Src/stm32f7xx_ll_usb.c **** 
1001:Drivers/STM32F7xx_HAL_Driver/Src/stm32f7xx_ll_usb.c ****     if (ep->xfer_len > 0U)
1002:Drivers/STM32F7xx_HAL_Driver/Src/stm32f7xx_ll_usb.c ****     {
1003:Drivers/STM32F7xx_HAL_Driver/Src/stm32f7xx_ll_usb.c ****       ep->xfer_len = ep->maxpacket;
1004:Drivers/STM32F7xx_HAL_Driver/Src/stm32f7xx_ll_usb.c ****     }
1005:Drivers/STM32F7xx_HAL_Driver/Src/stm32f7xx_ll_usb.c **** 
1006:Drivers/STM32F7xx_HAL_Driver/Src/stm32f7xx_ll_usb.c ****     /* Store transfer size, for EP0 this is equal to endpoint max packet size */
1007:Drivers/STM32F7xx_HAL_Driver/Src/stm32f7xx_ll_usb.c ****     ep->xfer_size = ep->maxpacket;
1008:Drivers/STM32F7xx_HAL_Driver/Src/stm32f7xx_ll_usb.c **** 
1009:Drivers/STM32F7xx_HAL_Driver/Src/stm32f7xx_ll_usb.c ****     USBx_OUTEP(epnum)->DOEPTSIZ |= (USB_OTG_DOEPTSIZ_PKTCNT & (1U << 19));
1010:Drivers/STM32F7xx_HAL_Driver/Src/stm32f7xx_ll_usb.c ****     USBx_OUTEP(epnum)->DOEPTSIZ |= (USB_OTG_DOEPTSIZ_XFRSIZ & ep->xfer_size);
1011:Drivers/STM32F7xx_HAL_Driver/Src/stm32f7xx_ll_usb.c **** 
1012:Drivers/STM32F7xx_HAL_Driver/Src/stm32f7xx_ll_usb.c ****     if (dma == 1U)
1013:Drivers/STM32F7xx_HAL_Driver/Src/stm32f7xx_ll_usb.c ****     {
1014:Drivers/STM32F7xx_HAL_Driver/Src/stm32f7xx_ll_usb.c ****       if ((uint32_t)ep->xfer_buff != 0U)
1015:Drivers/STM32F7xx_HAL_Driver/Src/stm32f7xx_ll_usb.c ****       {
1016:Drivers/STM32F7xx_HAL_Driver/Src/stm32f7xx_ll_usb.c ****         USBx_OUTEP(epnum)->DOEPDMA = (uint32_t)(ep->xfer_buff);
1017:Drivers/STM32F7xx_HAL_Driver/Src/stm32f7xx_ll_usb.c ****       }
1018:Drivers/STM32F7xx_HAL_Driver/Src/stm32f7xx_ll_usb.c ****     }
1019:Drivers/STM32F7xx_HAL_Driver/Src/stm32f7xx_ll_usb.c **** 
1020:Drivers/STM32F7xx_HAL_Driver/Src/stm32f7xx_ll_usb.c ****     /* EP enable */
1021:Drivers/STM32F7xx_HAL_Driver/Src/stm32f7xx_ll_usb.c ****     USBx_OUTEP(epnum)->DOEPCTL |= (USB_OTG_DOEPCTL_CNAK | USB_OTG_DOEPCTL_EPENA);
1022:Drivers/STM32F7xx_HAL_Driver/Src/stm32f7xx_ll_usb.c ****   }
1023:Drivers/STM32F7xx_HAL_Driver/Src/stm32f7xx_ll_usb.c **** 
1024:Drivers/STM32F7xx_HAL_Driver/Src/stm32f7xx_ll_usb.c ****   return HAL_OK;
1025:Drivers/STM32F7xx_HAL_Driver/Src/stm32f7xx_ll_usb.c **** }
1026:Drivers/STM32F7xx_HAL_Driver/Src/stm32f7xx_ll_usb.c **** 
1027:Drivers/STM32F7xx_HAL_Driver/Src/stm32f7xx_ll_usb.c **** 
1028:Drivers/STM32F7xx_HAL_Driver/Src/stm32f7xx_ll_usb.c **** /**
1029:Drivers/STM32F7xx_HAL_Driver/Src/stm32f7xx_ll_usb.c ****    * @brief  USB_EPStoptXfer  Stop transfer on an EP
1030:Drivers/STM32F7xx_HAL_Driver/Src/stm32f7xx_ll_usb.c ****    * @param  USBx  usb device instance
1031:Drivers/STM32F7xx_HAL_Driver/Src/stm32f7xx_ll_usb.c ****    * @param  ep pointer to endpoint structure
1032:Drivers/STM32F7xx_HAL_Driver/Src/stm32f7xx_ll_usb.c ****    * @retval HAL status
1033:Drivers/STM32F7xx_HAL_Driver/Src/stm32f7xx_ll_usb.c ****    */
1034:Drivers/STM32F7xx_HAL_Driver/Src/stm32f7xx_ll_usb.c **** HAL_StatusTypeDef USB_EPStopXfer(USB_OTG_GlobalTypeDef *USBx, USB_OTG_EPTypeDef *ep)
1035:Drivers/STM32F7xx_HAL_Driver/Src/stm32f7xx_ll_usb.c **** {
1036:Drivers/STM32F7xx_HAL_Driver/Src/stm32f7xx_ll_usb.c ****   __IO uint32_t count = 0U;
1037:Drivers/STM32F7xx_HAL_Driver/Src/stm32f7xx_ll_usb.c ****   HAL_StatusTypeDef ret = HAL_OK;
1038:Drivers/STM32F7xx_HAL_Driver/Src/stm32f7xx_ll_usb.c ****   uint32_t USBx_BASE = (uint32_t)USBx;
1039:Drivers/STM32F7xx_HAL_Driver/Src/stm32f7xx_ll_usb.c **** 
1040:Drivers/STM32F7xx_HAL_Driver/Src/stm32f7xx_ll_usb.c ****   /* IN endpoint */
1041:Drivers/STM32F7xx_HAL_Driver/Src/stm32f7xx_ll_usb.c ****   if (ep->is_in == 1U)
1042:Drivers/STM32F7xx_HAL_Driver/Src/stm32f7xx_ll_usb.c ****   {
1043:Drivers/STM32F7xx_HAL_Driver/Src/stm32f7xx_ll_usb.c ****     /* EP enable, IN data in FIFO */
1044:Drivers/STM32F7xx_HAL_Driver/Src/stm32f7xx_ll_usb.c ****     if (((USBx_INEP(ep->num)->DIEPCTL) & USB_OTG_DIEPCTL_EPENA) == USB_OTG_DIEPCTL_EPENA)
1045:Drivers/STM32F7xx_HAL_Driver/Src/stm32f7xx_ll_usb.c ****     {
1046:Drivers/STM32F7xx_HAL_Driver/Src/stm32f7xx_ll_usb.c ****       USBx_INEP(ep->num)->DIEPCTL |= (USB_OTG_DIEPCTL_SNAK);
1047:Drivers/STM32F7xx_HAL_Driver/Src/stm32f7xx_ll_usb.c ****       USBx_INEP(ep->num)->DIEPCTL |= (USB_OTG_DIEPCTL_EPDIS);
1048:Drivers/STM32F7xx_HAL_Driver/Src/stm32f7xx_ll_usb.c **** 
1049:Drivers/STM32F7xx_HAL_Driver/Src/stm32f7xx_ll_usb.c ****       do
1050:Drivers/STM32F7xx_HAL_Driver/Src/stm32f7xx_ll_usb.c ****       {
1051:Drivers/STM32F7xx_HAL_Driver/Src/stm32f7xx_ll_usb.c ****         count++;
1052:Drivers/STM32F7xx_HAL_Driver/Src/stm32f7xx_ll_usb.c **** 
1053:Drivers/STM32F7xx_HAL_Driver/Src/stm32f7xx_ll_usb.c ****         if (count > 10000U)
1054:Drivers/STM32F7xx_HAL_Driver/Src/stm32f7xx_ll_usb.c ****         {
1055:Drivers/STM32F7xx_HAL_Driver/Src/stm32f7xx_ll_usb.c ****           ret = HAL_ERROR;
1056:Drivers/STM32F7xx_HAL_Driver/Src/stm32f7xx_ll_usb.c ****           break;
ARM GAS  /tmp/cc8ZLjKA.s 			page 20


1057:Drivers/STM32F7xx_HAL_Driver/Src/stm32f7xx_ll_usb.c ****         }
1058:Drivers/STM32F7xx_HAL_Driver/Src/stm32f7xx_ll_usb.c ****       } while (((USBx_INEP(ep->num)->DIEPCTL) & USB_OTG_DIEPCTL_EPENA) ==  USB_OTG_DIEPCTL_EPENA);
1059:Drivers/STM32F7xx_HAL_Driver/Src/stm32f7xx_ll_usb.c ****     }
1060:Drivers/STM32F7xx_HAL_Driver/Src/stm32f7xx_ll_usb.c ****   }
1061:Drivers/STM32F7xx_HAL_Driver/Src/stm32f7xx_ll_usb.c ****   else /* OUT endpoint */
1062:Drivers/STM32F7xx_HAL_Driver/Src/stm32f7xx_ll_usb.c ****   {
1063:Drivers/STM32F7xx_HAL_Driver/Src/stm32f7xx_ll_usb.c ****     if (((USBx_OUTEP(ep->num)->DOEPCTL) & USB_OTG_DOEPCTL_EPENA) == USB_OTG_DOEPCTL_EPENA)
1064:Drivers/STM32F7xx_HAL_Driver/Src/stm32f7xx_ll_usb.c ****     {
1065:Drivers/STM32F7xx_HAL_Driver/Src/stm32f7xx_ll_usb.c ****       USBx_OUTEP(ep->num)->DOEPCTL |= (USB_OTG_DOEPCTL_SNAK);
1066:Drivers/STM32F7xx_HAL_Driver/Src/stm32f7xx_ll_usb.c ****       USBx_OUTEP(ep->num)->DOEPCTL |= (USB_OTG_DOEPCTL_EPDIS);
1067:Drivers/STM32F7xx_HAL_Driver/Src/stm32f7xx_ll_usb.c **** 
1068:Drivers/STM32F7xx_HAL_Driver/Src/stm32f7xx_ll_usb.c ****       do
1069:Drivers/STM32F7xx_HAL_Driver/Src/stm32f7xx_ll_usb.c ****       {
1070:Drivers/STM32F7xx_HAL_Driver/Src/stm32f7xx_ll_usb.c ****         count++;
1071:Drivers/STM32F7xx_HAL_Driver/Src/stm32f7xx_ll_usb.c **** 
1072:Drivers/STM32F7xx_HAL_Driver/Src/stm32f7xx_ll_usb.c ****         if (count > 10000U)
1073:Drivers/STM32F7xx_HAL_Driver/Src/stm32f7xx_ll_usb.c ****         {
1074:Drivers/STM32F7xx_HAL_Driver/Src/stm32f7xx_ll_usb.c ****           ret = HAL_ERROR;
1075:Drivers/STM32F7xx_HAL_Driver/Src/stm32f7xx_ll_usb.c ****           break;
1076:Drivers/STM32F7xx_HAL_Driver/Src/stm32f7xx_ll_usb.c ****         }
1077:Drivers/STM32F7xx_HAL_Driver/Src/stm32f7xx_ll_usb.c ****       } while (((USBx_OUTEP(ep->num)->DOEPCTL) & USB_OTG_DOEPCTL_EPENA) ==  USB_OTG_DOEPCTL_EPENA);
1078:Drivers/STM32F7xx_HAL_Driver/Src/stm32f7xx_ll_usb.c ****     }
1079:Drivers/STM32F7xx_HAL_Driver/Src/stm32f7xx_ll_usb.c ****   }
1080:Drivers/STM32F7xx_HAL_Driver/Src/stm32f7xx_ll_usb.c **** 
1081:Drivers/STM32F7xx_HAL_Driver/Src/stm32f7xx_ll_usb.c ****   return ret;
1082:Drivers/STM32F7xx_HAL_Driver/Src/stm32f7xx_ll_usb.c **** }
1083:Drivers/STM32F7xx_HAL_Driver/Src/stm32f7xx_ll_usb.c **** 
1084:Drivers/STM32F7xx_HAL_Driver/Src/stm32f7xx_ll_usb.c **** 
1085:Drivers/STM32F7xx_HAL_Driver/Src/stm32f7xx_ll_usb.c **** /**
1086:Drivers/STM32F7xx_HAL_Driver/Src/stm32f7xx_ll_usb.c ****   * @brief  USB_WritePacket : Writes a packet into the Tx FIFO associated
1087:Drivers/STM32F7xx_HAL_Driver/Src/stm32f7xx_ll_usb.c ****   *         with the EP/channel
1088:Drivers/STM32F7xx_HAL_Driver/Src/stm32f7xx_ll_usb.c ****   * @param  USBx  Selected device
1089:Drivers/STM32F7xx_HAL_Driver/Src/stm32f7xx_ll_usb.c ****   * @param  src   pointer to source buffer
1090:Drivers/STM32F7xx_HAL_Driver/Src/stm32f7xx_ll_usb.c ****   * @param  ch_ep_num  endpoint or host channel number
1091:Drivers/STM32F7xx_HAL_Driver/Src/stm32f7xx_ll_usb.c ****   * @param  len  Number of bytes to write
1092:Drivers/STM32F7xx_HAL_Driver/Src/stm32f7xx_ll_usb.c ****   * @param  dma USB dma enabled or disabled
1093:Drivers/STM32F7xx_HAL_Driver/Src/stm32f7xx_ll_usb.c ****   *          This parameter can be one of these values:
1094:Drivers/STM32F7xx_HAL_Driver/Src/stm32f7xx_ll_usb.c ****   *           0 : DMA feature not used
1095:Drivers/STM32F7xx_HAL_Driver/Src/stm32f7xx_ll_usb.c ****   *           1 : DMA feature used
1096:Drivers/STM32F7xx_HAL_Driver/Src/stm32f7xx_ll_usb.c ****   * @retval HAL status
1097:Drivers/STM32F7xx_HAL_Driver/Src/stm32f7xx_ll_usb.c ****   */
1098:Drivers/STM32F7xx_HAL_Driver/Src/stm32f7xx_ll_usb.c **** HAL_StatusTypeDef USB_WritePacket(USB_OTG_GlobalTypeDef *USBx, uint8_t *src,
1099:Drivers/STM32F7xx_HAL_Driver/Src/stm32f7xx_ll_usb.c ****                                   uint8_t ch_ep_num, uint16_t len, uint8_t dma)
1100:Drivers/STM32F7xx_HAL_Driver/Src/stm32f7xx_ll_usb.c **** {
1101:Drivers/STM32F7xx_HAL_Driver/Src/stm32f7xx_ll_usb.c ****   uint32_t USBx_BASE = (uint32_t)USBx;
1102:Drivers/STM32F7xx_HAL_Driver/Src/stm32f7xx_ll_usb.c ****   uint8_t *pSrc = src;
1103:Drivers/STM32F7xx_HAL_Driver/Src/stm32f7xx_ll_usb.c ****   uint32_t count32b;
1104:Drivers/STM32F7xx_HAL_Driver/Src/stm32f7xx_ll_usb.c ****   uint32_t i;
1105:Drivers/STM32F7xx_HAL_Driver/Src/stm32f7xx_ll_usb.c **** 
1106:Drivers/STM32F7xx_HAL_Driver/Src/stm32f7xx_ll_usb.c ****   if (dma == 0U)
1107:Drivers/STM32F7xx_HAL_Driver/Src/stm32f7xx_ll_usb.c ****   {
1108:Drivers/STM32F7xx_HAL_Driver/Src/stm32f7xx_ll_usb.c ****     count32b = ((uint32_t)len + 3U) / 4U;
1109:Drivers/STM32F7xx_HAL_Driver/Src/stm32f7xx_ll_usb.c ****     for (i = 0U; i < count32b; i++)
1110:Drivers/STM32F7xx_HAL_Driver/Src/stm32f7xx_ll_usb.c ****     {
1111:Drivers/STM32F7xx_HAL_Driver/Src/stm32f7xx_ll_usb.c ****       USBx_DFIFO((uint32_t)ch_ep_num) = __UNALIGNED_UINT32_READ(pSrc);
1112:Drivers/STM32F7xx_HAL_Driver/Src/stm32f7xx_ll_usb.c ****       pSrc++;
1113:Drivers/STM32F7xx_HAL_Driver/Src/stm32f7xx_ll_usb.c ****       pSrc++;
ARM GAS  /tmp/cc8ZLjKA.s 			page 21


1114:Drivers/STM32F7xx_HAL_Driver/Src/stm32f7xx_ll_usb.c ****       pSrc++;
1115:Drivers/STM32F7xx_HAL_Driver/Src/stm32f7xx_ll_usb.c ****       pSrc++;
1116:Drivers/STM32F7xx_HAL_Driver/Src/stm32f7xx_ll_usb.c ****     }
1117:Drivers/STM32F7xx_HAL_Driver/Src/stm32f7xx_ll_usb.c ****   }
1118:Drivers/STM32F7xx_HAL_Driver/Src/stm32f7xx_ll_usb.c **** 
1119:Drivers/STM32F7xx_HAL_Driver/Src/stm32f7xx_ll_usb.c ****   return HAL_OK;
1120:Drivers/STM32F7xx_HAL_Driver/Src/stm32f7xx_ll_usb.c **** }
1121:Drivers/STM32F7xx_HAL_Driver/Src/stm32f7xx_ll_usb.c **** 
1122:Drivers/STM32F7xx_HAL_Driver/Src/stm32f7xx_ll_usb.c **** /**
1123:Drivers/STM32F7xx_HAL_Driver/Src/stm32f7xx_ll_usb.c ****   * @brief  USB_ReadPacket : read a packet from the RX FIFO
1124:Drivers/STM32F7xx_HAL_Driver/Src/stm32f7xx_ll_usb.c ****   * @param  USBx  Selected device
1125:Drivers/STM32F7xx_HAL_Driver/Src/stm32f7xx_ll_usb.c ****   * @param  dest  source pointer
1126:Drivers/STM32F7xx_HAL_Driver/Src/stm32f7xx_ll_usb.c ****   * @param  len  Number of bytes to read
1127:Drivers/STM32F7xx_HAL_Driver/Src/stm32f7xx_ll_usb.c ****   * @retval pointer to destination buffer
1128:Drivers/STM32F7xx_HAL_Driver/Src/stm32f7xx_ll_usb.c ****   */
1129:Drivers/STM32F7xx_HAL_Driver/Src/stm32f7xx_ll_usb.c **** void *USB_ReadPacket(USB_OTG_GlobalTypeDef *USBx, uint8_t *dest, uint16_t len)
1130:Drivers/STM32F7xx_HAL_Driver/Src/stm32f7xx_ll_usb.c **** {
1131:Drivers/STM32F7xx_HAL_Driver/Src/stm32f7xx_ll_usb.c ****   uint32_t USBx_BASE = (uint32_t)USBx;
1132:Drivers/STM32F7xx_HAL_Driver/Src/stm32f7xx_ll_usb.c ****   uint8_t *pDest = dest;
1133:Drivers/STM32F7xx_HAL_Driver/Src/stm32f7xx_ll_usb.c ****   uint32_t pData;
1134:Drivers/STM32F7xx_HAL_Driver/Src/stm32f7xx_ll_usb.c ****   uint32_t i;
1135:Drivers/STM32F7xx_HAL_Driver/Src/stm32f7xx_ll_usb.c ****   uint32_t count32b = (uint32_t)len >> 2U;
1136:Drivers/STM32F7xx_HAL_Driver/Src/stm32f7xx_ll_usb.c ****   uint16_t remaining_bytes = len % 4U;
1137:Drivers/STM32F7xx_HAL_Driver/Src/stm32f7xx_ll_usb.c **** 
1138:Drivers/STM32F7xx_HAL_Driver/Src/stm32f7xx_ll_usb.c ****   for (i = 0U; i < count32b; i++)
1139:Drivers/STM32F7xx_HAL_Driver/Src/stm32f7xx_ll_usb.c ****   {
1140:Drivers/STM32F7xx_HAL_Driver/Src/stm32f7xx_ll_usb.c ****     __UNALIGNED_UINT32_WRITE(pDest, USBx_DFIFO(0U));
1141:Drivers/STM32F7xx_HAL_Driver/Src/stm32f7xx_ll_usb.c ****     pDest++;
1142:Drivers/STM32F7xx_HAL_Driver/Src/stm32f7xx_ll_usb.c ****     pDest++;
1143:Drivers/STM32F7xx_HAL_Driver/Src/stm32f7xx_ll_usb.c ****     pDest++;
1144:Drivers/STM32F7xx_HAL_Driver/Src/stm32f7xx_ll_usb.c ****     pDest++;
1145:Drivers/STM32F7xx_HAL_Driver/Src/stm32f7xx_ll_usb.c ****   }
1146:Drivers/STM32F7xx_HAL_Driver/Src/stm32f7xx_ll_usb.c **** 
1147:Drivers/STM32F7xx_HAL_Driver/Src/stm32f7xx_ll_usb.c ****   /* When Number of data is not word aligned, read the remaining byte */
1148:Drivers/STM32F7xx_HAL_Driver/Src/stm32f7xx_ll_usb.c ****   if (remaining_bytes != 0U)
1149:Drivers/STM32F7xx_HAL_Driver/Src/stm32f7xx_ll_usb.c ****   {
1150:Drivers/STM32F7xx_HAL_Driver/Src/stm32f7xx_ll_usb.c ****     i = 0U;
1151:Drivers/STM32F7xx_HAL_Driver/Src/stm32f7xx_ll_usb.c ****     __UNALIGNED_UINT32_WRITE(&pData, USBx_DFIFO(0U));
1152:Drivers/STM32F7xx_HAL_Driver/Src/stm32f7xx_ll_usb.c **** 
1153:Drivers/STM32F7xx_HAL_Driver/Src/stm32f7xx_ll_usb.c ****     do
1154:Drivers/STM32F7xx_HAL_Driver/Src/stm32f7xx_ll_usb.c ****     {
1155:Drivers/STM32F7xx_HAL_Driver/Src/stm32f7xx_ll_usb.c ****       *(uint8_t *)pDest = (uint8_t)(pData >> (8U * (uint8_t)(i)));
1156:Drivers/STM32F7xx_HAL_Driver/Src/stm32f7xx_ll_usb.c ****       i++;
1157:Drivers/STM32F7xx_HAL_Driver/Src/stm32f7xx_ll_usb.c ****       pDest++;
1158:Drivers/STM32F7xx_HAL_Driver/Src/stm32f7xx_ll_usb.c ****       remaining_bytes--;
1159:Drivers/STM32F7xx_HAL_Driver/Src/stm32f7xx_ll_usb.c ****     } while (remaining_bytes != 0U);
1160:Drivers/STM32F7xx_HAL_Driver/Src/stm32f7xx_ll_usb.c ****   }
1161:Drivers/STM32F7xx_HAL_Driver/Src/stm32f7xx_ll_usb.c **** 
1162:Drivers/STM32F7xx_HAL_Driver/Src/stm32f7xx_ll_usb.c ****   return ((void *)pDest);
1163:Drivers/STM32F7xx_HAL_Driver/Src/stm32f7xx_ll_usb.c **** }
1164:Drivers/STM32F7xx_HAL_Driver/Src/stm32f7xx_ll_usb.c **** 
1165:Drivers/STM32F7xx_HAL_Driver/Src/stm32f7xx_ll_usb.c **** /**
1166:Drivers/STM32F7xx_HAL_Driver/Src/stm32f7xx_ll_usb.c ****   * @brief  USB_EPSetStall : set a stall condition over an EP
1167:Drivers/STM32F7xx_HAL_Driver/Src/stm32f7xx_ll_usb.c ****   * @param  USBx  Selected device
1168:Drivers/STM32F7xx_HAL_Driver/Src/stm32f7xx_ll_usb.c ****   * @param  ep pointer to endpoint structure
1169:Drivers/STM32F7xx_HAL_Driver/Src/stm32f7xx_ll_usb.c ****   * @retval HAL status
1170:Drivers/STM32F7xx_HAL_Driver/Src/stm32f7xx_ll_usb.c ****   */
ARM GAS  /tmp/cc8ZLjKA.s 			page 22


1171:Drivers/STM32F7xx_HAL_Driver/Src/stm32f7xx_ll_usb.c **** HAL_StatusTypeDef USB_EPSetStall(USB_OTG_GlobalTypeDef *USBx, USB_OTG_EPTypeDef *ep)
1172:Drivers/STM32F7xx_HAL_Driver/Src/stm32f7xx_ll_usb.c **** {
1173:Drivers/STM32F7xx_HAL_Driver/Src/stm32f7xx_ll_usb.c ****   uint32_t USBx_BASE = (uint32_t)USBx;
1174:Drivers/STM32F7xx_HAL_Driver/Src/stm32f7xx_ll_usb.c ****   uint32_t epnum = (uint32_t)ep->num;
1175:Drivers/STM32F7xx_HAL_Driver/Src/stm32f7xx_ll_usb.c **** 
1176:Drivers/STM32F7xx_HAL_Driver/Src/stm32f7xx_ll_usb.c ****   if (ep->is_in == 1U)
1177:Drivers/STM32F7xx_HAL_Driver/Src/stm32f7xx_ll_usb.c ****   {
1178:Drivers/STM32F7xx_HAL_Driver/Src/stm32f7xx_ll_usb.c ****     if (((USBx_INEP(epnum)->DIEPCTL & USB_OTG_DIEPCTL_EPENA) == 0U) && (epnum != 0U))
1179:Drivers/STM32F7xx_HAL_Driver/Src/stm32f7xx_ll_usb.c ****     {
1180:Drivers/STM32F7xx_HAL_Driver/Src/stm32f7xx_ll_usb.c ****       USBx_INEP(epnum)->DIEPCTL &= ~(USB_OTG_DIEPCTL_EPDIS);
1181:Drivers/STM32F7xx_HAL_Driver/Src/stm32f7xx_ll_usb.c ****     }
1182:Drivers/STM32F7xx_HAL_Driver/Src/stm32f7xx_ll_usb.c ****     USBx_INEP(epnum)->DIEPCTL |= USB_OTG_DIEPCTL_STALL;
1183:Drivers/STM32F7xx_HAL_Driver/Src/stm32f7xx_ll_usb.c ****   }
1184:Drivers/STM32F7xx_HAL_Driver/Src/stm32f7xx_ll_usb.c ****   else
1185:Drivers/STM32F7xx_HAL_Driver/Src/stm32f7xx_ll_usb.c ****   {
1186:Drivers/STM32F7xx_HAL_Driver/Src/stm32f7xx_ll_usb.c ****     if (((USBx_OUTEP(epnum)->DOEPCTL & USB_OTG_DOEPCTL_EPENA) == 0U) && (epnum != 0U))
1187:Drivers/STM32F7xx_HAL_Driver/Src/stm32f7xx_ll_usb.c ****     {
1188:Drivers/STM32F7xx_HAL_Driver/Src/stm32f7xx_ll_usb.c ****       USBx_OUTEP(epnum)->DOEPCTL &= ~(USB_OTG_DOEPCTL_EPDIS);
1189:Drivers/STM32F7xx_HAL_Driver/Src/stm32f7xx_ll_usb.c ****     }
1190:Drivers/STM32F7xx_HAL_Driver/Src/stm32f7xx_ll_usb.c ****     USBx_OUTEP(epnum)->DOEPCTL |= USB_OTG_DOEPCTL_STALL;
1191:Drivers/STM32F7xx_HAL_Driver/Src/stm32f7xx_ll_usb.c ****   }
1192:Drivers/STM32F7xx_HAL_Driver/Src/stm32f7xx_ll_usb.c **** 
1193:Drivers/STM32F7xx_HAL_Driver/Src/stm32f7xx_ll_usb.c ****   return HAL_OK;
1194:Drivers/STM32F7xx_HAL_Driver/Src/stm32f7xx_ll_usb.c **** }
1195:Drivers/STM32F7xx_HAL_Driver/Src/stm32f7xx_ll_usb.c **** 
1196:Drivers/STM32F7xx_HAL_Driver/Src/stm32f7xx_ll_usb.c **** /**
1197:Drivers/STM32F7xx_HAL_Driver/Src/stm32f7xx_ll_usb.c ****   * @brief  USB_EPClearStall : Clear a stall condition over an EP
1198:Drivers/STM32F7xx_HAL_Driver/Src/stm32f7xx_ll_usb.c ****   * @param  USBx  Selected device
1199:Drivers/STM32F7xx_HAL_Driver/Src/stm32f7xx_ll_usb.c ****   * @param  ep pointer to endpoint structure
1200:Drivers/STM32F7xx_HAL_Driver/Src/stm32f7xx_ll_usb.c ****   * @retval HAL status
1201:Drivers/STM32F7xx_HAL_Driver/Src/stm32f7xx_ll_usb.c ****   */
1202:Drivers/STM32F7xx_HAL_Driver/Src/stm32f7xx_ll_usb.c **** HAL_StatusTypeDef USB_EPClearStall(USB_OTG_GlobalTypeDef *USBx, USB_OTG_EPTypeDef *ep)
1203:Drivers/STM32F7xx_HAL_Driver/Src/stm32f7xx_ll_usb.c **** {
1204:Drivers/STM32F7xx_HAL_Driver/Src/stm32f7xx_ll_usb.c ****   uint32_t USBx_BASE = (uint32_t)USBx;
1205:Drivers/STM32F7xx_HAL_Driver/Src/stm32f7xx_ll_usb.c ****   uint32_t epnum = (uint32_t)ep->num;
1206:Drivers/STM32F7xx_HAL_Driver/Src/stm32f7xx_ll_usb.c **** 
1207:Drivers/STM32F7xx_HAL_Driver/Src/stm32f7xx_ll_usb.c ****   if (ep->is_in == 1U)
1208:Drivers/STM32F7xx_HAL_Driver/Src/stm32f7xx_ll_usb.c ****   {
1209:Drivers/STM32F7xx_HAL_Driver/Src/stm32f7xx_ll_usb.c ****     USBx_INEP(epnum)->DIEPCTL &= ~USB_OTG_DIEPCTL_STALL;
1210:Drivers/STM32F7xx_HAL_Driver/Src/stm32f7xx_ll_usb.c ****     if ((ep->type == EP_TYPE_INTR) || (ep->type == EP_TYPE_BULK))
1211:Drivers/STM32F7xx_HAL_Driver/Src/stm32f7xx_ll_usb.c ****     {
1212:Drivers/STM32F7xx_HAL_Driver/Src/stm32f7xx_ll_usb.c ****       USBx_INEP(epnum)->DIEPCTL |= USB_OTG_DIEPCTL_SD0PID_SEVNFRM; /* DATA0 */
1213:Drivers/STM32F7xx_HAL_Driver/Src/stm32f7xx_ll_usb.c ****     }
1214:Drivers/STM32F7xx_HAL_Driver/Src/stm32f7xx_ll_usb.c ****   }
1215:Drivers/STM32F7xx_HAL_Driver/Src/stm32f7xx_ll_usb.c ****   else
1216:Drivers/STM32F7xx_HAL_Driver/Src/stm32f7xx_ll_usb.c ****   {
1217:Drivers/STM32F7xx_HAL_Driver/Src/stm32f7xx_ll_usb.c ****     USBx_OUTEP(epnum)->DOEPCTL &= ~USB_OTG_DOEPCTL_STALL;
1218:Drivers/STM32F7xx_HAL_Driver/Src/stm32f7xx_ll_usb.c ****     if ((ep->type == EP_TYPE_INTR) || (ep->type == EP_TYPE_BULK))
1219:Drivers/STM32F7xx_HAL_Driver/Src/stm32f7xx_ll_usb.c ****     {
1220:Drivers/STM32F7xx_HAL_Driver/Src/stm32f7xx_ll_usb.c ****       USBx_OUTEP(epnum)->DOEPCTL |= USB_OTG_DOEPCTL_SD0PID_SEVNFRM; /* DATA0 */
1221:Drivers/STM32F7xx_HAL_Driver/Src/stm32f7xx_ll_usb.c ****     }
1222:Drivers/STM32F7xx_HAL_Driver/Src/stm32f7xx_ll_usb.c ****   }
1223:Drivers/STM32F7xx_HAL_Driver/Src/stm32f7xx_ll_usb.c ****   return HAL_OK;
1224:Drivers/STM32F7xx_HAL_Driver/Src/stm32f7xx_ll_usb.c **** }
1225:Drivers/STM32F7xx_HAL_Driver/Src/stm32f7xx_ll_usb.c **** 
1226:Drivers/STM32F7xx_HAL_Driver/Src/stm32f7xx_ll_usb.c **** /**
1227:Drivers/STM32F7xx_HAL_Driver/Src/stm32f7xx_ll_usb.c ****   * @brief  USB_StopDevice : Stop the usb device mode
ARM GAS  /tmp/cc8ZLjKA.s 			page 23


1228:Drivers/STM32F7xx_HAL_Driver/Src/stm32f7xx_ll_usb.c ****   * @param  USBx  Selected device
1229:Drivers/STM32F7xx_HAL_Driver/Src/stm32f7xx_ll_usb.c ****   * @retval HAL status
1230:Drivers/STM32F7xx_HAL_Driver/Src/stm32f7xx_ll_usb.c ****   */
1231:Drivers/STM32F7xx_HAL_Driver/Src/stm32f7xx_ll_usb.c **** HAL_StatusTypeDef USB_StopDevice(USB_OTG_GlobalTypeDef *USBx)
1232:Drivers/STM32F7xx_HAL_Driver/Src/stm32f7xx_ll_usb.c **** {
1233:Drivers/STM32F7xx_HAL_Driver/Src/stm32f7xx_ll_usb.c ****   HAL_StatusTypeDef ret;
1234:Drivers/STM32F7xx_HAL_Driver/Src/stm32f7xx_ll_usb.c ****   uint32_t USBx_BASE = (uint32_t)USBx;
1235:Drivers/STM32F7xx_HAL_Driver/Src/stm32f7xx_ll_usb.c ****   uint32_t i;
1236:Drivers/STM32F7xx_HAL_Driver/Src/stm32f7xx_ll_usb.c **** 
1237:Drivers/STM32F7xx_HAL_Driver/Src/stm32f7xx_ll_usb.c ****   /* Clear Pending interrupt */
1238:Drivers/STM32F7xx_HAL_Driver/Src/stm32f7xx_ll_usb.c ****   for (i = 0U; i < 15U; i++)
1239:Drivers/STM32F7xx_HAL_Driver/Src/stm32f7xx_ll_usb.c ****   {
1240:Drivers/STM32F7xx_HAL_Driver/Src/stm32f7xx_ll_usb.c ****     USBx_INEP(i)->DIEPINT = 0xFB7FU;
1241:Drivers/STM32F7xx_HAL_Driver/Src/stm32f7xx_ll_usb.c ****     USBx_OUTEP(i)->DOEPINT = 0xFB7FU;
1242:Drivers/STM32F7xx_HAL_Driver/Src/stm32f7xx_ll_usb.c ****   }
1243:Drivers/STM32F7xx_HAL_Driver/Src/stm32f7xx_ll_usb.c **** 
1244:Drivers/STM32F7xx_HAL_Driver/Src/stm32f7xx_ll_usb.c ****   /* Clear interrupt masks */
1245:Drivers/STM32F7xx_HAL_Driver/Src/stm32f7xx_ll_usb.c ****   USBx_DEVICE->DIEPMSK  = 0U;
1246:Drivers/STM32F7xx_HAL_Driver/Src/stm32f7xx_ll_usb.c ****   USBx_DEVICE->DOEPMSK  = 0U;
1247:Drivers/STM32F7xx_HAL_Driver/Src/stm32f7xx_ll_usb.c ****   USBx_DEVICE->DAINTMSK = 0U;
1248:Drivers/STM32F7xx_HAL_Driver/Src/stm32f7xx_ll_usb.c **** 
1249:Drivers/STM32F7xx_HAL_Driver/Src/stm32f7xx_ll_usb.c ****   /* Flush the FIFO */
1250:Drivers/STM32F7xx_HAL_Driver/Src/stm32f7xx_ll_usb.c ****   ret = USB_FlushRxFifo(USBx);
1251:Drivers/STM32F7xx_HAL_Driver/Src/stm32f7xx_ll_usb.c ****   if (ret != HAL_OK)
1252:Drivers/STM32F7xx_HAL_Driver/Src/stm32f7xx_ll_usb.c ****   {
1253:Drivers/STM32F7xx_HAL_Driver/Src/stm32f7xx_ll_usb.c ****     return ret;
1254:Drivers/STM32F7xx_HAL_Driver/Src/stm32f7xx_ll_usb.c ****   }
1255:Drivers/STM32F7xx_HAL_Driver/Src/stm32f7xx_ll_usb.c **** 
1256:Drivers/STM32F7xx_HAL_Driver/Src/stm32f7xx_ll_usb.c ****   ret = USB_FlushTxFifo(USBx,  0x10U);
1257:Drivers/STM32F7xx_HAL_Driver/Src/stm32f7xx_ll_usb.c ****   if (ret != HAL_OK)
1258:Drivers/STM32F7xx_HAL_Driver/Src/stm32f7xx_ll_usb.c ****   {
1259:Drivers/STM32F7xx_HAL_Driver/Src/stm32f7xx_ll_usb.c ****     return ret;
1260:Drivers/STM32F7xx_HAL_Driver/Src/stm32f7xx_ll_usb.c ****   }
1261:Drivers/STM32F7xx_HAL_Driver/Src/stm32f7xx_ll_usb.c **** 
1262:Drivers/STM32F7xx_HAL_Driver/Src/stm32f7xx_ll_usb.c ****   return ret;
1263:Drivers/STM32F7xx_HAL_Driver/Src/stm32f7xx_ll_usb.c **** }
1264:Drivers/STM32F7xx_HAL_Driver/Src/stm32f7xx_ll_usb.c **** 
1265:Drivers/STM32F7xx_HAL_Driver/Src/stm32f7xx_ll_usb.c **** /**
1266:Drivers/STM32F7xx_HAL_Driver/Src/stm32f7xx_ll_usb.c ****   * @brief  USB_SetDevAddress : Stop the usb device mode
1267:Drivers/STM32F7xx_HAL_Driver/Src/stm32f7xx_ll_usb.c ****   * @param  USBx  Selected device
1268:Drivers/STM32F7xx_HAL_Driver/Src/stm32f7xx_ll_usb.c ****   * @param  address  new device address to be assigned
1269:Drivers/STM32F7xx_HAL_Driver/Src/stm32f7xx_ll_usb.c ****   *          This parameter can be a value from 0 to 255
1270:Drivers/STM32F7xx_HAL_Driver/Src/stm32f7xx_ll_usb.c ****   * @retval HAL status
1271:Drivers/STM32F7xx_HAL_Driver/Src/stm32f7xx_ll_usb.c ****   */
1272:Drivers/STM32F7xx_HAL_Driver/Src/stm32f7xx_ll_usb.c **** HAL_StatusTypeDef USB_SetDevAddress(USB_OTG_GlobalTypeDef *USBx, uint8_t address)
1273:Drivers/STM32F7xx_HAL_Driver/Src/stm32f7xx_ll_usb.c **** {
1274:Drivers/STM32F7xx_HAL_Driver/Src/stm32f7xx_ll_usb.c ****   uint32_t USBx_BASE = (uint32_t)USBx;
1275:Drivers/STM32F7xx_HAL_Driver/Src/stm32f7xx_ll_usb.c **** 
1276:Drivers/STM32F7xx_HAL_Driver/Src/stm32f7xx_ll_usb.c ****   USBx_DEVICE->DCFG &= ~(USB_OTG_DCFG_DAD);
1277:Drivers/STM32F7xx_HAL_Driver/Src/stm32f7xx_ll_usb.c ****   USBx_DEVICE->DCFG |= ((uint32_t)address << 4) & USB_OTG_DCFG_DAD;
1278:Drivers/STM32F7xx_HAL_Driver/Src/stm32f7xx_ll_usb.c **** 
1279:Drivers/STM32F7xx_HAL_Driver/Src/stm32f7xx_ll_usb.c ****   return HAL_OK;
1280:Drivers/STM32F7xx_HAL_Driver/Src/stm32f7xx_ll_usb.c **** }
1281:Drivers/STM32F7xx_HAL_Driver/Src/stm32f7xx_ll_usb.c **** 
1282:Drivers/STM32F7xx_HAL_Driver/Src/stm32f7xx_ll_usb.c **** /**
1283:Drivers/STM32F7xx_HAL_Driver/Src/stm32f7xx_ll_usb.c ****   * @brief  USB_DevConnect : Connect the USB device by enabling Rpu
1284:Drivers/STM32F7xx_HAL_Driver/Src/stm32f7xx_ll_usb.c ****   * @param  USBx  Selected device
ARM GAS  /tmp/cc8ZLjKA.s 			page 24


1285:Drivers/STM32F7xx_HAL_Driver/Src/stm32f7xx_ll_usb.c ****   * @retval HAL status
1286:Drivers/STM32F7xx_HAL_Driver/Src/stm32f7xx_ll_usb.c ****   */
1287:Drivers/STM32F7xx_HAL_Driver/Src/stm32f7xx_ll_usb.c **** HAL_StatusTypeDef USB_DevConnect(USB_OTG_GlobalTypeDef *USBx)
1288:Drivers/STM32F7xx_HAL_Driver/Src/stm32f7xx_ll_usb.c **** {
1289:Drivers/STM32F7xx_HAL_Driver/Src/stm32f7xx_ll_usb.c ****   uint32_t USBx_BASE = (uint32_t)USBx;
1290:Drivers/STM32F7xx_HAL_Driver/Src/stm32f7xx_ll_usb.c **** 
1291:Drivers/STM32F7xx_HAL_Driver/Src/stm32f7xx_ll_usb.c ****   /* In case phy is stopped, ensure to ungate and restore the phy CLK */
1292:Drivers/STM32F7xx_HAL_Driver/Src/stm32f7xx_ll_usb.c ****   USBx_PCGCCTL &= ~(USB_OTG_PCGCCTL_STOPCLK | USB_OTG_PCGCCTL_GATECLK);
1293:Drivers/STM32F7xx_HAL_Driver/Src/stm32f7xx_ll_usb.c **** 
1294:Drivers/STM32F7xx_HAL_Driver/Src/stm32f7xx_ll_usb.c ****   USBx_DEVICE->DCTL &= ~USB_OTG_DCTL_SDIS;
1295:Drivers/STM32F7xx_HAL_Driver/Src/stm32f7xx_ll_usb.c **** 
1296:Drivers/STM32F7xx_HAL_Driver/Src/stm32f7xx_ll_usb.c ****   return HAL_OK;
1297:Drivers/STM32F7xx_HAL_Driver/Src/stm32f7xx_ll_usb.c **** }
1298:Drivers/STM32F7xx_HAL_Driver/Src/stm32f7xx_ll_usb.c **** 
1299:Drivers/STM32F7xx_HAL_Driver/Src/stm32f7xx_ll_usb.c **** /**
1300:Drivers/STM32F7xx_HAL_Driver/Src/stm32f7xx_ll_usb.c ****   * @brief  USB_DevDisconnect : Disconnect the USB device by disabling Rpu
1301:Drivers/STM32F7xx_HAL_Driver/Src/stm32f7xx_ll_usb.c ****   * @param  USBx  Selected device
1302:Drivers/STM32F7xx_HAL_Driver/Src/stm32f7xx_ll_usb.c ****   * @retval HAL status
1303:Drivers/STM32F7xx_HAL_Driver/Src/stm32f7xx_ll_usb.c ****   */
1304:Drivers/STM32F7xx_HAL_Driver/Src/stm32f7xx_ll_usb.c **** HAL_StatusTypeDef USB_DevDisconnect(USB_OTG_GlobalTypeDef *USBx)
1305:Drivers/STM32F7xx_HAL_Driver/Src/stm32f7xx_ll_usb.c **** {
1306:Drivers/STM32F7xx_HAL_Driver/Src/stm32f7xx_ll_usb.c ****   uint32_t USBx_BASE = (uint32_t)USBx;
1307:Drivers/STM32F7xx_HAL_Driver/Src/stm32f7xx_ll_usb.c **** 
1308:Drivers/STM32F7xx_HAL_Driver/Src/stm32f7xx_ll_usb.c ****   /* In case phy is stopped, ensure to ungate and restore the phy CLK */
1309:Drivers/STM32F7xx_HAL_Driver/Src/stm32f7xx_ll_usb.c ****   USBx_PCGCCTL &= ~(USB_OTG_PCGCCTL_STOPCLK | USB_OTG_PCGCCTL_GATECLK);
1310:Drivers/STM32F7xx_HAL_Driver/Src/stm32f7xx_ll_usb.c **** 
1311:Drivers/STM32F7xx_HAL_Driver/Src/stm32f7xx_ll_usb.c ****   USBx_DEVICE->DCTL |= USB_OTG_DCTL_SDIS;
1312:Drivers/STM32F7xx_HAL_Driver/Src/stm32f7xx_ll_usb.c **** 
1313:Drivers/STM32F7xx_HAL_Driver/Src/stm32f7xx_ll_usb.c ****   return HAL_OK;
1314:Drivers/STM32F7xx_HAL_Driver/Src/stm32f7xx_ll_usb.c **** }
1315:Drivers/STM32F7xx_HAL_Driver/Src/stm32f7xx_ll_usb.c **** 
1316:Drivers/STM32F7xx_HAL_Driver/Src/stm32f7xx_ll_usb.c **** /**
1317:Drivers/STM32F7xx_HAL_Driver/Src/stm32f7xx_ll_usb.c ****   * @brief  USB_ReadInterrupts: return the global USB interrupt status
1318:Drivers/STM32F7xx_HAL_Driver/Src/stm32f7xx_ll_usb.c ****   * @param  USBx  Selected device
1319:Drivers/STM32F7xx_HAL_Driver/Src/stm32f7xx_ll_usb.c ****   * @retval USB Global Interrupt status
1320:Drivers/STM32F7xx_HAL_Driver/Src/stm32f7xx_ll_usb.c ****   */
1321:Drivers/STM32F7xx_HAL_Driver/Src/stm32f7xx_ll_usb.c **** uint32_t USB_ReadInterrupts(USB_OTG_GlobalTypeDef *USBx)
1322:Drivers/STM32F7xx_HAL_Driver/Src/stm32f7xx_ll_usb.c **** {
1323:Drivers/STM32F7xx_HAL_Driver/Src/stm32f7xx_ll_usb.c ****   uint32_t tmpreg;
1324:Drivers/STM32F7xx_HAL_Driver/Src/stm32f7xx_ll_usb.c **** 
1325:Drivers/STM32F7xx_HAL_Driver/Src/stm32f7xx_ll_usb.c ****   tmpreg = USBx->GINTSTS;
1326:Drivers/STM32F7xx_HAL_Driver/Src/stm32f7xx_ll_usb.c ****   tmpreg &= USBx->GINTMSK;
1327:Drivers/STM32F7xx_HAL_Driver/Src/stm32f7xx_ll_usb.c **** 
1328:Drivers/STM32F7xx_HAL_Driver/Src/stm32f7xx_ll_usb.c ****   return tmpreg;
1329:Drivers/STM32F7xx_HAL_Driver/Src/stm32f7xx_ll_usb.c **** }
1330:Drivers/STM32F7xx_HAL_Driver/Src/stm32f7xx_ll_usb.c **** 
1331:Drivers/STM32F7xx_HAL_Driver/Src/stm32f7xx_ll_usb.c **** /**
1332:Drivers/STM32F7xx_HAL_Driver/Src/stm32f7xx_ll_usb.c ****   * @brief  USB_ReadChInterrupts: return USB channel interrupt status
1333:Drivers/STM32F7xx_HAL_Driver/Src/stm32f7xx_ll_usb.c ****   * @param  USBx  Selected device
1334:Drivers/STM32F7xx_HAL_Driver/Src/stm32f7xx_ll_usb.c ****   * @param  chnum Channel number
1335:Drivers/STM32F7xx_HAL_Driver/Src/stm32f7xx_ll_usb.c ****   * @retval USB Channel Interrupt status
1336:Drivers/STM32F7xx_HAL_Driver/Src/stm32f7xx_ll_usb.c ****   */
1337:Drivers/STM32F7xx_HAL_Driver/Src/stm32f7xx_ll_usb.c **** uint32_t USB_ReadChInterrupts(USB_OTG_GlobalTypeDef *USBx, uint8_t chnum)
1338:Drivers/STM32F7xx_HAL_Driver/Src/stm32f7xx_ll_usb.c **** {
1339:Drivers/STM32F7xx_HAL_Driver/Src/stm32f7xx_ll_usb.c ****   uint32_t USBx_BASE = (uint32_t)USBx;
1340:Drivers/STM32F7xx_HAL_Driver/Src/stm32f7xx_ll_usb.c ****   uint32_t tmpreg;
1341:Drivers/STM32F7xx_HAL_Driver/Src/stm32f7xx_ll_usb.c **** 
ARM GAS  /tmp/cc8ZLjKA.s 			page 25


1342:Drivers/STM32F7xx_HAL_Driver/Src/stm32f7xx_ll_usb.c ****   tmpreg = USBx_HC(chnum)->HCINT;
1343:Drivers/STM32F7xx_HAL_Driver/Src/stm32f7xx_ll_usb.c ****   tmpreg &= USBx_HC(chnum)->HCINTMSK;
1344:Drivers/STM32F7xx_HAL_Driver/Src/stm32f7xx_ll_usb.c **** 
1345:Drivers/STM32F7xx_HAL_Driver/Src/stm32f7xx_ll_usb.c ****   return tmpreg;
1346:Drivers/STM32F7xx_HAL_Driver/Src/stm32f7xx_ll_usb.c **** }
1347:Drivers/STM32F7xx_HAL_Driver/Src/stm32f7xx_ll_usb.c **** 
1348:Drivers/STM32F7xx_HAL_Driver/Src/stm32f7xx_ll_usb.c **** /**
1349:Drivers/STM32F7xx_HAL_Driver/Src/stm32f7xx_ll_usb.c ****   * @brief  USB_ReadDevAllOutEpInterrupt: return the USB device OUT endpoints interrupt status
1350:Drivers/STM32F7xx_HAL_Driver/Src/stm32f7xx_ll_usb.c ****   * @param  USBx  Selected device
1351:Drivers/STM32F7xx_HAL_Driver/Src/stm32f7xx_ll_usb.c ****   * @retval USB Device OUT EP interrupt status
1352:Drivers/STM32F7xx_HAL_Driver/Src/stm32f7xx_ll_usb.c ****   */
1353:Drivers/STM32F7xx_HAL_Driver/Src/stm32f7xx_ll_usb.c **** uint32_t USB_ReadDevAllOutEpInterrupt(USB_OTG_GlobalTypeDef *USBx)
1354:Drivers/STM32F7xx_HAL_Driver/Src/stm32f7xx_ll_usb.c **** {
1355:Drivers/STM32F7xx_HAL_Driver/Src/stm32f7xx_ll_usb.c ****   uint32_t USBx_BASE = (uint32_t)USBx;
1356:Drivers/STM32F7xx_HAL_Driver/Src/stm32f7xx_ll_usb.c ****   uint32_t tmpreg;
1357:Drivers/STM32F7xx_HAL_Driver/Src/stm32f7xx_ll_usb.c **** 
1358:Drivers/STM32F7xx_HAL_Driver/Src/stm32f7xx_ll_usb.c ****   tmpreg  = USBx_DEVICE->DAINT;
1359:Drivers/STM32F7xx_HAL_Driver/Src/stm32f7xx_ll_usb.c ****   tmpreg &= USBx_DEVICE->DAINTMSK;
1360:Drivers/STM32F7xx_HAL_Driver/Src/stm32f7xx_ll_usb.c **** 
1361:Drivers/STM32F7xx_HAL_Driver/Src/stm32f7xx_ll_usb.c ****   return ((tmpreg & 0xffff0000U) >> 16);
1362:Drivers/STM32F7xx_HAL_Driver/Src/stm32f7xx_ll_usb.c **** }
1363:Drivers/STM32F7xx_HAL_Driver/Src/stm32f7xx_ll_usb.c **** 
1364:Drivers/STM32F7xx_HAL_Driver/Src/stm32f7xx_ll_usb.c **** /**
1365:Drivers/STM32F7xx_HAL_Driver/Src/stm32f7xx_ll_usb.c ****   * @brief  USB_ReadDevAllInEpInterrupt: return the USB device IN endpoints interrupt status
1366:Drivers/STM32F7xx_HAL_Driver/Src/stm32f7xx_ll_usb.c ****   * @param  USBx  Selected device
1367:Drivers/STM32F7xx_HAL_Driver/Src/stm32f7xx_ll_usb.c ****   * @retval USB Device IN EP interrupt status
1368:Drivers/STM32F7xx_HAL_Driver/Src/stm32f7xx_ll_usb.c ****   */
1369:Drivers/STM32F7xx_HAL_Driver/Src/stm32f7xx_ll_usb.c **** uint32_t USB_ReadDevAllInEpInterrupt(USB_OTG_GlobalTypeDef *USBx)
1370:Drivers/STM32F7xx_HAL_Driver/Src/stm32f7xx_ll_usb.c **** {
1371:Drivers/STM32F7xx_HAL_Driver/Src/stm32f7xx_ll_usb.c ****   uint32_t USBx_BASE = (uint32_t)USBx;
1372:Drivers/STM32F7xx_HAL_Driver/Src/stm32f7xx_ll_usb.c ****   uint32_t tmpreg;
1373:Drivers/STM32F7xx_HAL_Driver/Src/stm32f7xx_ll_usb.c **** 
1374:Drivers/STM32F7xx_HAL_Driver/Src/stm32f7xx_ll_usb.c ****   tmpreg  = USBx_DEVICE->DAINT;
1375:Drivers/STM32F7xx_HAL_Driver/Src/stm32f7xx_ll_usb.c ****   tmpreg &= USBx_DEVICE->DAINTMSK;
1376:Drivers/STM32F7xx_HAL_Driver/Src/stm32f7xx_ll_usb.c **** 
1377:Drivers/STM32F7xx_HAL_Driver/Src/stm32f7xx_ll_usb.c ****   return ((tmpreg & 0xFFFFU));
1378:Drivers/STM32F7xx_HAL_Driver/Src/stm32f7xx_ll_usb.c **** }
1379:Drivers/STM32F7xx_HAL_Driver/Src/stm32f7xx_ll_usb.c **** 
1380:Drivers/STM32F7xx_HAL_Driver/Src/stm32f7xx_ll_usb.c **** /**
1381:Drivers/STM32F7xx_HAL_Driver/Src/stm32f7xx_ll_usb.c ****   * @brief  Returns Device OUT EP Interrupt register
1382:Drivers/STM32F7xx_HAL_Driver/Src/stm32f7xx_ll_usb.c ****   * @param  USBx  Selected device
1383:Drivers/STM32F7xx_HAL_Driver/Src/stm32f7xx_ll_usb.c ****   * @param  epnum  endpoint number
1384:Drivers/STM32F7xx_HAL_Driver/Src/stm32f7xx_ll_usb.c ****   *          This parameter can be a value from 0 to 15
1385:Drivers/STM32F7xx_HAL_Driver/Src/stm32f7xx_ll_usb.c ****   * @retval Device OUT EP Interrupt register
1386:Drivers/STM32F7xx_HAL_Driver/Src/stm32f7xx_ll_usb.c ****   */
1387:Drivers/STM32F7xx_HAL_Driver/Src/stm32f7xx_ll_usb.c **** uint32_t USB_ReadDevOutEPInterrupt(USB_OTG_GlobalTypeDef *USBx, uint8_t epnum)
1388:Drivers/STM32F7xx_HAL_Driver/Src/stm32f7xx_ll_usb.c **** {
1389:Drivers/STM32F7xx_HAL_Driver/Src/stm32f7xx_ll_usb.c ****   uint32_t USBx_BASE = (uint32_t)USBx;
1390:Drivers/STM32F7xx_HAL_Driver/Src/stm32f7xx_ll_usb.c ****   uint32_t tmpreg;
1391:Drivers/STM32F7xx_HAL_Driver/Src/stm32f7xx_ll_usb.c **** 
1392:Drivers/STM32F7xx_HAL_Driver/Src/stm32f7xx_ll_usb.c ****   tmpreg  = USBx_OUTEP((uint32_t)epnum)->DOEPINT;
1393:Drivers/STM32F7xx_HAL_Driver/Src/stm32f7xx_ll_usb.c ****   tmpreg &= USBx_DEVICE->DOEPMSK;
1394:Drivers/STM32F7xx_HAL_Driver/Src/stm32f7xx_ll_usb.c **** 
1395:Drivers/STM32F7xx_HAL_Driver/Src/stm32f7xx_ll_usb.c ****   return tmpreg;
1396:Drivers/STM32F7xx_HAL_Driver/Src/stm32f7xx_ll_usb.c **** }
1397:Drivers/STM32F7xx_HAL_Driver/Src/stm32f7xx_ll_usb.c **** 
1398:Drivers/STM32F7xx_HAL_Driver/Src/stm32f7xx_ll_usb.c **** /**
ARM GAS  /tmp/cc8ZLjKA.s 			page 26


1399:Drivers/STM32F7xx_HAL_Driver/Src/stm32f7xx_ll_usb.c ****   * @brief  Returns Device IN EP Interrupt register
1400:Drivers/STM32F7xx_HAL_Driver/Src/stm32f7xx_ll_usb.c ****   * @param  USBx  Selected device
1401:Drivers/STM32F7xx_HAL_Driver/Src/stm32f7xx_ll_usb.c ****   * @param  epnum  endpoint number
1402:Drivers/STM32F7xx_HAL_Driver/Src/stm32f7xx_ll_usb.c ****   *          This parameter can be a value from 0 to 15
1403:Drivers/STM32F7xx_HAL_Driver/Src/stm32f7xx_ll_usb.c ****   * @retval Device IN EP Interrupt register
1404:Drivers/STM32F7xx_HAL_Driver/Src/stm32f7xx_ll_usb.c ****   */
1405:Drivers/STM32F7xx_HAL_Driver/Src/stm32f7xx_ll_usb.c **** uint32_t USB_ReadDevInEPInterrupt(USB_OTG_GlobalTypeDef *USBx, uint8_t epnum)
1406:Drivers/STM32F7xx_HAL_Driver/Src/stm32f7xx_ll_usb.c **** {
1407:Drivers/STM32F7xx_HAL_Driver/Src/stm32f7xx_ll_usb.c ****   uint32_t USBx_BASE = (uint32_t)USBx;
1408:Drivers/STM32F7xx_HAL_Driver/Src/stm32f7xx_ll_usb.c ****   uint32_t tmpreg;
1409:Drivers/STM32F7xx_HAL_Driver/Src/stm32f7xx_ll_usb.c ****   uint32_t msk;
1410:Drivers/STM32F7xx_HAL_Driver/Src/stm32f7xx_ll_usb.c ****   uint32_t emp;
1411:Drivers/STM32F7xx_HAL_Driver/Src/stm32f7xx_ll_usb.c **** 
1412:Drivers/STM32F7xx_HAL_Driver/Src/stm32f7xx_ll_usb.c ****   msk = USBx_DEVICE->DIEPMSK;
1413:Drivers/STM32F7xx_HAL_Driver/Src/stm32f7xx_ll_usb.c ****   emp = USBx_DEVICE->DIEPEMPMSK;
1414:Drivers/STM32F7xx_HAL_Driver/Src/stm32f7xx_ll_usb.c ****   msk |= ((emp >> (epnum & EP_ADDR_MSK)) & 0x1U) << 7;
1415:Drivers/STM32F7xx_HAL_Driver/Src/stm32f7xx_ll_usb.c ****   tmpreg = USBx_INEP((uint32_t)epnum)->DIEPINT & msk;
1416:Drivers/STM32F7xx_HAL_Driver/Src/stm32f7xx_ll_usb.c **** 
1417:Drivers/STM32F7xx_HAL_Driver/Src/stm32f7xx_ll_usb.c ****   return tmpreg;
1418:Drivers/STM32F7xx_HAL_Driver/Src/stm32f7xx_ll_usb.c **** }
1419:Drivers/STM32F7xx_HAL_Driver/Src/stm32f7xx_ll_usb.c **** 
1420:Drivers/STM32F7xx_HAL_Driver/Src/stm32f7xx_ll_usb.c **** /**
1421:Drivers/STM32F7xx_HAL_Driver/Src/stm32f7xx_ll_usb.c ****   * @brief  USB_ClearInterrupts: clear a USB interrupt
1422:Drivers/STM32F7xx_HAL_Driver/Src/stm32f7xx_ll_usb.c ****   * @param  USBx  Selected device
1423:Drivers/STM32F7xx_HAL_Driver/Src/stm32f7xx_ll_usb.c ****   * @param  interrupt  flag
1424:Drivers/STM32F7xx_HAL_Driver/Src/stm32f7xx_ll_usb.c ****   * @retval None
1425:Drivers/STM32F7xx_HAL_Driver/Src/stm32f7xx_ll_usb.c ****   */
1426:Drivers/STM32F7xx_HAL_Driver/Src/stm32f7xx_ll_usb.c **** void  USB_ClearInterrupts(USB_OTG_GlobalTypeDef *USBx, uint32_t interrupt)
1427:Drivers/STM32F7xx_HAL_Driver/Src/stm32f7xx_ll_usb.c **** {
1428:Drivers/STM32F7xx_HAL_Driver/Src/stm32f7xx_ll_usb.c ****   USBx->GINTSTS |= interrupt;
1429:Drivers/STM32F7xx_HAL_Driver/Src/stm32f7xx_ll_usb.c **** }
1430:Drivers/STM32F7xx_HAL_Driver/Src/stm32f7xx_ll_usb.c **** 
1431:Drivers/STM32F7xx_HAL_Driver/Src/stm32f7xx_ll_usb.c **** /**
1432:Drivers/STM32F7xx_HAL_Driver/Src/stm32f7xx_ll_usb.c ****   * @brief  Returns USB core mode
1433:Drivers/STM32F7xx_HAL_Driver/Src/stm32f7xx_ll_usb.c ****   * @param  USBx  Selected device
1434:Drivers/STM32F7xx_HAL_Driver/Src/stm32f7xx_ll_usb.c ****   * @retval return core mode : Host or Device
1435:Drivers/STM32F7xx_HAL_Driver/Src/stm32f7xx_ll_usb.c ****   *          This parameter can be one of these values:
1436:Drivers/STM32F7xx_HAL_Driver/Src/stm32f7xx_ll_usb.c ****   *           0 : Host
1437:Drivers/STM32F7xx_HAL_Driver/Src/stm32f7xx_ll_usb.c ****   *           1 : Device
1438:Drivers/STM32F7xx_HAL_Driver/Src/stm32f7xx_ll_usb.c ****   */
1439:Drivers/STM32F7xx_HAL_Driver/Src/stm32f7xx_ll_usb.c **** uint32_t USB_GetMode(USB_OTG_GlobalTypeDef *USBx)
1440:Drivers/STM32F7xx_HAL_Driver/Src/stm32f7xx_ll_usb.c **** {
1441:Drivers/STM32F7xx_HAL_Driver/Src/stm32f7xx_ll_usb.c ****   return ((USBx->GINTSTS) & 0x1U);
1442:Drivers/STM32F7xx_HAL_Driver/Src/stm32f7xx_ll_usb.c **** }
1443:Drivers/STM32F7xx_HAL_Driver/Src/stm32f7xx_ll_usb.c **** 
1444:Drivers/STM32F7xx_HAL_Driver/Src/stm32f7xx_ll_usb.c **** /**
1445:Drivers/STM32F7xx_HAL_Driver/Src/stm32f7xx_ll_usb.c ****   * @brief  Activate EP0 for Setup transactions
1446:Drivers/STM32F7xx_HAL_Driver/Src/stm32f7xx_ll_usb.c ****   * @param  USBx  Selected device
1447:Drivers/STM32F7xx_HAL_Driver/Src/stm32f7xx_ll_usb.c ****   * @retval HAL status
1448:Drivers/STM32F7xx_HAL_Driver/Src/stm32f7xx_ll_usb.c ****   */
1449:Drivers/STM32F7xx_HAL_Driver/Src/stm32f7xx_ll_usb.c **** HAL_StatusTypeDef USB_ActivateSetup(USB_OTG_GlobalTypeDef *USBx)
1450:Drivers/STM32F7xx_HAL_Driver/Src/stm32f7xx_ll_usb.c **** {
1451:Drivers/STM32F7xx_HAL_Driver/Src/stm32f7xx_ll_usb.c ****   uint32_t USBx_BASE = (uint32_t)USBx;
1452:Drivers/STM32F7xx_HAL_Driver/Src/stm32f7xx_ll_usb.c **** 
1453:Drivers/STM32F7xx_HAL_Driver/Src/stm32f7xx_ll_usb.c ****   /* Set the MPS of the IN EP0 to 64 bytes */
1454:Drivers/STM32F7xx_HAL_Driver/Src/stm32f7xx_ll_usb.c ****   USBx_INEP(0U)->DIEPCTL &= ~USB_OTG_DIEPCTL_MPSIZ;
1455:Drivers/STM32F7xx_HAL_Driver/Src/stm32f7xx_ll_usb.c **** 
ARM GAS  /tmp/cc8ZLjKA.s 			page 27


1456:Drivers/STM32F7xx_HAL_Driver/Src/stm32f7xx_ll_usb.c ****   USBx_DEVICE->DCTL |= USB_OTG_DCTL_CGINAK;
1457:Drivers/STM32F7xx_HAL_Driver/Src/stm32f7xx_ll_usb.c **** 
1458:Drivers/STM32F7xx_HAL_Driver/Src/stm32f7xx_ll_usb.c ****   return HAL_OK;
1459:Drivers/STM32F7xx_HAL_Driver/Src/stm32f7xx_ll_usb.c **** }
1460:Drivers/STM32F7xx_HAL_Driver/Src/stm32f7xx_ll_usb.c **** 
1461:Drivers/STM32F7xx_HAL_Driver/Src/stm32f7xx_ll_usb.c **** /**
1462:Drivers/STM32F7xx_HAL_Driver/Src/stm32f7xx_ll_usb.c ****   * @brief  Prepare the EP0 to start the first control setup
1463:Drivers/STM32F7xx_HAL_Driver/Src/stm32f7xx_ll_usb.c ****   * @param  USBx  Selected device
1464:Drivers/STM32F7xx_HAL_Driver/Src/stm32f7xx_ll_usb.c ****   * @param  dma USB dma enabled or disabled
1465:Drivers/STM32F7xx_HAL_Driver/Src/stm32f7xx_ll_usb.c ****   *          This parameter can be one of these values:
1466:Drivers/STM32F7xx_HAL_Driver/Src/stm32f7xx_ll_usb.c ****   *           0 : DMA feature not used
1467:Drivers/STM32F7xx_HAL_Driver/Src/stm32f7xx_ll_usb.c ****   *           1 : DMA feature used
1468:Drivers/STM32F7xx_HAL_Driver/Src/stm32f7xx_ll_usb.c ****   * @param  psetup  pointer to setup packet
1469:Drivers/STM32F7xx_HAL_Driver/Src/stm32f7xx_ll_usb.c ****   * @retval HAL status
1470:Drivers/STM32F7xx_HAL_Driver/Src/stm32f7xx_ll_usb.c ****   */
1471:Drivers/STM32F7xx_HAL_Driver/Src/stm32f7xx_ll_usb.c **** HAL_StatusTypeDef USB_EP0_OutStart(USB_OTG_GlobalTypeDef *USBx, uint8_t dma, uint8_t *psetup)
1472:Drivers/STM32F7xx_HAL_Driver/Src/stm32f7xx_ll_usb.c **** {
1473:Drivers/STM32F7xx_HAL_Driver/Src/stm32f7xx_ll_usb.c ****   uint32_t USBx_BASE = (uint32_t)USBx;
1474:Drivers/STM32F7xx_HAL_Driver/Src/stm32f7xx_ll_usb.c ****   uint32_t gSNPSiD = *(__IO uint32_t *)(&USBx->CID + 0x1U);
1475:Drivers/STM32F7xx_HAL_Driver/Src/stm32f7xx_ll_usb.c **** 
1476:Drivers/STM32F7xx_HAL_Driver/Src/stm32f7xx_ll_usb.c ****   if (gSNPSiD > USB_OTG_CORE_ID_300A)
1477:Drivers/STM32F7xx_HAL_Driver/Src/stm32f7xx_ll_usb.c ****   {
1478:Drivers/STM32F7xx_HAL_Driver/Src/stm32f7xx_ll_usb.c ****     if ((USBx_OUTEP(0U)->DOEPCTL & USB_OTG_DOEPCTL_EPENA) == USB_OTG_DOEPCTL_EPENA)
1479:Drivers/STM32F7xx_HAL_Driver/Src/stm32f7xx_ll_usb.c ****     {
1480:Drivers/STM32F7xx_HAL_Driver/Src/stm32f7xx_ll_usb.c ****       return HAL_OK;
1481:Drivers/STM32F7xx_HAL_Driver/Src/stm32f7xx_ll_usb.c ****     }
1482:Drivers/STM32F7xx_HAL_Driver/Src/stm32f7xx_ll_usb.c ****   }
1483:Drivers/STM32F7xx_HAL_Driver/Src/stm32f7xx_ll_usb.c **** 
1484:Drivers/STM32F7xx_HAL_Driver/Src/stm32f7xx_ll_usb.c ****   USBx_OUTEP(0U)->DOEPTSIZ = 0U;
1485:Drivers/STM32F7xx_HAL_Driver/Src/stm32f7xx_ll_usb.c ****   USBx_OUTEP(0U)->DOEPTSIZ |= (USB_OTG_DOEPTSIZ_PKTCNT & (1U << 19));
1486:Drivers/STM32F7xx_HAL_Driver/Src/stm32f7xx_ll_usb.c ****   USBx_OUTEP(0U)->DOEPTSIZ |= (3U * 8U);
1487:Drivers/STM32F7xx_HAL_Driver/Src/stm32f7xx_ll_usb.c ****   USBx_OUTEP(0U)->DOEPTSIZ |=  USB_OTG_DOEPTSIZ_STUPCNT;
1488:Drivers/STM32F7xx_HAL_Driver/Src/stm32f7xx_ll_usb.c **** 
1489:Drivers/STM32F7xx_HAL_Driver/Src/stm32f7xx_ll_usb.c ****   if (dma == 1U)
1490:Drivers/STM32F7xx_HAL_Driver/Src/stm32f7xx_ll_usb.c ****   {
1491:Drivers/STM32F7xx_HAL_Driver/Src/stm32f7xx_ll_usb.c ****     USBx_OUTEP(0U)->DOEPDMA = (uint32_t)psetup;
1492:Drivers/STM32F7xx_HAL_Driver/Src/stm32f7xx_ll_usb.c ****     /* EP enable */
1493:Drivers/STM32F7xx_HAL_Driver/Src/stm32f7xx_ll_usb.c ****     USBx_OUTEP(0U)->DOEPCTL |= USB_OTG_DOEPCTL_EPENA | USB_OTG_DOEPCTL_USBAEP;
1494:Drivers/STM32F7xx_HAL_Driver/Src/stm32f7xx_ll_usb.c ****   }
1495:Drivers/STM32F7xx_HAL_Driver/Src/stm32f7xx_ll_usb.c **** 
1496:Drivers/STM32F7xx_HAL_Driver/Src/stm32f7xx_ll_usb.c ****   return HAL_OK;
1497:Drivers/STM32F7xx_HAL_Driver/Src/stm32f7xx_ll_usb.c **** }
1498:Drivers/STM32F7xx_HAL_Driver/Src/stm32f7xx_ll_usb.c **** 
1499:Drivers/STM32F7xx_HAL_Driver/Src/stm32f7xx_ll_usb.c **** /**
1500:Drivers/STM32F7xx_HAL_Driver/Src/stm32f7xx_ll_usb.c ****   * @brief  Reset the USB Core (needed after USB clock settings change)
1501:Drivers/STM32F7xx_HAL_Driver/Src/stm32f7xx_ll_usb.c ****   * @param  USBx  Selected device
1502:Drivers/STM32F7xx_HAL_Driver/Src/stm32f7xx_ll_usb.c ****   * @retval HAL status
1503:Drivers/STM32F7xx_HAL_Driver/Src/stm32f7xx_ll_usb.c ****   */
1504:Drivers/STM32F7xx_HAL_Driver/Src/stm32f7xx_ll_usb.c **** static HAL_StatusTypeDef USB_CoreReset(USB_OTG_GlobalTypeDef *USBx)
1505:Drivers/STM32F7xx_HAL_Driver/Src/stm32f7xx_ll_usb.c **** {
  29              		.loc 1 1505 1 view -0
  30              		.cfi_startproc
  31              		@ args = 0, pretend = 0, frame = 8
  32              		@ frame_needed = 0, uses_anonymous_args = 0
  33              		@ link register save eliminated.
  34              		.loc 1 1505 1 is_stmt 0 view .LVU1
  35 0000 82B0     		sub	sp, sp, #8
ARM GAS  /tmp/cc8ZLjKA.s 			page 28


  36              		.cfi_def_cfa_offset 8
1506:Drivers/STM32F7xx_HAL_Driver/Src/stm32f7xx_ll_usb.c ****   __IO uint32_t count = 0U;
  37              		.loc 1 1506 3 is_stmt 1 view .LVU2
  38              		.loc 1 1506 17 is_stmt 0 view .LVU3
  39 0002 0023     		movs	r3, #0
  40 0004 0193     		str	r3, [sp, #4]
  41              	.L3:
1507:Drivers/STM32F7xx_HAL_Driver/Src/stm32f7xx_ll_usb.c **** 
1508:Drivers/STM32F7xx_HAL_Driver/Src/stm32f7xx_ll_usb.c ****   /* Wait for AHB master IDLE state. */
1509:Drivers/STM32F7xx_HAL_Driver/Src/stm32f7xx_ll_usb.c ****   do
  42              		.loc 1 1509 3 is_stmt 1 view .LVU4
1510:Drivers/STM32F7xx_HAL_Driver/Src/stm32f7xx_ll_usb.c ****   {
1511:Drivers/STM32F7xx_HAL_Driver/Src/stm32f7xx_ll_usb.c ****     count++;
  43              		.loc 1 1511 5 view .LVU5
  44              		.loc 1 1511 10 is_stmt 0 view .LVU6
  45 0006 019B     		ldr	r3, [sp, #4]
  46 0008 0133     		adds	r3, r3, #1
  47 000a 0193     		str	r3, [sp, #4]
1512:Drivers/STM32F7xx_HAL_Driver/Src/stm32f7xx_ll_usb.c **** 
1513:Drivers/STM32F7xx_HAL_Driver/Src/stm32f7xx_ll_usb.c ****     if (count > 200000U)
  48              		.loc 1 1513 5 is_stmt 1 view .LVU7
  49              		.loc 1 1513 15 is_stmt 0 view .LVU8
  50 000c 019A     		ldr	r2, [sp, #4]
  51              		.loc 1 1513 8 view .LVU9
  52 000e 0F4B     		ldr	r3, .L8
  53 0010 9A42     		cmp	r2, r3
  54 0012 15D8     		bhi	.L5
1514:Drivers/STM32F7xx_HAL_Driver/Src/stm32f7xx_ll_usb.c ****     {
1515:Drivers/STM32F7xx_HAL_Driver/Src/stm32f7xx_ll_usb.c ****       return HAL_TIMEOUT;
1516:Drivers/STM32F7xx_HAL_Driver/Src/stm32f7xx_ll_usb.c ****     }
1517:Drivers/STM32F7xx_HAL_Driver/Src/stm32f7xx_ll_usb.c ****   } while ((USBx->GRSTCTL & USB_OTG_GRSTCTL_AHBIDL) == 0U);
  55              		.loc 1 1517 53 is_stmt 1 view .LVU10
  56              		.loc 1 1517 17 is_stmt 0 view .LVU11
  57 0014 0369     		ldr	r3, [r0, #16]
  58              		.loc 1 1517 53 view .LVU12
  59 0016 002B     		cmp	r3, #0
  60 0018 F5DA     		bge	.L3
1518:Drivers/STM32F7xx_HAL_Driver/Src/stm32f7xx_ll_usb.c **** 
1519:Drivers/STM32F7xx_HAL_Driver/Src/stm32f7xx_ll_usb.c ****   /* Core Soft Reset */
1520:Drivers/STM32F7xx_HAL_Driver/Src/stm32f7xx_ll_usb.c ****   count = 0U;
  61              		.loc 1 1520 3 is_stmt 1 view .LVU13
  62              		.loc 1 1520 9 is_stmt 0 view .LVU14
  63 001a 0023     		movs	r3, #0
  64 001c 0193     		str	r3, [sp, #4]
1521:Drivers/STM32F7xx_HAL_Driver/Src/stm32f7xx_ll_usb.c ****   USBx->GRSTCTL |= USB_OTG_GRSTCTL_CSRST;
  65              		.loc 1 1521 3 is_stmt 1 view .LVU15
  66              		.loc 1 1521 7 is_stmt 0 view .LVU16
  67 001e 0369     		ldr	r3, [r0, #16]
  68              		.loc 1 1521 17 view .LVU17
  69 0020 43F00103 		orr	r3, r3, #1
  70 0024 0361     		str	r3, [r0, #16]
  71              	.L4:
1522:Drivers/STM32F7xx_HAL_Driver/Src/stm32f7xx_ll_usb.c **** 
1523:Drivers/STM32F7xx_HAL_Driver/Src/stm32f7xx_ll_usb.c ****   do
  72              		.loc 1 1523 3 is_stmt 1 view .LVU18
1524:Drivers/STM32F7xx_HAL_Driver/Src/stm32f7xx_ll_usb.c ****   {
1525:Drivers/STM32F7xx_HAL_Driver/Src/stm32f7xx_ll_usb.c ****     count++;
ARM GAS  /tmp/cc8ZLjKA.s 			page 29


  73              		.loc 1 1525 5 view .LVU19
  74              		.loc 1 1525 10 is_stmt 0 view .LVU20
  75 0026 019B     		ldr	r3, [sp, #4]
  76 0028 0133     		adds	r3, r3, #1
  77 002a 0193     		str	r3, [sp, #4]
1526:Drivers/STM32F7xx_HAL_Driver/Src/stm32f7xx_ll_usb.c **** 
1527:Drivers/STM32F7xx_HAL_Driver/Src/stm32f7xx_ll_usb.c ****     if (count > 200000U)
  78              		.loc 1 1527 5 is_stmt 1 view .LVU21
  79              		.loc 1 1527 15 is_stmt 0 view .LVU22
  80 002c 019A     		ldr	r2, [sp, #4]
  81              		.loc 1 1527 8 view .LVU23
  82 002e 074B     		ldr	r3, .L8
  83 0030 9A42     		cmp	r2, r3
  84 0032 08D8     		bhi	.L6
1528:Drivers/STM32F7xx_HAL_Driver/Src/stm32f7xx_ll_usb.c ****     {
1529:Drivers/STM32F7xx_HAL_Driver/Src/stm32f7xx_ll_usb.c ****       return HAL_TIMEOUT;
1530:Drivers/STM32F7xx_HAL_Driver/Src/stm32f7xx_ll_usb.c ****     }
1531:Drivers/STM32F7xx_HAL_Driver/Src/stm32f7xx_ll_usb.c ****   } while ((USBx->GRSTCTL & USB_OTG_GRSTCTL_CSRST) == USB_OTG_GRSTCTL_CSRST);
  85              		.loc 1 1531 52 is_stmt 1 view .LVU24
  86              		.loc 1 1531 17 is_stmt 0 view .LVU25
  87 0034 0369     		ldr	r3, [r0, #16]
  88              		.loc 1 1531 52 view .LVU26
  89 0036 13F0010F 		tst	r3, #1
  90 003a F4D1     		bne	.L4
1532:Drivers/STM32F7xx_HAL_Driver/Src/stm32f7xx_ll_usb.c **** 
1533:Drivers/STM32F7xx_HAL_Driver/Src/stm32f7xx_ll_usb.c ****   return HAL_OK;
  91              		.loc 1 1533 10 view .LVU27
  92 003c 0020     		movs	r0, #0
  93              	.LVL1:
  94              		.loc 1 1533 10 view .LVU28
  95 003e 00E0     		b	.L2
  96              	.LVL2:
  97              	.L5:
1515:Drivers/STM32F7xx_HAL_Driver/Src/stm32f7xx_ll_usb.c ****     }
  98              		.loc 1 1515 14 view .LVU29
  99 0040 0320     		movs	r0, #3
 100              	.LVL3:
 101              	.L2:
1534:Drivers/STM32F7xx_HAL_Driver/Src/stm32f7xx_ll_usb.c **** }
 102              		.loc 1 1534 1 view .LVU30
 103 0042 02B0     		add	sp, sp, #8
 104              		.cfi_remember_state
 105              		.cfi_def_cfa_offset 0
 106              		@ sp needed
 107 0044 7047     		bx	lr
 108              	.LVL4:
 109              	.L6:
 110              		.cfi_restore_state
1529:Drivers/STM32F7xx_HAL_Driver/Src/stm32f7xx_ll_usb.c ****     }
 111              		.loc 1 1529 14 view .LVU31
 112 0046 0320     		movs	r0, #3
 113              	.LVL5:
1529:Drivers/STM32F7xx_HAL_Driver/Src/stm32f7xx_ll_usb.c ****     }
 114              		.loc 1 1529 14 view .LVU32
 115 0048 FBE7     		b	.L2
 116              	.L9:
 117 004a 00BF     		.align	2
ARM GAS  /tmp/cc8ZLjKA.s 			page 30


 118              	.L8:
 119 004c 400D0300 		.word	200000
 120              		.cfi_endproc
 121              	.LFE176:
 123              		.section	.text.USB_HS_PHYCInit,"ax",%progbits
 124              		.align	1
 125              		.syntax unified
 126              		.thumb
 127              		.thumb_func
 129              	USB_HS_PHYCInit:
 130              	.LVL6:
 131              	.LFB177:
1535:Drivers/STM32F7xx_HAL_Driver/Src/stm32f7xx_ll_usb.c **** 
1536:Drivers/STM32F7xx_HAL_Driver/Src/stm32f7xx_ll_usb.c **** #ifdef USBPHYC
1537:Drivers/STM32F7xx_HAL_Driver/Src/stm32f7xx_ll_usb.c **** /**
1538:Drivers/STM32F7xx_HAL_Driver/Src/stm32f7xx_ll_usb.c ****   * @brief  Enables control of a High Speed USB PHY
1539:Drivers/STM32F7xx_HAL_Driver/Src/stm32f7xx_ll_usb.c ****   *         Init the low level hardware : GPIO, CLOCK, NVIC...
1540:Drivers/STM32F7xx_HAL_Driver/Src/stm32f7xx_ll_usb.c ****   * @param  USBx  Selected device
1541:Drivers/STM32F7xx_HAL_Driver/Src/stm32f7xx_ll_usb.c ****   * @retval HAL status
1542:Drivers/STM32F7xx_HAL_Driver/Src/stm32f7xx_ll_usb.c ****   */
1543:Drivers/STM32F7xx_HAL_Driver/Src/stm32f7xx_ll_usb.c **** static HAL_StatusTypeDef USB_HS_PHYCInit(USB_OTG_GlobalTypeDef *USBx)
1544:Drivers/STM32F7xx_HAL_Driver/Src/stm32f7xx_ll_usb.c **** {
 132              		.loc 1 1544 1 is_stmt 1 view -0
 133              		.cfi_startproc
 134              		@ args = 0, pretend = 0, frame = 8
 135              		@ frame_needed = 0, uses_anonymous_args = 0
 136              		.loc 1 1544 1 is_stmt 0 view .LVU34
 137 0000 00B5     		push	{lr}
 138              		.cfi_def_cfa_offset 4
 139              		.cfi_offset 14, -4
 140 0002 83B0     		sub	sp, sp, #12
 141              		.cfi_def_cfa_offset 16
1545:Drivers/STM32F7xx_HAL_Driver/Src/stm32f7xx_ll_usb.c ****   UNUSED(USBx);
 142              		.loc 1 1545 3 is_stmt 1 view .LVU35
1546:Drivers/STM32F7xx_HAL_Driver/Src/stm32f7xx_ll_usb.c ****   __IO uint32_t count = 0U;
 143              		.loc 1 1546 3 view .LVU36
 144              		.loc 1 1546 17 is_stmt 0 view .LVU37
 145 0004 0023     		movs	r3, #0
 146 0006 0193     		str	r3, [sp, #4]
1547:Drivers/STM32F7xx_HAL_Driver/Src/stm32f7xx_ll_usb.c **** 
1548:Drivers/STM32F7xx_HAL_Driver/Src/stm32f7xx_ll_usb.c ****   /* Enable LDO */
1549:Drivers/STM32F7xx_HAL_Driver/Src/stm32f7xx_ll_usb.c ****   USB_HS_PHYC->USB_HS_PHYC_LDO |= USB_HS_PHYC_LDO_ENABLE;
 147              		.loc 1 1549 3 is_stmt 1 view .LVU38
 148              		.loc 1 1549 14 is_stmt 0 view .LVU39
 149 0008 124A     		ldr	r2, .L17
 150 000a 9369     		ldr	r3, [r2, #24]
 151              		.loc 1 1549 32 view .LVU40
 152 000c 43F00403 		orr	r3, r3, #4
 153 0010 9361     		str	r3, [r2, #24]
1550:Drivers/STM32F7xx_HAL_Driver/Src/stm32f7xx_ll_usb.c **** 
1551:Drivers/STM32F7xx_HAL_Driver/Src/stm32f7xx_ll_usb.c ****   /* wait for LDO Ready */
1552:Drivers/STM32F7xx_HAL_Driver/Src/stm32f7xx_ll_usb.c ****   while ((USB_HS_PHYC->USB_HS_PHYC_LDO & USB_HS_PHYC_LDO_STATUS) == 0U)
 154              		.loc 1 1552 3 is_stmt 1 view .LVU41
 155              	.L11:
 156              		.loc 1 1552 66 view .LVU42
 157              		.loc 1 1552 22 is_stmt 0 view .LVU43
 158 0012 104B     		ldr	r3, .L17
ARM GAS  /tmp/cc8ZLjKA.s 			page 31


 159 0014 9B69     		ldr	r3, [r3, #24]
 160              		.loc 1 1552 66 view .LVU44
 161 0016 13F0020F 		tst	r3, #2
 162 001a 08D1     		bne	.L16
1553:Drivers/STM32F7xx_HAL_Driver/Src/stm32f7xx_ll_usb.c ****   {
1554:Drivers/STM32F7xx_HAL_Driver/Src/stm32f7xx_ll_usb.c ****     count++;
 163              		.loc 1 1554 5 is_stmt 1 view .LVU45
 164              		.loc 1 1554 10 is_stmt 0 view .LVU46
 165 001c 019B     		ldr	r3, [sp, #4]
 166 001e 0133     		adds	r3, r3, #1
 167 0020 0193     		str	r3, [sp, #4]
1555:Drivers/STM32F7xx_HAL_Driver/Src/stm32f7xx_ll_usb.c **** 
1556:Drivers/STM32F7xx_HAL_Driver/Src/stm32f7xx_ll_usb.c ****     if (count > 200000U)
 168              		.loc 1 1556 5 is_stmt 1 view .LVU47
 169              		.loc 1 1556 15 is_stmt 0 view .LVU48
 170 0022 019A     		ldr	r2, [sp, #4]
 171              		.loc 1 1556 8 view .LVU49
 172 0024 0C4B     		ldr	r3, .L17+4
 173 0026 9A42     		cmp	r2, r3
 174 0028 F3D9     		bls	.L11
1557:Drivers/STM32F7xx_HAL_Driver/Src/stm32f7xx_ll_usb.c ****     {
1558:Drivers/STM32F7xx_HAL_Driver/Src/stm32f7xx_ll_usb.c ****       return HAL_TIMEOUT;
 175              		.loc 1 1558 14 view .LVU50
 176 002a 0320     		movs	r0, #3
 177              	.LVL7:
 178              		.loc 1 1558 14 view .LVU51
 179 002c 0FE0     		b	.L12
 180              	.LVL8:
 181              	.L16:
1559:Drivers/STM32F7xx_HAL_Driver/Src/stm32f7xx_ll_usb.c ****     }
1560:Drivers/STM32F7xx_HAL_Driver/Src/stm32f7xx_ll_usb.c ****   }
1561:Drivers/STM32F7xx_HAL_Driver/Src/stm32f7xx_ll_usb.c **** 
1562:Drivers/STM32F7xx_HAL_Driver/Src/stm32f7xx_ll_usb.c ****   /* Controls PHY frequency operation selection */
1563:Drivers/STM32F7xx_HAL_Driver/Src/stm32f7xx_ll_usb.c ****   if (HSE_VALUE == 12000000U) /* HSE = 12MHz */
 182              		.loc 1 1563 3 is_stmt 1 view .LVU52
1564:Drivers/STM32F7xx_HAL_Driver/Src/stm32f7xx_ll_usb.c ****   {
1565:Drivers/STM32F7xx_HAL_Driver/Src/stm32f7xx_ll_usb.c ****     USB_HS_PHYC->USB_HS_PHYC_PLL = (0x0U << 1);
1566:Drivers/STM32F7xx_HAL_Driver/Src/stm32f7xx_ll_usb.c ****   }
1567:Drivers/STM32F7xx_HAL_Driver/Src/stm32f7xx_ll_usb.c ****   else if (HSE_VALUE == 12500000U) /* HSE = 12.5MHz */
 183              		.loc 1 1567 8 view .LVU53
1568:Drivers/STM32F7xx_HAL_Driver/Src/stm32f7xx_ll_usb.c ****   {
1569:Drivers/STM32F7xx_HAL_Driver/Src/stm32f7xx_ll_usb.c ****     USB_HS_PHYC->USB_HS_PHYC_PLL = (0x2U << 1);
1570:Drivers/STM32F7xx_HAL_Driver/Src/stm32f7xx_ll_usb.c ****   }
1571:Drivers/STM32F7xx_HAL_Driver/Src/stm32f7xx_ll_usb.c ****   else if (HSE_VALUE == 16000000U) /* HSE = 16MHz */
 184              		.loc 1 1571 8 view .LVU54
1572:Drivers/STM32F7xx_HAL_Driver/Src/stm32f7xx_ll_usb.c ****   {
1573:Drivers/STM32F7xx_HAL_Driver/Src/stm32f7xx_ll_usb.c ****     USB_HS_PHYC->USB_HS_PHYC_PLL = (0x3U << 1);
1574:Drivers/STM32F7xx_HAL_Driver/Src/stm32f7xx_ll_usb.c ****   }
1575:Drivers/STM32F7xx_HAL_Driver/Src/stm32f7xx_ll_usb.c ****   else if (HSE_VALUE == 24000000U) /* HSE = 24MHz */
 185              		.loc 1 1575 8 view .LVU55
1576:Drivers/STM32F7xx_HAL_Driver/Src/stm32f7xx_ll_usb.c ****   {
1577:Drivers/STM32F7xx_HAL_Driver/Src/stm32f7xx_ll_usb.c ****     USB_HS_PHYC->USB_HS_PHYC_PLL = (0x4U << 1);
1578:Drivers/STM32F7xx_HAL_Driver/Src/stm32f7xx_ll_usb.c ****   }
1579:Drivers/STM32F7xx_HAL_Driver/Src/stm32f7xx_ll_usb.c ****   else if (HSE_VALUE == 25000000U) /* HSE = 25MHz */
 186              		.loc 1 1579 8 view .LVU56
1580:Drivers/STM32F7xx_HAL_Driver/Src/stm32f7xx_ll_usb.c ****   {
1581:Drivers/STM32F7xx_HAL_Driver/Src/stm32f7xx_ll_usb.c ****     USB_HS_PHYC->USB_HS_PHYC_PLL = (0x5U << 1);
ARM GAS  /tmp/cc8ZLjKA.s 			page 32


 187              		.loc 1 1581 5 view .LVU57
 188              		.loc 1 1581 34 is_stmt 0 view .LVU58
 189 002e 094B     		ldr	r3, .L17
 190 0030 0A22     		movs	r2, #10
 191 0032 1A60     		str	r2, [r3]
1582:Drivers/STM32F7xx_HAL_Driver/Src/stm32f7xx_ll_usb.c ****   }
1583:Drivers/STM32F7xx_HAL_Driver/Src/stm32f7xx_ll_usb.c ****   else if (HSE_VALUE == 32000000U) /* HSE = 32MHz */
1584:Drivers/STM32F7xx_HAL_Driver/Src/stm32f7xx_ll_usb.c ****   {
1585:Drivers/STM32F7xx_HAL_Driver/Src/stm32f7xx_ll_usb.c ****     USB_HS_PHYC->USB_HS_PHYC_PLL = (0x7U << 1);
1586:Drivers/STM32F7xx_HAL_Driver/Src/stm32f7xx_ll_usb.c ****   }
1587:Drivers/STM32F7xx_HAL_Driver/Src/stm32f7xx_ll_usb.c ****   else
1588:Drivers/STM32F7xx_HAL_Driver/Src/stm32f7xx_ll_usb.c ****   {
1589:Drivers/STM32F7xx_HAL_Driver/Src/stm32f7xx_ll_usb.c ****     /* ... */
1590:Drivers/STM32F7xx_HAL_Driver/Src/stm32f7xx_ll_usb.c ****   }
 192              		.loc 1 1590 3 is_stmt 1 view .LVU59
1591:Drivers/STM32F7xx_HAL_Driver/Src/stm32f7xx_ll_usb.c **** 
1592:Drivers/STM32F7xx_HAL_Driver/Src/stm32f7xx_ll_usb.c ****   /* Control the tuning interface of the High Speed PHY */
1593:Drivers/STM32F7xx_HAL_Driver/Src/stm32f7xx_ll_usb.c ****   USB_HS_PHYC->USB_HS_PHYC_TUNE |= USB_HS_PHYC_TUNE_VALUE;
 193              		.loc 1 1593 3 view .LVU60
 194              		.loc 1 1593 14 is_stmt 0 view .LVU61
 195 0034 D968     		ldr	r1, [r3, #12]
 196              		.loc 1 1593 33 view .LVU62
 197 0036 40F61372 		movw	r2, #3859
 198 003a 0A43     		orrs	r2, r2, r1
 199 003c DA60     		str	r2, [r3, #12]
1594:Drivers/STM32F7xx_HAL_Driver/Src/stm32f7xx_ll_usb.c **** 
1595:Drivers/STM32F7xx_HAL_Driver/Src/stm32f7xx_ll_usb.c ****   /* Enable PLL internal PHY */
1596:Drivers/STM32F7xx_HAL_Driver/Src/stm32f7xx_ll_usb.c ****   USB_HS_PHYC->USB_HS_PHYC_PLL |= USB_HS_PHYC_PLL_PLLEN;
 200              		.loc 1 1596 3 is_stmt 1 view .LVU63
 201              		.loc 1 1596 14 is_stmt 0 view .LVU64
 202 003e 1A68     		ldr	r2, [r3]
 203              		.loc 1 1596 32 view .LVU65
 204 0040 42F00102 		orr	r2, r2, #1
 205 0044 1A60     		str	r2, [r3]
1597:Drivers/STM32F7xx_HAL_Driver/Src/stm32f7xx_ll_usb.c **** 
1598:Drivers/STM32F7xx_HAL_Driver/Src/stm32f7xx_ll_usb.c **** 
1599:Drivers/STM32F7xx_HAL_Driver/Src/stm32f7xx_ll_usb.c ****   /* 2ms Delay required to get internal phy clock stable */
1600:Drivers/STM32F7xx_HAL_Driver/Src/stm32f7xx_ll_usb.c ****   HAL_Delay(2U);
 206              		.loc 1 1600 3 is_stmt 1 view .LVU66
 207 0046 0220     		movs	r0, #2
 208              	.LVL9:
 209              		.loc 1 1600 3 is_stmt 0 view .LVU67
 210 0048 FFF7FEFF 		bl	HAL_Delay
 211              	.LVL10:
1601:Drivers/STM32F7xx_HAL_Driver/Src/stm32f7xx_ll_usb.c **** 
1602:Drivers/STM32F7xx_HAL_Driver/Src/stm32f7xx_ll_usb.c ****   return HAL_OK;
 212              		.loc 1 1602 3 is_stmt 1 view .LVU68
 213              		.loc 1 1602 10 is_stmt 0 view .LVU69
 214 004c 0020     		movs	r0, #0
 215              	.L12:
1603:Drivers/STM32F7xx_HAL_Driver/Src/stm32f7xx_ll_usb.c **** }
 216              		.loc 1 1603 1 view .LVU70
 217 004e 03B0     		add	sp, sp, #12
 218              		.cfi_def_cfa_offset 4
 219              		@ sp needed
 220 0050 5DF804FB 		ldr	pc, [sp], #4
 221              	.L18:
ARM GAS  /tmp/cc8ZLjKA.s 			page 33


 222              		.align	2
 223              	.L17:
 224 0054 007C0140 		.word	1073839104
 225 0058 400D0300 		.word	200000
 226              		.cfi_endproc
 227              	.LFE177:
 229              		.section	.text.USB_CoreInit,"ax",%progbits
 230              		.align	1
 231              		.global	USB_CoreInit
 232              		.syntax unified
 233              		.thumb
 234              		.thumb_func
 236              	USB_CoreInit:
 237              	.LVL11:
 238              	.LFB141:
  87:Drivers/STM32F7xx_HAL_Driver/Src/stm32f7xx_ll_usb.c ****   HAL_StatusTypeDef ret;
 239              		.loc 1 87 1 is_stmt 1 view -0
 240              		.cfi_startproc
 241              		@ args = 56, pretend = 16, frame = 0
 242              		@ frame_needed = 0, uses_anonymous_args = 0
  87:Drivers/STM32F7xx_HAL_Driver/Src/stm32f7xx_ll_usb.c ****   HAL_StatusTypeDef ret;
 243              		.loc 1 87 1 is_stmt 0 view .LVU72
 244 0000 84B0     		sub	sp, sp, #16
 245              		.cfi_def_cfa_offset 16
 246 0002 10B5     		push	{r4, lr}
 247              		.cfi_def_cfa_offset 24
 248              		.cfi_offset 4, -24
 249              		.cfi_offset 14, -20
 250 0004 0446     		mov	r4, r0
 251 0006 03A8     		add	r0, sp, #12
 252              	.LVL12:
  87:Drivers/STM32F7xx_HAL_Driver/Src/stm32f7xx_ll_usb.c ****   HAL_StatusTypeDef ret;
 253              		.loc 1 87 1 view .LVU73
 254 0008 80E80E00 		stm	r0, {r1, r2, r3}
  88:Drivers/STM32F7xx_HAL_Driver/Src/stm32f7xx_ll_usb.c **** 
 255              		.loc 1 88 3 is_stmt 1 view .LVU74
  90:Drivers/STM32F7xx_HAL_Driver/Src/stm32f7xx_ll_usb.c ****   {
 256              		.loc 1 90 3 view .LVU75
  90:Drivers/STM32F7xx_HAL_Driver/Src/stm32f7xx_ll_usb.c ****   {
 257              		.loc 1 90 10 is_stmt 0 view .LVU76
 258 000c 089B     		ldr	r3, [sp, #32]
  90:Drivers/STM32F7xx_HAL_Driver/Src/stm32f7xx_ll_usb.c ****   {
 259              		.loc 1 90 6 view .LVU77
 260 000e 012B     		cmp	r3, #1
 261 0010 13D0     		beq	.L28
 113:Drivers/STM32F7xx_HAL_Driver/Src/stm32f7xx_ll_usb.c ****   {
 262              		.loc 1 113 8 is_stmt 1 view .LVU78
 113:Drivers/STM32F7xx_HAL_Driver/Src/stm32f7xx_ll_usb.c ****   {
 263              		.loc 1 113 11 is_stmt 0 view .LVU79
 264 0012 032B     		cmp	r3, #3
 265 0014 2DD0     		beq	.L29
 148:Drivers/STM32F7xx_HAL_Driver/Src/stm32f7xx_ll_usb.c **** 
 266              		.loc 1 148 5 is_stmt 1 view .LVU80
 148:Drivers/STM32F7xx_HAL_Driver/Src/stm32f7xx_ll_usb.c **** 
 267              		.loc 1 148 9 is_stmt 0 view .LVU81
 268 0016 E368     		ldr	r3, [r4, #12]
 148:Drivers/STM32F7xx_HAL_Driver/Src/stm32f7xx_ll_usb.c **** 
ARM GAS  /tmp/cc8ZLjKA.s 			page 34


 269              		.loc 1 148 19 view .LVU82
 270 0018 43F04003 		orr	r3, r3, #64
 271 001c E360     		str	r3, [r4, #12]
 151:Drivers/STM32F7xx_HAL_Driver/Src/stm32f7xx_ll_usb.c **** 
 272              		.loc 1 151 5 is_stmt 1 view .LVU83
 151:Drivers/STM32F7xx_HAL_Driver/Src/stm32f7xx_ll_usb.c **** 
 273              		.loc 1 151 11 is_stmt 0 view .LVU84
 274 001e 2046     		mov	r0, r4
 275 0020 FFF7FEFF 		bl	USB_CoreReset
 276              	.LVL13:
 154:Drivers/STM32F7xx_HAL_Driver/Src/stm32f7xx_ll_usb.c ****   }
 277              		.loc 1 154 5 is_stmt 1 view .LVU85
 154:Drivers/STM32F7xx_HAL_Driver/Src/stm32f7xx_ll_usb.c ****   }
 278              		.loc 1 154 9 is_stmt 0 view .LVU86
 279 0024 A36B     		ldr	r3, [r4, #56]
 154:Drivers/STM32F7xx_HAL_Driver/Src/stm32f7xx_ll_usb.c ****   }
 280              		.loc 1 154 17 view .LVU87
 281 0026 43F48033 		orr	r3, r3, #65536
 282 002a A363     		str	r3, [r4, #56]
 283              	.L22:
 157:Drivers/STM32F7xx_HAL_Driver/Src/stm32f7xx_ll_usb.c ****   {
 284              		.loc 1 157 3 is_stmt 1 view .LVU88
 157:Drivers/STM32F7xx_HAL_Driver/Src/stm32f7xx_ll_usb.c ****   {
 285              		.loc 1 157 10 is_stmt 0 view .LVU89
 286 002c 069B     		ldr	r3, [sp, #24]
 157:Drivers/STM32F7xx_HAL_Driver/Src/stm32f7xx_ll_usb.c ****   {
 287              		.loc 1 157 6 view .LVU90
 288 002e 012B     		cmp	r3, #1
 289 0030 43D0     		beq	.L30
 290              	.LVL14:
 291              	.L24:
 164:Drivers/STM32F7xx_HAL_Driver/Src/stm32f7xx_ll_usb.c **** 
 292              		.loc 1 164 1 view .LVU91
 293 0032 BDE81040 		pop	{r4, lr}
 294              		.cfi_remember_state
 295              		.cfi_restore 14
 296              		.cfi_restore 4
 297              		.cfi_def_cfa_offset 16
 298              	.LVL15:
 164:Drivers/STM32F7xx_HAL_Driver/Src/stm32f7xx_ll_usb.c **** 
 299              		.loc 1 164 1 view .LVU92
 300 0036 04B0     		add	sp, sp, #16
 301              		.cfi_def_cfa_offset 0
 302 0038 7047     		bx	lr
 303              	.LVL16:
 304              	.L28:
 305              		.cfi_restore_state
  92:Drivers/STM32F7xx_HAL_Driver/Src/stm32f7xx_ll_usb.c **** 
 306              		.loc 1 92 5 is_stmt 1 view .LVU93
  92:Drivers/STM32F7xx_HAL_Driver/Src/stm32f7xx_ll_usb.c **** 
 307              		.loc 1 92 9 is_stmt 0 view .LVU94
 308 003a A36B     		ldr	r3, [r4, #56]
  92:Drivers/STM32F7xx_HAL_Driver/Src/stm32f7xx_ll_usb.c **** 
 309              		.loc 1 92 17 view .LVU95
 310 003c 23F48033 		bic	r3, r3, #65536
 311 0040 A363     		str	r3, [r4, #56]
  95:Drivers/STM32F7xx_HAL_Driver/Src/stm32f7xx_ll_usb.c **** 
ARM GAS  /tmp/cc8ZLjKA.s 			page 35


 312              		.loc 1 95 5 is_stmt 1 view .LVU96
  95:Drivers/STM32F7xx_HAL_Driver/Src/stm32f7xx_ll_usb.c **** 
 313              		.loc 1 95 9 is_stmt 0 view .LVU97
 314 0042 E268     		ldr	r2, [r4, #12]
  95:Drivers/STM32F7xx_HAL_Driver/Src/stm32f7xx_ll_usb.c **** 
 315              		.loc 1 95 19 view .LVU98
 316 0044 224B     		ldr	r3, .L33
 317 0046 1340     		ands	r3, r3, r2
 318 0048 E360     		str	r3, [r4, #12]
  99:Drivers/STM32F7xx_HAL_Driver/Src/stm32f7xx_ll_usb.c **** #endif /* defined(STM32F722xx) || defined(STM32F723xx) || defined(STM32F730xx) || defined(STM32F732
 319              		.loc 1 99 5 is_stmt 1 view .LVU99
  99:Drivers/STM32F7xx_HAL_Driver/Src/stm32f7xx_ll_usb.c **** #endif /* defined(STM32F722xx) || defined(STM32F723xx) || defined(STM32F730xx) || defined(STM32F732
 320              		.loc 1 99 9 is_stmt 0 view .LVU100
 321 004a E368     		ldr	r3, [r4, #12]
  99:Drivers/STM32F7xx_HAL_Driver/Src/stm32f7xx_ll_usb.c **** #endif /* defined(STM32F722xx) || defined(STM32F723xx) || defined(STM32F730xx) || defined(STM32F732
 322              		.loc 1 99 19 view .LVU101
 323 004c 43F01003 		orr	r3, r3, #16
 324 0050 E360     		str	r3, [r4, #12]
 103:Drivers/STM32F7xx_HAL_Driver/Src/stm32f7xx_ll_usb.c ****     if (cfg.use_external_vbus == 1U)
 325              		.loc 1 103 5 is_stmt 1 view .LVU102
 103:Drivers/STM32F7xx_HAL_Driver/Src/stm32f7xx_ll_usb.c ****     if (cfg.use_external_vbus == 1U)
 326              		.loc 1 103 9 is_stmt 0 view .LVU103
 327 0052 E368     		ldr	r3, [r4, #12]
 103:Drivers/STM32F7xx_HAL_Driver/Src/stm32f7xx_ll_usb.c ****     if (cfg.use_external_vbus == 1U)
 328              		.loc 1 103 19 view .LVU104
 329 0054 23F44013 		bic	r3, r3, #3145728
 330 0058 E360     		str	r3, [r4, #12]
 104:Drivers/STM32F7xx_HAL_Driver/Src/stm32f7xx_ll_usb.c ****     {
 331              		.loc 1 104 5 is_stmt 1 view .LVU105
 104:Drivers/STM32F7xx_HAL_Driver/Src/stm32f7xx_ll_usb.c ****     {
 332              		.loc 1 104 12 is_stmt 0 view .LVU106
 333 005a 0F9B     		ldr	r3, [sp, #60]
 104:Drivers/STM32F7xx_HAL_Driver/Src/stm32f7xx_ll_usb.c ****     {
 334              		.loc 1 104 8 view .LVU107
 335 005c 012B     		cmp	r3, #1
 336 005e 03D0     		beq	.L31
 337              	.L21:
 110:Drivers/STM32F7xx_HAL_Driver/Src/stm32f7xx_ll_usb.c ****   }
 338              		.loc 1 110 5 is_stmt 1 view .LVU108
 110:Drivers/STM32F7xx_HAL_Driver/Src/stm32f7xx_ll_usb.c ****   }
 339              		.loc 1 110 11 is_stmt 0 view .LVU109
 340 0060 2046     		mov	r0, r4
 341 0062 FFF7FEFF 		bl	USB_CoreReset
 342              	.LVL17:
 110:Drivers/STM32F7xx_HAL_Driver/Src/stm32f7xx_ll_usb.c ****   }
 343              		.loc 1 110 11 view .LVU110
 344 0066 E1E7     		b	.L22
 345              	.LVL18:
 346              	.L31:
 106:Drivers/STM32F7xx_HAL_Driver/Src/stm32f7xx_ll_usb.c ****     }
 347              		.loc 1 106 7 is_stmt 1 view .LVU111
 106:Drivers/STM32F7xx_HAL_Driver/Src/stm32f7xx_ll_usb.c ****     }
 348              		.loc 1 106 11 is_stmt 0 view .LVU112
 349 0068 E368     		ldr	r3, [r4, #12]
 106:Drivers/STM32F7xx_HAL_Driver/Src/stm32f7xx_ll_usb.c ****     }
 350              		.loc 1 106 21 view .LVU113
 351 006a 43F48013 		orr	r3, r3, #1048576
ARM GAS  /tmp/cc8ZLjKA.s 			page 36


 352 006e E360     		str	r3, [r4, #12]
 353 0070 F6E7     		b	.L21
 354              	.L29:
 115:Drivers/STM32F7xx_HAL_Driver/Src/stm32f7xx_ll_usb.c **** 
 355              		.loc 1 115 5 is_stmt 1 view .LVU114
 115:Drivers/STM32F7xx_HAL_Driver/Src/stm32f7xx_ll_usb.c **** 
 356              		.loc 1 115 9 is_stmt 0 view .LVU115
 357 0072 A36B     		ldr	r3, [r4, #56]
 115:Drivers/STM32F7xx_HAL_Driver/Src/stm32f7xx_ll_usb.c **** 
 358              		.loc 1 115 17 view .LVU116
 359 0074 23F48033 		bic	r3, r3, #65536
 360 0078 A363     		str	r3, [r4, #56]
 118:Drivers/STM32F7xx_HAL_Driver/Src/stm32f7xx_ll_usb.c **** 
 361              		.loc 1 118 5 is_stmt 1 view .LVU117
 118:Drivers/STM32F7xx_HAL_Driver/Src/stm32f7xx_ll_usb.c **** 
 362              		.loc 1 118 9 is_stmt 0 view .LVU118
 363 007a E268     		ldr	r2, [r4, #12]
 118:Drivers/STM32F7xx_HAL_Driver/Src/stm32f7xx_ll_usb.c **** 
 364              		.loc 1 118 19 view .LVU119
 365 007c 144B     		ldr	r3, .L33
 366 007e 1340     		ands	r3, r3, r2
 367 0080 E360     		str	r3, [r4, #12]
 121:Drivers/STM32F7xx_HAL_Driver/Src/stm32f7xx_ll_usb.c **** 
 368              		.loc 1 121 5 is_stmt 1 view .LVU120
 121:Drivers/STM32F7xx_HAL_Driver/Src/stm32f7xx_ll_usb.c **** 
 369              		.loc 1 121 9 is_stmt 0 view .LVU121
 370 0082 E368     		ldr	r3, [r4, #12]
 121:Drivers/STM32F7xx_HAL_Driver/Src/stm32f7xx_ll_usb.c **** 
 371              		.loc 1 121 19 view .LVU122
 372 0084 23F44013 		bic	r3, r3, #3145728
 373 0088 E360     		str	r3, [r4, #12]
 124:Drivers/STM32F7xx_HAL_Driver/Src/stm32f7xx_ll_usb.c **** #ifdef USBPHYC
 374              		.loc 1 124 5 is_stmt 1 view .LVU123
 124:Drivers/STM32F7xx_HAL_Driver/Src/stm32f7xx_ll_usb.c **** #ifdef USBPHYC
 375              		.loc 1 124 9 is_stmt 0 view .LVU124
 376 008a E368     		ldr	r3, [r4, #12]
 124:Drivers/STM32F7xx_HAL_Driver/Src/stm32f7xx_ll_usb.c **** #ifdef USBPHYC
 377              		.loc 1 124 19 view .LVU125
 378 008c 23F01003 		bic	r3, r3, #16
 379 0090 E360     		str	r3, [r4, #12]
 127:Drivers/STM32F7xx_HAL_Driver/Src/stm32f7xx_ll_usb.c **** 
 380              		.loc 1 127 5 is_stmt 1 view .LVU126
 127:Drivers/STM32F7xx_HAL_Driver/Src/stm32f7xx_ll_usb.c **** 
 381              		.loc 1 127 9 is_stmt 0 view .LVU127
 382 0092 A36B     		ldr	r3, [r4, #56]
 127:Drivers/STM32F7xx_HAL_Driver/Src/stm32f7xx_ll_usb.c **** 
 383              		.loc 1 127 17 view .LVU128
 384 0094 43F40003 		orr	r3, r3, #8388608
 385 0098 A363     		str	r3, [r4, #56]
 130:Drivers/STM32F7xx_HAL_Driver/Src/stm32f7xx_ll_usb.c ****     {
 386              		.loc 1 130 5 is_stmt 1 view .LVU129
 130:Drivers/STM32F7xx_HAL_Driver/Src/stm32f7xx_ll_usb.c ****     {
 387              		.loc 1 130 9 is_stmt 0 view .LVU130
 388 009a 2046     		mov	r0, r4
 389 009c FFF7FEFF 		bl	USB_HS_PHYCInit
 390              	.LVL19:
 130:Drivers/STM32F7xx_HAL_Driver/Src/stm32f7xx_ll_usb.c ****     {
ARM GAS  /tmp/cc8ZLjKA.s 			page 37


 391              		.loc 1 130 8 view .LVU131
 392 00a0 A0B9     		cbnz	r0, .L26
 136:Drivers/STM32F7xx_HAL_Driver/Src/stm32f7xx_ll_usb.c ****     {
 393              		.loc 1 136 5 is_stmt 1 view .LVU132
 136:Drivers/STM32F7xx_HAL_Driver/Src/stm32f7xx_ll_usb.c ****     {
 394              		.loc 1 136 12 is_stmt 0 view .LVU133
 395 00a2 0F9B     		ldr	r3, [sp, #60]
 136:Drivers/STM32F7xx_HAL_Driver/Src/stm32f7xx_ll_usb.c ****     {
 396              		.loc 1 136 8 view .LVU134
 397 00a4 012B     		cmp	r3, #1
 398 00a6 03D0     		beq	.L32
 399              	.L25:
 142:Drivers/STM32F7xx_HAL_Driver/Src/stm32f7xx_ll_usb.c ****   }
 400              		.loc 1 142 5 is_stmt 1 view .LVU135
 142:Drivers/STM32F7xx_HAL_Driver/Src/stm32f7xx_ll_usb.c ****   }
 401              		.loc 1 142 11 is_stmt 0 view .LVU136
 402 00a8 2046     		mov	r0, r4
 403 00aa FFF7FEFF 		bl	USB_CoreReset
 404              	.LVL20:
 142:Drivers/STM32F7xx_HAL_Driver/Src/stm32f7xx_ll_usb.c ****   }
 405              		.loc 1 142 11 view .LVU137
 406 00ae BDE7     		b	.L22
 407              	.LVL21:
 408              	.L32:
 138:Drivers/STM32F7xx_HAL_Driver/Src/stm32f7xx_ll_usb.c ****     }
 409              		.loc 1 138 7 is_stmt 1 view .LVU138
 138:Drivers/STM32F7xx_HAL_Driver/Src/stm32f7xx_ll_usb.c ****     }
 410              		.loc 1 138 11 is_stmt 0 view .LVU139
 411 00b0 E368     		ldr	r3, [r4, #12]
 138:Drivers/STM32F7xx_HAL_Driver/Src/stm32f7xx_ll_usb.c ****     }
 412              		.loc 1 138 21 view .LVU140
 413 00b2 43F48013 		orr	r3, r3, #1048576
 414 00b6 E360     		str	r3, [r4, #12]
 415 00b8 F6E7     		b	.L25
 416              	.LVL22:
 417              	.L30:
 159:Drivers/STM32F7xx_HAL_Driver/Src/stm32f7xx_ll_usb.c ****     USBx->GAHBCFG |= USB_OTG_GAHBCFG_DMAEN;
 418              		.loc 1 159 5 is_stmt 1 view .LVU141
 159:Drivers/STM32F7xx_HAL_Driver/Src/stm32f7xx_ll_usb.c ****     USBx->GAHBCFG |= USB_OTG_GAHBCFG_DMAEN;
 419              		.loc 1 159 9 is_stmt 0 view .LVU142
 420 00ba A368     		ldr	r3, [r4, #8]
 159:Drivers/STM32F7xx_HAL_Driver/Src/stm32f7xx_ll_usb.c ****     USBx->GAHBCFG |= USB_OTG_GAHBCFG_DMAEN;
 421              		.loc 1 159 19 view .LVU143
 422 00bc 43F00603 		orr	r3, r3, #6
 423 00c0 A360     		str	r3, [r4, #8]
 160:Drivers/STM32F7xx_HAL_Driver/Src/stm32f7xx_ll_usb.c ****   }
 424              		.loc 1 160 5 is_stmt 1 view .LVU144
 160:Drivers/STM32F7xx_HAL_Driver/Src/stm32f7xx_ll_usb.c ****   }
 425              		.loc 1 160 9 is_stmt 0 view .LVU145
 426 00c2 A368     		ldr	r3, [r4, #8]
 160:Drivers/STM32F7xx_HAL_Driver/Src/stm32f7xx_ll_usb.c ****   }
 427              		.loc 1 160 19 view .LVU146
 428 00c4 43F02003 		orr	r3, r3, #32
 429 00c8 A360     		str	r3, [r4, #8]
 430 00ca B2E7     		b	.L24
 431              	.LVL23:
 432              	.L26:
ARM GAS  /tmp/cc8ZLjKA.s 			page 38


 132:Drivers/STM32F7xx_HAL_Driver/Src/stm32f7xx_ll_usb.c ****     }
 433              		.loc 1 132 14 view .LVU147
 434 00cc 0120     		movs	r0, #1
 435 00ce B0E7     		b	.L24
 436              	.L34:
 437              		.align	2
 438              	.L33:
 439 00d0 BFFFBDFF 		.word	-4325441
 440              		.cfi_endproc
 441              	.LFE141:
 443              		.section	.text.USB_SetTurnaroundTime,"ax",%progbits
 444              		.align	1
 445              		.global	USB_SetTurnaroundTime
 446              		.syntax unified
 447              		.thumb
 448              		.thumb_func
 450              	USB_SetTurnaroundTime:
 451              	.LVL24:
 452              	.LFB142:
 175:Drivers/STM32F7xx_HAL_Driver/Src/stm32f7xx_ll_usb.c ****   uint32_t UsbTrd;
 453              		.loc 1 175 1 is_stmt 1 view -0
 454              		.cfi_startproc
 455              		@ args = 0, pretend = 0, frame = 0
 456              		@ frame_needed = 0, uses_anonymous_args = 0
 457              		@ link register save eliminated.
 176:Drivers/STM32F7xx_HAL_Driver/Src/stm32f7xx_ll_usb.c **** 
 458              		.loc 1 176 3 view .LVU149
 182:Drivers/STM32F7xx_HAL_Driver/Src/stm32f7xx_ll_usb.c ****   {
 459              		.loc 1 182 3 view .LVU150
 182:Drivers/STM32F7xx_HAL_Driver/Src/stm32f7xx_ll_usb.c ****   {
 460              		.loc 1 182 6 is_stmt 0 view .LVU151
 461 0000 022A     		cmp	r2, #2
 462 0002 0AD0     		beq	.L47
 237:Drivers/STM32F7xx_HAL_Driver/Src/stm32f7xx_ll_usb.c ****   }
 463              		.loc 1 237 12 view .LVU152
 464 0004 0922     		movs	r2, #9
 465              	.LVL25:
 466              	.L36:
 244:Drivers/STM32F7xx_HAL_Driver/Src/stm32f7xx_ll_usb.c ****   USBx->GUSBCFG |= (uint32_t)((UsbTrd << 10) & USB_OTG_GUSBCFG_TRDT);
 467              		.loc 1 244 3 is_stmt 1 view .LVU153
 244:Drivers/STM32F7xx_HAL_Driver/Src/stm32f7xx_ll_usb.c ****   USBx->GUSBCFG |= (uint32_t)((UsbTrd << 10) & USB_OTG_GUSBCFG_TRDT);
 468              		.loc 1 244 7 is_stmt 0 view .LVU154
 469 0006 C368     		ldr	r3, [r0, #12]
 244:Drivers/STM32F7xx_HAL_Driver/Src/stm32f7xx_ll_usb.c ****   USBx->GUSBCFG |= (uint32_t)((UsbTrd << 10) & USB_OTG_GUSBCFG_TRDT);
 470              		.loc 1 244 17 view .LVU155
 471 0008 23F47053 		bic	r3, r3, #15360
 472 000c C360     		str	r3, [r0, #12]
 245:Drivers/STM32F7xx_HAL_Driver/Src/stm32f7xx_ll_usb.c **** 
 473              		.loc 1 245 3 is_stmt 1 view .LVU156
 245:Drivers/STM32F7xx_HAL_Driver/Src/stm32f7xx_ll_usb.c **** 
 474              		.loc 1 245 7 is_stmt 0 view .LVU157
 475 000e C368     		ldr	r3, [r0, #12]
 245:Drivers/STM32F7xx_HAL_Driver/Src/stm32f7xx_ll_usb.c **** 
 476              		.loc 1 245 17 view .LVU158
 477 0010 43EA8223 		orr	r3, r3, r2, lsl #10
 478 0014 C360     		str	r3, [r0, #12]
 247:Drivers/STM32F7xx_HAL_Driver/Src/stm32f7xx_ll_usb.c **** }
ARM GAS  /tmp/cc8ZLjKA.s 			page 39


 479              		.loc 1 247 3 is_stmt 1 view .LVU159
 248:Drivers/STM32F7xx_HAL_Driver/Src/stm32f7xx_ll_usb.c **** 
 480              		.loc 1 248 1 is_stmt 0 view .LVU160
 481 0016 0020     		movs	r0, #0
 482              	.LVL26:
 248:Drivers/STM32F7xx_HAL_Driver/Src/stm32f7xx_ll_usb.c **** 
 483              		.loc 1 248 1 view .LVU161
 484 0018 7047     		bx	lr
 485              	.LVL27:
 486              	.L47:
 184:Drivers/STM32F7xx_HAL_Driver/Src/stm32f7xx_ll_usb.c ****     {
 487              		.loc 1 184 5 is_stmt 1 view .LVU162
 184:Drivers/STM32F7xx_HAL_Driver/Src/stm32f7xx_ll_usb.c ****     {
 488              		.loc 1 184 29 is_stmt 0 view .LVU163
 489 001a 204B     		ldr	r3, .L48
 490 001c 0B44     		add	r3, r3, r1
 184:Drivers/STM32F7xx_HAL_Driver/Src/stm32f7xx_ll_usb.c ****     {
 491              		.loc 1 184 8 view .LVU164
 492 001e 204A     		ldr	r2, .L48+4
 493              	.LVL28:
 184:Drivers/STM32F7xx_HAL_Driver/Src/stm32f7xx_ll_usb.c ****     {
 494              		.loc 1 184 8 view .LVU165
 495 0020 9342     		cmp	r3, r2
 496 0022 29D9     		bls	.L38
 189:Drivers/STM32F7xx_HAL_Driver/Src/stm32f7xx_ll_usb.c ****     {
 497              		.loc 1 189 10 is_stmt 1 view .LVU166
 189:Drivers/STM32F7xx_HAL_Driver/Src/stm32f7xx_ll_usb.c ****     {
 498              		.loc 1 189 34 is_stmt 0 view .LVU167
 499 0024 1F4B     		ldr	r3, .L48+8
 500 0026 0B44     		add	r3, r3, r1
 189:Drivers/STM32F7xx_HAL_Driver/Src/stm32f7xx_ll_usb.c ****     {
 501              		.loc 1 189 13 view .LVU168
 502 0028 1F4A     		ldr	r2, .L48+12
 503 002a 9342     		cmp	r3, r2
 504 002c 26D9     		bls	.L39
 194:Drivers/STM32F7xx_HAL_Driver/Src/stm32f7xx_ll_usb.c ****     {
 505              		.loc 1 194 10 is_stmt 1 view .LVU169
 194:Drivers/STM32F7xx_HAL_Driver/Src/stm32f7xx_ll_usb.c ****     {
 506              		.loc 1 194 34 is_stmt 0 view .LVU170
 507 002e 1F4B     		ldr	r3, .L48+16
 508 0030 0B44     		add	r3, r3, r1
 194:Drivers/STM32F7xx_HAL_Driver/Src/stm32f7xx_ll_usb.c ****     {
 509              		.loc 1 194 13 view .LVU171
 510 0032 1F4A     		ldr	r2, .L48+20
 511 0034 9342     		cmp	r3, r2
 512 0036 23D9     		bls	.L40
 199:Drivers/STM32F7xx_HAL_Driver/Src/stm32f7xx_ll_usb.c ****     {
 513              		.loc 1 199 10 is_stmt 1 view .LVU172
 199:Drivers/STM32F7xx_HAL_Driver/Src/stm32f7xx_ll_usb.c ****     {
 514              		.loc 1 199 34 is_stmt 0 view .LVU173
 515 0038 1E4B     		ldr	r3, .L48+24
 516 003a 0B44     		add	r3, r3, r1
 199:Drivers/STM32F7xx_HAL_Driver/Src/stm32f7xx_ll_usb.c ****     {
 517              		.loc 1 199 13 view .LVU174
 518 003c 1E4A     		ldr	r2, .L48+28
 519 003e 9342     		cmp	r3, r2
 520 0040 20D3     		bcc	.L41
ARM GAS  /tmp/cc8ZLjKA.s 			page 40


 204:Drivers/STM32F7xx_HAL_Driver/Src/stm32f7xx_ll_usb.c ****     {
 521              		.loc 1 204 10 is_stmt 1 view .LVU175
 204:Drivers/STM32F7xx_HAL_Driver/Src/stm32f7xx_ll_usb.c ****     {
 522              		.loc 1 204 34 is_stmt 0 view .LVU176
 523 0042 1E4B     		ldr	r3, .L48+32
 524 0044 0B44     		add	r3, r3, r1
 204:Drivers/STM32F7xx_HAL_Driver/Src/stm32f7xx_ll_usb.c ****     {
 525              		.loc 1 204 13 view .LVU177
 526 0046 1E4A     		ldr	r2, .L48+36
 527 0048 9342     		cmp	r3, r2
 528 004a 1DD9     		bls	.L42
 209:Drivers/STM32F7xx_HAL_Driver/Src/stm32f7xx_ll_usb.c ****     {
 529              		.loc 1 209 10 is_stmt 1 view .LVU178
 209:Drivers/STM32F7xx_HAL_Driver/Src/stm32f7xx_ll_usb.c ****     {
 530              		.loc 1 209 34 is_stmt 0 view .LVU179
 531 004c 1D4B     		ldr	r3, .L48+40
 532 004e 0B44     		add	r3, r3, r1
 209:Drivers/STM32F7xx_HAL_Driver/Src/stm32f7xx_ll_usb.c ****     {
 533              		.loc 1 209 13 view .LVU180
 534 0050 1D4A     		ldr	r2, .L48+44
 535 0052 9342     		cmp	r3, r2
 536 0054 1AD3     		bcc	.L43
 214:Drivers/STM32F7xx_HAL_Driver/Src/stm32f7xx_ll_usb.c ****     {
 537              		.loc 1 214 10 is_stmt 1 view .LVU181
 214:Drivers/STM32F7xx_HAL_Driver/Src/stm32f7xx_ll_usb.c ****     {
 538              		.loc 1 214 34 is_stmt 0 view .LVU182
 539 0056 1D4B     		ldr	r3, .L48+48
 540 0058 0B44     		add	r3, r3, r1
 214:Drivers/STM32F7xx_HAL_Driver/Src/stm32f7xx_ll_usb.c ****     {
 541              		.loc 1 214 13 view .LVU183
 542 005a 1D4A     		ldr	r2, .L48+52
 543 005c 9342     		cmp	r3, r2
 544 005e 17D3     		bcc	.L44
 219:Drivers/STM32F7xx_HAL_Driver/Src/stm32f7xx_ll_usb.c ****     {
 545              		.loc 1 219 10 is_stmt 1 view .LVU184
 219:Drivers/STM32F7xx_HAL_Driver/Src/stm32f7xx_ll_usb.c ****     {
 546              		.loc 1 219 34 is_stmt 0 view .LVU185
 547 0060 1C4B     		ldr	r3, .L48+56
 548 0062 0B44     		add	r3, r3, r1
 219:Drivers/STM32F7xx_HAL_Driver/Src/stm32f7xx_ll_usb.c ****     {
 549              		.loc 1 219 13 view .LVU186
 550 0064 1C4A     		ldr	r2, .L48+60
 551 0066 9342     		cmp	r3, r2
 552 0068 14D3     		bcc	.L45
 224:Drivers/STM32F7xx_HAL_Driver/Src/stm32f7xx_ll_usb.c ****     {
 553              		.loc 1 224 10 is_stmt 1 view .LVU187
 224:Drivers/STM32F7xx_HAL_Driver/Src/stm32f7xx_ll_usb.c ****     {
 554              		.loc 1 224 34 is_stmt 0 view .LVU188
 555 006a 1C4B     		ldr	r3, .L48+64
 556 006c 0B44     		add	r3, r3, r1
 224:Drivers/STM32F7xx_HAL_Driver/Src/stm32f7xx_ll_usb.c ****     {
 557              		.loc 1 224 13 view .LVU189
 558 006e 1C4A     		ldr	r2, .L48+68
 559 0070 9342     		cmp	r3, r2
 560 0072 11D2     		bcs	.L46
 227:Drivers/STM32F7xx_HAL_Driver/Src/stm32f7xx_ll_usb.c ****     }
 561              		.loc 1 227 14 view .LVU190
ARM GAS  /tmp/cc8ZLjKA.s 			page 41


 562 0074 0722     		movs	r2, #7
 563 0076 C6E7     		b	.L36
 564              	.L38:
 187:Drivers/STM32F7xx_HAL_Driver/Src/stm32f7xx_ll_usb.c ****     }
 565              		.loc 1 187 14 view .LVU191
 566 0078 0F22     		movs	r2, #15
 567 007a C4E7     		b	.L36
 568              	.L39:
 192:Drivers/STM32F7xx_HAL_Driver/Src/stm32f7xx_ll_usb.c ****     }
 569              		.loc 1 192 14 view .LVU192
 570 007c 0E22     		movs	r2, #14
 571 007e C2E7     		b	.L36
 572              	.L40:
 197:Drivers/STM32F7xx_HAL_Driver/Src/stm32f7xx_ll_usb.c ****     }
 573              		.loc 1 197 14 view .LVU193
 574 0080 0D22     		movs	r2, #13
 575 0082 C0E7     		b	.L36
 576              	.L41:
 202:Drivers/STM32F7xx_HAL_Driver/Src/stm32f7xx_ll_usb.c ****     }
 577              		.loc 1 202 14 view .LVU194
 578 0084 0C22     		movs	r2, #12
 579 0086 BEE7     		b	.L36
 580              	.L42:
 207:Drivers/STM32F7xx_HAL_Driver/Src/stm32f7xx_ll_usb.c ****     }
 581              		.loc 1 207 14 view .LVU195
 582 0088 0B22     		movs	r2, #11
 583 008a BCE7     		b	.L36
 584              	.L43:
 212:Drivers/STM32F7xx_HAL_Driver/Src/stm32f7xx_ll_usb.c ****     }
 585              		.loc 1 212 14 view .LVU196
 586 008c 0A22     		movs	r2, #10
 587 008e BAE7     		b	.L36
 588              	.L44:
 217:Drivers/STM32F7xx_HAL_Driver/Src/stm32f7xx_ll_usb.c ****     }
 589              		.loc 1 217 14 view .LVU197
 590 0090 0922     		movs	r2, #9
 591 0092 B8E7     		b	.L36
 592              	.L45:
 222:Drivers/STM32F7xx_HAL_Driver/Src/stm32f7xx_ll_usb.c ****     }
 593              		.loc 1 222 14 view .LVU198
 594 0094 0822     		movs	r2, #8
 595 0096 B6E7     		b	.L36
 596              	.L46:
 232:Drivers/STM32F7xx_HAL_Driver/Src/stm32f7xx_ll_usb.c ****     }
 597              		.loc 1 232 14 view .LVU199
 598 0098 0622     		movs	r2, #6
 599 009a B4E7     		b	.L36
 600              	.L49:
 601              		.align	2
 602              	.L48:
 603 009c 405327FF 		.word	-14200000
 604 00a0 FF340C00 		.word	799999
 605 00a4 401E1BFF 		.word	-15000000
 606 00a8 3F420F00 		.word	999999
 607 00ac 00DC0BFF 		.word	-16000000
 608 00b0 7F4F1200 		.word	1199999
 609 00b4 808CF9FE 		.word	-17200000
ARM GAS  /tmp/cc8ZLjKA.s 			page 42


 610 00b8 20D61300 		.word	1300000
 611 00bc 60B6E5FE 		.word	-18500000
 612 00c0 5FE31600 		.word	1499999
 613 00c4 00D3CEFE 		.word	-20000000
 614 00c8 40771B00 		.word	1800000
 615 00cc C05BB3FE 		.word	-21800000
 616 00d0 C0912100 		.word	2200000
 617 00d4 00CA91FE 		.word	-24000000
 618 00d8 20753800 		.word	3700000
 619 00dc E05459FE 		.word	-27700000
 620 00e0 E09C4100 		.word	4300000
 621              		.cfi_endproc
 622              	.LFE142:
 624              		.section	.text.USB_EnableGlobalInt,"ax",%progbits
 625              		.align	1
 626              		.global	USB_EnableGlobalInt
 627              		.syntax unified
 628              		.thumb
 629              		.thumb_func
 631              	USB_EnableGlobalInt:
 632              	.LVL29:
 633              	.LFB143:
 257:Drivers/STM32F7xx_HAL_Driver/Src/stm32f7xx_ll_usb.c ****   USBx->GAHBCFG |= USB_OTG_GAHBCFG_GINT;
 634              		.loc 1 257 1 is_stmt 1 view -0
 635              		.cfi_startproc
 636              		@ args = 0, pretend = 0, frame = 0
 637              		@ frame_needed = 0, uses_anonymous_args = 0
 638              		@ link register save eliminated.
 258:Drivers/STM32F7xx_HAL_Driver/Src/stm32f7xx_ll_usb.c ****   return HAL_OK;
 639              		.loc 1 258 3 view .LVU201
 258:Drivers/STM32F7xx_HAL_Driver/Src/stm32f7xx_ll_usb.c ****   return HAL_OK;
 640              		.loc 1 258 7 is_stmt 0 view .LVU202
 641 0000 8368     		ldr	r3, [r0, #8]
 258:Drivers/STM32F7xx_HAL_Driver/Src/stm32f7xx_ll_usb.c ****   return HAL_OK;
 642              		.loc 1 258 17 view .LVU203
 643 0002 43F00103 		orr	r3, r3, #1
 644 0006 8360     		str	r3, [r0, #8]
 259:Drivers/STM32F7xx_HAL_Driver/Src/stm32f7xx_ll_usb.c **** }
 645              		.loc 1 259 3 is_stmt 1 view .LVU204
 260:Drivers/STM32F7xx_HAL_Driver/Src/stm32f7xx_ll_usb.c **** 
 646              		.loc 1 260 1 is_stmt 0 view .LVU205
 647 0008 0020     		movs	r0, #0
 648              	.LVL30:
 260:Drivers/STM32F7xx_HAL_Driver/Src/stm32f7xx_ll_usb.c **** 
 649              		.loc 1 260 1 view .LVU206
 650 000a 7047     		bx	lr
 651              		.cfi_endproc
 652              	.LFE143:
 654              		.section	.text.USB_DisableGlobalInt,"ax",%progbits
 655              		.align	1
 656              		.global	USB_DisableGlobalInt
 657              		.syntax unified
 658              		.thumb
 659              		.thumb_func
 661              	USB_DisableGlobalInt:
 662              	.LVL31:
 663              	.LFB144:
ARM GAS  /tmp/cc8ZLjKA.s 			page 43


 269:Drivers/STM32F7xx_HAL_Driver/Src/stm32f7xx_ll_usb.c ****   USBx->GAHBCFG &= ~USB_OTG_GAHBCFG_GINT;
 664              		.loc 1 269 1 is_stmt 1 view -0
 665              		.cfi_startproc
 666              		@ args = 0, pretend = 0, frame = 0
 667              		@ frame_needed = 0, uses_anonymous_args = 0
 668              		@ link register save eliminated.
 270:Drivers/STM32F7xx_HAL_Driver/Src/stm32f7xx_ll_usb.c ****   return HAL_OK;
 669              		.loc 1 270 3 view .LVU208
 270:Drivers/STM32F7xx_HAL_Driver/Src/stm32f7xx_ll_usb.c ****   return HAL_OK;
 670              		.loc 1 270 7 is_stmt 0 view .LVU209
 671 0000 8368     		ldr	r3, [r0, #8]
 270:Drivers/STM32F7xx_HAL_Driver/Src/stm32f7xx_ll_usb.c ****   return HAL_OK;
 672              		.loc 1 270 17 view .LVU210
 673 0002 23F00103 		bic	r3, r3, #1
 674 0006 8360     		str	r3, [r0, #8]
 271:Drivers/STM32F7xx_HAL_Driver/Src/stm32f7xx_ll_usb.c **** }
 675              		.loc 1 271 3 is_stmt 1 view .LVU211
 272:Drivers/STM32F7xx_HAL_Driver/Src/stm32f7xx_ll_usb.c **** 
 676              		.loc 1 272 1 is_stmt 0 view .LVU212
 677 0008 0020     		movs	r0, #0
 678              	.LVL32:
 272:Drivers/STM32F7xx_HAL_Driver/Src/stm32f7xx_ll_usb.c **** 
 679              		.loc 1 272 1 view .LVU213
 680 000a 7047     		bx	lr
 681              		.cfi_endproc
 682              	.LFE144:
 684              		.section	.text.USB_FlushTxFifo,"ax",%progbits
 685              		.align	1
 686              		.global	USB_FlushTxFifo
 687              		.syntax unified
 688              		.thumb
 689              		.thumb_func
 691              	USB_FlushTxFifo:
 692              	.LVL33:
 693              	.LFB147:
 501:Drivers/STM32F7xx_HAL_Driver/Src/stm32f7xx_ll_usb.c ****   __IO uint32_t count = 0U;
 694              		.loc 1 501 1 is_stmt 1 view -0
 695              		.cfi_startproc
 696              		@ args = 0, pretend = 0, frame = 8
 697              		@ frame_needed = 0, uses_anonymous_args = 0
 698              		@ link register save eliminated.
 501:Drivers/STM32F7xx_HAL_Driver/Src/stm32f7xx_ll_usb.c ****   __IO uint32_t count = 0U;
 699              		.loc 1 501 1 is_stmt 0 view .LVU215
 700 0000 82B0     		sub	sp, sp, #8
 701              		.cfi_def_cfa_offset 8
 502:Drivers/STM32F7xx_HAL_Driver/Src/stm32f7xx_ll_usb.c **** 
 702              		.loc 1 502 3 is_stmt 1 view .LVU216
 502:Drivers/STM32F7xx_HAL_Driver/Src/stm32f7xx_ll_usb.c **** 
 703              		.loc 1 502 17 is_stmt 0 view .LVU217
 704 0002 0023     		movs	r3, #0
 705 0004 0193     		str	r3, [sp, #4]
 706              	.L54:
 505:Drivers/STM32F7xx_HAL_Driver/Src/stm32f7xx_ll_usb.c ****   {
 707              		.loc 1 505 3 is_stmt 1 view .LVU218
 507:Drivers/STM32F7xx_HAL_Driver/Src/stm32f7xx_ll_usb.c **** 
 708              		.loc 1 507 5 view .LVU219
 507:Drivers/STM32F7xx_HAL_Driver/Src/stm32f7xx_ll_usb.c **** 
ARM GAS  /tmp/cc8ZLjKA.s 			page 44


 709              		.loc 1 507 10 is_stmt 0 view .LVU220
 710 0006 019B     		ldr	r3, [sp, #4]
 711 0008 0133     		adds	r3, r3, #1
 712 000a 0193     		str	r3, [sp, #4]
 509:Drivers/STM32F7xx_HAL_Driver/Src/stm32f7xx_ll_usb.c ****     {
 713              		.loc 1 509 5 is_stmt 1 view .LVU221
 509:Drivers/STM32F7xx_HAL_Driver/Src/stm32f7xx_ll_usb.c ****     {
 714              		.loc 1 509 15 is_stmt 0 view .LVU222
 715 000c 019A     		ldr	r2, [sp, #4]
 509:Drivers/STM32F7xx_HAL_Driver/Src/stm32f7xx_ll_usb.c ****     {
 716              		.loc 1 509 8 view .LVU223
 717 000e 0F4B     		ldr	r3, .L59
 718 0010 9A42     		cmp	r2, r3
 719 0012 15D8     		bhi	.L56
 513:Drivers/STM32F7xx_HAL_Driver/Src/stm32f7xx_ll_usb.c **** 
 720              		.loc 1 513 53 is_stmt 1 view .LVU224
 513:Drivers/STM32F7xx_HAL_Driver/Src/stm32f7xx_ll_usb.c **** 
 721              		.loc 1 513 17 is_stmt 0 view .LVU225
 722 0014 0369     		ldr	r3, [r0, #16]
 513:Drivers/STM32F7xx_HAL_Driver/Src/stm32f7xx_ll_usb.c **** 
 723              		.loc 1 513 53 view .LVU226
 724 0016 002B     		cmp	r3, #0
 725 0018 F5DA     		bge	.L54
 516:Drivers/STM32F7xx_HAL_Driver/Src/stm32f7xx_ll_usb.c ****   USBx->GRSTCTL = (USB_OTG_GRSTCTL_TXFFLSH | (num << 6));
 726              		.loc 1 516 3 is_stmt 1 view .LVU227
 516:Drivers/STM32F7xx_HAL_Driver/Src/stm32f7xx_ll_usb.c ****   USBx->GRSTCTL = (USB_OTG_GRSTCTL_TXFFLSH | (num << 6));
 727              		.loc 1 516 9 is_stmt 0 view .LVU228
 728 001a 0023     		movs	r3, #0
 729 001c 0193     		str	r3, [sp, #4]
 517:Drivers/STM32F7xx_HAL_Driver/Src/stm32f7xx_ll_usb.c **** 
 730              		.loc 1 517 3 is_stmt 1 view .LVU229
 517:Drivers/STM32F7xx_HAL_Driver/Src/stm32f7xx_ll_usb.c **** 
 731              		.loc 1 517 51 is_stmt 0 view .LVU230
 732 001e 8901     		lsls	r1, r1, #6
 733              	.LVL34:
 517:Drivers/STM32F7xx_HAL_Driver/Src/stm32f7xx_ll_usb.c **** 
 734              		.loc 1 517 44 view .LVU231
 735 0020 41F02001 		orr	r1, r1, #32
 517:Drivers/STM32F7xx_HAL_Driver/Src/stm32f7xx_ll_usb.c **** 
 736              		.loc 1 517 17 view .LVU232
 737 0024 0161     		str	r1, [r0, #16]
 738              	.L55:
 519:Drivers/STM32F7xx_HAL_Driver/Src/stm32f7xx_ll_usb.c ****   {
 739              		.loc 1 519 3 is_stmt 1 view .LVU233
 521:Drivers/STM32F7xx_HAL_Driver/Src/stm32f7xx_ll_usb.c **** 
 740              		.loc 1 521 5 view .LVU234
 521:Drivers/STM32F7xx_HAL_Driver/Src/stm32f7xx_ll_usb.c **** 
 741              		.loc 1 521 10 is_stmt 0 view .LVU235
 742 0026 019B     		ldr	r3, [sp, #4]
 743 0028 0133     		adds	r3, r3, #1
 744 002a 0193     		str	r3, [sp, #4]
 523:Drivers/STM32F7xx_HAL_Driver/Src/stm32f7xx_ll_usb.c ****     {
 745              		.loc 1 523 5 is_stmt 1 view .LVU236
 523:Drivers/STM32F7xx_HAL_Driver/Src/stm32f7xx_ll_usb.c ****     {
 746              		.loc 1 523 15 is_stmt 0 view .LVU237
 747 002c 019A     		ldr	r2, [sp, #4]
 523:Drivers/STM32F7xx_HAL_Driver/Src/stm32f7xx_ll_usb.c ****     {
ARM GAS  /tmp/cc8ZLjKA.s 			page 45


 748              		.loc 1 523 8 view .LVU238
 749 002e 074B     		ldr	r3, .L59
 750 0030 9A42     		cmp	r2, r3
 751 0032 08D8     		bhi	.L57
 527:Drivers/STM32F7xx_HAL_Driver/Src/stm32f7xx_ll_usb.c **** 
 752              		.loc 1 527 54 is_stmt 1 view .LVU239
 527:Drivers/STM32F7xx_HAL_Driver/Src/stm32f7xx_ll_usb.c **** 
 753              		.loc 1 527 17 is_stmt 0 view .LVU240
 754 0034 0369     		ldr	r3, [r0, #16]
 527:Drivers/STM32F7xx_HAL_Driver/Src/stm32f7xx_ll_usb.c **** 
 755              		.loc 1 527 54 view .LVU241
 756 0036 13F0200F 		tst	r3, #32
 757 003a F4D1     		bne	.L55
 529:Drivers/STM32F7xx_HAL_Driver/Src/stm32f7xx_ll_usb.c **** }
 758              		.loc 1 529 10 view .LVU242
 759 003c 0020     		movs	r0, #0
 760              	.LVL35:
 529:Drivers/STM32F7xx_HAL_Driver/Src/stm32f7xx_ll_usb.c **** }
 761              		.loc 1 529 10 view .LVU243
 762 003e 00E0     		b	.L53
 763              	.LVL36:
 764              	.L56:
 511:Drivers/STM32F7xx_HAL_Driver/Src/stm32f7xx_ll_usb.c ****     }
 765              		.loc 1 511 14 view .LVU244
 766 0040 0320     		movs	r0, #3
 767              	.LVL37:
 768              	.L53:
 530:Drivers/STM32F7xx_HAL_Driver/Src/stm32f7xx_ll_usb.c **** 
 769              		.loc 1 530 1 view .LVU245
 770 0042 02B0     		add	sp, sp, #8
 771              		.cfi_remember_state
 772              		.cfi_def_cfa_offset 0
 773              		@ sp needed
 774 0044 7047     		bx	lr
 775              	.LVL38:
 776              	.L57:
 777              		.cfi_restore_state
 525:Drivers/STM32F7xx_HAL_Driver/Src/stm32f7xx_ll_usb.c ****     }
 778              		.loc 1 525 14 view .LVU246
 779 0046 0320     		movs	r0, #3
 780              	.LVL39:
 525:Drivers/STM32F7xx_HAL_Driver/Src/stm32f7xx_ll_usb.c ****     }
 781              		.loc 1 525 14 view .LVU247
 782 0048 FBE7     		b	.L53
 783              	.L60:
 784 004a 00BF     		.align	2
 785              	.L59:
 786 004c 400D0300 		.word	200000
 787              		.cfi_endproc
 788              	.LFE147:
 790              		.section	.text.USB_FlushRxFifo,"ax",%progbits
 791              		.align	1
 792              		.global	USB_FlushRxFifo
 793              		.syntax unified
 794              		.thumb
 795              		.thumb_func
 797              	USB_FlushRxFifo:
ARM GAS  /tmp/cc8ZLjKA.s 			page 46


 798              	.LVL40:
 799              	.LFB148:
 538:Drivers/STM32F7xx_HAL_Driver/Src/stm32f7xx_ll_usb.c ****   __IO uint32_t count = 0U;
 800              		.loc 1 538 1 is_stmt 1 view -0
 801              		.cfi_startproc
 802              		@ args = 0, pretend = 0, frame = 8
 803              		@ frame_needed = 0, uses_anonymous_args = 0
 804              		@ link register save eliminated.
 538:Drivers/STM32F7xx_HAL_Driver/Src/stm32f7xx_ll_usb.c ****   __IO uint32_t count = 0U;
 805              		.loc 1 538 1 is_stmt 0 view .LVU249
 806 0000 82B0     		sub	sp, sp, #8
 807              		.cfi_def_cfa_offset 8
 539:Drivers/STM32F7xx_HAL_Driver/Src/stm32f7xx_ll_usb.c **** 
 808              		.loc 1 539 3 is_stmt 1 view .LVU250
 539:Drivers/STM32F7xx_HAL_Driver/Src/stm32f7xx_ll_usb.c **** 
 809              		.loc 1 539 17 is_stmt 0 view .LVU251
 810 0002 0023     		movs	r3, #0
 811 0004 0193     		str	r3, [sp, #4]
 812              	.L63:
 542:Drivers/STM32F7xx_HAL_Driver/Src/stm32f7xx_ll_usb.c ****   {
 813              		.loc 1 542 3 is_stmt 1 view .LVU252
 544:Drivers/STM32F7xx_HAL_Driver/Src/stm32f7xx_ll_usb.c **** 
 814              		.loc 1 544 5 view .LVU253
 544:Drivers/STM32F7xx_HAL_Driver/Src/stm32f7xx_ll_usb.c **** 
 815              		.loc 1 544 10 is_stmt 0 view .LVU254
 816 0006 019B     		ldr	r3, [sp, #4]
 817 0008 0133     		adds	r3, r3, #1
 818 000a 0193     		str	r3, [sp, #4]
 546:Drivers/STM32F7xx_HAL_Driver/Src/stm32f7xx_ll_usb.c ****     {
 819              		.loc 1 546 5 is_stmt 1 view .LVU255
 546:Drivers/STM32F7xx_HAL_Driver/Src/stm32f7xx_ll_usb.c ****     {
 820              		.loc 1 546 15 is_stmt 0 view .LVU256
 821 000c 019A     		ldr	r2, [sp, #4]
 546:Drivers/STM32F7xx_HAL_Driver/Src/stm32f7xx_ll_usb.c ****     {
 822              		.loc 1 546 8 view .LVU257
 823 000e 0E4B     		ldr	r3, .L68
 824 0010 9A42     		cmp	r2, r3
 825 0012 13D8     		bhi	.L65
 550:Drivers/STM32F7xx_HAL_Driver/Src/stm32f7xx_ll_usb.c **** 
 826              		.loc 1 550 53 is_stmt 1 view .LVU258
 550:Drivers/STM32F7xx_HAL_Driver/Src/stm32f7xx_ll_usb.c **** 
 827              		.loc 1 550 17 is_stmt 0 view .LVU259
 828 0014 0369     		ldr	r3, [r0, #16]
 550:Drivers/STM32F7xx_HAL_Driver/Src/stm32f7xx_ll_usb.c **** 
 829              		.loc 1 550 53 view .LVU260
 830 0016 002B     		cmp	r3, #0
 831 0018 F5DA     		bge	.L63
 553:Drivers/STM32F7xx_HAL_Driver/Src/stm32f7xx_ll_usb.c ****   USBx->GRSTCTL = USB_OTG_GRSTCTL_RXFFLSH;
 832              		.loc 1 553 3 is_stmt 1 view .LVU261
 553:Drivers/STM32F7xx_HAL_Driver/Src/stm32f7xx_ll_usb.c ****   USBx->GRSTCTL = USB_OTG_GRSTCTL_RXFFLSH;
 833              		.loc 1 553 9 is_stmt 0 view .LVU262
 834 001a 0023     		movs	r3, #0
 835 001c 0193     		str	r3, [sp, #4]
 554:Drivers/STM32F7xx_HAL_Driver/Src/stm32f7xx_ll_usb.c **** 
 836              		.loc 1 554 3 is_stmt 1 view .LVU263
 554:Drivers/STM32F7xx_HAL_Driver/Src/stm32f7xx_ll_usb.c **** 
 837              		.loc 1 554 17 is_stmt 0 view .LVU264
ARM GAS  /tmp/cc8ZLjKA.s 			page 47


 838 001e 1023     		movs	r3, #16
 839 0020 0361     		str	r3, [r0, #16]
 840              	.L64:
 556:Drivers/STM32F7xx_HAL_Driver/Src/stm32f7xx_ll_usb.c ****   {
 841              		.loc 1 556 3 is_stmt 1 view .LVU265
 558:Drivers/STM32F7xx_HAL_Driver/Src/stm32f7xx_ll_usb.c **** 
 842              		.loc 1 558 5 view .LVU266
 558:Drivers/STM32F7xx_HAL_Driver/Src/stm32f7xx_ll_usb.c **** 
 843              		.loc 1 558 10 is_stmt 0 view .LVU267
 844 0022 019B     		ldr	r3, [sp, #4]
 845 0024 0133     		adds	r3, r3, #1
 846 0026 0193     		str	r3, [sp, #4]
 560:Drivers/STM32F7xx_HAL_Driver/Src/stm32f7xx_ll_usb.c ****     {
 847              		.loc 1 560 5 is_stmt 1 view .LVU268
 560:Drivers/STM32F7xx_HAL_Driver/Src/stm32f7xx_ll_usb.c ****     {
 848              		.loc 1 560 15 is_stmt 0 view .LVU269
 849 0028 019A     		ldr	r2, [sp, #4]
 560:Drivers/STM32F7xx_HAL_Driver/Src/stm32f7xx_ll_usb.c ****     {
 850              		.loc 1 560 8 view .LVU270
 851 002a 074B     		ldr	r3, .L68
 852 002c 9A42     		cmp	r2, r3
 853 002e 08D8     		bhi	.L66
 564:Drivers/STM32F7xx_HAL_Driver/Src/stm32f7xx_ll_usb.c **** 
 854              		.loc 1 564 54 is_stmt 1 view .LVU271
 564:Drivers/STM32F7xx_HAL_Driver/Src/stm32f7xx_ll_usb.c **** 
 855              		.loc 1 564 17 is_stmt 0 view .LVU272
 856 0030 0369     		ldr	r3, [r0, #16]
 564:Drivers/STM32F7xx_HAL_Driver/Src/stm32f7xx_ll_usb.c **** 
 857              		.loc 1 564 54 view .LVU273
 858 0032 13F0100F 		tst	r3, #16
 859 0036 F4D1     		bne	.L64
 566:Drivers/STM32F7xx_HAL_Driver/Src/stm32f7xx_ll_usb.c **** }
 860              		.loc 1 566 10 view .LVU274
 861 0038 0020     		movs	r0, #0
 862              	.LVL41:
 566:Drivers/STM32F7xx_HAL_Driver/Src/stm32f7xx_ll_usb.c **** }
 863              		.loc 1 566 10 view .LVU275
 864 003a 00E0     		b	.L62
 865              	.LVL42:
 866              	.L65:
 548:Drivers/STM32F7xx_HAL_Driver/Src/stm32f7xx_ll_usb.c ****     }
 867              		.loc 1 548 14 view .LVU276
 868 003c 0320     		movs	r0, #3
 869              	.LVL43:
 870              	.L62:
 567:Drivers/STM32F7xx_HAL_Driver/Src/stm32f7xx_ll_usb.c **** 
 871              		.loc 1 567 1 view .LVU277
 872 003e 02B0     		add	sp, sp, #8
 873              		.cfi_remember_state
 874              		.cfi_def_cfa_offset 0
 875              		@ sp needed
 876 0040 7047     		bx	lr
 877              	.LVL44:
 878              	.L66:
 879              		.cfi_restore_state
 562:Drivers/STM32F7xx_HAL_Driver/Src/stm32f7xx_ll_usb.c ****     }
 880              		.loc 1 562 14 view .LVU278
ARM GAS  /tmp/cc8ZLjKA.s 			page 48


 881 0042 0320     		movs	r0, #3
 882              	.LVL45:
 562:Drivers/STM32F7xx_HAL_Driver/Src/stm32f7xx_ll_usb.c ****     }
 883              		.loc 1 562 14 view .LVU279
 884 0044 FBE7     		b	.L62
 885              	.L69:
 886 0046 00BF     		.align	2
 887              	.L68:
 888 0048 400D0300 		.word	200000
 889              		.cfi_endproc
 890              	.LFE148:
 892              		.section	.text.USB_SetDevSpeed,"ax",%progbits
 893              		.align	1
 894              		.global	USB_SetDevSpeed
 895              		.syntax unified
 896              		.thumb
 897              		.thumb_func
 899              	USB_SetDevSpeed:
 900              	.LVL46:
 901              	.LFB149:
 581:Drivers/STM32F7xx_HAL_Driver/Src/stm32f7xx_ll_usb.c ****   uint32_t USBx_BASE = (uint32_t)USBx;
 902              		.loc 1 581 1 is_stmt 1 view -0
 903              		.cfi_startproc
 904              		@ args = 0, pretend = 0, frame = 0
 905              		@ frame_needed = 0, uses_anonymous_args = 0
 906              		@ link register save eliminated.
 582:Drivers/STM32F7xx_HAL_Driver/Src/stm32f7xx_ll_usb.c **** 
 907              		.loc 1 582 3 view .LVU281
 584:Drivers/STM32F7xx_HAL_Driver/Src/stm32f7xx_ll_usb.c ****   return HAL_OK;
 908              		.loc 1 584 3 view .LVU282
 584:Drivers/STM32F7xx_HAL_Driver/Src/stm32f7xx_ll_usb.c ****   return HAL_OK;
 909              		.loc 1 584 14 is_stmt 0 view .LVU283
 910 0000 D0F80038 		ldr	r3, [r0, #2048]
 584:Drivers/STM32F7xx_HAL_Driver/Src/stm32f7xx_ll_usb.c ****   return HAL_OK;
 911              		.loc 1 584 21 view .LVU284
 912 0004 1943     		orrs	r1, r1, r3
 913              	.LVL47:
 584:Drivers/STM32F7xx_HAL_Driver/Src/stm32f7xx_ll_usb.c ****   return HAL_OK;
 914              		.loc 1 584 21 view .LVU285
 915 0006 C0F80018 		str	r1, [r0, #2048]
 585:Drivers/STM32F7xx_HAL_Driver/Src/stm32f7xx_ll_usb.c **** }
 916              		.loc 1 585 3 is_stmt 1 view .LVU286
 586:Drivers/STM32F7xx_HAL_Driver/Src/stm32f7xx_ll_usb.c **** 
 917              		.loc 1 586 1 is_stmt 0 view .LVU287
 918 000a 0020     		movs	r0, #0
 919              	.LVL48:
 586:Drivers/STM32F7xx_HAL_Driver/Src/stm32f7xx_ll_usb.c **** 
 920              		.loc 1 586 1 view .LVU288
 921 000c 7047     		bx	lr
 922              		.cfi_endproc
 923              	.LFE149:
 925              		.section	.text.USB_DevInit,"ax",%progbits
 926              		.align	1
 927              		.global	USB_DevInit
 928              		.syntax unified
 929              		.thumb
 930              		.thumb_func
ARM GAS  /tmp/cc8ZLjKA.s 			page 49


 932              	USB_DevInit:
 933              	.LVL49:
 934              	.LFB146:
 331:Drivers/STM32F7xx_HAL_Driver/Src/stm32f7xx_ll_usb.c ****   HAL_StatusTypeDef ret = HAL_OK;
 935              		.loc 1 331 1 is_stmt 1 view -0
 936              		.cfi_startproc
 937              		@ args = 56, pretend = 16, frame = 0
 938              		@ frame_needed = 0, uses_anonymous_args = 0
 331:Drivers/STM32F7xx_HAL_Driver/Src/stm32f7xx_ll_usb.c ****   HAL_StatusTypeDef ret = HAL_OK;
 939              		.loc 1 331 1 is_stmt 0 view .LVU290
 940 0000 84B0     		sub	sp, sp, #16
 941              		.cfi_def_cfa_offset 16
 942 0002 2DE9F041 		push	{r4, r5, r6, r7, r8, lr}
 943              		.cfi_def_cfa_offset 40
 944              		.cfi_offset 4, -40
 945              		.cfi_offset 5, -36
 946              		.cfi_offset 6, -32
 947              		.cfi_offset 7, -28
 948              		.cfi_offset 8, -24
 949              		.cfi_offset 14, -20
 950 0006 0446     		mov	r4, r0
 951 0008 07A8     		add	r0, sp, #28
 952              	.LVL50:
 331:Drivers/STM32F7xx_HAL_Driver/Src/stm32f7xx_ll_usb.c ****   HAL_StatusTypeDef ret = HAL_OK;
 953              		.loc 1 331 1 view .LVU291
 954 000a 80E80E00 		stm	r0, {r1, r2, r3}
 332:Drivers/STM32F7xx_HAL_Driver/Src/stm32f7xx_ll_usb.c ****   uint32_t USBx_BASE = (uint32_t)USBx;
 955              		.loc 1 332 3 is_stmt 1 view .LVU292
 956              	.LVL51:
 333:Drivers/STM32F7xx_HAL_Driver/Src/stm32f7xx_ll_usb.c ****   uint32_t i;
 957              		.loc 1 333 3 view .LVU293
 334:Drivers/STM32F7xx_HAL_Driver/Src/stm32f7xx_ll_usb.c **** 
 958              		.loc 1 334 3 view .LVU294
 336:Drivers/STM32F7xx_HAL_Driver/Src/stm32f7xx_ll_usb.c ****   {
 959              		.loc 1 336 3 view .LVU295
 336:Drivers/STM32F7xx_HAL_Driver/Src/stm32f7xx_ll_usb.c ****   {
 960              		.loc 1 336 10 is_stmt 0 view .LVU296
 961 000e 0023     		movs	r3, #0
 336:Drivers/STM32F7xx_HAL_Driver/Src/stm32f7xx_ll_usb.c ****   {
 962              		.loc 1 336 3 view .LVU297
 963 0010 06E0     		b	.L72
 964              	.LVL52:
 965              	.L73:
 338:Drivers/STM32F7xx_HAL_Driver/Src/stm32f7xx_ll_usb.c ****   }
 966              		.loc 1 338 5 is_stmt 1 discriminator 3 view .LVU298
 338:Drivers/STM32F7xx_HAL_Driver/Src/stm32f7xx_ll_usb.c ****   }
 967              		.loc 1 338 22 is_stmt 0 discriminator 3 view .LVU299
 968 0012 03F14002 		add	r2, r3, #64
 969 0016 04EB8202 		add	r2, r4, r2, lsl #2
 970 001a 0021     		movs	r1, #0
 971 001c 5160     		str	r1, [r2, #4]
 336:Drivers/STM32F7xx_HAL_Driver/Src/stm32f7xx_ll_usb.c ****   {
 972              		.loc 1 336 26 is_stmt 1 discriminator 3 view .LVU300
 973 001e 0133     		adds	r3, r3, #1
 974              	.LVL53:
 975              	.L72:
 336:Drivers/STM32F7xx_HAL_Driver/Src/stm32f7xx_ll_usb.c ****   {
ARM GAS  /tmp/cc8ZLjKA.s 			page 50


 976              		.loc 1 336 18 discriminator 1 view .LVU301
 977 0020 0E2B     		cmp	r3, #14
 978 0022 F6D9     		bls	.L73
 342:Drivers/STM32F7xx_HAL_Driver/Src/stm32f7xx_ll_usb.c ****   {
 979              		.loc 1 342 3 view .LVU302
 342:Drivers/STM32F7xx_HAL_Driver/Src/stm32f7xx_ll_usb.c ****   {
 980              		.loc 1 342 10 is_stmt 0 view .LVU303
 981 0024 119F     		ldr	r7, [sp, #68]
 342:Drivers/STM32F7xx_HAL_Driver/Src/stm32f7xx_ll_usb.c ****   {
 982              		.loc 1 342 6 view .LVU304
 983 0026 37BB     		cbnz	r7, .L74
 344:Drivers/STM32F7xx_HAL_Driver/Src/stm32f7xx_ll_usb.c **** 
 984              		.loc 1 344 5 is_stmt 1 view .LVU305
 344:Drivers/STM32F7xx_HAL_Driver/Src/stm32f7xx_ll_usb.c **** 
 985              		.loc 1 344 16 is_stmt 0 view .LVU306
 986 0028 D4F80438 		ldr	r3, [r4, #2052]
 987              	.LVL54:
 344:Drivers/STM32F7xx_HAL_Driver/Src/stm32f7xx_ll_usb.c **** 
 988              		.loc 1 344 23 view .LVU307
 989 002c 43F00203 		orr	r3, r3, #2
 990 0030 C4F80438 		str	r3, [r4, #2052]
 347:Drivers/STM32F7xx_HAL_Driver/Src/stm32f7xx_ll_usb.c **** 
 991              		.loc 1 347 5 is_stmt 1 view .LVU308
 347:Drivers/STM32F7xx_HAL_Driver/Src/stm32f7xx_ll_usb.c **** 
 992              		.loc 1 347 9 is_stmt 0 view .LVU309
 993 0034 A36B     		ldr	r3, [r4, #56]
 347:Drivers/STM32F7xx_HAL_Driver/Src/stm32f7xx_ll_usb.c **** 
 994              		.loc 1 347 17 view .LVU310
 995 0036 23F40013 		bic	r3, r3, #2097152
 996 003a A363     		str	r3, [r4, #56]
 350:Drivers/STM32F7xx_HAL_Driver/Src/stm32f7xx_ll_usb.c ****     USBx->GOTGCTL |= USB_OTG_GOTGCTL_BVALOVAL;
 997              		.loc 1 350 5 is_stmt 1 view .LVU311
 350:Drivers/STM32F7xx_HAL_Driver/Src/stm32f7xx_ll_usb.c ****     USBx->GOTGCTL |= USB_OTG_GOTGCTL_BVALOVAL;
 998              		.loc 1 350 9 is_stmt 0 view .LVU312
 999 003c 2368     		ldr	r3, [r4]
 350:Drivers/STM32F7xx_HAL_Driver/Src/stm32f7xx_ll_usb.c ****     USBx->GOTGCTL |= USB_OTG_GOTGCTL_BVALOVAL;
 1000              		.loc 1 350 19 view .LVU313
 1001 003e 43F04003 		orr	r3, r3, #64
 1002 0042 2360     		str	r3, [r4]
 351:Drivers/STM32F7xx_HAL_Driver/Src/stm32f7xx_ll_usb.c ****   }
 1003              		.loc 1 351 5 is_stmt 1 view .LVU314
 351:Drivers/STM32F7xx_HAL_Driver/Src/stm32f7xx_ll_usb.c ****   }
 1004              		.loc 1 351 9 is_stmt 0 view .LVU315
 1005 0044 2368     		ldr	r3, [r4]
 351:Drivers/STM32F7xx_HAL_Driver/Src/stm32f7xx_ll_usb.c ****   }
 1006              		.loc 1 351 19 view .LVU316
 1007 0046 43F08003 		orr	r3, r3, #128
 1008 004a 2360     		str	r3, [r4]
 1009              	.L75:
 360:Drivers/STM32F7xx_HAL_Driver/Src/stm32f7xx_ll_usb.c **** 
 1010              		.loc 1 360 3 is_stmt 1 view .LVU317
 360:Drivers/STM32F7xx_HAL_Driver/Src/stm32f7xx_ll_usb.c **** 
 1011              		.loc 1 360 16 is_stmt 0 view .LVU318
 1012 004c 0023     		movs	r3, #0
 1013 004e C4F8003E 		str	r3, [r4, #3584]
 363:Drivers/STM32F7xx_HAL_Driver/Src/stm32f7xx_ll_usb.c **** 
 1014              		.loc 1 363 3 is_stmt 1 view .LVU319
ARM GAS  /tmp/cc8ZLjKA.s 			page 51


 363:Drivers/STM32F7xx_HAL_Driver/Src/stm32f7xx_ll_usb.c **** 
 1015              		.loc 1 363 14 is_stmt 0 view .LVU320
 1016 0052 04F50065 		add	r5, r4, #2048
 1017 0056 D4F80038 		ldr	r3, [r4, #2048]
 363:Drivers/STM32F7xx_HAL_Driver/Src/stm32f7xx_ll_usb.c **** 
 1018              		.loc 1 363 21 view .LVU321
 1019 005a C4F80038 		str	r3, [r4, #2048]
 365:Drivers/STM32F7xx_HAL_Driver/Src/stm32f7xx_ll_usb.c ****   {
 1020              		.loc 1 365 3 is_stmt 1 view .LVU322
 365:Drivers/STM32F7xx_HAL_Driver/Src/stm32f7xx_ll_usb.c ****   {
 1021              		.loc 1 365 10 is_stmt 0 view .LVU323
 1022 005e 0C9B     		ldr	r3, [sp, #48]
 365:Drivers/STM32F7xx_HAL_Driver/Src/stm32f7xx_ll_usb.c ****   {
 1023              		.loc 1 365 6 view .LVU324
 1024 0060 012B     		cmp	r3, #1
 1025 0062 0DD0     		beq	.L99
 379:Drivers/STM32F7xx_HAL_Driver/Src/stm32f7xx_ll_usb.c ****   {
 1026              		.loc 1 379 8 is_stmt 1 view .LVU325
 379:Drivers/STM32F7xx_HAL_Driver/Src/stm32f7xx_ll_usb.c ****   {
 1027              		.loc 1 379 11 is_stmt 0 view .LVU326
 1028 0064 032B     		cmp	r3, #3
 1029 0066 1CD1     		bne	.L79
 381:Drivers/STM32F7xx_HAL_Driver/Src/stm32f7xx_ll_usb.c ****     {
 1030              		.loc 1 381 5 is_stmt 1 view .LVU327
 381:Drivers/STM32F7xx_HAL_Driver/Src/stm32f7xx_ll_usb.c ****     {
 1031              		.loc 1 381 12 is_stmt 0 view .LVU328
 1032 0068 099B     		ldr	r3, [sp, #36]
 381:Drivers/STM32F7xx_HAL_Driver/Src/stm32f7xx_ll_usb.c ****     {
 1033              		.loc 1 381 8 view .LVU329
 1034 006a ABB9     		cbnz	r3, .L80
 384:Drivers/STM32F7xx_HAL_Driver/Src/stm32f7xx_ll_usb.c ****     }
 1035              		.loc 1 384 7 is_stmt 1 view .LVU330
 384:Drivers/STM32F7xx_HAL_Driver/Src/stm32f7xx_ll_usb.c ****     }
 1036              		.loc 1 384 13 is_stmt 0 view .LVU331
 1037 006c 0021     		movs	r1, #0
 1038 006e 2046     		mov	r0, r4
 1039 0070 FFF7FEFF 		bl	USB_SetDevSpeed
 1040              	.LVL55:
 1041 0074 19E0     		b	.L78
 1042              	.LVL56:
 1043              	.L74:
 356:Drivers/STM32F7xx_HAL_Driver/Src/stm32f7xx_ll_usb.c ****   }
 1044              		.loc 1 356 5 is_stmt 1 view .LVU332
 356:Drivers/STM32F7xx_HAL_Driver/Src/stm32f7xx_ll_usb.c ****   }
 1045              		.loc 1 356 9 is_stmt 0 view .LVU333
 1046 0076 A36B     		ldr	r3, [r4, #56]
 1047              	.LVL57:
 356:Drivers/STM32F7xx_HAL_Driver/Src/stm32f7xx_ll_usb.c ****   }
 1048              		.loc 1 356 17 view .LVU334
 1049 0078 43F40013 		orr	r3, r3, #2097152
 1050 007c A363     		str	r3, [r4, #56]
 1051 007e E5E7     		b	.L75
 1052              	.L99:
 367:Drivers/STM32F7xx_HAL_Driver/Src/stm32f7xx_ll_usb.c ****     {
 1053              		.loc 1 367 5 is_stmt 1 view .LVU335
 367:Drivers/STM32F7xx_HAL_Driver/Src/stm32f7xx_ll_usb.c ****     {
 1054              		.loc 1 367 12 is_stmt 0 view .LVU336
ARM GAS  /tmp/cc8ZLjKA.s 			page 52


 1055 0080 099B     		ldr	r3, [sp, #36]
 367:Drivers/STM32F7xx_HAL_Driver/Src/stm32f7xx_ll_usb.c ****     {
 1056              		.loc 1 367 8 view .LVU337
 1057 0082 23B9     		cbnz	r3, .L77
 370:Drivers/STM32F7xx_HAL_Driver/Src/stm32f7xx_ll_usb.c ****     }
 1058              		.loc 1 370 7 is_stmt 1 view .LVU338
 370:Drivers/STM32F7xx_HAL_Driver/Src/stm32f7xx_ll_usb.c ****     }
 1059              		.loc 1 370 13 is_stmt 0 view .LVU339
 1060 0084 0021     		movs	r1, #0
 1061 0086 2046     		mov	r0, r4
 1062 0088 FFF7FEFF 		bl	USB_SetDevSpeed
 1063              	.LVL58:
 1064 008c 0DE0     		b	.L78
 1065              	.L77:
 375:Drivers/STM32F7xx_HAL_Driver/Src/stm32f7xx_ll_usb.c ****     }
 1066              		.loc 1 375 7 is_stmt 1 view .LVU340
 375:Drivers/STM32F7xx_HAL_Driver/Src/stm32f7xx_ll_usb.c ****     }
 1067              		.loc 1 375 13 is_stmt 0 view .LVU341
 1068 008e 0121     		movs	r1, #1
 1069 0090 2046     		mov	r0, r4
 1070 0092 FFF7FEFF 		bl	USB_SetDevSpeed
 1071              	.LVL59:
 1072 0096 08E0     		b	.L78
 1073              	.L80:
 389:Drivers/STM32F7xx_HAL_Driver/Src/stm32f7xx_ll_usb.c ****     }
 1074              		.loc 1 389 7 is_stmt 1 view .LVU342
 389:Drivers/STM32F7xx_HAL_Driver/Src/stm32f7xx_ll_usb.c ****     }
 1075              		.loc 1 389 13 is_stmt 0 view .LVU343
 1076 0098 0121     		movs	r1, #1
 1077 009a 2046     		mov	r0, r4
 1078 009c FFF7FEFF 		bl	USB_SetDevSpeed
 1079              	.LVL60:
 1080 00a0 03E0     		b	.L78
 1081              	.L79:
 396:Drivers/STM32F7xx_HAL_Driver/Src/stm32f7xx_ll_usb.c ****   }
 1082              		.loc 1 396 5 is_stmt 1 view .LVU344
 396:Drivers/STM32F7xx_HAL_Driver/Src/stm32f7xx_ll_usb.c ****   }
 1083              		.loc 1 396 11 is_stmt 0 view .LVU345
 1084 00a2 0321     		movs	r1, #3
 1085 00a4 2046     		mov	r0, r4
 1086 00a6 FFF7FEFF 		bl	USB_SetDevSpeed
 1087              	.LVL61:
 1088              	.L78:
 400:Drivers/STM32F7xx_HAL_Driver/Src/stm32f7xx_ll_usb.c ****   {
 1089              		.loc 1 400 3 is_stmt 1 view .LVU346
 400:Drivers/STM32F7xx_HAL_Driver/Src/stm32f7xx_ll_usb.c ****   {
 1090              		.loc 1 400 7 is_stmt 0 view .LVU347
 1091 00aa 1021     		movs	r1, #16
 1092 00ac 2046     		mov	r0, r4
 1093 00ae FFF7FEFF 		bl	USB_FlushTxFifo
 1094              	.LVL62:
 400:Drivers/STM32F7xx_HAL_Driver/Src/stm32f7xx_ll_usb.c ****   {
 1095              		.loc 1 400 6 view .LVU348
 1096 00b2 8046     		mov	r8, r0
 1097 00b4 08B1     		cbz	r0, .L81
 402:Drivers/STM32F7xx_HAL_Driver/Src/stm32f7xx_ll_usb.c ****   }
 1098              		.loc 1 402 9 view .LVU349
ARM GAS  /tmp/cc8ZLjKA.s 			page 53


 1099 00b6 4FF00108 		mov	r8, #1
 1100              	.L81:
 1101              	.LVL63:
 405:Drivers/STM32F7xx_HAL_Driver/Src/stm32f7xx_ll_usb.c ****   {
 1102              		.loc 1 405 3 is_stmt 1 view .LVU350
 405:Drivers/STM32F7xx_HAL_Driver/Src/stm32f7xx_ll_usb.c ****   {
 1103              		.loc 1 405 7 is_stmt 0 view .LVU351
 1104 00ba 2046     		mov	r0, r4
 1105 00bc FFF7FEFF 		bl	USB_FlushRxFifo
 1106              	.LVL64:
 405:Drivers/STM32F7xx_HAL_Driver/Src/stm32f7xx_ll_usb.c ****   {
 1107              		.loc 1 405 6 view .LVU352
 1108 00c0 08B1     		cbz	r0, .L82
 407:Drivers/STM32F7xx_HAL_Driver/Src/stm32f7xx_ll_usb.c ****   }
 1109              		.loc 1 407 9 view .LVU353
 1110 00c2 4FF00108 		mov	r8, #1
 1111              	.LVL65:
 1112              	.L82:
 411:Drivers/STM32F7xx_HAL_Driver/Src/stm32f7xx_ll_usb.c ****   USBx_DEVICE->DOEPMSK = 0U;
 1113              		.loc 1 411 3 is_stmt 1 view .LVU354
 411:Drivers/STM32F7xx_HAL_Driver/Src/stm32f7xx_ll_usb.c ****   USBx_DEVICE->DOEPMSK = 0U;
 1114              		.loc 1 411 24 is_stmt 0 view .LVU355
 1115 00c6 0023     		movs	r3, #0
 1116 00c8 2B61     		str	r3, [r5, #16]
 412:Drivers/STM32F7xx_HAL_Driver/Src/stm32f7xx_ll_usb.c ****   USBx_DEVICE->DAINTMSK = 0U;
 1117              		.loc 1 412 3 is_stmt 1 view .LVU356
 412:Drivers/STM32F7xx_HAL_Driver/Src/stm32f7xx_ll_usb.c ****   USBx_DEVICE->DAINTMSK = 0U;
 1118              		.loc 1 412 24 is_stmt 0 view .LVU357
 1119 00ca 6B61     		str	r3, [r5, #20]
 413:Drivers/STM32F7xx_HAL_Driver/Src/stm32f7xx_ll_usb.c **** 
 1120              		.loc 1 413 3 is_stmt 1 view .LVU358
 413:Drivers/STM32F7xx_HAL_Driver/Src/stm32f7xx_ll_usb.c **** 
 1121              		.loc 1 413 25 is_stmt 0 view .LVU359
 1122 00cc EB61     		str	r3, [r5, #28]
 415:Drivers/STM32F7xx_HAL_Driver/Src/stm32f7xx_ll_usb.c ****   {
 1123              		.loc 1 415 3 is_stmt 1 view .LVU360
 1124              	.LVL66:
 415:Drivers/STM32F7xx_HAL_Driver/Src/stm32f7xx_ll_usb.c ****   {
 1125              		.loc 1 415 3 is_stmt 0 view .LVU361
 1126 00ce 0AE0     		b	.L83
 1127              	.LVL67:
 1128              	.L101:
 419:Drivers/STM32F7xx_HAL_Driver/Src/stm32f7xx_ll_usb.c ****       {
 1129              		.loc 1 419 7 is_stmt 1 view .LVU362
 419:Drivers/STM32F7xx_HAL_Driver/Src/stm32f7xx_ll_usb.c ****       {
 1130              		.loc 1 419 10 is_stmt 0 view .LVU363
 1131 00d0 C3B9     		cbnz	r3, .L85
 421:Drivers/STM32F7xx_HAL_Driver/Src/stm32f7xx_ll_usb.c ****       }
 1132              		.loc 1 421 9 is_stmt 1 view .LVU364
 421:Drivers/STM32F7xx_HAL_Driver/Src/stm32f7xx_ll_usb.c ****       }
 1133              		.loc 1 421 31 is_stmt 0 view .LVU365
 1134 00d2 4FF00060 		mov	r0, #134217728
 1135 00d6 C2F80009 		str	r0, [r2, #2304]
 1136              	.L86:
 433:Drivers/STM32F7xx_HAL_Driver/Src/stm32f7xx_ll_usb.c ****     USBx_INEP(i)->DIEPINT  = 0xFB7FU;
 1137              		.loc 1 433 5 is_stmt 1 discriminator 2 view .LVU366
 433:Drivers/STM32F7xx_HAL_Driver/Src/stm32f7xx_ll_usb.c ****     USBx_INEP(i)->DIEPINT  = 0xFB7FU;
ARM GAS  /tmp/cc8ZLjKA.s 			page 54


 1138              		.loc 1 433 28 is_stmt 0 discriminator 2 view .LVU367
 1139 00da 0022     		movs	r2, #0
 1140 00dc 0A61     		str	r2, [r1, #16]
 434:Drivers/STM32F7xx_HAL_Driver/Src/stm32f7xx_ll_usb.c ****   }
 1141              		.loc 1 434 5 is_stmt 1 discriminator 2 view .LVU368
 434:Drivers/STM32F7xx_HAL_Driver/Src/stm32f7xx_ll_usb.c ****   }
 1142              		.loc 1 434 28 is_stmt 0 discriminator 2 view .LVU369
 1143 00de 4FF67F32 		movw	r2, #64383
 1144 00e2 8A60     		str	r2, [r1, #8]
 415:Drivers/STM32F7xx_HAL_Driver/Src/stm32f7xx_ll_usb.c ****   {
 1145              		.loc 1 415 40 is_stmt 1 discriminator 2 view .LVU370
 1146 00e4 0133     		adds	r3, r3, #1
 1147              	.LVL68:
 1148              	.L83:
 415:Drivers/STM32F7xx_HAL_Driver/Src/stm32f7xx_ll_usb.c ****   {
 1149              		.loc 1 415 18 discriminator 1 view .LVU371
 415:Drivers/STM32F7xx_HAL_Driver/Src/stm32f7xx_ll_usb.c ****   {
 1150              		.loc 1 415 23 is_stmt 0 discriminator 1 view .LVU372
 1151 00e6 0799     		ldr	r1, [sp, #28]
 415:Drivers/STM32F7xx_HAL_Driver/Src/stm32f7xx_ll_usb.c ****   {
 1152              		.loc 1 415 18 discriminator 1 view .LVU373
 1153 00e8 9942     		cmp	r1, r3
 1154 00ea 10D9     		bls	.L100
 417:Drivers/STM32F7xx_HAL_Driver/Src/stm32f7xx_ll_usb.c ****     {
 1155              		.loc 1 417 5 is_stmt 1 view .LVU374
 417:Drivers/STM32F7xx_HAL_Driver/Src/stm32f7xx_ll_usb.c ****     {
 1156              		.loc 1 417 10 is_stmt 0 view .LVU375
 1157 00ec 04EB4312 		add	r2, r4, r3, lsl #5
 1158 00f0 02F51061 		add	r1, r2, #2304
 417:Drivers/STM32F7xx_HAL_Driver/Src/stm32f7xx_ll_usb.c ****     {
 1159              		.loc 1 417 22 view .LVU376
 1160 00f4 D2F80009 		ldr	r0, [r2, #2304]
 417:Drivers/STM32F7xx_HAL_Driver/Src/stm32f7xx_ll_usb.c ****     {
 1161              		.loc 1 417 8 view .LVU377
 1162 00f8 0028     		cmp	r0, #0
 1163 00fa E9DB     		blt	.L101
 430:Drivers/STM32F7xx_HAL_Driver/Src/stm32f7xx_ll_usb.c ****     }
 1164              		.loc 1 430 7 is_stmt 1 view .LVU378
 430:Drivers/STM32F7xx_HAL_Driver/Src/stm32f7xx_ll_usb.c ****     }
 1165              		.loc 1 430 29 is_stmt 0 view .LVU379
 1166 00fc 0020     		movs	r0, #0
 1167 00fe C2F80009 		str	r0, [r2, #2304]
 1168 0102 EAE7     		b	.L86
 1169              	.L85:
 425:Drivers/STM32F7xx_HAL_Driver/Src/stm32f7xx_ll_usb.c ****       }
 1170              		.loc 1 425 9 is_stmt 1 view .LVU380
 425:Drivers/STM32F7xx_HAL_Driver/Src/stm32f7xx_ll_usb.c ****       }
 1171              		.loc 1 425 31 is_stmt 0 view .LVU381
 1172 0104 4FF09040 		mov	r0, #1207959552
 1173 0108 C2F80009 		str	r0, [r2, #2304]
 1174 010c E5E7     		b	.L86
 1175              	.L100:
 437:Drivers/STM32F7xx_HAL_Driver/Src/stm32f7xx_ll_usb.c ****   {
 1176              		.loc 1 437 10 view .LVU382
 1177 010e 0023     		movs	r3, #0
 1178              	.LVL69:
 437:Drivers/STM32F7xx_HAL_Driver/Src/stm32f7xx_ll_usb.c ****   {
ARM GAS  /tmp/cc8ZLjKA.s 			page 55


 1179              		.loc 1 437 10 view .LVU383
 1180 0110 0AE0     		b	.L88
 1181              	.LVL70:
 1182              	.L104:
 441:Drivers/STM32F7xx_HAL_Driver/Src/stm32f7xx_ll_usb.c ****       {
 1183              		.loc 1 441 7 is_stmt 1 view .LVU384
 441:Drivers/STM32F7xx_HAL_Driver/Src/stm32f7xx_ll_usb.c ****       {
 1184              		.loc 1 441 10 is_stmt 0 view .LVU385
 1185 0112 C3B1     		cbz	r3, .L102
 447:Drivers/STM32F7xx_HAL_Driver/Src/stm32f7xx_ll_usb.c ****       }
 1186              		.loc 1 447 9 is_stmt 1 view .LVU386
 447:Drivers/STM32F7xx_HAL_Driver/Src/stm32f7xx_ll_usb.c ****       }
 1187              		.loc 1 447 32 is_stmt 0 view .LVU387
 1188 0114 4FF0904C 		mov	ip, #1207959552
 1189 0118 C2F800CB 		str	ip, [r2, #2816]
 1190              	.L91:
 455:Drivers/STM32F7xx_HAL_Driver/Src/stm32f7xx_ll_usb.c ****     USBx_OUTEP(i)->DOEPINT  = 0xFB7FU;
 1191              		.loc 1 455 5 is_stmt 1 discriminator 2 view .LVU388
 455:Drivers/STM32F7xx_HAL_Driver/Src/stm32f7xx_ll_usb.c ****     USBx_OUTEP(i)->DOEPINT  = 0xFB7FU;
 1192              		.loc 1 455 29 is_stmt 0 discriminator 2 view .LVU389
 1193 011c 0022     		movs	r2, #0
 1194 011e 0261     		str	r2, [r0, #16]
 456:Drivers/STM32F7xx_HAL_Driver/Src/stm32f7xx_ll_usb.c ****   }
 1195              		.loc 1 456 5 is_stmt 1 discriminator 2 view .LVU390
 456:Drivers/STM32F7xx_HAL_Driver/Src/stm32f7xx_ll_usb.c ****   }
 1196              		.loc 1 456 29 is_stmt 0 discriminator 2 view .LVU391
 1197 0120 4FF67F32 		movw	r2, #64383
 1198 0124 8260     		str	r2, [r0, #8]
 437:Drivers/STM32F7xx_HAL_Driver/Src/stm32f7xx_ll_usb.c ****   {
 1199              		.loc 1 437 40 is_stmt 1 discriminator 2 view .LVU392
 1200 0126 0133     		adds	r3, r3, #1
 1201              	.LVL71:
 1202              	.L88:
 437:Drivers/STM32F7xx_HAL_Driver/Src/stm32f7xx_ll_usb.c ****   {
 1203              		.loc 1 437 18 discriminator 1 view .LVU393
 1204 0128 9942     		cmp	r1, r3
 1205 012a 11D9     		bls	.L103
 439:Drivers/STM32F7xx_HAL_Driver/Src/stm32f7xx_ll_usb.c ****     {
 1206              		.loc 1 439 5 view .LVU394
 439:Drivers/STM32F7xx_HAL_Driver/Src/stm32f7xx_ll_usb.c ****     {
 1207              		.loc 1 439 10 is_stmt 0 view .LVU395
 1208 012c 04EB4312 		add	r2, r4, r3, lsl #5
 1209 0130 02F53060 		add	r0, r2, #2816
 439:Drivers/STM32F7xx_HAL_Driver/Src/stm32f7xx_ll_usb.c ****     {
 1210              		.loc 1 439 23 view .LVU396
 1211 0134 D2F8006B 		ldr	r6, [r2, #2816]
 439:Drivers/STM32F7xx_HAL_Driver/Src/stm32f7xx_ll_usb.c ****     {
 1212              		.loc 1 439 8 view .LVU397
 1213 0138 002E     		cmp	r6, #0
 1214 013a EADB     		blt	.L104
 452:Drivers/STM32F7xx_HAL_Driver/Src/stm32f7xx_ll_usb.c ****     }
 1215              		.loc 1 452 7 is_stmt 1 view .LVU398
 452:Drivers/STM32F7xx_HAL_Driver/Src/stm32f7xx_ll_usb.c ****     }
 1216              		.loc 1 452 30 is_stmt 0 view .LVU399
 1217 013c 4FF0000C 		mov	ip, #0
 1218 0140 C2F800CB 		str	ip, [r2, #2816]
 1219 0144 EAE7     		b	.L91
ARM GAS  /tmp/cc8ZLjKA.s 			page 56


 1220              	.L102:
 443:Drivers/STM32F7xx_HAL_Driver/Src/stm32f7xx_ll_usb.c ****       }
 1221              		.loc 1 443 9 is_stmt 1 view .LVU400
 443:Drivers/STM32F7xx_HAL_Driver/Src/stm32f7xx_ll_usb.c ****       }
 1222              		.loc 1 443 32 is_stmt 0 view .LVU401
 1223 0146 4FF0006C 		mov	ip, #134217728
 1224 014a C2F800CB 		str	ip, [r2, #2816]
 1225 014e E5E7     		b	.L91
 1226              	.L103:
 459:Drivers/STM32F7xx_HAL_Driver/Src/stm32f7xx_ll_usb.c **** 
 1227              		.loc 1 459 3 is_stmt 1 view .LVU402
 459:Drivers/STM32F7xx_HAL_Driver/Src/stm32f7xx_ll_usb.c **** 
 1228              		.loc 1 459 14 is_stmt 0 view .LVU403
 1229 0150 2B69     		ldr	r3, [r5, #16]
 1230              	.LVL72:
 459:Drivers/STM32F7xx_HAL_Driver/Src/stm32f7xx_ll_usb.c **** 
 1231              		.loc 1 459 24 view .LVU404
 1232 0152 23F48073 		bic	r3, r3, #256
 1233 0156 2B61     		str	r3, [r5, #16]
 462:Drivers/STM32F7xx_HAL_Driver/Src/stm32f7xx_ll_usb.c **** 
 1234              		.loc 1 462 3 is_stmt 1 view .LVU405
 462:Drivers/STM32F7xx_HAL_Driver/Src/stm32f7xx_ll_usb.c **** 
 1235              		.loc 1 462 17 is_stmt 0 view .LVU406
 1236 0158 0023     		movs	r3, #0
 1237 015a A361     		str	r3, [r4, #24]
 465:Drivers/STM32F7xx_HAL_Driver/Src/stm32f7xx_ll_usb.c **** 
 1238              		.loc 1 465 3 is_stmt 1 view .LVU407
 465:Drivers/STM32F7xx_HAL_Driver/Src/stm32f7xx_ll_usb.c **** 
 1239              		.loc 1 465 17 is_stmt 0 view .LVU408
 1240 015c 6FF08043 		mvn	r3, #1073741824
 1241 0160 6361     		str	r3, [r4, #20]
 468:Drivers/STM32F7xx_HAL_Driver/Src/stm32f7xx_ll_usb.c ****   {
 1242              		.loc 1 468 3 is_stmt 1 view .LVU409
 468:Drivers/STM32F7xx_HAL_Driver/Src/stm32f7xx_ll_usb.c ****   {
 1243              		.loc 1 468 10 is_stmt 0 view .LVU410
 1244 0162 0A9B     		ldr	r3, [sp, #40]
 468:Drivers/STM32F7xx_HAL_Driver/Src/stm32f7xx_ll_usb.c ****   {
 1245              		.loc 1 468 6 view .LVU411
 1246 0164 1BB9     		cbnz	r3, .L93
 470:Drivers/STM32F7xx_HAL_Driver/Src/stm32f7xx_ll_usb.c ****   }
 1247              		.loc 1 470 5 is_stmt 1 view .LVU412
 470:Drivers/STM32F7xx_HAL_Driver/Src/stm32f7xx_ll_usb.c ****   }
 1248              		.loc 1 470 9 is_stmt 0 view .LVU413
 1249 0166 A369     		ldr	r3, [r4, #24]
 470:Drivers/STM32F7xx_HAL_Driver/Src/stm32f7xx_ll_usb.c ****   }
 1250              		.loc 1 470 19 view .LVU414
 1251 0168 43F01003 		orr	r3, r3, #16
 1252 016c A361     		str	r3, [r4, #24]
 1253              	.L93:
 474:Drivers/STM32F7xx_HAL_Driver/Src/stm32f7xx_ll_usb.c ****                    USB_OTG_GINTMSK_ENUMDNEM | USB_OTG_GINTMSK_IEPINT |
 1254              		.loc 1 474 3 is_stmt 1 view .LVU415
 474:Drivers/STM32F7xx_HAL_Driver/Src/stm32f7xx_ll_usb.c ****                    USB_OTG_GINTMSK_ENUMDNEM | USB_OTG_GINTMSK_IEPINT |
 1255              		.loc 1 474 7 is_stmt 0 view .LVU416
 1256 016e A269     		ldr	r2, [r4, #24]
 474:Drivers/STM32F7xx_HAL_Driver/Src/stm32f7xx_ll_usb.c ****                    USB_OTG_GINTMSK_ENUMDNEM | USB_OTG_GINTMSK_IEPINT |
 1257              		.loc 1 474 17 view .LVU417
 1258 0170 0A4B     		ldr	r3, .L106
ARM GAS  /tmp/cc8ZLjKA.s 			page 57


 1259 0172 1343     		orrs	r3, r3, r2
 1260 0174 A361     		str	r3, [r4, #24]
 479:Drivers/STM32F7xx_HAL_Driver/Src/stm32f7xx_ll_usb.c ****   {
 1261              		.loc 1 479 3 is_stmt 1 view .LVU418
 479:Drivers/STM32F7xx_HAL_Driver/Src/stm32f7xx_ll_usb.c ****   {
 1262              		.loc 1 479 10 is_stmt 0 view .LVU419
 1263 0176 0D9B     		ldr	r3, [sp, #52]
 479:Drivers/STM32F7xx_HAL_Driver/Src/stm32f7xx_ll_usb.c ****   {
 1264              		.loc 1 479 6 view .LVU420
 1265 0178 1BB1     		cbz	r3, .L94
 481:Drivers/STM32F7xx_HAL_Driver/Src/stm32f7xx_ll_usb.c ****   }
 1266              		.loc 1 481 5 is_stmt 1 view .LVU421
 481:Drivers/STM32F7xx_HAL_Driver/Src/stm32f7xx_ll_usb.c ****   }
 1267              		.loc 1 481 9 is_stmt 0 view .LVU422
 1268 017a A369     		ldr	r3, [r4, #24]
 481:Drivers/STM32F7xx_HAL_Driver/Src/stm32f7xx_ll_usb.c ****   }
 1269              		.loc 1 481 19 view .LVU423
 1270 017c 43F00803 		orr	r3, r3, #8
 1271 0180 A361     		str	r3, [r4, #24]
 1272              	.L94:
 484:Drivers/STM32F7xx_HAL_Driver/Src/stm32f7xx_ll_usb.c ****   {
 1273              		.loc 1 484 3 is_stmt 1 view .LVU424
 484:Drivers/STM32F7xx_HAL_Driver/Src/stm32f7xx_ll_usb.c ****   {
 1274              		.loc 1 484 6 is_stmt 0 view .LVU425
 1275 0182 012F     		cmp	r7, #1
 1276 0184 04D0     		beq	.L105
 1277              	.L95:
 489:Drivers/STM32F7xx_HAL_Driver/Src/stm32f7xx_ll_usb.c **** }
 1278              		.loc 1 489 3 is_stmt 1 view .LVU426
 490:Drivers/STM32F7xx_HAL_Driver/Src/stm32f7xx_ll_usb.c **** 
 1279              		.loc 1 490 1 is_stmt 0 view .LVU427
 1280 0186 4046     		mov	r0, r8
 1281 0188 BDE8F041 		pop	{r4, r5, r6, r7, r8, lr}
 1282              		.cfi_remember_state
 1283              		.cfi_restore 14
 1284              		.cfi_restore 8
 1285              		.cfi_restore 7
 1286              		.cfi_restore 6
 1287              		.cfi_restore 5
 1288              		.cfi_restore 4
 1289              		.cfi_def_cfa_offset 16
 1290              	.LVL73:
 490:Drivers/STM32F7xx_HAL_Driver/Src/stm32f7xx_ll_usb.c **** 
 1291              		.loc 1 490 1 view .LVU428
 1292 018c 04B0     		add	sp, sp, #16
 1293              		.cfi_def_cfa_offset 0
 1294 018e 7047     		bx	lr
 1295              	.LVL74:
 1296              	.L105:
 1297              		.cfi_restore_state
 486:Drivers/STM32F7xx_HAL_Driver/Src/stm32f7xx_ll_usb.c ****   }
 1298              		.loc 1 486 5 is_stmt 1 view .LVU429
 486:Drivers/STM32F7xx_HAL_Driver/Src/stm32f7xx_ll_usb.c ****   }
 1299              		.loc 1 486 9 is_stmt 0 view .LVU430
 1300 0190 A269     		ldr	r2, [r4, #24]
 486:Drivers/STM32F7xx_HAL_Driver/Src/stm32f7xx_ll_usb.c ****   }
 1301              		.loc 1 486 19 view .LVU431
ARM GAS  /tmp/cc8ZLjKA.s 			page 58


 1302 0192 034B     		ldr	r3, .L106+4
 1303 0194 1343     		orrs	r3, r3, r2
 1304 0196 A361     		str	r3, [r4, #24]
 1305 0198 F5E7     		b	.L95
 1306              	.L107:
 1307 019a 00BF     		.align	2
 1308              	.L106:
 1309 019c 00383C80 		.word	-2143537152
 1310 01a0 04000040 		.word	1073741828
 1311              		.cfi_endproc
 1312              	.LFE146:
 1314              		.section	.text.USB_GetDevSpeed,"ax",%progbits
 1315              		.align	1
 1316              		.global	USB_GetDevSpeed
 1317              		.syntax unified
 1318              		.thumb
 1319              		.thumb_func
 1321              	USB_GetDevSpeed:
 1322              	.LVL75:
 1323              	.LFB150:
 597:Drivers/STM32F7xx_HAL_Driver/Src/stm32f7xx_ll_usb.c ****   uint32_t USBx_BASE = (uint32_t)USBx;
 1324              		.loc 1 597 1 is_stmt 1 view -0
 1325              		.cfi_startproc
 1326              		@ args = 0, pretend = 0, frame = 0
 1327              		@ frame_needed = 0, uses_anonymous_args = 0
 1328              		@ link register save eliminated.
 598:Drivers/STM32F7xx_HAL_Driver/Src/stm32f7xx_ll_usb.c ****   uint8_t speed;
 1329              		.loc 1 598 3 view .LVU433
 599:Drivers/STM32F7xx_HAL_Driver/Src/stm32f7xx_ll_usb.c ****   uint32_t DevEnumSpeed = USBx_DEVICE->DSTS & USB_OTG_DSTS_ENUMSPD;
 1330              		.loc 1 599 3 view .LVU434
 600:Drivers/STM32F7xx_HAL_Driver/Src/stm32f7xx_ll_usb.c **** 
 1331              		.loc 1 600 3 view .LVU435
 600:Drivers/STM32F7xx_HAL_Driver/Src/stm32f7xx_ll_usb.c **** 
 1332              		.loc 1 600 38 is_stmt 0 view .LVU436
 1333 0000 D0F80838 		ldr	r3, [r0, #2056]
 1334              	.LVL76:
 602:Drivers/STM32F7xx_HAL_Driver/Src/stm32f7xx_ll_usb.c ****   {
 1335              		.loc 1 602 3 is_stmt 1 view .LVU437
 602:Drivers/STM32F7xx_HAL_Driver/Src/stm32f7xx_ll_usb.c ****   {
 1336              		.loc 1 602 6 is_stmt 0 view .LVU438
 1337 0004 13F00603 		ands	r3, r3, #6
 1338              	.LVL77:
 602:Drivers/STM32F7xx_HAL_Driver/Src/stm32f7xx_ll_usb.c ****   {
 1339              		.loc 1 602 6 view .LVU439
 1340 0008 05D0     		beq	.L110
 606:Drivers/STM32F7xx_HAL_Driver/Src/stm32f7xx_ll_usb.c ****            (DevEnumSpeed == DSTS_ENUMSPD_FS_PHY_48MHZ))
 1341              		.loc 1 606 8 is_stmt 1 view .LVU440
 606:Drivers/STM32F7xx_HAL_Driver/Src/stm32f7xx_ll_usb.c ****            (DevEnumSpeed == DSTS_ENUMSPD_FS_PHY_48MHZ))
 1342              		.loc 1 606 11 is_stmt 0 view .LVU441
 1343 000a 062B     		cmp	r3, #6
 1344 000c 18BF     		it	ne
 1345 000e 022B     		cmpne	r3, #2
 1346 0010 03D1     		bne	.L111
 609:Drivers/STM32F7xx_HAL_Driver/Src/stm32f7xx_ll_usb.c ****   }
 1347              		.loc 1 609 11 view .LVU442
 1348 0012 0220     		movs	r0, #2
 1349              	.LVL78:
ARM GAS  /tmp/cc8ZLjKA.s 			page 59


 609:Drivers/STM32F7xx_HAL_Driver/Src/stm32f7xx_ll_usb.c ****   }
 1350              		.loc 1 609 11 view .LVU443
 1351 0014 7047     		bx	lr
 1352              	.LVL79:
 1353              	.L110:
 604:Drivers/STM32F7xx_HAL_Driver/Src/stm32f7xx_ll_usb.c ****   }
 1354              		.loc 1 604 11 view .LVU444
 1355 0016 0020     		movs	r0, #0
 1356              	.LVL80:
 604:Drivers/STM32F7xx_HAL_Driver/Src/stm32f7xx_ll_usb.c ****   }
 1357              		.loc 1 604 11 view .LVU445
 1358 0018 7047     		bx	lr
 1359              	.LVL81:
 1360              	.L111:
 613:Drivers/STM32F7xx_HAL_Driver/Src/stm32f7xx_ll_usb.c ****   }
 1361              		.loc 1 613 11 view .LVU446
 1362 001a 0F20     		movs	r0, #15
 1363              	.LVL82:
 616:Drivers/STM32F7xx_HAL_Driver/Src/stm32f7xx_ll_usb.c **** }
 1364              		.loc 1 616 3 is_stmt 1 view .LVU447
 617:Drivers/STM32F7xx_HAL_Driver/Src/stm32f7xx_ll_usb.c **** 
 1365              		.loc 1 617 1 is_stmt 0 view .LVU448
 1366 001c 7047     		bx	lr
 1367              		.cfi_endproc
 1368              	.LFE150:
 1370              		.section	.text.USB_ActivateEndpoint,"ax",%progbits
 1371              		.align	1
 1372              		.global	USB_ActivateEndpoint
 1373              		.syntax unified
 1374              		.thumb
 1375              		.thumb_func
 1377              	USB_ActivateEndpoint:
 1378              	.LVL83:
 1379              	.LFB151:
 626:Drivers/STM32F7xx_HAL_Driver/Src/stm32f7xx_ll_usb.c ****   uint32_t USBx_BASE = (uint32_t)USBx;
 1380              		.loc 1 626 1 is_stmt 1 view -0
 1381              		.cfi_startproc
 1382              		@ args = 0, pretend = 0, frame = 0
 1383              		@ frame_needed = 0, uses_anonymous_args = 0
 626:Drivers/STM32F7xx_HAL_Driver/Src/stm32f7xx_ll_usb.c ****   uint32_t USBx_BASE = (uint32_t)USBx;
 1384              		.loc 1 626 1 is_stmt 0 view .LVU450
 1385 0000 10B5     		push	{r4, lr}
 1386              		.cfi_def_cfa_offset 8
 1387              		.cfi_offset 4, -8
 1388              		.cfi_offset 14, -4
 627:Drivers/STM32F7xx_HAL_Driver/Src/stm32f7xx_ll_usb.c ****   uint32_t epnum = (uint32_t)ep->num;
 1389              		.loc 1 627 3 is_stmt 1 view .LVU451
 1390              	.LVL84:
 628:Drivers/STM32F7xx_HAL_Driver/Src/stm32f7xx_ll_usb.c **** 
 1391              		.loc 1 628 3 view .LVU452
 628:Drivers/STM32F7xx_HAL_Driver/Src/stm32f7xx_ll_usb.c **** 
 1392              		.loc 1 628 32 is_stmt 0 view .LVU453
 1393 0002 91F800C0 		ldrb	ip, [r1]	@ zero_extendqisi2
 1394              	.LVL85:
 630:Drivers/STM32F7xx_HAL_Driver/Src/stm32f7xx_ll_usb.c ****   {
 1395              		.loc 1 630 3 is_stmt 1 view .LVU454
 630:Drivers/STM32F7xx_HAL_Driver/Src/stm32f7xx_ll_usb.c ****   {
ARM GAS  /tmp/cc8ZLjKA.s 			page 60


 1396              		.loc 1 630 9 is_stmt 0 view .LVU455
 1397 0006 4B78     		ldrb	r3, [r1, #1]	@ zero_extendqisi2
 630:Drivers/STM32F7xx_HAL_Driver/Src/stm32f7xx_ll_usb.c ****   {
 1398              		.loc 1 630 6 view .LVU456
 1399 0008 012B     		cmp	r3, #1
 1400 000a 21D0     		beq	.L116
 644:Drivers/STM32F7xx_HAL_Driver/Src/stm32f7xx_ll_usb.c **** 
 1401              		.loc 1 644 5 is_stmt 1 view .LVU457
 644:Drivers/STM32F7xx_HAL_Driver/Src/stm32f7xx_ll_usb.c **** 
 1402              		.loc 1 644 16 is_stmt 0 view .LVU458
 1403 000c 00F5006E 		add	lr, r0, #2048
 1404 0010 D0F81C38 		ldr	r3, [r0, #2076]
 644:Drivers/STM32F7xx_HAL_Driver/Src/stm32f7xx_ll_usb.c **** 
 1405              		.loc 1 644 82 view .LVU459
 1406 0014 0CF00F04 		and	r4, ip, #15
 644:Drivers/STM32F7xx_HAL_Driver/Src/stm32f7xx_ll_usb.c **** 
 1407              		.loc 1 644 55 view .LVU460
 1408 0018 0122     		movs	r2, #1
 1409 001a A240     		lsls	r2, r2, r4
 644:Drivers/STM32F7xx_HAL_Driver/Src/stm32f7xx_ll_usb.c **** 
 1410              		.loc 1 644 27 view .LVU461
 1411 001c 43EA0243 		orr	r3, r3, r2, lsl #16
 1412 0020 C0F81C38 		str	r3, [r0, #2076]
 646:Drivers/STM32F7xx_HAL_Driver/Src/stm32f7xx_ll_usb.c ****     {
 1413              		.loc 1 646 5 is_stmt 1 view .LVU462
 646:Drivers/STM32F7xx_HAL_Driver/Src/stm32f7xx_ll_usb.c ****     {
 1414              		.loc 1 646 11 is_stmt 0 view .LVU463
 1415 0024 00EB4C10 		add	r0, r0, ip, lsl #5
 1416              	.LVL86:
 646:Drivers/STM32F7xx_HAL_Driver/Src/stm32f7xx_ll_usb.c ****     {
 1417              		.loc 1 646 28 view .LVU464
 1418 0028 D0F8003B 		ldr	r3, [r0, #2816]
 646:Drivers/STM32F7xx_HAL_Driver/Src/stm32f7xx_ll_usb.c ****     {
 1419              		.loc 1 646 8 view .LVU465
 1420 002c 13F4004F 		tst	r3, #32768
 1421 0030 0CD1     		bne	.L114
 648:Drivers/STM32F7xx_HAL_Driver/Src/stm32f7xx_ll_usb.c ****                                     ((uint32_t)ep->type << 18) |
 1422              		.loc 1 648 7 is_stmt 1 view .LVU466
 648:Drivers/STM32F7xx_HAL_Driver/Src/stm32f7xx_ll_usb.c ****                                     ((uint32_t)ep->type << 18) |
 1423              		.loc 1 648 24 is_stmt 0 view .LVU467
 1424 0032 D0F8002B 		ldr	r2, [r0, #2816]
 648:Drivers/STM32F7xx_HAL_Driver/Src/stm32f7xx_ll_usb.c ****                                     ((uint32_t)ep->type << 18) |
 1425              		.loc 1 648 40 view .LVU468
 1426 0036 CB68     		ldr	r3, [r1, #12]
 648:Drivers/STM32F7xx_HAL_Driver/Src/stm32f7xx_ll_usb.c ****                                     ((uint32_t)ep->type << 18) |
 1427              		.loc 1 648 52 view .LVU469
 1428 0038 C3F30A03 		ubfx	r3, r3, #0, #11
 649:Drivers/STM32F7xx_HAL_Driver/Src/stm32f7xx_ll_usb.c ****                                     USB_OTG_DIEPCTL_SD0PID_SEVNFRM |
 1429              		.loc 1 649 50 view .LVU470
 1430 003c 0979     		ldrb	r1, [r1, #4]	@ zero_extendqisi2
 1431              	.LVL87:
 648:Drivers/STM32F7xx_HAL_Driver/Src/stm32f7xx_ll_usb.c ****                                     ((uint32_t)ep->type << 18) |
 1432              		.loc 1 648 77 view .LVU471
 1433 003e 43EA8143 		orr	r3, r3, r1, lsl #18
 648:Drivers/STM32F7xx_HAL_Driver/Src/stm32f7xx_ll_usb.c ****                                     ((uint32_t)ep->type << 18) |
 1434              		.loc 1 648 34 view .LVU472
 1435 0042 1A43     		orrs	r2, r2, r3
ARM GAS  /tmp/cc8ZLjKA.s 			page 61


 1436 0044 134B     		ldr	r3, .L117
 1437 0046 1343     		orrs	r3, r3, r2
 1438 0048 C0F8003B 		str	r3, [r0, #2816]
 1439              	.LVL88:
 1440              	.L114:
 654:Drivers/STM32F7xx_HAL_Driver/Src/stm32f7xx_ll_usb.c **** }
 1441              		.loc 1 654 3 is_stmt 1 view .LVU473
 655:Drivers/STM32F7xx_HAL_Driver/Src/stm32f7xx_ll_usb.c **** 
 1442              		.loc 1 655 1 is_stmt 0 view .LVU474
 1443 004c 0020     		movs	r0, #0
 1444 004e 10BD     		pop	{r4, pc}
 1445              	.LVL89:
 1446              	.L116:
 632:Drivers/STM32F7xx_HAL_Driver/Src/stm32f7xx_ll_usb.c **** 
 1447              		.loc 1 632 5 is_stmt 1 view .LVU475
 632:Drivers/STM32F7xx_HAL_Driver/Src/stm32f7xx_ll_usb.c **** 
 1448              		.loc 1 632 16 is_stmt 0 view .LVU476
 1449 0050 D0F81C28 		ldr	r2, [r0, #2076]
 632:Drivers/STM32F7xx_HAL_Driver/Src/stm32f7xx_ll_usb.c **** 
 1450              		.loc 1 632 81 view .LVU477
 1451 0054 0CF00F0E 		and	lr, ip, #15
 632:Drivers/STM32F7xx_HAL_Driver/Src/stm32f7xx_ll_usb.c **** 
 1452              		.loc 1 632 54 view .LVU478
 1453 0058 03FA0EF3 		lsl	r3, r3, lr
 632:Drivers/STM32F7xx_HAL_Driver/Src/stm32f7xx_ll_usb.c **** 
 1454              		.loc 1 632 52 view .LVU479
 1455 005c 9BB2     		uxth	r3, r3
 632:Drivers/STM32F7xx_HAL_Driver/Src/stm32f7xx_ll_usb.c **** 
 1456              		.loc 1 632 27 view .LVU480
 1457 005e 1343     		orrs	r3, r3, r2
 1458 0060 C0F81C38 		str	r3, [r0, #2076]
 634:Drivers/STM32F7xx_HAL_Driver/Src/stm32f7xx_ll_usb.c ****     {
 1459              		.loc 1 634 5 is_stmt 1 view .LVU481
 634:Drivers/STM32F7xx_HAL_Driver/Src/stm32f7xx_ll_usb.c ****     {
 1460              		.loc 1 634 10 is_stmt 0 view .LVU482
 1461 0064 00EB4C10 		add	r0, r0, ip, lsl #5
 1462              	.LVL90:
 634:Drivers/STM32F7xx_HAL_Driver/Src/stm32f7xx_ll_usb.c ****     {
 1463              		.loc 1 634 26 view .LVU483
 1464 0068 D0F80039 		ldr	r3, [r0, #2304]
 634:Drivers/STM32F7xx_HAL_Driver/Src/stm32f7xx_ll_usb.c ****     {
 1465              		.loc 1 634 8 view .LVU484
 1466 006c 13F4004F 		tst	r3, #32768
 1467 0070 ECD1     		bne	.L114
 636:Drivers/STM32F7xx_HAL_Driver/Src/stm32f7xx_ll_usb.c ****                                    ((uint32_t)ep->type << 18) | (epnum << 22) |
 1468              		.loc 1 636 7 is_stmt 1 view .LVU485
 636:Drivers/STM32F7xx_HAL_Driver/Src/stm32f7xx_ll_usb.c ****                                    ((uint32_t)ep->type << 18) | (epnum << 22) |
 1469              		.loc 1 636 23 is_stmt 0 view .LVU486
 1470 0072 D0F80029 		ldr	r2, [r0, #2304]
 636:Drivers/STM32F7xx_HAL_Driver/Src/stm32f7xx_ll_usb.c ****                                    ((uint32_t)ep->type << 18) | (epnum << 22) |
 1471              		.loc 1 636 39 view .LVU487
 1472 0076 CB68     		ldr	r3, [r1, #12]
 636:Drivers/STM32F7xx_HAL_Driver/Src/stm32f7xx_ll_usb.c ****                                    ((uint32_t)ep->type << 18) | (epnum << 22) |
 1473              		.loc 1 636 51 view .LVU488
 1474 0078 C3F30A03 		ubfx	r3, r3, #0, #11
 637:Drivers/STM32F7xx_HAL_Driver/Src/stm32f7xx_ll_usb.c ****                                    USB_OTG_DIEPCTL_SD0PID_SEVNFRM |
 1475              		.loc 1 637 49 view .LVU489
ARM GAS  /tmp/cc8ZLjKA.s 			page 62


 1476 007c 0979     		ldrb	r1, [r1, #4]	@ zero_extendqisi2
 1477              	.LVL91:
 636:Drivers/STM32F7xx_HAL_Driver/Src/stm32f7xx_ll_usb.c ****                                    ((uint32_t)ep->type << 18) | (epnum << 22) |
 1478              		.loc 1 636 76 view .LVU490
 1479 007e 43EA8143 		orr	r3, r3, r1, lsl #18
 637:Drivers/STM32F7xx_HAL_Driver/Src/stm32f7xx_ll_usb.c ****                                    USB_OTG_DIEPCTL_SD0PID_SEVNFRM |
 1480              		.loc 1 637 63 view .LVU491
 1481 0082 43EA8C53 		orr	r3, r3, ip, lsl #22
 636:Drivers/STM32F7xx_HAL_Driver/Src/stm32f7xx_ll_usb.c ****                                    ((uint32_t)ep->type << 18) | (epnum << 22) |
 1482              		.loc 1 636 33 view .LVU492
 1483 0086 1A43     		orrs	r2, r2, r3
 1484 0088 024B     		ldr	r3, .L117
 1485 008a 1343     		orrs	r3, r3, r2
 1486 008c C0F80039 		str	r3, [r0, #2304]
 1487 0090 DCE7     		b	.L114
 1488              	.L118:
 1489 0092 00BF     		.align	2
 1490              	.L117:
 1491 0094 00800010 		.word	268468224
 1492              		.cfi_endproc
 1493              	.LFE151:
 1495              		.section	.text.USB_ActivateDedicatedEndpoint,"ax",%progbits
 1496              		.align	1
 1497              		.global	USB_ActivateDedicatedEndpoint
 1498              		.syntax unified
 1499              		.thumb
 1500              		.thumb_func
 1502              	USB_ActivateDedicatedEndpoint:
 1503              	.LVL92:
 1504              	.LFB152:
 664:Drivers/STM32F7xx_HAL_Driver/Src/stm32f7xx_ll_usb.c ****   uint32_t USBx_BASE = (uint32_t)USBx;
 1505              		.loc 1 664 1 is_stmt 1 view -0
 1506              		.cfi_startproc
 1507              		@ args = 0, pretend = 0, frame = 0
 1508              		@ frame_needed = 0, uses_anonymous_args = 0
 1509              		@ link register save eliminated.
 664:Drivers/STM32F7xx_HAL_Driver/Src/stm32f7xx_ll_usb.c ****   uint32_t USBx_BASE = (uint32_t)USBx;
 1510              		.loc 1 664 1 is_stmt 0 view .LVU494
 1511 0000 30B4     		push	{r4, r5}
 1512              		.cfi_def_cfa_offset 8
 1513              		.cfi_offset 4, -8
 1514              		.cfi_offset 5, -4
 665:Drivers/STM32F7xx_HAL_Driver/Src/stm32f7xx_ll_usb.c ****   uint32_t epnum = (uint32_t)ep->num;
 1515              		.loc 1 665 3 is_stmt 1 view .LVU495
 1516              	.LVL93:
 666:Drivers/STM32F7xx_HAL_Driver/Src/stm32f7xx_ll_usb.c **** 
 1517              		.loc 1 666 3 view .LVU496
 666:Drivers/STM32F7xx_HAL_Driver/Src/stm32f7xx_ll_usb.c **** 
 1518              		.loc 1 666 32 is_stmt 0 view .LVU497
 1519 0002 0A78     		ldrb	r2, [r1]	@ zero_extendqisi2
 1520              	.LVL94:
 669:Drivers/STM32F7xx_HAL_Driver/Src/stm32f7xx_ll_usb.c ****   {
 1521              		.loc 1 669 3 is_stmt 1 view .LVU498
 669:Drivers/STM32F7xx_HAL_Driver/Src/stm32f7xx_ll_usb.c ****   {
 1522              		.loc 1 669 9 is_stmt 0 view .LVU499
 1523 0004 4B78     		ldrb	r3, [r1, #1]	@ zero_extendqisi2
 669:Drivers/STM32F7xx_HAL_Driver/Src/stm32f7xx_ll_usb.c ****   {
ARM GAS  /tmp/cc8ZLjKA.s 			page 63


 1524              		.loc 1 669 6 view .LVU500
 1525 0006 012B     		cmp	r3, #1
 1526 0008 23D0     		beq	.L125
 683:Drivers/STM32F7xx_HAL_Driver/Src/stm32f7xx_ll_usb.c ****     {
 1527              		.loc 1 683 5 is_stmt 1 view .LVU501
 683:Drivers/STM32F7xx_HAL_Driver/Src/stm32f7xx_ll_usb.c ****     {
 1528              		.loc 1 683 11 is_stmt 0 view .LVU502
 1529 000a 00EB421C 		add	ip, r0, r2, lsl #5
 683:Drivers/STM32F7xx_HAL_Driver/Src/stm32f7xx_ll_usb.c ****     {
 1530              		.loc 1 683 28 view .LVU503
 1531 000e DCF8003B 		ldr	r3, [ip, #2816]
 683:Drivers/STM32F7xx_HAL_Driver/Src/stm32f7xx_ll_usb.c ****     {
 1532              		.loc 1 683 8 view .LVU504
 1533 0012 13F4004F 		tst	r3, #32768
 1534 0016 0ED1     		bne	.L123
 685:Drivers/STM32F7xx_HAL_Driver/Src/stm32f7xx_ll_usb.c ****                                     ((uint32_t)ep->type << 18) | (epnum << 22) |
 1535              		.loc 1 685 7 is_stmt 1 view .LVU505
 685:Drivers/STM32F7xx_HAL_Driver/Src/stm32f7xx_ll_usb.c ****                                     ((uint32_t)ep->type << 18) | (epnum << 22) |
 1536              		.loc 1 685 24 is_stmt 0 view .LVU506
 1537 0018 DCF8004B 		ldr	r4, [ip, #2816]
 685:Drivers/STM32F7xx_HAL_Driver/Src/stm32f7xx_ll_usb.c ****                                     ((uint32_t)ep->type << 18) | (epnum << 22) |
 1538              		.loc 1 685 40 view .LVU507
 1539 001c CB68     		ldr	r3, [r1, #12]
 685:Drivers/STM32F7xx_HAL_Driver/Src/stm32f7xx_ll_usb.c ****                                     ((uint32_t)ep->type << 18) | (epnum << 22) |
 1540              		.loc 1 685 52 view .LVU508
 1541 001e C3F30A03 		ubfx	r3, r3, #0, #11
 686:Drivers/STM32F7xx_HAL_Driver/Src/stm32f7xx_ll_usb.c ****                                     USB_OTG_DOEPCTL_USBAEP;
 1542              		.loc 1 686 50 view .LVU509
 1543 0022 0D79     		ldrb	r5, [r1, #4]	@ zero_extendqisi2
 685:Drivers/STM32F7xx_HAL_Driver/Src/stm32f7xx_ll_usb.c ****                                     ((uint32_t)ep->type << 18) | (epnum << 22) |
 1544              		.loc 1 685 77 view .LVU510
 1545 0024 43EA8543 		orr	r3, r3, r5, lsl #18
 686:Drivers/STM32F7xx_HAL_Driver/Src/stm32f7xx_ll_usb.c ****                                     USB_OTG_DOEPCTL_USBAEP;
 1546              		.loc 1 686 64 view .LVU511
 1547 0028 43EA8253 		orr	r3, r3, r2, lsl #22
 685:Drivers/STM32F7xx_HAL_Driver/Src/stm32f7xx_ll_usb.c ****                                     ((uint32_t)ep->type << 18) | (epnum << 22) |
 1548              		.loc 1 685 34 view .LVU512
 1549 002c 2343     		orrs	r3, r3, r4
 1550 002e 43F40043 		orr	r3, r3, #32768
 1551 0032 CCF8003B 		str	r3, [ip, #2816]
 1552              	.L123:
 690:Drivers/STM32F7xx_HAL_Driver/Src/stm32f7xx_ll_usb.c ****   }
 1553              		.loc 1 690 5 is_stmt 1 view .LVU513
 690:Drivers/STM32F7xx_HAL_Driver/Src/stm32f7xx_ll_usb.c ****   }
 1554              		.loc 1 690 16 is_stmt 0 view .LVU514
 1555 0036 D0F83C38 		ldr	r3, [r0, #2108]
 690:Drivers/STM32F7xx_HAL_Driver/Src/stm32f7xx_ll_usb.c ****   }
 1556              		.loc 1 690 76 view .LVU515
 1557 003a 0978     		ldrb	r1, [r1]	@ zero_extendqisi2
 1558              	.LVL95:
 690:Drivers/STM32F7xx_HAL_Driver/Src/stm32f7xx_ll_usb.c ****   }
 1559              		.loc 1 690 82 view .LVU516
 1560 003c 01F00F01 		and	r1, r1, #15
 690:Drivers/STM32F7xx_HAL_Driver/Src/stm32f7xx_ll_usb.c ****   }
 1561              		.loc 1 690 55 view .LVU517
 1562 0040 0122     		movs	r2, #1
 1563              	.LVL96:
ARM GAS  /tmp/cc8ZLjKA.s 			page 64


 690:Drivers/STM32F7xx_HAL_Driver/Src/stm32f7xx_ll_usb.c ****   }
 1564              		.loc 1 690 55 view .LVU518
 1565 0042 8A40     		lsls	r2, r2, r1
 690:Drivers/STM32F7xx_HAL_Driver/Src/stm32f7xx_ll_usb.c ****   }
 1566              		.loc 1 690 27 view .LVU519
 1567 0044 43EA0243 		orr	r3, r3, r2, lsl #16
 1568 0048 C0F83C38 		str	r3, [r0, #2108]
 1569              	.L122:
 693:Drivers/STM32F7xx_HAL_Driver/Src/stm32f7xx_ll_usb.c **** }
 1570              		.loc 1 693 3 is_stmt 1 view .LVU520
 694:Drivers/STM32F7xx_HAL_Driver/Src/stm32f7xx_ll_usb.c **** 
 1571              		.loc 1 694 1 is_stmt 0 view .LVU521
 1572 004c 0020     		movs	r0, #0
 1573              	.LVL97:
 694:Drivers/STM32F7xx_HAL_Driver/Src/stm32f7xx_ll_usb.c **** 
 1574              		.loc 1 694 1 view .LVU522
 1575 004e 30BC     		pop	{r4, r5}
 1576              		.cfi_remember_state
 1577              		.cfi_restore 5
 1578              		.cfi_restore 4
 1579              		.cfi_def_cfa_offset 0
 1580 0050 7047     		bx	lr
 1581              	.LVL98:
 1582              	.L125:
 1583              		.cfi_restore_state
 671:Drivers/STM32F7xx_HAL_Driver/Src/stm32f7xx_ll_usb.c ****     {
 1584              		.loc 1 671 5 is_stmt 1 view .LVU523
 671:Drivers/STM32F7xx_HAL_Driver/Src/stm32f7xx_ll_usb.c ****     {
 1585              		.loc 1 671 11 is_stmt 0 view .LVU524
 1586 0052 00EB4214 		add	r4, r0, r2, lsl #5
 671:Drivers/STM32F7xx_HAL_Driver/Src/stm32f7xx_ll_usb.c ****     {
 1587              		.loc 1 671 27 view .LVU525
 1588 0056 D4F80039 		ldr	r3, [r4, #2304]
 671:Drivers/STM32F7xx_HAL_Driver/Src/stm32f7xx_ll_usb.c ****     {
 1589              		.loc 1 671 8 view .LVU526
 1590 005a 13F4004F 		tst	r3, #32768
 1591 005e 10D1     		bne	.L121
 673:Drivers/STM32F7xx_HAL_Driver/Src/stm32f7xx_ll_usb.c ****                                    ((uint32_t)ep->type << 18) | (epnum << 22) |
 1592              		.loc 1 673 7 is_stmt 1 view .LVU527
 673:Drivers/STM32F7xx_HAL_Driver/Src/stm32f7xx_ll_usb.c ****                                    ((uint32_t)ep->type << 18) | (epnum << 22) |
 1593              		.loc 1 673 23 is_stmt 0 view .LVU528
 1594 0060 D4F80059 		ldr	r5, [r4, #2304]
 673:Drivers/STM32F7xx_HAL_Driver/Src/stm32f7xx_ll_usb.c ****                                    ((uint32_t)ep->type << 18) | (epnum << 22) |
 1595              		.loc 1 673 39 view .LVU529
 1596 0064 CB68     		ldr	r3, [r1, #12]
 673:Drivers/STM32F7xx_HAL_Driver/Src/stm32f7xx_ll_usb.c ****                                    ((uint32_t)ep->type << 18) | (epnum << 22) |
 1597              		.loc 1 673 51 view .LVU530
 1598 0066 C3F30A03 		ubfx	r3, r3, #0, #11
 674:Drivers/STM32F7xx_HAL_Driver/Src/stm32f7xx_ll_usb.c ****                                    USB_OTG_DIEPCTL_SD0PID_SEVNFRM |
 1599              		.loc 1 674 49 view .LVU531
 1600 006a 91F804C0 		ldrb	ip, [r1, #4]	@ zero_extendqisi2
 673:Drivers/STM32F7xx_HAL_Driver/Src/stm32f7xx_ll_usb.c ****                                    ((uint32_t)ep->type << 18) | (epnum << 22) |
 1601              		.loc 1 673 76 view .LVU532
 1602 006e 43EA8C43 		orr	r3, r3, ip, lsl #18
 674:Drivers/STM32F7xx_HAL_Driver/Src/stm32f7xx_ll_usb.c ****                                    USB_OTG_DIEPCTL_SD0PID_SEVNFRM |
 1603              		.loc 1 674 63 view .LVU533
 1604 0072 43EA8253 		orr	r3, r3, r2, lsl #22
ARM GAS  /tmp/cc8ZLjKA.s 			page 65


 673:Drivers/STM32F7xx_HAL_Driver/Src/stm32f7xx_ll_usb.c ****                                    ((uint32_t)ep->type << 18) | (epnum << 22) |
 1605              		.loc 1 673 33 view .LVU534
 1606 0076 45EA0302 		orr	r2, r5, r3
 1607              	.LVL99:
 673:Drivers/STM32F7xx_HAL_Driver/Src/stm32f7xx_ll_usb.c ****                                    ((uint32_t)ep->type << 18) | (epnum << 22) |
 1608              		.loc 1 673 33 view .LVU535
 1609 007a 084B     		ldr	r3, .L126
 1610 007c 1343     		orrs	r3, r3, r2
 1611 007e C4F80039 		str	r3, [r4, #2304]
 1612              	.LVL100:
 1613              	.L121:
 679:Drivers/STM32F7xx_HAL_Driver/Src/stm32f7xx_ll_usb.c ****   }
 1614              		.loc 1 679 5 is_stmt 1 view .LVU536
 679:Drivers/STM32F7xx_HAL_Driver/Src/stm32f7xx_ll_usb.c ****   }
 1615              		.loc 1 679 16 is_stmt 0 view .LVU537
 1616 0082 D0F83C28 		ldr	r2, [r0, #2108]
 679:Drivers/STM32F7xx_HAL_Driver/Src/stm32f7xx_ll_usb.c ****   }
 1617              		.loc 1 679 75 view .LVU538
 1618 0086 0978     		ldrb	r1, [r1]	@ zero_extendqisi2
 1619              	.LVL101:
 679:Drivers/STM32F7xx_HAL_Driver/Src/stm32f7xx_ll_usb.c ****   }
 1620              		.loc 1 679 81 view .LVU539
 1621 0088 01F00F01 		and	r1, r1, #15
 679:Drivers/STM32F7xx_HAL_Driver/Src/stm32f7xx_ll_usb.c ****   }
 1622              		.loc 1 679 54 view .LVU540
 1623 008c 0123     		movs	r3, #1
 1624 008e 8B40     		lsls	r3, r3, r1
 679:Drivers/STM32F7xx_HAL_Driver/Src/stm32f7xx_ll_usb.c ****   }
 1625              		.loc 1 679 52 view .LVU541
 1626 0090 9BB2     		uxth	r3, r3
 679:Drivers/STM32F7xx_HAL_Driver/Src/stm32f7xx_ll_usb.c ****   }
 1627              		.loc 1 679 27 view .LVU542
 1628 0092 1343     		orrs	r3, r3, r2
 1629 0094 C0F83C38 		str	r3, [r0, #2108]
 1630 0098 D8E7     		b	.L122
 1631              	.L127:
 1632 009a 00BF     		.align	2
 1633              	.L126:
 1634 009c 00800010 		.word	268468224
 1635              		.cfi_endproc
 1636              	.LFE152:
 1638              		.section	.text.USB_DeactivateEndpoint,"ax",%progbits
 1639              		.align	1
 1640              		.global	USB_DeactivateEndpoint
 1641              		.syntax unified
 1642              		.thumb
 1643              		.thumb_func
 1645              	USB_DeactivateEndpoint:
 1646              	.LVL102:
 1647              	.LFB153:
 703:Drivers/STM32F7xx_HAL_Driver/Src/stm32f7xx_ll_usb.c ****   uint32_t USBx_BASE = (uint32_t)USBx;
 1648              		.loc 1 703 1 is_stmt 1 view -0
 1649              		.cfi_startproc
 1650              		@ args = 0, pretend = 0, frame = 0
 1651              		@ frame_needed = 0, uses_anonymous_args = 0
 1652              		@ link register save eliminated.
 703:Drivers/STM32F7xx_HAL_Driver/Src/stm32f7xx_ll_usb.c ****   uint32_t USBx_BASE = (uint32_t)USBx;
ARM GAS  /tmp/cc8ZLjKA.s 			page 66


 1653              		.loc 1 703 1 is_stmt 0 view .LVU544
 1654 0000 30B4     		push	{r4, r5}
 1655              		.cfi_def_cfa_offset 8
 1656              		.cfi_offset 4, -8
 1657              		.cfi_offset 5, -4
 704:Drivers/STM32F7xx_HAL_Driver/Src/stm32f7xx_ll_usb.c ****   uint32_t epnum = (uint32_t)ep->num;
 1658              		.loc 1 704 3 is_stmt 1 view .LVU545
 1659              	.LVL103:
 705:Drivers/STM32F7xx_HAL_Driver/Src/stm32f7xx_ll_usb.c **** 
 1660              		.loc 1 705 3 view .LVU546
 705:Drivers/STM32F7xx_HAL_Driver/Src/stm32f7xx_ll_usb.c **** 
 1661              		.loc 1 705 32 is_stmt 0 view .LVU547
 1662 0002 0B78     		ldrb	r3, [r1]	@ zero_extendqisi2
 1663              	.LVL104:
 708:Drivers/STM32F7xx_HAL_Driver/Src/stm32f7xx_ll_usb.c ****   {
 1664              		.loc 1 708 3 is_stmt 1 view .LVU548
 708:Drivers/STM32F7xx_HAL_Driver/Src/stm32f7xx_ll_usb.c ****   {
 1665              		.loc 1 708 9 is_stmt 0 view .LVU549
 1666 0004 4A78     		ldrb	r2, [r1, #1]	@ zero_extendqisi2
 708:Drivers/STM32F7xx_HAL_Driver/Src/stm32f7xx_ll_usb.c ****   {
 1667              		.loc 1 708 6 view .LVU550
 1668 0006 012A     		cmp	r2, #1
 1669 0008 26D0     		beq	.L134
 726:Drivers/STM32F7xx_HAL_Driver/Src/stm32f7xx_ll_usb.c ****     {
 1670              		.loc 1 726 5 is_stmt 1 view .LVU551
 726:Drivers/STM32F7xx_HAL_Driver/Src/stm32f7xx_ll_usb.c ****     {
 1671              		.loc 1 726 10 is_stmt 0 view .LVU552
 1672 000a 00EB4313 		add	r3, r0, r3, lsl #5
 1673              	.LVL105:
 726:Drivers/STM32F7xx_HAL_Driver/Src/stm32f7xx_ll_usb.c ****     {
 1674              		.loc 1 726 27 view .LVU553
 1675 000e D3F8002B 		ldr	r2, [r3, #2816]
 726:Drivers/STM32F7xx_HAL_Driver/Src/stm32f7xx_ll_usb.c ****     {
 1676              		.loc 1 726 8 view .LVU554
 1677 0012 002A     		cmp	r2, #0
 1678 0014 52DB     		blt	.L135
 1679              	.LVL106:
 1680              	.L132:
 732:Drivers/STM32F7xx_HAL_Driver/Src/stm32f7xx_ll_usb.c ****     USBx_DEVICE->DAINTMSK &= ~(USB_OTG_DAINTMSK_OEPM & ((uint32_t)(1UL << (ep->num & EP_ADDR_MSK)) 
 1681              		.loc 1 732 5 is_stmt 1 view .LVU555
 732:Drivers/STM32F7xx_HAL_Driver/Src/stm32f7xx_ll_usb.c ****     USBx_DEVICE->DAINTMSK &= ~(USB_OTG_DAINTMSK_OEPM & ((uint32_t)(1UL << (ep->num & EP_ADDR_MSK)) 
 1682              		.loc 1 732 16 is_stmt 0 view .LVU556
 1683 0016 D0F83C48 		ldr	r4, [r0, #2108]
 732:Drivers/STM32F7xx_HAL_Driver/Src/stm32f7xx_ll_usb.c ****     USBx_DEVICE->DAINTMSK &= ~(USB_OTG_DAINTMSK_OEPM & ((uint32_t)(1UL << (ep->num & EP_ADDR_MSK)) 
 1684              		.loc 1 732 78 view .LVU557
 1685 001a 0A78     		ldrb	r2, [r1]	@ zero_extendqisi2
 732:Drivers/STM32F7xx_HAL_Driver/Src/stm32f7xx_ll_usb.c ****     USBx_DEVICE->DAINTMSK &= ~(USB_OTG_DAINTMSK_OEPM & ((uint32_t)(1UL << (ep->num & EP_ADDR_MSK)) 
 1686              		.loc 1 732 84 view .LVU558
 1687 001c 02F00F02 		and	r2, r2, #15
 732:Drivers/STM32F7xx_HAL_Driver/Src/stm32f7xx_ll_usb.c ****     USBx_DEVICE->DAINTMSK &= ~(USB_OTG_DAINTMSK_OEPM & ((uint32_t)(1UL << (ep->num & EP_ADDR_MSK)) 
 1688              		.loc 1 732 57 view .LVU559
 1689 0020 4FF0010C 		mov	ip, #1
 1690 0024 0CFA02F2 		lsl	r2, ip, r2
 732:Drivers/STM32F7xx_HAL_Driver/Src/stm32f7xx_ll_usb.c ****     USBx_DEVICE->DAINTMSK &= ~(USB_OTG_DAINTMSK_OEPM & ((uint32_t)(1UL << (ep->num & EP_ADDR_MSK)) 
 1691              		.loc 1 732 27 view .LVU560
 1692 0028 24EA0242 		bic	r2, r4, r2, lsl #16
 1693 002c C0F83C28 		str	r2, [r0, #2108]
ARM GAS  /tmp/cc8ZLjKA.s 			page 67


 733:Drivers/STM32F7xx_HAL_Driver/Src/stm32f7xx_ll_usb.c ****     USBx_OUTEP(epnum)->DOEPCTL &= ~(USB_OTG_DOEPCTL_USBAEP |
 1694              		.loc 1 733 5 is_stmt 1 view .LVU561
 733:Drivers/STM32F7xx_HAL_Driver/Src/stm32f7xx_ll_usb.c ****     USBx_OUTEP(epnum)->DOEPCTL &= ~(USB_OTG_DOEPCTL_USBAEP |
 1695              		.loc 1 733 16 is_stmt 0 view .LVU562
 1696 0030 D0F81C28 		ldr	r2, [r0, #2076]
 733:Drivers/STM32F7xx_HAL_Driver/Src/stm32f7xx_ll_usb.c ****     USBx_OUTEP(epnum)->DOEPCTL &= ~(USB_OTG_DOEPCTL_USBAEP |
 1697              		.loc 1 733 78 view .LVU563
 1698 0034 0978     		ldrb	r1, [r1]	@ zero_extendqisi2
 1699              	.LVL107:
 733:Drivers/STM32F7xx_HAL_Driver/Src/stm32f7xx_ll_usb.c ****     USBx_OUTEP(epnum)->DOEPCTL &= ~(USB_OTG_DOEPCTL_USBAEP |
 1700              		.loc 1 733 84 view .LVU564
 1701 0036 01F00F01 		and	r1, r1, #15
 733:Drivers/STM32F7xx_HAL_Driver/Src/stm32f7xx_ll_usb.c ****     USBx_OUTEP(epnum)->DOEPCTL &= ~(USB_OTG_DOEPCTL_USBAEP |
 1702              		.loc 1 733 57 view .LVU565
 1703 003a 0CFA01FC 		lsl	ip, ip, r1
 733:Drivers/STM32F7xx_HAL_Driver/Src/stm32f7xx_ll_usb.c ****     USBx_OUTEP(epnum)->DOEPCTL &= ~(USB_OTG_DOEPCTL_USBAEP |
 1704              		.loc 1 733 27 view .LVU566
 1705 003e 22EA0C42 		bic	r2, r2, ip, lsl #16
 1706 0042 C0F81C28 		str	r2, [r0, #2076]
 734:Drivers/STM32F7xx_HAL_Driver/Src/stm32f7xx_ll_usb.c ****                                     USB_OTG_DOEPCTL_MPSIZ |
 1707              		.loc 1 734 5 is_stmt 1 view .LVU567
 734:Drivers/STM32F7xx_HAL_Driver/Src/stm32f7xx_ll_usb.c ****                                     USB_OTG_DOEPCTL_MPSIZ |
 1708              		.loc 1 734 22 is_stmt 0 view .LVU568
 1709 0046 D3F8001B 		ldr	r1, [r3, #2816]
 734:Drivers/STM32F7xx_HAL_Driver/Src/stm32f7xx_ll_usb.c ****                                     USB_OTG_DOEPCTL_MPSIZ |
 1710              		.loc 1 734 32 view .LVU569
 1711 004a 234A     		ldr	r2, .L137
 1712 004c 0A40     		ands	r2, r2, r1
 1713 004e C3F8002B 		str	r2, [r3, #2816]
 1714              	.L131:
 740:Drivers/STM32F7xx_HAL_Driver/Src/stm32f7xx_ll_usb.c **** }
 1715              		.loc 1 740 3 is_stmt 1 view .LVU570
 741:Drivers/STM32F7xx_HAL_Driver/Src/stm32f7xx_ll_usb.c **** 
 1716              		.loc 1 741 1 is_stmt 0 view .LVU571
 1717 0052 0020     		movs	r0, #0
 1718              	.LVL108:
 741:Drivers/STM32F7xx_HAL_Driver/Src/stm32f7xx_ll_usb.c **** 
 1719              		.loc 1 741 1 view .LVU572
 1720 0054 30BC     		pop	{r4, r5}
 1721              		.cfi_remember_state
 1722              		.cfi_restore 5
 1723              		.cfi_restore 4
 1724              		.cfi_def_cfa_offset 0
 1725 0056 7047     		bx	lr
 1726              	.LVL109:
 1727              	.L134:
 1728              		.cfi_restore_state
 710:Drivers/STM32F7xx_HAL_Driver/Src/stm32f7xx_ll_usb.c ****     {
 1729              		.loc 1 710 5 is_stmt 1 view .LVU573
 710:Drivers/STM32F7xx_HAL_Driver/Src/stm32f7xx_ll_usb.c ****     {
 1730              		.loc 1 710 10 is_stmt 0 view .LVU574
 1731 0058 00EB4313 		add	r3, r0, r3, lsl #5
 1732              	.LVL110:
 710:Drivers/STM32F7xx_HAL_Driver/Src/stm32f7xx_ll_usb.c ****     {
 1733              		.loc 1 710 26 view .LVU575
 1734 005c D3F80029 		ldr	r2, [r3, #2304]
 710:Drivers/STM32F7xx_HAL_Driver/Src/stm32f7xx_ll_usb.c ****     {
ARM GAS  /tmp/cc8ZLjKA.s 			page 68


 1735              		.loc 1 710 8 view .LVU576
 1736 0060 002A     		cmp	r2, #0
 1737 0062 1EDB     		blt	.L136
 1738              	.LVL111:
 1739              	.L130:
 716:Drivers/STM32F7xx_HAL_Driver/Src/stm32f7xx_ll_usb.c ****     USBx_DEVICE->DAINTMSK &= ~(USB_OTG_DAINTMSK_IEPM & (uint32_t)(1UL << (ep->num & EP_ADDR_MSK)));
 1740              		.loc 1 716 5 is_stmt 1 view .LVU577
 716:Drivers/STM32F7xx_HAL_Driver/Src/stm32f7xx_ll_usb.c ****     USBx_DEVICE->DAINTMSK &= ~(USB_OTG_DAINTMSK_IEPM & (uint32_t)(1UL << (ep->num & EP_ADDR_MSK)));
 1741              		.loc 1 716 16 is_stmt 0 view .LVU578
 1742 0064 D0F83C58 		ldr	r5, [r0, #2108]
 716:Drivers/STM32F7xx_HAL_Driver/Src/stm32f7xx_ll_usb.c ****     USBx_DEVICE->DAINTMSK &= ~(USB_OTG_DAINTMSK_IEPM & (uint32_t)(1UL << (ep->num & EP_ADDR_MSK)));
 1743              		.loc 1 716 77 view .LVU579
 1744 0068 0A78     		ldrb	r2, [r1]	@ zero_extendqisi2
 716:Drivers/STM32F7xx_HAL_Driver/Src/stm32f7xx_ll_usb.c ****     USBx_DEVICE->DAINTMSK &= ~(USB_OTG_DAINTMSK_IEPM & (uint32_t)(1UL << (ep->num & EP_ADDR_MSK)));
 1745              		.loc 1 716 83 view .LVU580
 1746 006a 02F00F02 		and	r2, r2, #15
 716:Drivers/STM32F7xx_HAL_Driver/Src/stm32f7xx_ll_usb.c ****     USBx_DEVICE->DAINTMSK &= ~(USB_OTG_DAINTMSK_IEPM & (uint32_t)(1UL << (ep->num & EP_ADDR_MSK)));
 1747              		.loc 1 716 56 view .LVU581
 1748 006e 0124     		movs	r4, #1
 1749 0070 04FA02F2 		lsl	r2, r4, r2
 716:Drivers/STM32F7xx_HAL_Driver/Src/stm32f7xx_ll_usb.c ****     USBx_DEVICE->DAINTMSK &= ~(USB_OTG_DAINTMSK_IEPM & (uint32_t)(1UL << (ep->num & EP_ADDR_MSK)));
 1750              		.loc 1 716 54 view .LVU582
 1751 0074 92B2     		uxth	r2, r2
 716:Drivers/STM32F7xx_HAL_Driver/Src/stm32f7xx_ll_usb.c ****     USBx_DEVICE->DAINTMSK &= ~(USB_OTG_DAINTMSK_IEPM & (uint32_t)(1UL << (ep->num & EP_ADDR_MSK)));
 1752              		.loc 1 716 27 view .LVU583
 1753 0076 25EA0202 		bic	r2, r5, r2
 1754 007a C0F83C28 		str	r2, [r0, #2108]
 717:Drivers/STM32F7xx_HAL_Driver/Src/stm32f7xx_ll_usb.c ****     USBx_INEP(epnum)->DIEPCTL &= ~(USB_OTG_DIEPCTL_USBAEP |
 1755              		.loc 1 717 5 is_stmt 1 view .LVU584
 717:Drivers/STM32F7xx_HAL_Driver/Src/stm32f7xx_ll_usb.c ****     USBx_INEP(epnum)->DIEPCTL &= ~(USB_OTG_DIEPCTL_USBAEP |
 1756              		.loc 1 717 16 is_stmt 0 view .LVU585
 1757 007e D0F81C28 		ldr	r2, [r0, #2076]
 717:Drivers/STM32F7xx_HAL_Driver/Src/stm32f7xx_ll_usb.c ****     USBx_INEP(epnum)->DIEPCTL &= ~(USB_OTG_DIEPCTL_USBAEP |
 1758              		.loc 1 717 77 view .LVU586
 1759 0082 0978     		ldrb	r1, [r1]	@ zero_extendqisi2
 1760              	.LVL112:
 717:Drivers/STM32F7xx_HAL_Driver/Src/stm32f7xx_ll_usb.c ****     USBx_INEP(epnum)->DIEPCTL &= ~(USB_OTG_DIEPCTL_USBAEP |
 1761              		.loc 1 717 83 view .LVU587
 1762 0084 01F00F01 		and	r1, r1, #15
 717:Drivers/STM32F7xx_HAL_Driver/Src/stm32f7xx_ll_usb.c ****     USBx_INEP(epnum)->DIEPCTL &= ~(USB_OTG_DIEPCTL_USBAEP |
 1763              		.loc 1 717 56 view .LVU588
 1764 0088 8C40     		lsls	r4, r4, r1
 717:Drivers/STM32F7xx_HAL_Driver/Src/stm32f7xx_ll_usb.c ****     USBx_INEP(epnum)->DIEPCTL &= ~(USB_OTG_DIEPCTL_USBAEP |
 1765              		.loc 1 717 54 view .LVU589
 1766 008a A4B2     		uxth	r4, r4
 717:Drivers/STM32F7xx_HAL_Driver/Src/stm32f7xx_ll_usb.c ****     USBx_INEP(epnum)->DIEPCTL &= ~(USB_OTG_DIEPCTL_USBAEP |
 1767              		.loc 1 717 27 view .LVU590
 1768 008c 22EA0402 		bic	r2, r2, r4
 1769 0090 C0F81C28 		str	r2, [r0, #2076]
 718:Drivers/STM32F7xx_HAL_Driver/Src/stm32f7xx_ll_usb.c ****                                    USB_OTG_DIEPCTL_MPSIZ |
 1770              		.loc 1 718 5 is_stmt 1 view .LVU591
 718:Drivers/STM32F7xx_HAL_Driver/Src/stm32f7xx_ll_usb.c ****                                    USB_OTG_DIEPCTL_MPSIZ |
 1771              		.loc 1 718 21 is_stmt 0 view .LVU592
 1772 0094 D3F80019 		ldr	r1, [r3, #2304]
 718:Drivers/STM32F7xx_HAL_Driver/Src/stm32f7xx_ll_usb.c ****                                    USB_OTG_DIEPCTL_MPSIZ |
 1773              		.loc 1 718 31 view .LVU593
 1774 0098 104A     		ldr	r2, .L137+4
ARM GAS  /tmp/cc8ZLjKA.s 			page 69


 1775 009a 0A40     		ands	r2, r2, r1
 1776 009c C3F80029 		str	r2, [r3, #2304]
 1777 00a0 D7E7     		b	.L131
 1778              	.LVL113:
 1779              	.L136:
 712:Drivers/STM32F7xx_HAL_Driver/Src/stm32f7xx_ll_usb.c ****       USBx_INEP(epnum)->DIEPCTL |= USB_OTG_DIEPCTL_EPDIS;
 1780              		.loc 1 712 7 is_stmt 1 view .LVU594
 712:Drivers/STM32F7xx_HAL_Driver/Src/stm32f7xx_ll_usb.c ****       USBx_INEP(epnum)->DIEPCTL |= USB_OTG_DIEPCTL_EPDIS;
 1781              		.loc 1 712 23 is_stmt 0 view .LVU595
 1782 00a2 D3F80029 		ldr	r2, [r3, #2304]
 712:Drivers/STM32F7xx_HAL_Driver/Src/stm32f7xx_ll_usb.c ****       USBx_INEP(epnum)->DIEPCTL |= USB_OTG_DIEPCTL_EPDIS;
 1783              		.loc 1 712 33 view .LVU596
 1784 00a6 42F00062 		orr	r2, r2, #134217728
 1785 00aa C3F80029 		str	r2, [r3, #2304]
 1786              	.LVL114:
 713:Drivers/STM32F7xx_HAL_Driver/Src/stm32f7xx_ll_usb.c ****     }
 1787              		.loc 1 713 7 is_stmt 1 view .LVU597
 713:Drivers/STM32F7xx_HAL_Driver/Src/stm32f7xx_ll_usb.c ****     }
 1788              		.loc 1 713 23 is_stmt 0 view .LVU598
 1789 00ae D3F80029 		ldr	r2, [r3, #2304]
 713:Drivers/STM32F7xx_HAL_Driver/Src/stm32f7xx_ll_usb.c ****     }
 1790              		.loc 1 713 33 view .LVU599
 1791 00b2 42F08042 		orr	r2, r2, #1073741824
 1792 00b6 C3F80029 		str	r2, [r3, #2304]
 1793 00ba D3E7     		b	.L130
 1794              	.LVL115:
 1795              	.L135:
 728:Drivers/STM32F7xx_HAL_Driver/Src/stm32f7xx_ll_usb.c ****       USBx_OUTEP(epnum)->DOEPCTL |= USB_OTG_DOEPCTL_EPDIS;
 1796              		.loc 1 728 7 is_stmt 1 view .LVU600
 728:Drivers/STM32F7xx_HAL_Driver/Src/stm32f7xx_ll_usb.c ****       USBx_OUTEP(epnum)->DOEPCTL |= USB_OTG_DOEPCTL_EPDIS;
 1797              		.loc 1 728 24 is_stmt 0 view .LVU601
 1798 00bc D3F8002B 		ldr	r2, [r3, #2816]
 728:Drivers/STM32F7xx_HAL_Driver/Src/stm32f7xx_ll_usb.c ****       USBx_OUTEP(epnum)->DOEPCTL |= USB_OTG_DOEPCTL_EPDIS;
 1799              		.loc 1 728 34 view .LVU602
 1800 00c0 42F00062 		orr	r2, r2, #134217728
 1801 00c4 C3F8002B 		str	r2, [r3, #2816]
 1802              	.LVL116:
 729:Drivers/STM32F7xx_HAL_Driver/Src/stm32f7xx_ll_usb.c ****     }
 1803              		.loc 1 729 7 is_stmt 1 view .LVU603
 729:Drivers/STM32F7xx_HAL_Driver/Src/stm32f7xx_ll_usb.c ****     }
 1804              		.loc 1 729 24 is_stmt 0 view .LVU604
 1805 00c8 D3F8002B 		ldr	r2, [r3, #2816]
 729:Drivers/STM32F7xx_HAL_Driver/Src/stm32f7xx_ll_usb.c ****     }
 1806              		.loc 1 729 34 view .LVU605
 1807 00cc 42F08042 		orr	r2, r2, #1073741824
 1808 00d0 C3F8002B 		str	r2, [r3, #2816]
 1809 00d4 9FE7     		b	.L132
 1810              	.L138:
 1811 00d6 00BF     		.align	2
 1812              	.L137:
 1813 00d8 0078F3EF 		.word	-269256704
 1814 00dc 007833EC 		.word	-332171264
 1815              		.cfi_endproc
 1816              	.LFE153:
 1818              		.section	.text.USB_DeactivateDedicatedEndpoint,"ax",%progbits
 1819              		.align	1
 1820              		.global	USB_DeactivateDedicatedEndpoint
ARM GAS  /tmp/cc8ZLjKA.s 			page 70


 1821              		.syntax unified
 1822              		.thumb
 1823              		.thumb_func
 1825              	USB_DeactivateDedicatedEndpoint:
 1826              	.LVL117:
 1827              	.LFB154:
 750:Drivers/STM32F7xx_HAL_Driver/Src/stm32f7xx_ll_usb.c ****   uint32_t USBx_BASE = (uint32_t)USBx;
 1828              		.loc 1 750 1 is_stmt 1 view -0
 1829              		.cfi_startproc
 1830              		@ args = 0, pretend = 0, frame = 0
 1831              		@ frame_needed = 0, uses_anonymous_args = 0
 1832              		@ link register save eliminated.
 751:Drivers/STM32F7xx_HAL_Driver/Src/stm32f7xx_ll_usb.c ****   uint32_t epnum = (uint32_t)ep->num;
 1833              		.loc 1 751 3 view .LVU607
 752:Drivers/STM32F7xx_HAL_Driver/Src/stm32f7xx_ll_usb.c **** 
 1834              		.loc 1 752 3 view .LVU608
 752:Drivers/STM32F7xx_HAL_Driver/Src/stm32f7xx_ll_usb.c **** 
 1835              		.loc 1 752 32 is_stmt 0 view .LVU609
 1836 0000 0B78     		ldrb	r3, [r1]	@ zero_extendqisi2
 1837              	.LVL118:
 755:Drivers/STM32F7xx_HAL_Driver/Src/stm32f7xx_ll_usb.c ****   {
 1838              		.loc 1 755 3 is_stmt 1 view .LVU610
 755:Drivers/STM32F7xx_HAL_Driver/Src/stm32f7xx_ll_usb.c ****   {
 1839              		.loc 1 755 9 is_stmt 0 view .LVU611
 1840 0002 4A78     		ldrb	r2, [r1, #1]	@ zero_extendqisi2
 755:Drivers/STM32F7xx_HAL_Driver/Src/stm32f7xx_ll_usb.c ****   {
 1841              		.loc 1 755 6 view .LVU612
 1842 0004 012A     		cmp	r2, #1
 1843 0006 18D0     		beq	.L144
 768:Drivers/STM32F7xx_HAL_Driver/Src/stm32f7xx_ll_usb.c ****     {
 1844              		.loc 1 768 5 is_stmt 1 view .LVU613
 768:Drivers/STM32F7xx_HAL_Driver/Src/stm32f7xx_ll_usb.c ****     {
 1845              		.loc 1 768 10 is_stmt 0 view .LVU614
 1846 0008 00EB4313 		add	r3, r0, r3, lsl #5
 1847              	.LVL119:
 768:Drivers/STM32F7xx_HAL_Driver/Src/stm32f7xx_ll_usb.c ****     {
 1848              		.loc 1 768 27 view .LVU615
 1849 000c D3F8002B 		ldr	r2, [r3, #2816]
 768:Drivers/STM32F7xx_HAL_Driver/Src/stm32f7xx_ll_usb.c ****     {
 1850              		.loc 1 768 8 view .LVU616
 1851 0010 002A     		cmp	r2, #0
 1852 0012 38DB     		blt	.L145
 1853              	.LVL120:
 1854              	.L143:
 774:Drivers/STM32F7xx_HAL_Driver/Src/stm32f7xx_ll_usb.c ****     USBx_DEVICE->DAINTMSK &= ~(USB_OTG_DAINTMSK_OEPM & ((uint32_t)(1UL << (ep->num & EP_ADDR_MSK)) 
 1855              		.loc 1 774 5 is_stmt 1 view .LVU617
 774:Drivers/STM32F7xx_HAL_Driver/Src/stm32f7xx_ll_usb.c ****     USBx_DEVICE->DAINTMSK &= ~(USB_OTG_DAINTMSK_OEPM & ((uint32_t)(1UL << (ep->num & EP_ADDR_MSK)) 
 1856              		.loc 1 774 22 is_stmt 0 view .LVU618
 1857 0014 D3F8002B 		ldr	r2, [r3, #2816]
 774:Drivers/STM32F7xx_HAL_Driver/Src/stm32f7xx_ll_usb.c ****     USBx_DEVICE->DAINTMSK &= ~(USB_OTG_DAINTMSK_OEPM & ((uint32_t)(1UL << (ep->num & EP_ADDR_MSK)) 
 1858              		.loc 1 774 32 view .LVU619
 1859 0018 22F40042 		bic	r2, r2, #32768
 1860 001c C3F8002B 		str	r2, [r3, #2816]
 775:Drivers/STM32F7xx_HAL_Driver/Src/stm32f7xx_ll_usb.c ****   }
 1861              		.loc 1 775 5 is_stmt 1 view .LVU620
 775:Drivers/STM32F7xx_HAL_Driver/Src/stm32f7xx_ll_usb.c ****   }
 1862              		.loc 1 775 16 is_stmt 0 view .LVU621
ARM GAS  /tmp/cc8ZLjKA.s 			page 71


 1863 0020 D0F81C38 		ldr	r3, [r0, #2076]
 775:Drivers/STM32F7xx_HAL_Driver/Src/stm32f7xx_ll_usb.c ****   }
 1864              		.loc 1 775 78 view .LVU622
 1865 0024 0978     		ldrb	r1, [r1]	@ zero_extendqisi2
 1866              	.LVL121:
 775:Drivers/STM32F7xx_HAL_Driver/Src/stm32f7xx_ll_usb.c ****   }
 1867              		.loc 1 775 84 view .LVU623
 1868 0026 01F00F01 		and	r1, r1, #15
 775:Drivers/STM32F7xx_HAL_Driver/Src/stm32f7xx_ll_usb.c ****   }
 1869              		.loc 1 775 57 view .LVU624
 1870 002a 0122     		movs	r2, #1
 1871 002c 8A40     		lsls	r2, r2, r1
 775:Drivers/STM32F7xx_HAL_Driver/Src/stm32f7xx_ll_usb.c ****   }
 1872              		.loc 1 775 27 view .LVU625
 1873 002e 23EA0243 		bic	r3, r3, r2, lsl #16
 1874 0032 C0F81C38 		str	r3, [r0, #2076]
 1875              	.L142:
 778:Drivers/STM32F7xx_HAL_Driver/Src/stm32f7xx_ll_usb.c **** }
 1876              		.loc 1 778 3 is_stmt 1 view .LVU626
 779:Drivers/STM32F7xx_HAL_Driver/Src/stm32f7xx_ll_usb.c **** 
 1877              		.loc 1 779 1 is_stmt 0 view .LVU627
 1878 0036 0020     		movs	r0, #0
 1879              	.LVL122:
 779:Drivers/STM32F7xx_HAL_Driver/Src/stm32f7xx_ll_usb.c **** 
 1880              		.loc 1 779 1 view .LVU628
 1881 0038 7047     		bx	lr
 1882              	.LVL123:
 1883              	.L144:
 757:Drivers/STM32F7xx_HAL_Driver/Src/stm32f7xx_ll_usb.c ****     {
 1884              		.loc 1 757 5 is_stmt 1 view .LVU629
 757:Drivers/STM32F7xx_HAL_Driver/Src/stm32f7xx_ll_usb.c ****     {
 1885              		.loc 1 757 10 is_stmt 0 view .LVU630
 1886 003a 00EB4313 		add	r3, r0, r3, lsl #5
 1887              	.LVL124:
 757:Drivers/STM32F7xx_HAL_Driver/Src/stm32f7xx_ll_usb.c ****     {
 1888              		.loc 1 757 26 view .LVU631
 1889 003e D3F80029 		ldr	r2, [r3, #2304]
 757:Drivers/STM32F7xx_HAL_Driver/Src/stm32f7xx_ll_usb.c ****     {
 1890              		.loc 1 757 8 view .LVU632
 1891 0042 002A     		cmp	r2, #0
 1892 0044 12DB     		blt	.L146
 1893              	.LVL125:
 1894              	.L141:
 763:Drivers/STM32F7xx_HAL_Driver/Src/stm32f7xx_ll_usb.c ****     USBx_DEVICE->DAINTMSK &= ~(USB_OTG_DAINTMSK_IEPM & (uint32_t)(1UL << (ep->num & EP_ADDR_MSK)));
 1895              		.loc 1 763 5 is_stmt 1 view .LVU633
 763:Drivers/STM32F7xx_HAL_Driver/Src/stm32f7xx_ll_usb.c ****     USBx_DEVICE->DAINTMSK &= ~(USB_OTG_DAINTMSK_IEPM & (uint32_t)(1UL << (ep->num & EP_ADDR_MSK)));
 1896              		.loc 1 763 21 is_stmt 0 view .LVU634
 1897 0046 D3F80029 		ldr	r2, [r3, #2304]
 763:Drivers/STM32F7xx_HAL_Driver/Src/stm32f7xx_ll_usb.c ****     USBx_DEVICE->DAINTMSK &= ~(USB_OTG_DAINTMSK_IEPM & (uint32_t)(1UL << (ep->num & EP_ADDR_MSK)));
 1898              		.loc 1 763 31 view .LVU635
 1899 004a 22F40042 		bic	r2, r2, #32768
 1900 004e C3F80029 		str	r2, [r3, #2304]
 764:Drivers/STM32F7xx_HAL_Driver/Src/stm32f7xx_ll_usb.c ****   }
 1901              		.loc 1 764 5 is_stmt 1 view .LVU636
 764:Drivers/STM32F7xx_HAL_Driver/Src/stm32f7xx_ll_usb.c ****   }
 1902              		.loc 1 764 16 is_stmt 0 view .LVU637
 1903 0052 D0F81C28 		ldr	r2, [r0, #2076]
ARM GAS  /tmp/cc8ZLjKA.s 			page 72


 764:Drivers/STM32F7xx_HAL_Driver/Src/stm32f7xx_ll_usb.c ****   }
 1904              		.loc 1 764 77 view .LVU638
 1905 0056 0978     		ldrb	r1, [r1]	@ zero_extendqisi2
 1906              	.LVL126:
 764:Drivers/STM32F7xx_HAL_Driver/Src/stm32f7xx_ll_usb.c ****   }
 1907              		.loc 1 764 83 view .LVU639
 1908 0058 01F00F01 		and	r1, r1, #15
 764:Drivers/STM32F7xx_HAL_Driver/Src/stm32f7xx_ll_usb.c ****   }
 1909              		.loc 1 764 56 view .LVU640
 1910 005c 0123     		movs	r3, #1
 1911 005e 8B40     		lsls	r3, r3, r1
 764:Drivers/STM32F7xx_HAL_Driver/Src/stm32f7xx_ll_usb.c ****   }
 1912              		.loc 1 764 54 view .LVU641
 1913 0060 9BB2     		uxth	r3, r3
 764:Drivers/STM32F7xx_HAL_Driver/Src/stm32f7xx_ll_usb.c ****   }
 1914              		.loc 1 764 27 view .LVU642
 1915 0062 22EA0303 		bic	r3, r2, r3
 1916 0066 C0F81C38 		str	r3, [r0, #2076]
 1917 006a E4E7     		b	.L142
 1918              	.LVL127:
 1919              	.L146:
 759:Drivers/STM32F7xx_HAL_Driver/Src/stm32f7xx_ll_usb.c ****       USBx_INEP(epnum)->DIEPCTL  |= USB_OTG_DIEPCTL_EPDIS;
 1920              		.loc 1 759 7 is_stmt 1 view .LVU643
 759:Drivers/STM32F7xx_HAL_Driver/Src/stm32f7xx_ll_usb.c ****       USBx_INEP(epnum)->DIEPCTL  |= USB_OTG_DIEPCTL_EPDIS;
 1921              		.loc 1 759 23 is_stmt 0 view .LVU644
 1922 006c D3F80029 		ldr	r2, [r3, #2304]
 759:Drivers/STM32F7xx_HAL_Driver/Src/stm32f7xx_ll_usb.c ****       USBx_INEP(epnum)->DIEPCTL  |= USB_OTG_DIEPCTL_EPDIS;
 1923              		.loc 1 759 34 view .LVU645
 1924 0070 42F00062 		orr	r2, r2, #134217728
 1925 0074 C3F80029 		str	r2, [r3, #2304]
 1926              	.LVL128:
 760:Drivers/STM32F7xx_HAL_Driver/Src/stm32f7xx_ll_usb.c ****     }
 1927              		.loc 1 760 7 is_stmt 1 view .LVU646
 760:Drivers/STM32F7xx_HAL_Driver/Src/stm32f7xx_ll_usb.c ****     }
 1928              		.loc 1 760 23 is_stmt 0 view .LVU647
 1929 0078 D3F80029 		ldr	r2, [r3, #2304]
 760:Drivers/STM32F7xx_HAL_Driver/Src/stm32f7xx_ll_usb.c ****     }
 1930              		.loc 1 760 34 view .LVU648
 1931 007c 42F08042 		orr	r2, r2, #1073741824
 1932 0080 C3F80029 		str	r2, [r3, #2304]
 1933 0084 DFE7     		b	.L141
 1934              	.LVL129:
 1935              	.L145:
 770:Drivers/STM32F7xx_HAL_Driver/Src/stm32f7xx_ll_usb.c ****       USBx_OUTEP(epnum)->DOEPCTL  |= USB_OTG_DOEPCTL_EPDIS;
 1936              		.loc 1 770 7 is_stmt 1 view .LVU649
 770:Drivers/STM32F7xx_HAL_Driver/Src/stm32f7xx_ll_usb.c ****       USBx_OUTEP(epnum)->DOEPCTL  |= USB_OTG_DOEPCTL_EPDIS;
 1937              		.loc 1 770 24 is_stmt 0 view .LVU650
 1938 0086 D3F8002B 		ldr	r2, [r3, #2816]
 770:Drivers/STM32F7xx_HAL_Driver/Src/stm32f7xx_ll_usb.c ****       USBx_OUTEP(epnum)->DOEPCTL  |= USB_OTG_DOEPCTL_EPDIS;
 1939              		.loc 1 770 35 view .LVU651
 1940 008a 42F00062 		orr	r2, r2, #134217728
 1941 008e C3F8002B 		str	r2, [r3, #2816]
 1942              	.LVL130:
 771:Drivers/STM32F7xx_HAL_Driver/Src/stm32f7xx_ll_usb.c ****     }
 1943              		.loc 1 771 7 is_stmt 1 view .LVU652
 771:Drivers/STM32F7xx_HAL_Driver/Src/stm32f7xx_ll_usb.c ****     }
 1944              		.loc 1 771 24 is_stmt 0 view .LVU653
ARM GAS  /tmp/cc8ZLjKA.s 			page 73


 1945 0092 D3F8002B 		ldr	r2, [r3, #2816]
 771:Drivers/STM32F7xx_HAL_Driver/Src/stm32f7xx_ll_usb.c ****     }
 1946              		.loc 1 771 35 view .LVU654
 1947 0096 42F08042 		orr	r2, r2, #1073741824
 1948 009a C3F8002B 		str	r2, [r3, #2816]
 1949 009e B9E7     		b	.L143
 1950              		.cfi_endproc
 1951              	.LFE154:
 1953              		.section	.text.USB_EP0StartXfer,"ax",%progbits
 1954              		.align	1
 1955              		.global	USB_EP0StartXfer
 1956              		.syntax unified
 1957              		.thumb
 1958              		.thumb_func
 1960              	USB_EP0StartXfer:
 1961              	.LVL131:
 1962              	.LFB156:
 938:Drivers/STM32F7xx_HAL_Driver/Src/stm32f7xx_ll_usb.c ****   uint32_t USBx_BASE = (uint32_t)USBx;
 1963              		.loc 1 938 1 is_stmt 1 view -0
 1964              		.cfi_startproc
 1965              		@ args = 0, pretend = 0, frame = 0
 1966              		@ frame_needed = 0, uses_anonymous_args = 0
 1967              		@ link register save eliminated.
 938:Drivers/STM32F7xx_HAL_Driver/Src/stm32f7xx_ll_usb.c ****   uint32_t USBx_BASE = (uint32_t)USBx;
 1968              		.loc 1 938 1 is_stmt 0 view .LVU656
 1969 0000 70B4     		push	{r4, r5, r6}
 1970              		.cfi_def_cfa_offset 12
 1971              		.cfi_offset 4, -12
 1972              		.cfi_offset 5, -8
 1973              		.cfi_offset 6, -4
 939:Drivers/STM32F7xx_HAL_Driver/Src/stm32f7xx_ll_usb.c ****   uint32_t epnum = (uint32_t)ep->num;
 1974              		.loc 1 939 3 is_stmt 1 view .LVU657
 1975              	.LVL132:
 940:Drivers/STM32F7xx_HAL_Driver/Src/stm32f7xx_ll_usb.c **** 
 1976              		.loc 1 940 3 view .LVU658
 940:Drivers/STM32F7xx_HAL_Driver/Src/stm32f7xx_ll_usb.c **** 
 1977              		.loc 1 940 32 is_stmt 0 view .LVU659
 1978 0002 0B78     		ldrb	r3, [r1]	@ zero_extendqisi2
 1979              	.LVL133:
 943:Drivers/STM32F7xx_HAL_Driver/Src/stm32f7xx_ll_usb.c ****   {
 1980              		.loc 1 943 3 is_stmt 1 view .LVU660
 943:Drivers/STM32F7xx_HAL_Driver/Src/stm32f7xx_ll_usb.c ****   {
 1981              		.loc 1 943 9 is_stmt 0 view .LVU661
 1982 0004 4C78     		ldrb	r4, [r1, #1]	@ zero_extendqisi2
 943:Drivers/STM32F7xx_HAL_Driver/Src/stm32f7xx_ll_usb.c ****   {
 1983              		.loc 1 943 6 view .LVU662
 1984 0006 012C     		cmp	r4, #1
 1985 0008 27D0     		beq	.L158
 998:Drivers/STM32F7xx_HAL_Driver/Src/stm32f7xx_ll_usb.c ****     USBx_OUTEP(epnum)->DOEPTSIZ &= ~(USB_OTG_DOEPTSIZ_PKTCNT);
 1986              		.loc 1 998 5 is_stmt 1 view .LVU663
 998:Drivers/STM32F7xx_HAL_Driver/Src/stm32f7xx_ll_usb.c ****     USBx_OUTEP(epnum)->DOEPTSIZ &= ~(USB_OTG_DOEPTSIZ_PKTCNT);
 1987              		.loc 1 998 22 is_stmt 0 view .LVU664
 1988 000a 00EB4310 		add	r0, r0, r3, lsl #5
 1989              	.LVL134:
 998:Drivers/STM32F7xx_HAL_Driver/Src/stm32f7xx_ll_usb.c ****     USBx_OUTEP(epnum)->DOEPTSIZ &= ~(USB_OTG_DOEPTSIZ_PKTCNT);
 1990              		.loc 1 998 22 view .LVU665
 1991 000e 00F53063 		add	r3, r0, #2816
ARM GAS  /tmp/cc8ZLjKA.s 			page 74


 1992              	.LVL135:
 998:Drivers/STM32F7xx_HAL_Driver/Src/stm32f7xx_ll_usb.c ****     USBx_OUTEP(epnum)->DOEPTSIZ &= ~(USB_OTG_DOEPTSIZ_PKTCNT);
 1993              		.loc 1 998 22 view .LVU666
 1994 0012 1D69     		ldr	r5, [r3, #16]
 998:Drivers/STM32F7xx_HAL_Driver/Src/stm32f7xx_ll_usb.c ****     USBx_OUTEP(epnum)->DOEPTSIZ &= ~(USB_OTG_DOEPTSIZ_PKTCNT);
 1995              		.loc 1 998 33 view .LVU667
 1996 0014 404C     		ldr	r4, .L161
 1997 0016 2C40     		ands	r4, r4, r5
 1998 0018 1C61     		str	r4, [r3, #16]
 1999              	.LVL136:
 999:Drivers/STM32F7xx_HAL_Driver/Src/stm32f7xx_ll_usb.c **** 
 2000              		.loc 1 999 5 is_stmt 1 view .LVU668
 999:Drivers/STM32F7xx_HAL_Driver/Src/stm32f7xx_ll_usb.c **** 
 2001              		.loc 1 999 22 is_stmt 0 view .LVU669
 2002 001a 1D69     		ldr	r5, [r3, #16]
 999:Drivers/STM32F7xx_HAL_Driver/Src/stm32f7xx_ll_usb.c **** 
 2003              		.loc 1 999 33 view .LVU670
 2004 001c 3F4C     		ldr	r4, .L161+4
 2005 001e 2C40     		ands	r4, r4, r5
 2006 0020 1C61     		str	r4, [r3, #16]
1001:Drivers/STM32F7xx_HAL_Driver/Src/stm32f7xx_ll_usb.c ****     {
 2007              		.loc 1 1001 5 is_stmt 1 view .LVU671
1001:Drivers/STM32F7xx_HAL_Driver/Src/stm32f7xx_ll_usb.c ****     {
 2008              		.loc 1 1001 11 is_stmt 0 view .LVU672
 2009 0022 8C69     		ldr	r4, [r1, #24]
1001:Drivers/STM32F7xx_HAL_Driver/Src/stm32f7xx_ll_usb.c ****     {
 2010              		.loc 1 1001 8 view .LVU673
 2011 0024 0CB1     		cbz	r4, .L155
1003:Drivers/STM32F7xx_HAL_Driver/Src/stm32f7xx_ll_usb.c ****     }
 2012              		.loc 1 1003 7 is_stmt 1 view .LVU674
1003:Drivers/STM32F7xx_HAL_Driver/Src/stm32f7xx_ll_usb.c ****     }
 2013              		.loc 1 1003 24 is_stmt 0 view .LVU675
 2014 0026 CC68     		ldr	r4, [r1, #12]
1003:Drivers/STM32F7xx_HAL_Driver/Src/stm32f7xx_ll_usb.c ****     }
 2015              		.loc 1 1003 20 view .LVU676
 2016 0028 8C61     		str	r4, [r1, #24]
 2017              	.L155:
1007:Drivers/STM32F7xx_HAL_Driver/Src/stm32f7xx_ll_usb.c **** 
 2018              		.loc 1 1007 5 is_stmt 1 view .LVU677
1007:Drivers/STM32F7xx_HAL_Driver/Src/stm32f7xx_ll_usb.c **** 
 2019              		.loc 1 1007 23 is_stmt 0 view .LVU678
 2020 002a CC68     		ldr	r4, [r1, #12]
1007:Drivers/STM32F7xx_HAL_Driver/Src/stm32f7xx_ll_usb.c **** 
 2021              		.loc 1 1007 19 view .LVU679
 2022 002c CC61     		str	r4, [r1, #28]
1009:Drivers/STM32F7xx_HAL_Driver/Src/stm32f7xx_ll_usb.c ****     USBx_OUTEP(epnum)->DOEPTSIZ |= (USB_OTG_DOEPTSIZ_XFRSIZ & ep->xfer_size);
 2023              		.loc 1 1009 5 is_stmt 1 view .LVU680
1009:Drivers/STM32F7xx_HAL_Driver/Src/stm32f7xx_ll_usb.c ****     USBx_OUTEP(epnum)->DOEPTSIZ |= (USB_OTG_DOEPTSIZ_XFRSIZ & ep->xfer_size);
 2024              		.loc 1 1009 22 is_stmt 0 view .LVU681
 2025 002e 1C69     		ldr	r4, [r3, #16]
1009:Drivers/STM32F7xx_HAL_Driver/Src/stm32f7xx_ll_usb.c ****     USBx_OUTEP(epnum)->DOEPTSIZ |= (USB_OTG_DOEPTSIZ_XFRSIZ & ep->xfer_size);
 2026              		.loc 1 1009 33 view .LVU682
 2027 0030 44F40024 		orr	r4, r4, #524288
 2028 0034 1C61     		str	r4, [r3, #16]
1010:Drivers/STM32F7xx_HAL_Driver/Src/stm32f7xx_ll_usb.c **** 
 2029              		.loc 1 1010 5 is_stmt 1 view .LVU683
1010:Drivers/STM32F7xx_HAL_Driver/Src/stm32f7xx_ll_usb.c **** 
ARM GAS  /tmp/cc8ZLjKA.s 			page 75


 2030              		.loc 1 1010 22 is_stmt 0 view .LVU684
 2031 0036 1C69     		ldr	r4, [r3, #16]
1010:Drivers/STM32F7xx_HAL_Driver/Src/stm32f7xx_ll_usb.c **** 
 2032              		.loc 1 1010 61 view .LVU685
 2033 0038 CD69     		ldr	r5, [r1, #28]
 2034 003a C5F3120C 		ubfx	ip, r5, #0, #19
1010:Drivers/STM32F7xx_HAL_Driver/Src/stm32f7xx_ll_usb.c **** 
 2035              		.loc 1 1010 33 view .LVU686
 2036 003e 44EA0C04 		orr	r4, r4, ip
 2037 0042 1C61     		str	r4, [r3, #16]
1012:Drivers/STM32F7xx_HAL_Driver/Src/stm32f7xx_ll_usb.c ****     {
 2038              		.loc 1 1012 5 is_stmt 1 view .LVU687
1012:Drivers/STM32F7xx_HAL_Driver/Src/stm32f7xx_ll_usb.c ****     {
 2039              		.loc 1 1012 8 is_stmt 0 view .LVU688
 2040 0044 012A     		cmp	r2, #1
 2041 0046 62D0     		beq	.L159
 2042              	.LVL137:
 2043              	.L156:
1021:Drivers/STM32F7xx_HAL_Driver/Src/stm32f7xx_ll_usb.c ****   }
 2044              		.loc 1 1021 5 is_stmt 1 view .LVU689
1021:Drivers/STM32F7xx_HAL_Driver/Src/stm32f7xx_ll_usb.c ****   }
 2045              		.loc 1 1021 22 is_stmt 0 view .LVU690
 2046 0048 D0F8003B 		ldr	r3, [r0, #2816]
1021:Drivers/STM32F7xx_HAL_Driver/Src/stm32f7xx_ll_usb.c ****   }
 2047              		.loc 1 1021 32 view .LVU691
 2048 004c 43F00443 		orr	r3, r3, #-2080374784
 2049 0050 C0F8003B 		str	r3, [r0, #2816]
 2050              	.LVL138:
 2051              	.L154:
1024:Drivers/STM32F7xx_HAL_Driver/Src/stm32f7xx_ll_usb.c **** }
 2052              		.loc 1 1024 3 is_stmt 1 view .LVU692
1025:Drivers/STM32F7xx_HAL_Driver/Src/stm32f7xx_ll_usb.c **** 
 2053              		.loc 1 1025 1 is_stmt 0 view .LVU693
 2054 0054 0020     		movs	r0, #0
 2055 0056 70BC     		pop	{r4, r5, r6}
 2056              		.cfi_remember_state
 2057              		.cfi_restore 6
 2058              		.cfi_restore 5
 2059              		.cfi_restore 4
 2060              		.cfi_def_cfa_offset 0
 2061 0058 7047     		bx	lr
 2062              	.LVL139:
 2063              	.L158:
 2064              		.cfi_restore_state
 946:Drivers/STM32F7xx_HAL_Driver/Src/stm32f7xx_ll_usb.c ****     {
 2065              		.loc 1 946 5 is_stmt 1 view .LVU694
 946:Drivers/STM32F7xx_HAL_Driver/Src/stm32f7xx_ll_usb.c ****     {
 2066              		.loc 1 946 11 is_stmt 0 view .LVU695
 2067 005a 8C69     		ldr	r4, [r1, #24]
 946:Drivers/STM32F7xx_HAL_Driver/Src/stm32f7xx_ll_usb.c ****     {
 2068              		.loc 1 946 8 view .LVU696
 2069 005c 5CBB     		cbnz	r4, .L149
 948:Drivers/STM32F7xx_HAL_Driver/Src/stm32f7xx_ll_usb.c ****       USBx_INEP(epnum)->DIEPTSIZ |= (USB_OTG_DIEPTSIZ_PKTCNT & (1U << 19));
 2070              		.loc 1 948 7 is_stmt 1 view .LVU697
 948:Drivers/STM32F7xx_HAL_Driver/Src/stm32f7xx_ll_usb.c ****       USBx_INEP(epnum)->DIEPTSIZ |= (USB_OTG_DIEPTSIZ_PKTCNT & (1U << 19));
 2071              		.loc 1 948 23 is_stmt 0 view .LVU698
 2072 005e 00EB4314 		add	r4, r0, r3, lsl #5
ARM GAS  /tmp/cc8ZLjKA.s 			page 76


 2073 0062 D4F81069 		ldr	r6, [r4, #2320]
 948:Drivers/STM32F7xx_HAL_Driver/Src/stm32f7xx_ll_usb.c ****       USBx_INEP(epnum)->DIEPTSIZ |= (USB_OTG_DIEPTSIZ_PKTCNT & (1U << 19));
 2074              		.loc 1 948 34 view .LVU699
 2075 0066 2D4D     		ldr	r5, .L161+4
 2076 0068 3540     		ands	r5, r5, r6
 2077 006a C4F81059 		str	r5, [r4, #2320]
 949:Drivers/STM32F7xx_HAL_Driver/Src/stm32f7xx_ll_usb.c ****       USBx_INEP(epnum)->DIEPTSIZ &= ~(USB_OTG_DIEPTSIZ_XFRSIZ);
 2078              		.loc 1 949 7 is_stmt 1 view .LVU700
 949:Drivers/STM32F7xx_HAL_Driver/Src/stm32f7xx_ll_usb.c ****       USBx_INEP(epnum)->DIEPTSIZ &= ~(USB_OTG_DIEPTSIZ_XFRSIZ);
 2079              		.loc 1 949 23 is_stmt 0 view .LVU701
 2080 006e D4F81059 		ldr	r5, [r4, #2320]
 949:Drivers/STM32F7xx_HAL_Driver/Src/stm32f7xx_ll_usb.c ****       USBx_INEP(epnum)->DIEPTSIZ &= ~(USB_OTG_DIEPTSIZ_XFRSIZ);
 2081              		.loc 1 949 34 view .LVU702
 2082 0072 45F40025 		orr	r5, r5, #524288
 2083 0076 C4F81059 		str	r5, [r4, #2320]
 950:Drivers/STM32F7xx_HAL_Driver/Src/stm32f7xx_ll_usb.c ****     }
 2084              		.loc 1 950 7 is_stmt 1 view .LVU703
 950:Drivers/STM32F7xx_HAL_Driver/Src/stm32f7xx_ll_usb.c ****     }
 2085              		.loc 1 950 23 is_stmt 0 view .LVU704
 2086 007a D4F81069 		ldr	r6, [r4, #2320]
 950:Drivers/STM32F7xx_HAL_Driver/Src/stm32f7xx_ll_usb.c ****     }
 2087              		.loc 1 950 34 view .LVU705
 2088 007e 264D     		ldr	r5, .L161
 2089 0080 3540     		ands	r5, r5, r6
 2090 0082 C4F81059 		str	r5, [r4, #2320]
 2091              	.L150:
 970:Drivers/STM32F7xx_HAL_Driver/Src/stm32f7xx_ll_usb.c ****     {
 2092              		.loc 1 970 5 is_stmt 1 view .LVU706
 970:Drivers/STM32F7xx_HAL_Driver/Src/stm32f7xx_ll_usb.c ****     {
 2093              		.loc 1 970 8 is_stmt 0 view .LVU707
 2094 0086 012A     		cmp	r2, #1
 2095 0088 32D0     		beq	.L160
 983:Drivers/STM32F7xx_HAL_Driver/Src/stm32f7xx_ll_usb.c **** 
 2096              		.loc 1 983 7 is_stmt 1 view .LVU708
 983:Drivers/STM32F7xx_HAL_Driver/Src/stm32f7xx_ll_usb.c **** 
 2097              		.loc 1 983 23 is_stmt 0 view .LVU709
 2098 008a 00EB4313 		add	r3, r0, r3, lsl #5
 2099              	.LVL140:
 983:Drivers/STM32F7xx_HAL_Driver/Src/stm32f7xx_ll_usb.c **** 
 2100              		.loc 1 983 23 view .LVU710
 2101 008e D3F80029 		ldr	r2, [r3, #2304]
 2102              	.LVL141:
 983:Drivers/STM32F7xx_HAL_Driver/Src/stm32f7xx_ll_usb.c **** 
 2103              		.loc 1 983 33 view .LVU711
 2104 0092 42F00442 		orr	r2, r2, #-2080374784
 2105 0096 C3F80029 		str	r2, [r3, #2304]
 986:Drivers/STM32F7xx_HAL_Driver/Src/stm32f7xx_ll_usb.c ****       {
 2106              		.loc 1 986 7 is_stmt 1 view .LVU712
 986:Drivers/STM32F7xx_HAL_Driver/Src/stm32f7xx_ll_usb.c ****       {
 2107              		.loc 1 986 13 is_stmt 0 view .LVU713
 2108 009a 8B69     		ldr	r3, [r1, #24]
 986:Drivers/STM32F7xx_HAL_Driver/Src/stm32f7xx_ll_usb.c ****       {
 2109              		.loc 1 986 10 view .LVU714
 2110 009c 002B     		cmp	r3, #0
 2111 009e D9D0     		beq	.L154
 988:Drivers/STM32F7xx_HAL_Driver/Src/stm32f7xx_ll_usb.c ****       }
 2112              		.loc 1 988 9 is_stmt 1 view .LVU715
ARM GAS  /tmp/cc8ZLjKA.s 			page 77


 988:Drivers/STM32F7xx_HAL_Driver/Src/stm32f7xx_ll_usb.c ****       }
 2113              		.loc 1 988 20 is_stmt 0 view .LVU716
 2114 00a0 D0F83438 		ldr	r3, [r0, #2100]
 988:Drivers/STM32F7xx_HAL_Driver/Src/stm32f7xx_ll_usb.c ****       }
 2115              		.loc 1 988 46 view .LVU717
 2116 00a4 0978     		ldrb	r1, [r1]	@ zero_extendqisi2
 2117              	.LVL142:
 988:Drivers/STM32F7xx_HAL_Driver/Src/stm32f7xx_ll_usb.c ****       }
 2118              		.loc 1 988 52 view .LVU718
 2119 00a6 01F00F01 		and	r1, r1, #15
 988:Drivers/STM32F7xx_HAL_Driver/Src/stm32f7xx_ll_usb.c ****       }
 2120              		.loc 1 988 40 view .LVU719
 2121 00aa 0122     		movs	r2, #1
 2122 00ac 8A40     		lsls	r2, r2, r1
 988:Drivers/STM32F7xx_HAL_Driver/Src/stm32f7xx_ll_usb.c ****       }
 2123              		.loc 1 988 33 view .LVU720
 2124 00ae 1343     		orrs	r3, r3, r2
 2125 00b0 C0F83438 		str	r3, [r0, #2100]
 2126 00b4 CEE7     		b	.L154
 2127              	.LVL143:
 2128              	.L149:
 959:Drivers/STM32F7xx_HAL_Driver/Src/stm32f7xx_ll_usb.c ****       USBx_INEP(epnum)->DIEPTSIZ &= ~(USB_OTG_DIEPTSIZ_PKTCNT);
 2129              		.loc 1 959 7 is_stmt 1 view .LVU721
 959:Drivers/STM32F7xx_HAL_Driver/Src/stm32f7xx_ll_usb.c ****       USBx_INEP(epnum)->DIEPTSIZ &= ~(USB_OTG_DIEPTSIZ_PKTCNT);
 2130              		.loc 1 959 23 is_stmt 0 view .LVU722
 2131 00b6 00EB4314 		add	r4, r0, r3, lsl #5
 2132 00ba 04F51064 		add	r4, r4, #2304
 2133 00be 2669     		ldr	r6, [r4, #16]
 959:Drivers/STM32F7xx_HAL_Driver/Src/stm32f7xx_ll_usb.c ****       USBx_INEP(epnum)->DIEPTSIZ &= ~(USB_OTG_DIEPTSIZ_PKTCNT);
 2134              		.loc 1 959 34 view .LVU723
 2135 00c0 154D     		ldr	r5, .L161
 2136 00c2 3540     		ands	r5, r5, r6
 2137 00c4 2561     		str	r5, [r4, #16]
 960:Drivers/STM32F7xx_HAL_Driver/Src/stm32f7xx_ll_usb.c **** 
 2138              		.loc 1 960 7 is_stmt 1 view .LVU724
 960:Drivers/STM32F7xx_HAL_Driver/Src/stm32f7xx_ll_usb.c **** 
 2139              		.loc 1 960 23 is_stmt 0 view .LVU725
 2140 00c6 2669     		ldr	r6, [r4, #16]
 960:Drivers/STM32F7xx_HAL_Driver/Src/stm32f7xx_ll_usb.c **** 
 2141              		.loc 1 960 34 view .LVU726
 2142 00c8 144D     		ldr	r5, .L161+4
 2143 00ca 3540     		ands	r5, r5, r6
 2144 00cc 2561     		str	r5, [r4, #16]
 962:Drivers/STM32F7xx_HAL_Driver/Src/stm32f7xx_ll_usb.c ****       {
 2145              		.loc 1 962 7 is_stmt 1 view .LVU727
 962:Drivers/STM32F7xx_HAL_Driver/Src/stm32f7xx_ll_usb.c ****       {
 2146              		.loc 1 962 28 is_stmt 0 view .LVU728
 2147 00ce CD68     		ldr	r5, [r1, #12]
 962:Drivers/STM32F7xx_HAL_Driver/Src/stm32f7xx_ll_usb.c ****       {
 2148              		.loc 1 962 10 view .LVU729
 2149 00d0 8E69     		ldr	r6, [r1, #24]
 2150 00d2 AE42     		cmp	r6, r5
 2151 00d4 00D9     		bls	.L151
 964:Drivers/STM32F7xx_HAL_Driver/Src/stm32f7xx_ll_usb.c ****       }
 2152              		.loc 1 964 9 is_stmt 1 view .LVU730
 964:Drivers/STM32F7xx_HAL_Driver/Src/stm32f7xx_ll_usb.c ****       }
 2153              		.loc 1 964 22 is_stmt 0 view .LVU731
ARM GAS  /tmp/cc8ZLjKA.s 			page 78


 2154 00d6 8D61     		str	r5, [r1, #24]
 2155              	.L151:
 966:Drivers/STM32F7xx_HAL_Driver/Src/stm32f7xx_ll_usb.c ****       USBx_INEP(epnum)->DIEPTSIZ |= (USB_OTG_DIEPTSIZ_XFRSIZ & ep->xfer_len);
 2156              		.loc 1 966 7 is_stmt 1 view .LVU732
 966:Drivers/STM32F7xx_HAL_Driver/Src/stm32f7xx_ll_usb.c ****       USBx_INEP(epnum)->DIEPTSIZ |= (USB_OTG_DIEPTSIZ_XFRSIZ & ep->xfer_len);
 2157              		.loc 1 966 23 is_stmt 0 view .LVU733
 2158 00d8 2569     		ldr	r5, [r4, #16]
 966:Drivers/STM32F7xx_HAL_Driver/Src/stm32f7xx_ll_usb.c ****       USBx_INEP(epnum)->DIEPTSIZ |= (USB_OTG_DIEPTSIZ_XFRSIZ & ep->xfer_len);
 2159              		.loc 1 966 34 view .LVU734
 2160 00da 45F40025 		orr	r5, r5, #524288
 2161 00de 2561     		str	r5, [r4, #16]
 967:Drivers/STM32F7xx_HAL_Driver/Src/stm32f7xx_ll_usb.c ****     }
 2162              		.loc 1 967 7 is_stmt 1 view .LVU735
 967:Drivers/STM32F7xx_HAL_Driver/Src/stm32f7xx_ll_usb.c ****     }
 2163              		.loc 1 967 23 is_stmt 0 view .LVU736
 2164 00e0 2569     		ldr	r5, [r4, #16]
 967:Drivers/STM32F7xx_HAL_Driver/Src/stm32f7xx_ll_usb.c ****     }
 2165              		.loc 1 967 62 view .LVU737
 2166 00e2 8E69     		ldr	r6, [r1, #24]
 2167 00e4 C6F3120C 		ubfx	ip, r6, #0, #19
 967:Drivers/STM32F7xx_HAL_Driver/Src/stm32f7xx_ll_usb.c ****     }
 2168              		.loc 1 967 34 view .LVU738
 2169 00e8 45EA0C05 		orr	r5, r5, ip
 2170 00ec 2561     		str	r5, [r4, #16]
 2171 00ee CAE7     		b	.L150
 2172              	.L160:
 972:Drivers/STM32F7xx_HAL_Driver/Src/stm32f7xx_ll_usb.c ****       {
 2173              		.loc 1 972 7 is_stmt 1 view .LVU739
 972:Drivers/STM32F7xx_HAL_Driver/Src/stm32f7xx_ll_usb.c ****       {
 2174              		.loc 1 972 23 is_stmt 0 view .LVU740
 2175 00f0 4A69     		ldr	r2, [r1, #20]
 2176              	.LVL144:
 972:Drivers/STM32F7xx_HAL_Driver/Src/stm32f7xx_ll_usb.c ****       {
 2177              		.loc 1 972 10 view .LVU741
 2178 00f2 1AB1     		cbz	r2, .L153
 974:Drivers/STM32F7xx_HAL_Driver/Src/stm32f7xx_ll_usb.c ****       }
 2179              		.loc 1 974 9 is_stmt 1 view .LVU742
 2180 00f4 00EB4311 		add	r1, r0, r3, lsl #5
 2181              	.LVL145:
 974:Drivers/STM32F7xx_HAL_Driver/Src/stm32f7xx_ll_usb.c ****       }
 2182              		.loc 1 974 35 is_stmt 0 view .LVU743
 2183 00f8 C1F81429 		str	r2, [r1, #2324]
 2184              	.L153:
 978:Drivers/STM32F7xx_HAL_Driver/Src/stm32f7xx_ll_usb.c ****     }
 2185              		.loc 1 978 7 is_stmt 1 view .LVU744
 978:Drivers/STM32F7xx_HAL_Driver/Src/stm32f7xx_ll_usb.c ****     }
 2186              		.loc 1 978 23 is_stmt 0 view .LVU745
 2187 00fc 00EB4313 		add	r3, r0, r3, lsl #5
 2188              	.LVL146:
 978:Drivers/STM32F7xx_HAL_Driver/Src/stm32f7xx_ll_usb.c ****     }
 2189              		.loc 1 978 23 view .LVU746
 2190 0100 D3F80029 		ldr	r2, [r3, #2304]
 978:Drivers/STM32F7xx_HAL_Driver/Src/stm32f7xx_ll_usb.c ****     }
 2191              		.loc 1 978 33 view .LVU747
 2192 0104 42F00442 		orr	r2, r2, #-2080374784
 2193 0108 C3F80029 		str	r2, [r3, #2304]
 2194 010c A2E7     		b	.L154
ARM GAS  /tmp/cc8ZLjKA.s 			page 79


 2195              	.LVL147:
 2196              	.L159:
1014:Drivers/STM32F7xx_HAL_Driver/Src/stm32f7xx_ll_usb.c ****       {
 2197              		.loc 1 1014 7 is_stmt 1 view .LVU748
1014:Drivers/STM32F7xx_HAL_Driver/Src/stm32f7xx_ll_usb.c ****       {
 2198              		.loc 1 1014 23 is_stmt 0 view .LVU749
 2199 010e 0A69     		ldr	r2, [r1, #16]
 2200              	.LVL148:
1014:Drivers/STM32F7xx_HAL_Driver/Src/stm32f7xx_ll_usb.c ****       {
 2201              		.loc 1 1014 10 view .LVU750
 2202 0110 002A     		cmp	r2, #0
 2203 0112 99D0     		beq	.L156
1016:Drivers/STM32F7xx_HAL_Driver/Src/stm32f7xx_ll_usb.c ****       }
 2204              		.loc 1 1016 9 is_stmt 1 view .LVU751
1016:Drivers/STM32F7xx_HAL_Driver/Src/stm32f7xx_ll_usb.c ****       }
 2205              		.loc 1 1016 36 is_stmt 0 view .LVU752
 2206 0114 5A61     		str	r2, [r3, #20]
 2207 0116 97E7     		b	.L156
 2208              	.L162:
 2209              		.align	2
 2210              	.L161:
 2211 0118 0000F8FF 		.word	-524288
 2212 011c FFFF07E0 		.word	-536346625
 2213              		.cfi_endproc
 2214              	.LFE156:
 2216              		.section	.text.USB_EPStopXfer,"ax",%progbits
 2217              		.align	1
 2218              		.global	USB_EPStopXfer
 2219              		.syntax unified
 2220              		.thumb
 2221              		.thumb_func
 2223              	USB_EPStopXfer:
 2224              	.LVL149:
 2225              	.LFB157:
1035:Drivers/STM32F7xx_HAL_Driver/Src/stm32f7xx_ll_usb.c ****   __IO uint32_t count = 0U;
 2226              		.loc 1 1035 1 is_stmt 1 view -0
 2227              		.cfi_startproc
 2228              		@ args = 0, pretend = 0, frame = 8
 2229              		@ frame_needed = 0, uses_anonymous_args = 0
 2230              		@ link register save eliminated.
1035:Drivers/STM32F7xx_HAL_Driver/Src/stm32f7xx_ll_usb.c ****   __IO uint32_t count = 0U;
 2231              		.loc 1 1035 1 is_stmt 0 view .LVU754
 2232 0000 10B4     		push	{r4}
 2233              		.cfi_def_cfa_offset 4
 2234              		.cfi_offset 4, -4
 2235 0002 83B0     		sub	sp, sp, #12
 2236              		.cfi_def_cfa_offset 16
 2237 0004 0246     		mov	r2, r0
1036:Drivers/STM32F7xx_HAL_Driver/Src/stm32f7xx_ll_usb.c ****   HAL_StatusTypeDef ret = HAL_OK;
 2238              		.loc 1 1036 3 is_stmt 1 view .LVU755
1036:Drivers/STM32F7xx_HAL_Driver/Src/stm32f7xx_ll_usb.c ****   HAL_StatusTypeDef ret = HAL_OK;
 2239              		.loc 1 1036 17 is_stmt 0 view .LVU756
 2240 0006 0023     		movs	r3, #0
 2241 0008 0193     		str	r3, [sp, #4]
1037:Drivers/STM32F7xx_HAL_Driver/Src/stm32f7xx_ll_usb.c ****   uint32_t USBx_BASE = (uint32_t)USBx;
 2242              		.loc 1 1037 3 is_stmt 1 view .LVU757
 2243              	.LVL150:
ARM GAS  /tmp/cc8ZLjKA.s 			page 80


1038:Drivers/STM32F7xx_HAL_Driver/Src/stm32f7xx_ll_usb.c **** 
 2244              		.loc 1 1038 3 view .LVU758
1041:Drivers/STM32F7xx_HAL_Driver/Src/stm32f7xx_ll_usb.c ****   {
 2245              		.loc 1 1041 3 view .LVU759
1041:Drivers/STM32F7xx_HAL_Driver/Src/stm32f7xx_ll_usb.c ****   {
 2246              		.loc 1 1041 9 is_stmt 0 view .LVU760
 2247 000a 4878     		ldrb	r0, [r1, #1]	@ zero_extendqisi2
 2248              	.LVL151:
1041:Drivers/STM32F7xx_HAL_Driver/Src/stm32f7xx_ll_usb.c ****   {
 2249              		.loc 1 1041 6 view .LVU761
 2250 000c 0128     		cmp	r0, #1
 2251 000e 0BD0     		beq	.L172
1063:Drivers/STM32F7xx_HAL_Driver/Src/stm32f7xx_ll_usb.c ****     {
 2252              		.loc 1 1063 5 is_stmt 1 view .LVU762
1063:Drivers/STM32F7xx_HAL_Driver/Src/stm32f7xx_ll_usb.c ****     {
 2253              		.loc 1 1063 11 is_stmt 0 view .LVU763
 2254 0010 0B78     		ldrb	r3, [r1]	@ zero_extendqisi2
 2255 0012 02EB4313 		add	r3, r2, r3, lsl #5
1063:Drivers/STM32F7xx_HAL_Driver/Src/stm32f7xx_ll_usb.c ****     {
 2256              		.loc 1 1063 30 view .LVU764
 2257 0016 D3F8000B 		ldr	r0, [r3, #2816]
1063:Drivers/STM32F7xx_HAL_Driver/Src/stm32f7xx_ll_usb.c ****     {
 2258              		.loc 1 1063 8 view .LVU765
 2259 001a 0028     		cmp	r0, #0
 2260 001c 2DDB     		blt	.L173
1037:Drivers/STM32F7xx_HAL_Driver/Src/stm32f7xx_ll_usb.c ****   uint32_t USBx_BASE = (uint32_t)USBx;
 2261              		.loc 1 1037 21 view .LVU766
 2262 001e 0020     		movs	r0, #0
 2263              	.L165:
 2264              	.LVL152:
1081:Drivers/STM32F7xx_HAL_Driver/Src/stm32f7xx_ll_usb.c **** }
 2265              		.loc 1 1081 3 is_stmt 1 view .LVU767
1082:Drivers/STM32F7xx_HAL_Driver/Src/stm32f7xx_ll_usb.c **** 
 2266              		.loc 1 1082 1 is_stmt 0 view .LVU768
 2267 0020 03B0     		add	sp, sp, #12
 2268              		.cfi_remember_state
 2269              		.cfi_def_cfa_offset 4
 2270              		@ sp needed
 2271 0022 5DF8044B 		ldr	r4, [sp], #4
 2272              		.cfi_restore 4
 2273              		.cfi_def_cfa_offset 0
 2274 0026 7047     		bx	lr
 2275              	.LVL153:
 2276              	.L172:
 2277              		.cfi_restore_state
1044:Drivers/STM32F7xx_HAL_Driver/Src/stm32f7xx_ll_usb.c ****     {
 2278              		.loc 1 1044 5 is_stmt 1 view .LVU769
1044:Drivers/STM32F7xx_HAL_Driver/Src/stm32f7xx_ll_usb.c ****     {
 2279              		.loc 1 1044 11 is_stmt 0 view .LVU770
 2280 0028 0B78     		ldrb	r3, [r1]	@ zero_extendqisi2
 2281 002a 02EB4313 		add	r3, r2, r3, lsl #5
1044:Drivers/STM32F7xx_HAL_Driver/Src/stm32f7xx_ll_usb.c ****     {
 2282              		.loc 1 1044 29 view .LVU771
 2283 002e D3F80049 		ldr	r4, [r3, #2304]
1044:Drivers/STM32F7xx_HAL_Driver/Src/stm32f7xx_ll_usb.c ****     {
 2284              		.loc 1 1044 8 view .LVU772
 2285 0032 002C     		cmp	r4, #0
ARM GAS  /tmp/cc8ZLjKA.s 			page 81


 2286 0034 01DB     		blt	.L174
1037:Drivers/STM32F7xx_HAL_Driver/Src/stm32f7xx_ll_usb.c ****   uint32_t USBx_BASE = (uint32_t)USBx;
 2287              		.loc 1 1037 21 view .LVU773
 2288 0036 0020     		movs	r0, #0
 2289 0038 F2E7     		b	.L165
 2290              	.L174:
1046:Drivers/STM32F7xx_HAL_Driver/Src/stm32f7xx_ll_usb.c ****       USBx_INEP(ep->num)->DIEPCTL |= (USB_OTG_DIEPCTL_EPDIS);
 2291              		.loc 1 1046 7 is_stmt 1 view .LVU774
1046:Drivers/STM32F7xx_HAL_Driver/Src/stm32f7xx_ll_usb.c ****       USBx_INEP(ep->num)->DIEPCTL |= (USB_OTG_DIEPCTL_EPDIS);
 2292              		.loc 1 1046 25 is_stmt 0 view .LVU775
 2293 003a D3F80049 		ldr	r4, [r3, #2304]
1046:Drivers/STM32F7xx_HAL_Driver/Src/stm32f7xx_ll_usb.c ****       USBx_INEP(ep->num)->DIEPCTL |= (USB_OTG_DIEPCTL_EPDIS);
 2294              		.loc 1 1046 35 view .LVU776
 2295 003e 44F00064 		orr	r4, r4, #134217728
 2296 0042 C3F80049 		str	r4, [r3, #2304]
1047:Drivers/STM32F7xx_HAL_Driver/Src/stm32f7xx_ll_usb.c **** 
 2297              		.loc 1 1047 7 is_stmt 1 view .LVU777
 2298 0046 0B78     		ldrb	r3, [r1]	@ zero_extendqisi2
1047:Drivers/STM32F7xx_HAL_Driver/Src/stm32f7xx_ll_usb.c **** 
 2299              		.loc 1 1047 25 is_stmt 0 view .LVU778
 2300 0048 02EB4313 		add	r3, r2, r3, lsl #5
 2301 004c D3F80049 		ldr	r4, [r3, #2304]
1047:Drivers/STM32F7xx_HAL_Driver/Src/stm32f7xx_ll_usb.c **** 
 2302              		.loc 1 1047 35 view .LVU779
 2303 0050 44F08044 		orr	r4, r4, #1073741824
 2304 0054 C3F80049 		str	r4, [r3, #2304]
 2305              	.L166:
1049:Drivers/STM32F7xx_HAL_Driver/Src/stm32f7xx_ll_usb.c ****       {
 2306              		.loc 1 1049 7 is_stmt 1 view .LVU780
1051:Drivers/STM32F7xx_HAL_Driver/Src/stm32f7xx_ll_usb.c **** 
 2307              		.loc 1 1051 9 view .LVU781
1051:Drivers/STM32F7xx_HAL_Driver/Src/stm32f7xx_ll_usb.c **** 
 2308              		.loc 1 1051 14 is_stmt 0 view .LVU782
 2309 0058 019B     		ldr	r3, [sp, #4]
 2310 005a 0133     		adds	r3, r3, #1
 2311 005c 0193     		str	r3, [sp, #4]
1053:Drivers/STM32F7xx_HAL_Driver/Src/stm32f7xx_ll_usb.c ****         {
 2312              		.loc 1 1053 9 is_stmt 1 view .LVU783
1053:Drivers/STM32F7xx_HAL_Driver/Src/stm32f7xx_ll_usb.c ****         {
 2313              		.loc 1 1053 19 is_stmt 0 view .LVU784
 2314 005e 019C     		ldr	r4, [sp, #4]
1053:Drivers/STM32F7xx_HAL_Driver/Src/stm32f7xx_ll_usb.c ****         {
 2315              		.loc 1 1053 12 view .LVU785
 2316 0060 42F21073 		movw	r3, #10000
 2317 0064 9C42     		cmp	r4, r3
 2318 0066 DBD8     		bhi	.L165
1058:Drivers/STM32F7xx_HAL_Driver/Src/stm32f7xx_ll_usb.c ****     }
 2319              		.loc 1 1058 72 is_stmt 1 view .LVU786
1058:Drivers/STM32F7xx_HAL_Driver/Src/stm32f7xx_ll_usb.c ****     }
 2320              		.loc 1 1058 18 is_stmt 0 view .LVU787
 2321 0068 0B78     		ldrb	r3, [r1]	@ zero_extendqisi2
 2322 006a 02EB4313 		add	r3, r2, r3, lsl #5
1058:Drivers/STM32F7xx_HAL_Driver/Src/stm32f7xx_ll_usb.c ****     }
 2323              		.loc 1 1058 36 view .LVU788
 2324 006e D3F80039 		ldr	r3, [r3, #2304]
1058:Drivers/STM32F7xx_HAL_Driver/Src/stm32f7xx_ll_usb.c ****     }
 2325              		.loc 1 1058 72 view .LVU789
ARM GAS  /tmp/cc8ZLjKA.s 			page 82


 2326 0072 002B     		cmp	r3, #0
 2327 0074 F0DB     		blt	.L166
1037:Drivers/STM32F7xx_HAL_Driver/Src/stm32f7xx_ll_usb.c ****   uint32_t USBx_BASE = (uint32_t)USBx;
 2328              		.loc 1 1037 21 view .LVU790
 2329 0076 0020     		movs	r0, #0
 2330 0078 D2E7     		b	.L165
 2331              	.L173:
1065:Drivers/STM32F7xx_HAL_Driver/Src/stm32f7xx_ll_usb.c ****       USBx_OUTEP(ep->num)->DOEPCTL |= (USB_OTG_DOEPCTL_EPDIS);
 2332              		.loc 1 1065 7 is_stmt 1 view .LVU791
1065:Drivers/STM32F7xx_HAL_Driver/Src/stm32f7xx_ll_usb.c ****       USBx_OUTEP(ep->num)->DOEPCTL |= (USB_OTG_DOEPCTL_EPDIS);
 2333              		.loc 1 1065 26 is_stmt 0 view .LVU792
 2334 007a D3F8000B 		ldr	r0, [r3, #2816]
1065:Drivers/STM32F7xx_HAL_Driver/Src/stm32f7xx_ll_usb.c ****       USBx_OUTEP(ep->num)->DOEPCTL |= (USB_OTG_DOEPCTL_EPDIS);
 2335              		.loc 1 1065 36 view .LVU793
 2336 007e 40F00060 		orr	r0, r0, #134217728
 2337 0082 C3F8000B 		str	r0, [r3, #2816]
1066:Drivers/STM32F7xx_HAL_Driver/Src/stm32f7xx_ll_usb.c **** 
 2338              		.loc 1 1066 7 is_stmt 1 view .LVU794
 2339 0086 0B78     		ldrb	r3, [r1]	@ zero_extendqisi2
1066:Drivers/STM32F7xx_HAL_Driver/Src/stm32f7xx_ll_usb.c **** 
 2340              		.loc 1 1066 26 is_stmt 0 view .LVU795
 2341 0088 02EB4313 		add	r3, r2, r3, lsl #5
 2342 008c D3F8000B 		ldr	r0, [r3, #2816]
1066:Drivers/STM32F7xx_HAL_Driver/Src/stm32f7xx_ll_usb.c **** 
 2343              		.loc 1 1066 36 view .LVU796
 2344 0090 40F08040 		orr	r0, r0, #1073741824
 2345 0094 C3F8000B 		str	r0, [r3, #2816]
 2346              	.L167:
1068:Drivers/STM32F7xx_HAL_Driver/Src/stm32f7xx_ll_usb.c ****       {
 2347              		.loc 1 1068 7 is_stmt 1 view .LVU797
1070:Drivers/STM32F7xx_HAL_Driver/Src/stm32f7xx_ll_usb.c **** 
 2348              		.loc 1 1070 9 view .LVU798
1070:Drivers/STM32F7xx_HAL_Driver/Src/stm32f7xx_ll_usb.c **** 
 2349              		.loc 1 1070 14 is_stmt 0 view .LVU799
 2350 0098 019B     		ldr	r3, [sp, #4]
 2351 009a 0133     		adds	r3, r3, #1
 2352 009c 0193     		str	r3, [sp, #4]
1072:Drivers/STM32F7xx_HAL_Driver/Src/stm32f7xx_ll_usb.c ****         {
 2353              		.loc 1 1072 9 is_stmt 1 view .LVU800
1072:Drivers/STM32F7xx_HAL_Driver/Src/stm32f7xx_ll_usb.c ****         {
 2354              		.loc 1 1072 19 is_stmt 0 view .LVU801
 2355 009e 0198     		ldr	r0, [sp, #4]
1072:Drivers/STM32F7xx_HAL_Driver/Src/stm32f7xx_ll_usb.c ****         {
 2356              		.loc 1 1072 12 view .LVU802
 2357 00a0 42F21073 		movw	r3, #10000
 2358 00a4 9842     		cmp	r0, r3
 2359 00a6 08D8     		bhi	.L170
1077:Drivers/STM32F7xx_HAL_Driver/Src/stm32f7xx_ll_usb.c ****     }
 2360              		.loc 1 1077 73 is_stmt 1 view .LVU803
1077:Drivers/STM32F7xx_HAL_Driver/Src/stm32f7xx_ll_usb.c ****     }
 2361              		.loc 1 1077 18 is_stmt 0 view .LVU804
 2362 00a8 0B78     		ldrb	r3, [r1]	@ zero_extendqisi2
 2363 00aa 02EB4313 		add	r3, r2, r3, lsl #5
1077:Drivers/STM32F7xx_HAL_Driver/Src/stm32f7xx_ll_usb.c ****     }
 2364              		.loc 1 1077 37 view .LVU805
 2365 00ae D3F8003B 		ldr	r3, [r3, #2816]
1077:Drivers/STM32F7xx_HAL_Driver/Src/stm32f7xx_ll_usb.c ****     }
ARM GAS  /tmp/cc8ZLjKA.s 			page 83


 2366              		.loc 1 1077 73 view .LVU806
 2367 00b2 002B     		cmp	r3, #0
 2368 00b4 F0DB     		blt	.L167
1037:Drivers/STM32F7xx_HAL_Driver/Src/stm32f7xx_ll_usb.c ****   uint32_t USBx_BASE = (uint32_t)USBx;
 2369              		.loc 1 1037 21 view .LVU807
 2370 00b6 0020     		movs	r0, #0
 2371 00b8 B2E7     		b	.L165
 2372              	.L170:
1074:Drivers/STM32F7xx_HAL_Driver/Src/stm32f7xx_ll_usb.c ****           break;
 2373              		.loc 1 1074 15 view .LVU808
 2374 00ba 0120     		movs	r0, #1
 2375 00bc B0E7     		b	.L165
 2376              		.cfi_endproc
 2377              	.LFE157:
 2379              		.section	.text.USB_WritePacket,"ax",%progbits
 2380              		.align	1
 2381              		.global	USB_WritePacket
 2382              		.syntax unified
 2383              		.thumb
 2384              		.thumb_func
 2386              	USB_WritePacket:
 2387              	.LVL154:
 2388              	.LFB158:
1100:Drivers/STM32F7xx_HAL_Driver/Src/stm32f7xx_ll_usb.c ****   uint32_t USBx_BASE = (uint32_t)USBx;
 2389              		.loc 1 1100 1 is_stmt 1 view -0
 2390              		.cfi_startproc
 2391              		@ args = 4, pretend = 0, frame = 0
 2392              		@ frame_needed = 0, uses_anonymous_args = 0
1100:Drivers/STM32F7xx_HAL_Driver/Src/stm32f7xx_ll_usb.c ****   uint32_t USBx_BASE = (uint32_t)USBx;
 2393              		.loc 1 1100 1 is_stmt 0 view .LVU810
 2394 0000 10B5     		push	{r4, lr}
 2395              		.cfi_def_cfa_offset 8
 2396              		.cfi_offset 4, -8
 2397              		.cfi_offset 14, -4
 2398 0002 9DF80840 		ldrb	r4, [sp, #8]	@ zero_extendqisi2
1101:Drivers/STM32F7xx_HAL_Driver/Src/stm32f7xx_ll_usb.c ****   uint8_t *pSrc = src;
 2399              		.loc 1 1101 3 is_stmt 1 view .LVU811
 2400              	.LVL155:
1102:Drivers/STM32F7xx_HAL_Driver/Src/stm32f7xx_ll_usb.c ****   uint32_t count32b;
 2401              		.loc 1 1102 3 view .LVU812
1103:Drivers/STM32F7xx_HAL_Driver/Src/stm32f7xx_ll_usb.c ****   uint32_t i;
 2402              		.loc 1 1103 3 view .LVU813
1104:Drivers/STM32F7xx_HAL_Driver/Src/stm32f7xx_ll_usb.c **** 
 2403              		.loc 1 1104 3 view .LVU814
1106:Drivers/STM32F7xx_HAL_Driver/Src/stm32f7xx_ll_usb.c ****   {
 2404              		.loc 1 1106 3 view .LVU815
1106:Drivers/STM32F7xx_HAL_Driver/Src/stm32f7xx_ll_usb.c ****   {
 2405              		.loc 1 1106 6 is_stmt 0 view .LVU816
 2406 0006 84B9     		cbnz	r4, .L176
1108:Drivers/STM32F7xx_HAL_Driver/Src/stm32f7xx_ll_usb.c ****     for (i = 0U; i < count32b; i++)
 2407              		.loc 1 1108 5 is_stmt 1 view .LVU817
1108:Drivers/STM32F7xx_HAL_Driver/Src/stm32f7xx_ll_usb.c ****     for (i = 0U; i < count32b; i++)
 2408              		.loc 1 1108 31 is_stmt 0 view .LVU818
 2409 0008 0333     		adds	r3, r3, #3
 2410              	.LVL156:
1108:Drivers/STM32F7xx_HAL_Driver/Src/stm32f7xx_ll_usb.c ****     for (i = 0U; i < count32b; i++)
 2411              		.loc 1 1108 14 view .LVU819
ARM GAS  /tmp/cc8ZLjKA.s 			page 84


 2412 000a 4FEA930E 		lsr	lr, r3, #2
 2413              	.LVL157:
1109:Drivers/STM32F7xx_HAL_Driver/Src/stm32f7xx_ll_usb.c ****     {
 2414              		.loc 1 1109 5 is_stmt 1 view .LVU820
1109:Drivers/STM32F7xx_HAL_Driver/Src/stm32f7xx_ll_usb.c ****     {
 2415              		.loc 1 1109 12 is_stmt 0 view .LVU821
 2416 000e 4FF0000C 		mov	ip, #0
1109:Drivers/STM32F7xx_HAL_Driver/Src/stm32f7xx_ll_usb.c ****     {
 2417              		.loc 1 1109 5 view .LVU822
 2418 0012 08E0     		b	.L177
 2419              	.LVL158:
 2420              	.L178:
1111:Drivers/STM32F7xx_HAL_Driver/Src/stm32f7xx_ll_usb.c ****       pSrc++;
 2421              		.loc 1 1111 7 is_stmt 1 discriminator 3 view .LVU823
 2422 0014 00EB0233 		add	r3, r0, r2, lsl #12
 2423 0018 03F58053 		add	r3, r3, #4096
1111:Drivers/STM32F7xx_HAL_Driver/Src/stm32f7xx_ll_usb.c ****       pSrc++;
 2424              		.loc 1 1111 41 is_stmt 0 discriminator 3 view .LVU824
 2425 001c 51F8044B 		ldr	r4, [r1], #4	@ unaligned
 2426              	.LVL159:
1111:Drivers/STM32F7xx_HAL_Driver/Src/stm32f7xx_ll_usb.c ****       pSrc++;
 2427              		.loc 1 1111 39 discriminator 3 view .LVU825
 2428 0020 1C60     		str	r4, [r3]
1112:Drivers/STM32F7xx_HAL_Driver/Src/stm32f7xx_ll_usb.c ****       pSrc++;
 2429              		.loc 1 1112 7 is_stmt 1 discriminator 3 view .LVU826
 2430              	.LVL160:
1113:Drivers/STM32F7xx_HAL_Driver/Src/stm32f7xx_ll_usb.c ****       pSrc++;
 2431              		.loc 1 1113 7 discriminator 3 view .LVU827
1114:Drivers/STM32F7xx_HAL_Driver/Src/stm32f7xx_ll_usb.c ****       pSrc++;
 2432              		.loc 1 1114 7 discriminator 3 view .LVU828
1115:Drivers/STM32F7xx_HAL_Driver/Src/stm32f7xx_ll_usb.c ****     }
 2433              		.loc 1 1115 7 discriminator 3 view .LVU829
1109:Drivers/STM32F7xx_HAL_Driver/Src/stm32f7xx_ll_usb.c ****     {
 2434              		.loc 1 1109 33 discriminator 3 view .LVU830
 2435 0022 0CF1010C 		add	ip, ip, #1
 2436              	.LVL161:
 2437              	.L177:
1109:Drivers/STM32F7xx_HAL_Driver/Src/stm32f7xx_ll_usb.c ****     {
 2438              		.loc 1 1109 20 discriminator 1 view .LVU831
 2439 0026 F445     		cmp	ip, lr
 2440 0028 F4D3     		bcc	.L178
 2441              	.LVL162:
 2442              	.L176:
1119:Drivers/STM32F7xx_HAL_Driver/Src/stm32f7xx_ll_usb.c **** }
 2443              		.loc 1 1119 3 view .LVU832
1120:Drivers/STM32F7xx_HAL_Driver/Src/stm32f7xx_ll_usb.c **** 
 2444              		.loc 1 1120 1 is_stmt 0 view .LVU833
 2445 002a 0020     		movs	r0, #0
 2446              	.LVL163:
1120:Drivers/STM32F7xx_HAL_Driver/Src/stm32f7xx_ll_usb.c **** 
 2447              		.loc 1 1120 1 view .LVU834
 2448 002c 10BD     		pop	{r4, pc}
1120:Drivers/STM32F7xx_HAL_Driver/Src/stm32f7xx_ll_usb.c **** 
 2449              		.loc 1 1120 1 view .LVU835
 2450              		.cfi_endproc
 2451              	.LFE158:
 2453              		.section	.text.USB_EPStartXfer,"ax",%progbits
ARM GAS  /tmp/cc8ZLjKA.s 			page 85


 2454              		.align	1
 2455              		.global	USB_EPStartXfer
 2456              		.syntax unified
 2457              		.thumb
 2458              		.thumb_func
 2460              	USB_EPStartXfer:
 2461              	.LVL164:
 2462              	.LFB155:
 792:Drivers/STM32F7xx_HAL_Driver/Src/stm32f7xx_ll_usb.c ****   uint32_t USBx_BASE = (uint32_t)USBx;
 2463              		.loc 1 792 1 is_stmt 1 view -0
 2464              		.cfi_startproc
 2465              		@ args = 0, pretend = 0, frame = 0
 2466              		@ frame_needed = 0, uses_anonymous_args = 0
 792:Drivers/STM32F7xx_HAL_Driver/Src/stm32f7xx_ll_usb.c ****   uint32_t USBx_BASE = (uint32_t)USBx;
 2467              		.loc 1 792 1 is_stmt 0 view .LVU837
 2468 0000 F0B5     		push	{r4, r5, r6, r7, lr}
 2469              		.cfi_def_cfa_offset 20
 2470              		.cfi_offset 4, -20
 2471              		.cfi_offset 5, -16
 2472              		.cfi_offset 6, -12
 2473              		.cfi_offset 7, -8
 2474              		.cfi_offset 14, -4
 2475 0002 83B0     		sub	sp, sp, #12
 2476              		.cfi_def_cfa_offset 32
 793:Drivers/STM32F7xx_HAL_Driver/Src/stm32f7xx_ll_usb.c ****   uint32_t epnum = (uint32_t)ep->num;
 2477              		.loc 1 793 3 is_stmt 1 view .LVU838
 2478              	.LVL165:
 794:Drivers/STM32F7xx_HAL_Driver/Src/stm32f7xx_ll_usb.c ****   uint16_t pktcnt;
 2479              		.loc 1 794 3 view .LVU839
 794:Drivers/STM32F7xx_HAL_Driver/Src/stm32f7xx_ll_usb.c ****   uint16_t pktcnt;
 2480              		.loc 1 794 32 is_stmt 0 view .LVU840
 2481 0004 0B78     		ldrb	r3, [r1]	@ zero_extendqisi2
 2482              	.LVL166:
 795:Drivers/STM32F7xx_HAL_Driver/Src/stm32f7xx_ll_usb.c **** 
 2483              		.loc 1 795 3 is_stmt 1 view .LVU841
 798:Drivers/STM32F7xx_HAL_Driver/Src/stm32f7xx_ll_usb.c ****   {
 2484              		.loc 1 798 3 view .LVU842
 798:Drivers/STM32F7xx_HAL_Driver/Src/stm32f7xx_ll_usb.c ****   {
 2485              		.loc 1 798 9 is_stmt 0 view .LVU843
 2486 0006 4C78     		ldrb	r4, [r1, #1]	@ zero_extendqisi2
 798:Drivers/STM32F7xx_HAL_Driver/Src/stm32f7xx_ll_usb.c ****   {
 2487              		.loc 1 798 6 view .LVU844
 2488 0008 012C     		cmp	r4, #1
 2489 000a 31D0     		beq	.L198
 884:Drivers/STM32F7xx_HAL_Driver/Src/stm32f7xx_ll_usb.c ****     USBx_OUTEP(epnum)->DOEPTSIZ &= ~(USB_OTG_DOEPTSIZ_PKTCNT);
 2490              		.loc 1 884 5 is_stmt 1 view .LVU845
 884:Drivers/STM32F7xx_HAL_Driver/Src/stm32f7xx_ll_usb.c ****     USBx_OUTEP(epnum)->DOEPTSIZ &= ~(USB_OTG_DOEPTSIZ_PKTCNT);
 2491              		.loc 1 884 22 is_stmt 0 view .LVU846
 2492 000c 00EB4313 		add	r3, r0, r3, lsl #5
 2493              	.LVL167:
 884:Drivers/STM32F7xx_HAL_Driver/Src/stm32f7xx_ll_usb.c ****     USBx_OUTEP(epnum)->DOEPTSIZ &= ~(USB_OTG_DOEPTSIZ_PKTCNT);
 2494              		.loc 1 884 22 view .LVU847
 2495 0010 03F5306C 		add	ip, r3, #2816
 2496 0014 DCF81050 		ldr	r5, [ip, #16]
 884:Drivers/STM32F7xx_HAL_Driver/Src/stm32f7xx_ll_usb.c ****     USBx_OUTEP(epnum)->DOEPTSIZ &= ~(USB_OTG_DOEPTSIZ_PKTCNT);
 2497              		.loc 1 884 33 view .LVU848
 2498 0018 824C     		ldr	r4, .L203
ARM GAS  /tmp/cc8ZLjKA.s 			page 86


 2499 001a 2C40     		ands	r4, r4, r5
 2500 001c CCF81040 		str	r4, [ip, #16]
 2501              	.LVL168:
 885:Drivers/STM32F7xx_HAL_Driver/Src/stm32f7xx_ll_usb.c **** 
 2502              		.loc 1 885 5 is_stmt 1 view .LVU849
 885:Drivers/STM32F7xx_HAL_Driver/Src/stm32f7xx_ll_usb.c **** 
 2503              		.loc 1 885 22 is_stmt 0 view .LVU850
 2504 0020 DCF81050 		ldr	r5, [ip, #16]
 885:Drivers/STM32F7xx_HAL_Driver/Src/stm32f7xx_ll_usb.c **** 
 2505              		.loc 1 885 33 view .LVU851
 2506 0024 804C     		ldr	r4, .L203+4
 2507 0026 2C40     		ands	r4, r4, r5
 2508 0028 CCF81040 		str	r4, [ip, #16]
 887:Drivers/STM32F7xx_HAL_Driver/Src/stm32f7xx_ll_usb.c ****     {
 2509              		.loc 1 887 5 is_stmt 1 view .LVU852
 887:Drivers/STM32F7xx_HAL_Driver/Src/stm32f7xx_ll_usb.c ****     {
 2510              		.loc 1 887 11 is_stmt 0 view .LVU853
 2511 002c 8C69     		ldr	r4, [r1, #24]
 887:Drivers/STM32F7xx_HAL_Driver/Src/stm32f7xx_ll_usb.c ****     {
 2512              		.loc 1 887 8 view .LVU854
 2513 002e 002C     		cmp	r4, #0
 2514 0030 40F0C380 		bne	.L192
 889:Drivers/STM32F7xx_HAL_Driver/Src/stm32f7xx_ll_usb.c ****       USBx_OUTEP(epnum)->DOEPTSIZ |= (USB_OTG_DOEPTSIZ_PKTCNT & (1U << 19));
 2515              		.loc 1 889 7 is_stmt 1 view .LVU855
 889:Drivers/STM32F7xx_HAL_Driver/Src/stm32f7xx_ll_usb.c ****       USBx_OUTEP(epnum)->DOEPTSIZ |= (USB_OTG_DOEPTSIZ_PKTCNT & (1U << 19));
 2516              		.loc 1 889 24 is_stmt 0 view .LVU856
 2517 0034 DCF81040 		ldr	r4, [ip, #16]
 889:Drivers/STM32F7xx_HAL_Driver/Src/stm32f7xx_ll_usb.c ****       USBx_OUTEP(epnum)->DOEPTSIZ |= (USB_OTG_DOEPTSIZ_PKTCNT & (1U << 19));
 2518              		.loc 1 889 67 view .LVU857
 2519 0038 CD68     		ldr	r5, [r1, #12]
 889:Drivers/STM32F7xx_HAL_Driver/Src/stm32f7xx_ll_usb.c ****       USBx_OUTEP(epnum)->DOEPTSIZ |= (USB_OTG_DOEPTSIZ_PKTCNT & (1U << 19));
 2520              		.loc 1 889 63 view .LVU858
 2521 003a C5F31205 		ubfx	r5, r5, #0, #19
 889:Drivers/STM32F7xx_HAL_Driver/Src/stm32f7xx_ll_usb.c ****       USBx_OUTEP(epnum)->DOEPTSIZ |= (USB_OTG_DOEPTSIZ_PKTCNT & (1U << 19));
 2522              		.loc 1 889 35 view .LVU859
 2523 003e 2C43     		orrs	r4, r4, r5
 2524 0040 CCF81040 		str	r4, [ip, #16]
 890:Drivers/STM32F7xx_HAL_Driver/Src/stm32f7xx_ll_usb.c ****     }
 2525              		.loc 1 890 7 is_stmt 1 view .LVU860
 890:Drivers/STM32F7xx_HAL_Driver/Src/stm32f7xx_ll_usb.c ****     }
 2526              		.loc 1 890 24 is_stmt 0 view .LVU861
 2527 0044 DCF81040 		ldr	r4, [ip, #16]
 890:Drivers/STM32F7xx_HAL_Driver/Src/stm32f7xx_ll_usb.c ****     }
 2528              		.loc 1 890 35 view .LVU862
 2529 0048 44F40024 		orr	r4, r4, #524288
 2530 004c CCF81040 		str	r4, [ip, #16]
 2531              	.L193:
 901:Drivers/STM32F7xx_HAL_Driver/Src/stm32f7xx_ll_usb.c ****     {
 2532              		.loc 1 901 5 is_stmt 1 view .LVU863
 901:Drivers/STM32F7xx_HAL_Driver/Src/stm32f7xx_ll_usb.c ****     {
 2533              		.loc 1 901 8 is_stmt 0 view .LVU864
 2534 0050 012A     		cmp	r2, #1
 2535 0052 00F0CC80 		beq	.L199
 2536              	.LVL169:
 2537              	.L194:
 909:Drivers/STM32F7xx_HAL_Driver/Src/stm32f7xx_ll_usb.c ****     {
 2538              		.loc 1 909 5 is_stmt 1 view .LVU865
ARM GAS  /tmp/cc8ZLjKA.s 			page 87


 909:Drivers/STM32F7xx_HAL_Driver/Src/stm32f7xx_ll_usb.c ****     {
 2539              		.loc 1 909 11 is_stmt 0 view .LVU866
 2540 0056 0A79     		ldrb	r2, [r1, #4]	@ zero_extendqisi2
 909:Drivers/STM32F7xx_HAL_Driver/Src/stm32f7xx_ll_usb.c ****     {
 2541              		.loc 1 909 8 view .LVU867
 2542 0058 012A     		cmp	r2, #1
 2543 005a 00F0CF80 		beq	.L200
 2544              	.L195:
 921:Drivers/STM32F7xx_HAL_Driver/Src/stm32f7xx_ll_usb.c ****   }
 2545              		.loc 1 921 5 is_stmt 1 view .LVU868
 921:Drivers/STM32F7xx_HAL_Driver/Src/stm32f7xx_ll_usb.c ****   }
 2546              		.loc 1 921 22 is_stmt 0 view .LVU869
 2547 005e D3F8002B 		ldr	r2, [r3, #2816]
 921:Drivers/STM32F7xx_HAL_Driver/Src/stm32f7xx_ll_usb.c ****   }
 2548              		.loc 1 921 32 view .LVU870
 2549 0062 42F00442 		orr	r2, r2, #-2080374784
 2550 0066 C3F8002B 		str	r2, [r3, #2816]
 2551              	.LVL170:
 2552              	.L188:
 924:Drivers/STM32F7xx_HAL_Driver/Src/stm32f7xx_ll_usb.c **** }
 2553              		.loc 1 924 3 is_stmt 1 view .LVU871
 925:Drivers/STM32F7xx_HAL_Driver/Src/stm32f7xx_ll_usb.c **** 
 2554              		.loc 1 925 1 is_stmt 0 view .LVU872
 2555 006a 0020     		movs	r0, #0
 2556 006c 03B0     		add	sp, sp, #12
 2557              		.cfi_remember_state
 2558              		.cfi_def_cfa_offset 20
 2559              		@ sp needed
 2560 006e F0BD     		pop	{r4, r5, r6, r7, pc}
 2561              	.LVL171:
 2562              	.L198:
 2563              		.cfi_restore_state
 801:Drivers/STM32F7xx_HAL_Driver/Src/stm32f7xx_ll_usb.c ****     {
 2564              		.loc 1 801 5 is_stmt 1 view .LVU873
 801:Drivers/STM32F7xx_HAL_Driver/Src/stm32f7xx_ll_usb.c ****     {
 2565              		.loc 1 801 11 is_stmt 0 view .LVU874
 2566 0070 8C69     		ldr	r4, [r1, #24]
 801:Drivers/STM32F7xx_HAL_Driver/Src/stm32f7xx_ll_usb.c ****     {
 2567              		.loc 1 801 8 view .LVU875
 2568 0072 74BB     		cbnz	r4, .L182
 803:Drivers/STM32F7xx_HAL_Driver/Src/stm32f7xx_ll_usb.c ****       USBx_INEP(epnum)->DIEPTSIZ |= (USB_OTG_DIEPTSIZ_PKTCNT & (1U << 19));
 2569              		.loc 1 803 7 is_stmt 1 view .LVU876
 803:Drivers/STM32F7xx_HAL_Driver/Src/stm32f7xx_ll_usb.c ****       USBx_INEP(epnum)->DIEPTSIZ |= (USB_OTG_DIEPTSIZ_PKTCNT & (1U << 19));
 2570              		.loc 1 803 23 is_stmt 0 view .LVU877
 2571 0074 00EB4314 		add	r4, r0, r3, lsl #5
 2572 0078 D4F81069 		ldr	r6, [r4, #2320]
 803:Drivers/STM32F7xx_HAL_Driver/Src/stm32f7xx_ll_usb.c ****       USBx_INEP(epnum)->DIEPTSIZ |= (USB_OTG_DIEPTSIZ_PKTCNT & (1U << 19));
 2573              		.loc 1 803 34 view .LVU878
 2574 007c 6A4D     		ldr	r5, .L203+4
 2575 007e 3540     		ands	r5, r5, r6
 2576 0080 C4F81059 		str	r5, [r4, #2320]
 804:Drivers/STM32F7xx_HAL_Driver/Src/stm32f7xx_ll_usb.c ****       USBx_INEP(epnum)->DIEPTSIZ &= ~(USB_OTG_DIEPTSIZ_XFRSIZ);
 2577              		.loc 1 804 7 is_stmt 1 view .LVU879
 804:Drivers/STM32F7xx_HAL_Driver/Src/stm32f7xx_ll_usb.c ****       USBx_INEP(epnum)->DIEPTSIZ &= ~(USB_OTG_DIEPTSIZ_XFRSIZ);
 2578              		.loc 1 804 23 is_stmt 0 view .LVU880
 2579 0084 D4F81059 		ldr	r5, [r4, #2320]
 804:Drivers/STM32F7xx_HAL_Driver/Src/stm32f7xx_ll_usb.c ****       USBx_INEP(epnum)->DIEPTSIZ &= ~(USB_OTG_DIEPTSIZ_XFRSIZ);
ARM GAS  /tmp/cc8ZLjKA.s 			page 88


 2580              		.loc 1 804 34 view .LVU881
 2581 0088 45F40025 		orr	r5, r5, #524288
 2582 008c C4F81059 		str	r5, [r4, #2320]
 805:Drivers/STM32F7xx_HAL_Driver/Src/stm32f7xx_ll_usb.c ****     }
 2583              		.loc 1 805 7 is_stmt 1 view .LVU882
 805:Drivers/STM32F7xx_HAL_Driver/Src/stm32f7xx_ll_usb.c ****     }
 2584              		.loc 1 805 23 is_stmt 0 view .LVU883
 2585 0090 D4F81069 		ldr	r6, [r4, #2320]
 805:Drivers/STM32F7xx_HAL_Driver/Src/stm32f7xx_ll_usb.c ****     }
 2586              		.loc 1 805 34 view .LVU884
 2587 0094 634D     		ldr	r5, .L203
 2588 0096 3540     		ands	r5, r5, r6
 2589 0098 C4F81059 		str	r5, [r4, #2320]
 2590              	.L183:
 828:Drivers/STM32F7xx_HAL_Driver/Src/stm32f7xx_ll_usb.c ****     {
 2591              		.loc 1 828 5 is_stmt 1 view .LVU885
 828:Drivers/STM32F7xx_HAL_Driver/Src/stm32f7xx_ll_usb.c ****     {
 2592              		.loc 1 828 8 is_stmt 0 view .LVU886
 2593 009c 012A     		cmp	r2, #1
 2594 009e 4AD0     		beq	.L201
 853:Drivers/STM32F7xx_HAL_Driver/Src/stm32f7xx_ll_usb.c **** 
 2595              		.loc 1 853 7 is_stmt 1 view .LVU887
 853:Drivers/STM32F7xx_HAL_Driver/Src/stm32f7xx_ll_usb.c **** 
 2596              		.loc 1 853 23 is_stmt 0 view .LVU888
 2597 00a0 00EB4313 		add	r3, r0, r3, lsl #5
 2598              	.LVL172:
 853:Drivers/STM32F7xx_HAL_Driver/Src/stm32f7xx_ll_usb.c **** 
 2599              		.loc 1 853 23 view .LVU889
 2600 00a4 D3F80049 		ldr	r4, [r3, #2304]
 853:Drivers/STM32F7xx_HAL_Driver/Src/stm32f7xx_ll_usb.c **** 
 2601              		.loc 1 853 33 view .LVU890
 2602 00a8 44F00444 		orr	r4, r4, #-2080374784
 2603 00ac C3F80049 		str	r4, [r3, #2304]
 855:Drivers/STM32F7xx_HAL_Driver/Src/stm32f7xx_ll_usb.c ****       {
 2604              		.loc 1 855 7 is_stmt 1 view .LVU891
 855:Drivers/STM32F7xx_HAL_Driver/Src/stm32f7xx_ll_usb.c ****       {
 2605              		.loc 1 855 13 is_stmt 0 view .LVU892
 2606 00b0 0C79     		ldrb	r4, [r1, #4]	@ zero_extendqisi2
 855:Drivers/STM32F7xx_HAL_Driver/Src/stm32f7xx_ll_usb.c ****       {
 2607              		.loc 1 855 10 view .LVU893
 2608 00b2 012C     		cmp	r4, #1
 2609 00b4 68D0     		beq	.L189
 858:Drivers/STM32F7xx_HAL_Driver/Src/stm32f7xx_ll_usb.c ****         {
 2610              		.loc 1 858 9 is_stmt 1 view .LVU894
 858:Drivers/STM32F7xx_HAL_Driver/Src/stm32f7xx_ll_usb.c ****         {
 2611              		.loc 1 858 15 is_stmt 0 view .LVU895
 2612 00b6 8B69     		ldr	r3, [r1, #24]
 858:Drivers/STM32F7xx_HAL_Driver/Src/stm32f7xx_ll_usb.c ****         {
 2613              		.loc 1 858 12 view .LVU896
 2614 00b8 002B     		cmp	r3, #0
 2615 00ba D6D0     		beq	.L188
 860:Drivers/STM32F7xx_HAL_Driver/Src/stm32f7xx_ll_usb.c ****         }
 2616              		.loc 1 860 11 is_stmt 1 view .LVU897
 860:Drivers/STM32F7xx_HAL_Driver/Src/stm32f7xx_ll_usb.c ****         }
 2617              		.loc 1 860 22 is_stmt 0 view .LVU898
 2618 00bc D0F83438 		ldr	r3, [r0, #2100]
 860:Drivers/STM32F7xx_HAL_Driver/Src/stm32f7xx_ll_usb.c ****         }
ARM GAS  /tmp/cc8ZLjKA.s 			page 89


 2619              		.loc 1 860 48 view .LVU899
 2620 00c0 0978     		ldrb	r1, [r1]	@ zero_extendqisi2
 2621              	.LVL173:
 860:Drivers/STM32F7xx_HAL_Driver/Src/stm32f7xx_ll_usb.c ****         }
 2622              		.loc 1 860 54 view .LVU900
 2623 00c2 01F00F01 		and	r1, r1, #15
 860:Drivers/STM32F7xx_HAL_Driver/Src/stm32f7xx_ll_usb.c ****         }
 2624              		.loc 1 860 42 view .LVU901
 2625 00c6 0122     		movs	r2, #1
 2626              	.LVL174:
 860:Drivers/STM32F7xx_HAL_Driver/Src/stm32f7xx_ll_usb.c ****         }
 2627              		.loc 1 860 42 view .LVU902
 2628 00c8 8A40     		lsls	r2, r2, r1
 860:Drivers/STM32F7xx_HAL_Driver/Src/stm32f7xx_ll_usb.c ****         }
 2629              		.loc 1 860 35 view .LVU903
 2630 00ca 1343     		orrs	r3, r3, r2
 2631 00cc C0F83438 		str	r3, [r0, #2100]
 2632 00d0 CBE7     		b	.L188
 2633              	.LVL175:
 2634              	.L182:
 814:Drivers/STM32F7xx_HAL_Driver/Src/stm32f7xx_ll_usb.c ****       USBx_INEP(epnum)->DIEPTSIZ &= ~(USB_OTG_DIEPTSIZ_PKTCNT);
 2635              		.loc 1 814 7 is_stmt 1 view .LVU904
 814:Drivers/STM32F7xx_HAL_Driver/Src/stm32f7xx_ll_usb.c ****       USBx_INEP(epnum)->DIEPTSIZ &= ~(USB_OTG_DIEPTSIZ_PKTCNT);
 2636              		.loc 1 814 23 is_stmt 0 view .LVU905
 2637 00d2 00EB4314 		add	r4, r0, r3, lsl #5
 2638 00d6 D4F81069 		ldr	r6, [r4, #2320]
 814:Drivers/STM32F7xx_HAL_Driver/Src/stm32f7xx_ll_usb.c ****       USBx_INEP(epnum)->DIEPTSIZ &= ~(USB_OTG_DIEPTSIZ_PKTCNT);
 2639              		.loc 1 814 34 view .LVU906
 2640 00da 524D     		ldr	r5, .L203
 2641 00dc 3540     		ands	r5, r5, r6
 2642 00de C4F81059 		str	r5, [r4, #2320]
 815:Drivers/STM32F7xx_HAL_Driver/Src/stm32f7xx_ll_usb.c ****       USBx_INEP(epnum)->DIEPTSIZ |= (USB_OTG_DIEPTSIZ_PKTCNT &
 2643              		.loc 1 815 7 is_stmt 1 view .LVU907
 815:Drivers/STM32F7xx_HAL_Driver/Src/stm32f7xx_ll_usb.c ****       USBx_INEP(epnum)->DIEPTSIZ |= (USB_OTG_DIEPTSIZ_PKTCNT &
 2644              		.loc 1 815 23 is_stmt 0 view .LVU908
 2645 00e2 D4F81069 		ldr	r6, [r4, #2320]
 815:Drivers/STM32F7xx_HAL_Driver/Src/stm32f7xx_ll_usb.c ****       USBx_INEP(epnum)->DIEPTSIZ |= (USB_OTG_DIEPTSIZ_PKTCNT &
 2646              		.loc 1 815 34 view .LVU909
 2647 00e6 504D     		ldr	r5, .L203+4
 2648 00e8 3540     		ands	r5, r5, r6
 2649 00ea C4F81059 		str	r5, [r4, #2320]
 816:Drivers/STM32F7xx_HAL_Driver/Src/stm32f7xx_ll_usb.c ****                                      (((ep->xfer_len + ep->maxpacket - 1U) / ep->maxpacket) << 19))
 2650              		.loc 1 816 7 is_stmt 1 view .LVU910
 816:Drivers/STM32F7xx_HAL_Driver/Src/stm32f7xx_ll_usb.c ****                                      (((ep->xfer_len + ep->maxpacket - 1U) / ep->maxpacket) << 19))
 2651              		.loc 1 816 23 is_stmt 0 view .LVU911
 2652 00ee D4F81069 		ldr	r6, [r4, #2320]
 817:Drivers/STM32F7xx_HAL_Driver/Src/stm32f7xx_ll_usb.c **** 
 2653              		.loc 1 817 43 view .LVU912
 2654 00f2 8D69     		ldr	r5, [r1, #24]
 817:Drivers/STM32F7xx_HAL_Driver/Src/stm32f7xx_ll_usb.c **** 
 2655              		.loc 1 817 58 view .LVU913
 2656 00f4 CF68     		ldr	r7, [r1, #12]
 817:Drivers/STM32F7xx_HAL_Driver/Src/stm32f7xx_ll_usb.c **** 
 2657              		.loc 1 817 54 view .LVU914
 2658 00f6 3D44     		add	r5, r5, r7
 817:Drivers/STM32F7xx_HAL_Driver/Src/stm32f7xx_ll_usb.c **** 
 2659              		.loc 1 817 70 view .LVU915
ARM GAS  /tmp/cc8ZLjKA.s 			page 90


 2660 00f8 013D     		subs	r5, r5, #1
 817:Drivers/STM32F7xx_HAL_Driver/Src/stm32f7xx_ll_usb.c **** 
 2661              		.loc 1 817 76 view .LVU916
 2662 00fa B5FBF7F5 		udiv	r5, r5, r7
 816:Drivers/STM32F7xx_HAL_Driver/Src/stm32f7xx_ll_usb.c ****                                      (((ep->xfer_len + ep->maxpacket - 1U) / ep->maxpacket) << 19))
 2663              		.loc 1 816 62 view .LVU917
 2664 00fe 4B4F     		ldr	r7, .L203+8
 2665 0100 07EAC545 		and	r5, r7, r5, lsl #19
 816:Drivers/STM32F7xx_HAL_Driver/Src/stm32f7xx_ll_usb.c ****                                      (((ep->xfer_len + ep->maxpacket - 1U) / ep->maxpacket) << 19))
 2666              		.loc 1 816 34 view .LVU918
 2667 0104 3543     		orrs	r5, r5, r6
 2668 0106 C4F81059 		str	r5, [r4, #2320]
 819:Drivers/STM32F7xx_HAL_Driver/Src/stm32f7xx_ll_usb.c **** 
 2669              		.loc 1 819 7 is_stmt 1 view .LVU919
 819:Drivers/STM32F7xx_HAL_Driver/Src/stm32f7xx_ll_usb.c **** 
 2670              		.loc 1 819 23 is_stmt 0 view .LVU920
 2671 010a D4F81059 		ldr	r5, [r4, #2320]
 819:Drivers/STM32F7xx_HAL_Driver/Src/stm32f7xx_ll_usb.c **** 
 2672              		.loc 1 819 66 view .LVU921
 2673 010e 8E69     		ldr	r6, [r1, #24]
 819:Drivers/STM32F7xx_HAL_Driver/Src/stm32f7xx_ll_usb.c **** 
 2674              		.loc 1 819 62 view .LVU922
 2675 0110 C6F31206 		ubfx	r6, r6, #0, #19
 819:Drivers/STM32F7xx_HAL_Driver/Src/stm32f7xx_ll_usb.c **** 
 2676              		.loc 1 819 34 view .LVU923
 2677 0114 3543     		orrs	r5, r5, r6
 2678 0116 C4F81059 		str	r5, [r4, #2320]
 814:Drivers/STM32F7xx_HAL_Driver/Src/stm32f7xx_ll_usb.c ****       USBx_INEP(epnum)->DIEPTSIZ &= ~(USB_OTG_DIEPTSIZ_PKTCNT);
 2679              		.loc 1 814 23 view .LVU924
 2680 011a 04F51064 		add	r4, r4, #2304
 821:Drivers/STM32F7xx_HAL_Driver/Src/stm32f7xx_ll_usb.c ****       {
 2681              		.loc 1 821 7 is_stmt 1 view .LVU925
 821:Drivers/STM32F7xx_HAL_Driver/Src/stm32f7xx_ll_usb.c ****       {
 2682              		.loc 1 821 13 is_stmt 0 view .LVU926
 2683 011e 0D79     		ldrb	r5, [r1, #4]	@ zero_extendqisi2
 821:Drivers/STM32F7xx_HAL_Driver/Src/stm32f7xx_ll_usb.c ****       {
 2684              		.loc 1 821 10 view .LVU927
 2685 0120 012D     		cmp	r5, #1
 2686 0122 BBD1     		bne	.L183
 823:Drivers/STM32F7xx_HAL_Driver/Src/stm32f7xx_ll_usb.c ****         USBx_INEP(epnum)->DIEPTSIZ |= (USB_OTG_DIEPTSIZ_MULCNT & (1U << 29));
 2687              		.loc 1 823 9 is_stmt 1 view .LVU928
 823:Drivers/STM32F7xx_HAL_Driver/Src/stm32f7xx_ll_usb.c ****         USBx_INEP(epnum)->DIEPTSIZ |= (USB_OTG_DIEPTSIZ_MULCNT & (1U << 29));
 2688              		.loc 1 823 25 is_stmt 0 view .LVU929
 2689 0124 2569     		ldr	r5, [r4, #16]
 823:Drivers/STM32F7xx_HAL_Driver/Src/stm32f7xx_ll_usb.c ****         USBx_INEP(epnum)->DIEPTSIZ |= (USB_OTG_DIEPTSIZ_MULCNT & (1U << 29));
 2690              		.loc 1 823 36 view .LVU930
 2691 0126 25F0C045 		bic	r5, r5, #1610612736
 2692 012a 2561     		str	r5, [r4, #16]
 824:Drivers/STM32F7xx_HAL_Driver/Src/stm32f7xx_ll_usb.c ****       }
 2693              		.loc 1 824 9 is_stmt 1 view .LVU931
 824:Drivers/STM32F7xx_HAL_Driver/Src/stm32f7xx_ll_usb.c ****       }
 2694              		.loc 1 824 25 is_stmt 0 view .LVU932
 2695 012c 2569     		ldr	r5, [r4, #16]
 824:Drivers/STM32F7xx_HAL_Driver/Src/stm32f7xx_ll_usb.c ****       }
 2696              		.loc 1 824 36 view .LVU933
 2697 012e 45F00055 		orr	r5, r5, #536870912
 2698 0132 2561     		str	r5, [r4, #16]
ARM GAS  /tmp/cc8ZLjKA.s 			page 91


 2699 0134 B2E7     		b	.L183
 2700              	.L201:
 830:Drivers/STM32F7xx_HAL_Driver/Src/stm32f7xx_ll_usb.c ****       {
 2701              		.loc 1 830 7 is_stmt 1 view .LVU934
 830:Drivers/STM32F7xx_HAL_Driver/Src/stm32f7xx_ll_usb.c ****       {
 2702              		.loc 1 830 23 is_stmt 0 view .LVU935
 2703 0136 4A69     		ldr	r2, [r1, #20]
 2704              	.LVL176:
 830:Drivers/STM32F7xx_HAL_Driver/Src/stm32f7xx_ll_usb.c ****       {
 2705              		.loc 1 830 10 view .LVU936
 2706 0138 1AB1     		cbz	r2, .L185
 832:Drivers/STM32F7xx_HAL_Driver/Src/stm32f7xx_ll_usb.c ****       }
 2707              		.loc 1 832 9 is_stmt 1 view .LVU937
 2708 013a 00EB4314 		add	r4, r0, r3, lsl #5
 832:Drivers/STM32F7xx_HAL_Driver/Src/stm32f7xx_ll_usb.c ****       }
 2709              		.loc 1 832 35 is_stmt 0 view .LVU938
 2710 013e C4F81429 		str	r2, [r4, #2324]
 2711              	.L185:
 835:Drivers/STM32F7xx_HAL_Driver/Src/stm32f7xx_ll_usb.c ****       {
 2712              		.loc 1 835 7 is_stmt 1 view .LVU939
 835:Drivers/STM32F7xx_HAL_Driver/Src/stm32f7xx_ll_usb.c ****       {
 2713              		.loc 1 835 13 is_stmt 0 view .LVU940
 2714 0142 0A79     		ldrb	r2, [r1, #4]	@ zero_extendqisi2
 835:Drivers/STM32F7xx_HAL_Driver/Src/stm32f7xx_ll_usb.c ****       {
 2715              		.loc 1 835 10 view .LVU941
 2716 0144 012A     		cmp	r2, #1
 2717 0146 08D0     		beq	.L202
 2718              	.LVL177:
 2719              	.L186:
 848:Drivers/STM32F7xx_HAL_Driver/Src/stm32f7xx_ll_usb.c ****     }
 2720              		.loc 1 848 7 is_stmt 1 view .LVU942
 848:Drivers/STM32F7xx_HAL_Driver/Src/stm32f7xx_ll_usb.c ****     }
 2721              		.loc 1 848 23 is_stmt 0 view .LVU943
 2722 0148 00EB4313 		add	r3, r0, r3, lsl #5
 2723              	.LVL178:
 848:Drivers/STM32F7xx_HAL_Driver/Src/stm32f7xx_ll_usb.c ****     }
 2724              		.loc 1 848 23 view .LVU944
 2725 014c D3F80029 		ldr	r2, [r3, #2304]
 848:Drivers/STM32F7xx_HAL_Driver/Src/stm32f7xx_ll_usb.c ****     }
 2726              		.loc 1 848 33 view .LVU945
 2727 0150 42F00442 		orr	r2, r2, #-2080374784
 2728 0154 C3F80029 		str	r2, [r3, #2304]
 2729 0158 87E7     		b	.L188
 2730              	.LVL179:
 2731              	.L202:
 837:Drivers/STM32F7xx_HAL_Driver/Src/stm32f7xx_ll_usb.c ****         {
 2732              		.loc 1 837 9 is_stmt 1 view .LVU946
 837:Drivers/STM32F7xx_HAL_Driver/Src/stm32f7xx_ll_usb.c ****         {
 2733              		.loc 1 837 25 is_stmt 0 view .LVU947
 2734 015a D0F80828 		ldr	r2, [r0, #2056]
 837:Drivers/STM32F7xx_HAL_Driver/Src/stm32f7xx_ll_usb.c ****         {
 2735              		.loc 1 837 12 view .LVU948
 2736 015e 12F4807F 		tst	r2, #256
 2737 0162 08D1     		bne	.L187
 839:Drivers/STM32F7xx_HAL_Driver/Src/stm32f7xx_ll_usb.c ****         }
 2738              		.loc 1 839 11 is_stmt 1 view .LVU949
 839:Drivers/STM32F7xx_HAL_Driver/Src/stm32f7xx_ll_usb.c ****         }
ARM GAS  /tmp/cc8ZLjKA.s 			page 92


 2739              		.loc 1 839 27 is_stmt 0 view .LVU950
 2740 0164 00EB4311 		add	r1, r0, r3, lsl #5
 2741              	.LVL180:
 839:Drivers/STM32F7xx_HAL_Driver/Src/stm32f7xx_ll_usb.c ****         }
 2742              		.loc 1 839 27 view .LVU951
 2743 0168 D1F80029 		ldr	r2, [r1, #2304]
 839:Drivers/STM32F7xx_HAL_Driver/Src/stm32f7xx_ll_usb.c ****         }
 2744              		.loc 1 839 37 view .LVU952
 2745 016c 42F00052 		orr	r2, r2, #536870912
 2746 0170 C1F80029 		str	r2, [r1, #2304]
 2747 0174 E8E7     		b	.L186
 2748              	.LVL181:
 2749              	.L187:
 843:Drivers/STM32F7xx_HAL_Driver/Src/stm32f7xx_ll_usb.c ****         }
 2750              		.loc 1 843 11 is_stmt 1 view .LVU953
 843:Drivers/STM32F7xx_HAL_Driver/Src/stm32f7xx_ll_usb.c ****         }
 2751              		.loc 1 843 27 is_stmt 0 view .LVU954
 2752 0176 00EB4311 		add	r1, r0, r3, lsl #5
 2753              	.LVL182:
 843:Drivers/STM32F7xx_HAL_Driver/Src/stm32f7xx_ll_usb.c ****         }
 2754              		.loc 1 843 27 view .LVU955
 2755 017a D1F80029 		ldr	r2, [r1, #2304]
 843:Drivers/STM32F7xx_HAL_Driver/Src/stm32f7xx_ll_usb.c ****         }
 2756              		.loc 1 843 37 view .LVU956
 2757 017e 42F08052 		orr	r2, r2, #268435456
 2758 0182 C1F80029 		str	r2, [r1, #2304]
 2759 0186 DFE7     		b	.L186
 2760              	.LVL183:
 2761              	.L189:
 865:Drivers/STM32F7xx_HAL_Driver/Src/stm32f7xx_ll_usb.c ****         {
 2762              		.loc 1 865 9 is_stmt 1 view .LVU957
 865:Drivers/STM32F7xx_HAL_Driver/Src/stm32f7xx_ll_usb.c ****         {
 2763              		.loc 1 865 25 is_stmt 0 view .LVU958
 2764 0188 D0F80848 		ldr	r4, [r0, #2056]
 865:Drivers/STM32F7xx_HAL_Driver/Src/stm32f7xx_ll_usb.c ****         {
 2765              		.loc 1 865 12 view .LVU959
 2766 018c 14F4807F 		tst	r4, #256
 2767 0190 0CD1     		bne	.L190
 867:Drivers/STM32F7xx_HAL_Driver/Src/stm32f7xx_ll_usb.c ****         }
 2768              		.loc 1 867 11 is_stmt 1 view .LVU960
 867:Drivers/STM32F7xx_HAL_Driver/Src/stm32f7xx_ll_usb.c ****         }
 2769              		.loc 1 867 27 is_stmt 0 view .LVU961
 2770 0192 D3F80049 		ldr	r4, [r3, #2304]
 867:Drivers/STM32F7xx_HAL_Driver/Src/stm32f7xx_ll_usb.c ****         }
 2771              		.loc 1 867 37 view .LVU962
 2772 0196 44F00054 		orr	r4, r4, #536870912
 2773 019a C3F80049 		str	r4, [r3, #2304]
 2774              	.L191:
 874:Drivers/STM32F7xx_HAL_Driver/Src/stm32f7xx_ll_usb.c ****       }
 2775              		.loc 1 874 9 is_stmt 1 view .LVU963
 874:Drivers/STM32F7xx_HAL_Driver/Src/stm32f7xx_ll_usb.c ****       }
 2776              		.loc 1 874 15 is_stmt 0 view .LVU964
 2777 019e 0092     		str	r2, [sp]
 2778 01a0 0B8B     		ldrh	r3, [r1, #24]
 2779 01a2 0A78     		ldrb	r2, [r1]	@ zero_extendqisi2
 2780              	.LVL184:
 874:Drivers/STM32F7xx_HAL_Driver/Src/stm32f7xx_ll_usb.c ****       }
ARM GAS  /tmp/cc8ZLjKA.s 			page 93


 2781              		.loc 1 874 15 view .LVU965
 2782 01a4 0969     		ldr	r1, [r1, #16]
 2783              	.LVL185:
 874:Drivers/STM32F7xx_HAL_Driver/Src/stm32f7xx_ll_usb.c ****       }
 2784              		.loc 1 874 15 view .LVU966
 2785 01a6 FFF7FEFF 		bl	USB_WritePacket
 2786              	.LVL186:
 874:Drivers/STM32F7xx_HAL_Driver/Src/stm32f7xx_ll_usb.c ****       }
 2787              		.loc 1 874 15 view .LVU967
 2788 01aa 5EE7     		b	.L188
 2789              	.LVL187:
 2790              	.L190:
 871:Drivers/STM32F7xx_HAL_Driver/Src/stm32f7xx_ll_usb.c ****         }
 2791              		.loc 1 871 11 is_stmt 1 view .LVU968
 871:Drivers/STM32F7xx_HAL_Driver/Src/stm32f7xx_ll_usb.c ****         }
 2792              		.loc 1 871 27 is_stmt 0 view .LVU969
 2793 01ac D3F80049 		ldr	r4, [r3, #2304]
 871:Drivers/STM32F7xx_HAL_Driver/Src/stm32f7xx_ll_usb.c ****         }
 2794              		.loc 1 871 37 view .LVU970
 2795 01b0 44F08054 		orr	r4, r4, #268435456
 2796 01b4 C3F80049 		str	r4, [r3, #2304]
 2797 01b8 F1E7     		b	.L191
 2798              	.L192:
 894:Drivers/STM32F7xx_HAL_Driver/Src/stm32f7xx_ll_usb.c ****       ep->xfer_size = ep->maxpacket * pktcnt;
 2799              		.loc 1 894 7 is_stmt 1 view .LVU971
 894:Drivers/STM32F7xx_HAL_Driver/Src/stm32f7xx_ll_usb.c ****       ep->xfer_size = ep->maxpacket * pktcnt;
 2800              		.loc 1 894 45 is_stmt 0 view .LVU972
 2801 01ba CD68     		ldr	r5, [r1, #12]
 894:Drivers/STM32F7xx_HAL_Driver/Src/stm32f7xx_ll_usb.c ****       ep->xfer_size = ep->maxpacket * pktcnt;
 2802              		.loc 1 894 41 view .LVU973
 2803 01bc 2C44     		add	r4, r4, r5
 894:Drivers/STM32F7xx_HAL_Driver/Src/stm32f7xx_ll_usb.c ****       ep->xfer_size = ep->maxpacket * pktcnt;
 2804              		.loc 1 894 57 view .LVU974
 2805 01be 013C     		subs	r4, r4, #1
 894:Drivers/STM32F7xx_HAL_Driver/Src/stm32f7xx_ll_usb.c ****       ep->xfer_size = ep->maxpacket * pktcnt;
 2806              		.loc 1 894 63 view .LVU975
 2807 01c0 B4FBF5F4 		udiv	r4, r4, r5
 2808              	.LVL188:
 895:Drivers/STM32F7xx_HAL_Driver/Src/stm32f7xx_ll_usb.c **** 
 2809              		.loc 1 895 7 is_stmt 1 view .LVU976
 2810 01c4 A4B2     		uxth	r4, r4
 895:Drivers/STM32F7xx_HAL_Driver/Src/stm32f7xx_ll_usb.c **** 
 2811              		.loc 1 895 37 is_stmt 0 view .LVU977
 2812 01c6 04FB05F5 		mul	r5, r4, r5
 895:Drivers/STM32F7xx_HAL_Driver/Src/stm32f7xx_ll_usb.c **** 
 2813              		.loc 1 895 21 view .LVU978
 2814 01ca CD61     		str	r5, [r1, #28]
 897:Drivers/STM32F7xx_HAL_Driver/Src/stm32f7xx_ll_usb.c ****       USBx_OUTEP(epnum)->DOEPTSIZ |= USB_OTG_DOEPTSIZ_XFRSIZ & ep->xfer_size;
 2815              		.loc 1 897 7 is_stmt 1 view .LVU979
 897:Drivers/STM32F7xx_HAL_Driver/Src/stm32f7xx_ll_usb.c ****       USBx_OUTEP(epnum)->DOEPTSIZ |= USB_OTG_DOEPTSIZ_XFRSIZ & ep->xfer_size;
 2816              		.loc 1 897 24 is_stmt 0 view .LVU980
 2817 01cc DCF81050 		ldr	r5, [ip, #16]
 897:Drivers/STM32F7xx_HAL_Driver/Src/stm32f7xx_ll_usb.c ****       USBx_OUTEP(epnum)->DOEPTSIZ |= USB_OTG_DOEPTSIZ_XFRSIZ & ep->xfer_size;
 2818              		.loc 1 897 62 view .LVU981
 2819 01d0 164E     		ldr	r6, .L203+8
 2820 01d2 06EAC444 		and	r4, r6, r4, lsl #19
 2821              	.LVL189:
ARM GAS  /tmp/cc8ZLjKA.s 			page 94


 897:Drivers/STM32F7xx_HAL_Driver/Src/stm32f7xx_ll_usb.c ****       USBx_OUTEP(epnum)->DOEPTSIZ |= USB_OTG_DOEPTSIZ_XFRSIZ & ep->xfer_size;
 2822              		.loc 1 897 35 view .LVU982
 2823 01d6 2C43     		orrs	r4, r4, r5
 2824 01d8 CCF81040 		str	r4, [ip, #16]
 2825              	.LVL190:
 898:Drivers/STM32F7xx_HAL_Driver/Src/stm32f7xx_ll_usb.c ****     }
 2826              		.loc 1 898 7 is_stmt 1 view .LVU983
 898:Drivers/STM32F7xx_HAL_Driver/Src/stm32f7xx_ll_usb.c ****     }
 2827              		.loc 1 898 24 is_stmt 0 view .LVU984
 2828 01dc DCF81040 		ldr	r4, [ip, #16]
 898:Drivers/STM32F7xx_HAL_Driver/Src/stm32f7xx_ll_usb.c ****     }
 2829              		.loc 1 898 66 view .LVU985
 2830 01e0 CD69     		ldr	r5, [r1, #28]
 898:Drivers/STM32F7xx_HAL_Driver/Src/stm32f7xx_ll_usb.c ****     }
 2831              		.loc 1 898 62 view .LVU986
 2832 01e2 C5F31205 		ubfx	r5, r5, #0, #19
 898:Drivers/STM32F7xx_HAL_Driver/Src/stm32f7xx_ll_usb.c ****     }
 2833              		.loc 1 898 35 view .LVU987
 2834 01e6 2C43     		orrs	r4, r4, r5
 2835 01e8 CCF81040 		str	r4, [ip, #16]
 2836 01ec 30E7     		b	.L193
 2837              	.LVL191:
 2838              	.L199:
 903:Drivers/STM32F7xx_HAL_Driver/Src/stm32f7xx_ll_usb.c ****       {
 2839              		.loc 1 903 7 is_stmt 1 view .LVU988
 903:Drivers/STM32F7xx_HAL_Driver/Src/stm32f7xx_ll_usb.c ****       {
 2840              		.loc 1 903 23 is_stmt 0 view .LVU989
 2841 01ee 0A69     		ldr	r2, [r1, #16]
 2842              	.LVL192:
 903:Drivers/STM32F7xx_HAL_Driver/Src/stm32f7xx_ll_usb.c ****       {
 2843              		.loc 1 903 10 view .LVU990
 2844 01f0 002A     		cmp	r2, #0
 2845 01f2 3FF430AF 		beq	.L194
 905:Drivers/STM32F7xx_HAL_Driver/Src/stm32f7xx_ll_usb.c ****       }
 2846              		.loc 1 905 9 is_stmt 1 view .LVU991
 905:Drivers/STM32F7xx_HAL_Driver/Src/stm32f7xx_ll_usb.c ****       }
 2847              		.loc 1 905 36 is_stmt 0 view .LVU992
 2848 01f6 CCF81420 		str	r2, [ip, #20]
 2849 01fa 2CE7     		b	.L194
 2850              	.L200:
 911:Drivers/STM32F7xx_HAL_Driver/Src/stm32f7xx_ll_usb.c ****       {
 2851              		.loc 1 911 7 is_stmt 1 view .LVU993
 911:Drivers/STM32F7xx_HAL_Driver/Src/stm32f7xx_ll_usb.c ****       {
 2852              		.loc 1 911 23 is_stmt 0 view .LVU994
 2853 01fc D0F80828 		ldr	r2, [r0, #2056]
 911:Drivers/STM32F7xx_HAL_Driver/Src/stm32f7xx_ll_usb.c ****       {
 2854              		.loc 1 911 10 view .LVU995
 2855 0200 12F4807F 		tst	r2, #256
 2856 0204 06D1     		bne	.L196
 913:Drivers/STM32F7xx_HAL_Driver/Src/stm32f7xx_ll_usb.c ****       }
 2857              		.loc 1 913 9 is_stmt 1 view .LVU996
 913:Drivers/STM32F7xx_HAL_Driver/Src/stm32f7xx_ll_usb.c ****       }
 2858              		.loc 1 913 26 is_stmt 0 view .LVU997
 2859 0206 D3F8002B 		ldr	r2, [r3, #2816]
 913:Drivers/STM32F7xx_HAL_Driver/Src/stm32f7xx_ll_usb.c ****       }
 2860              		.loc 1 913 36 view .LVU998
 2861 020a 42F00052 		orr	r2, r2, #536870912
ARM GAS  /tmp/cc8ZLjKA.s 			page 95


 2862 020e C3F8002B 		str	r2, [r3, #2816]
 2863 0212 24E7     		b	.L195
 2864              	.L196:
 917:Drivers/STM32F7xx_HAL_Driver/Src/stm32f7xx_ll_usb.c ****       }
 2865              		.loc 1 917 9 is_stmt 1 view .LVU999
 917:Drivers/STM32F7xx_HAL_Driver/Src/stm32f7xx_ll_usb.c ****       }
 2866              		.loc 1 917 26 is_stmt 0 view .LVU1000
 2867 0214 D3F8002B 		ldr	r2, [r3, #2816]
 917:Drivers/STM32F7xx_HAL_Driver/Src/stm32f7xx_ll_usb.c ****       }
 2868              		.loc 1 917 36 view .LVU1001
 2869 0218 42F08052 		orr	r2, r2, #268435456
 2870 021c C3F8002B 		str	r2, [r3, #2816]
 2871 0220 1DE7     		b	.L195
 2872              	.L204:
 2873 0222 00BF     		.align	2
 2874              	.L203:
 2875 0224 0000F8FF 		.word	-524288
 2876 0228 FFFF07E0 		.word	-536346625
 2877 022c 0000F81F 		.word	536346624
 2878              		.cfi_endproc
 2879              	.LFE155:
 2881              		.section	.text.USB_ReadPacket,"ax",%progbits
 2882              		.align	1
 2883              		.global	USB_ReadPacket
 2884              		.syntax unified
 2885              		.thumb
 2886              		.thumb_func
 2888              	USB_ReadPacket:
 2889              	.LVL193:
 2890              	.LFB159:
1130:Drivers/STM32F7xx_HAL_Driver/Src/stm32f7xx_ll_usb.c ****   uint32_t USBx_BASE = (uint32_t)USBx;
 2891              		.loc 1 1130 1 is_stmt 1 view -0
 2892              		.cfi_startproc
 2893              		@ args = 0, pretend = 0, frame = 0
 2894              		@ frame_needed = 0, uses_anonymous_args = 0
1130:Drivers/STM32F7xx_HAL_Driver/Src/stm32f7xx_ll_usb.c ****   uint32_t USBx_BASE = (uint32_t)USBx;
 2895              		.loc 1 1130 1 is_stmt 0 view .LVU1003
 2896 0000 10B5     		push	{r4, lr}
 2897              		.cfi_def_cfa_offset 8
 2898              		.cfi_offset 4, -8
 2899              		.cfi_offset 14, -4
 2900 0002 8446     		mov	ip, r0
 2901 0004 0846     		mov	r0, r1
 2902              	.LVL194:
1131:Drivers/STM32F7xx_HAL_Driver/Src/stm32f7xx_ll_usb.c ****   uint8_t *pDest = dest;
 2903              		.loc 1 1131 3 is_stmt 1 view .LVU1004
1132:Drivers/STM32F7xx_HAL_Driver/Src/stm32f7xx_ll_usb.c ****   uint32_t pData;
 2904              		.loc 1 1132 3 view .LVU1005
1133:Drivers/STM32F7xx_HAL_Driver/Src/stm32f7xx_ll_usb.c ****   uint32_t i;
 2905              		.loc 1 1133 3 view .LVU1006
1134:Drivers/STM32F7xx_HAL_Driver/Src/stm32f7xx_ll_usb.c ****   uint32_t count32b = (uint32_t)len >> 2U;
 2906              		.loc 1 1134 3 view .LVU1007
1135:Drivers/STM32F7xx_HAL_Driver/Src/stm32f7xx_ll_usb.c ****   uint16_t remaining_bytes = len % 4U;
 2907              		.loc 1 1135 3 view .LVU1008
1135:Drivers/STM32F7xx_HAL_Driver/Src/stm32f7xx_ll_usb.c ****   uint16_t remaining_bytes = len % 4U;
 2908              		.loc 1 1135 37 is_stmt 0 view .LVU1009
 2909 0006 4FEA920E 		lsr	lr, r2, #2
ARM GAS  /tmp/cc8ZLjKA.s 			page 96


 2910              	.LVL195:
1136:Drivers/STM32F7xx_HAL_Driver/Src/stm32f7xx_ll_usb.c **** 
 2911              		.loc 1 1136 3 is_stmt 1 view .LVU1010
1136:Drivers/STM32F7xx_HAL_Driver/Src/stm32f7xx_ll_usb.c **** 
 2912              		.loc 1 1136 12 is_stmt 0 view .LVU1011
 2913 000a 02F00302 		and	r2, r2, #3
 2914              	.LVL196:
1138:Drivers/STM32F7xx_HAL_Driver/Src/stm32f7xx_ll_usb.c ****   {
 2915              		.loc 1 1138 3 is_stmt 1 view .LVU1012
1138:Drivers/STM32F7xx_HAL_Driver/Src/stm32f7xx_ll_usb.c ****   {
 2916              		.loc 1 1138 10 is_stmt 0 view .LVU1013
 2917 000e 0023     		movs	r3, #0
1138:Drivers/STM32F7xx_HAL_Driver/Src/stm32f7xx_ll_usb.c ****   {
 2918              		.loc 1 1138 3 view .LVU1014
 2919 0010 05E0     		b	.L206
 2920              	.LVL197:
 2921              	.L207:
1140:Drivers/STM32F7xx_HAL_Driver/Src/stm32f7xx_ll_usb.c ****     pDest++;
 2922              		.loc 1 1140 5 is_stmt 1 discriminator 3 view .LVU1015
 2923 0012 0CF58051 		add	r1, ip, #4096
 2924 0016 0968     		ldr	r1, [r1]
 2925 0018 40F8041B 		str	r1, [r0], #4	@ unaligned
 2926              	.LVL198:
1141:Drivers/STM32F7xx_HAL_Driver/Src/stm32f7xx_ll_usb.c ****     pDest++;
 2927              		.loc 1 1141 5 discriminator 3 view .LVU1016
1142:Drivers/STM32F7xx_HAL_Driver/Src/stm32f7xx_ll_usb.c ****     pDest++;
 2928              		.loc 1 1142 5 discriminator 3 view .LVU1017
1143:Drivers/STM32F7xx_HAL_Driver/Src/stm32f7xx_ll_usb.c ****     pDest++;
 2929              		.loc 1 1143 5 discriminator 3 view .LVU1018
1144:Drivers/STM32F7xx_HAL_Driver/Src/stm32f7xx_ll_usb.c ****   }
 2930              		.loc 1 1144 5 discriminator 3 view .LVU1019
1138:Drivers/STM32F7xx_HAL_Driver/Src/stm32f7xx_ll_usb.c ****   {
 2931              		.loc 1 1138 31 discriminator 3 view .LVU1020
 2932 001c 0133     		adds	r3, r3, #1
 2933              	.LVL199:
 2934              	.L206:
1138:Drivers/STM32F7xx_HAL_Driver/Src/stm32f7xx_ll_usb.c ****   {
 2935              		.loc 1 1138 18 discriminator 1 view .LVU1021
 2936 001e 7345     		cmp	r3, lr
 2937 0020 F7D3     		bcc	.L207
1148:Drivers/STM32F7xx_HAL_Driver/Src/stm32f7xx_ll_usb.c ****   {
 2938              		.loc 1 1148 3 view .LVU1022
1148:Drivers/STM32F7xx_HAL_Driver/Src/stm32f7xx_ll_usb.c ****   {
 2939              		.loc 1 1148 6 is_stmt 0 view .LVU1023
 2940 0022 7AB1     		cbz	r2, .L208
1150:Drivers/STM32F7xx_HAL_Driver/Src/stm32f7xx_ll_usb.c ****     __UNALIGNED_UINT32_WRITE(&pData, USBx_DFIFO(0U));
 2941              		.loc 1 1150 5 is_stmt 1 view .LVU1024
 2942              	.LVL200:
1151:Drivers/STM32F7xx_HAL_Driver/Src/stm32f7xx_ll_usb.c **** 
 2943              		.loc 1 1151 5 view .LVU1025
 2944 0024 0CF5805C 		add	ip, ip, #4096
 2945              	.LVL201:
1151:Drivers/STM32F7xx_HAL_Driver/Src/stm32f7xx_ll_usb.c **** 
 2946              		.loc 1 1151 5 is_stmt 0 view .LVU1026
 2947 0028 DCF80040 		ldr	r4, [ip]
1150:Drivers/STM32F7xx_HAL_Driver/Src/stm32f7xx_ll_usb.c ****     __UNALIGNED_UINT32_WRITE(&pData, USBx_DFIFO(0U));
 2948              		.loc 1 1150 7 view .LVU1027
ARM GAS  /tmp/cc8ZLjKA.s 			page 97


 2949 002c 0021     		movs	r1, #0
 2950              	.LVL202:
 2951              	.L209:
1153:Drivers/STM32F7xx_HAL_Driver/Src/stm32f7xx_ll_usb.c ****     {
 2952              		.loc 1 1153 5 is_stmt 1 discriminator 1 view .LVU1028
1155:Drivers/STM32F7xx_HAL_Driver/Src/stm32f7xx_ll_usb.c ****       i++;
 2953              		.loc 1 1155 7 discriminator 1 view .LVU1029
1155:Drivers/STM32F7xx_HAL_Driver/Src/stm32f7xx_ll_usb.c ****       i++;
 2954              		.loc 1 1155 50 is_stmt 0 discriminator 1 view .LVU1030
 2955 002e CBB2     		uxtb	r3, r1
 2956 0030 DB00     		lsls	r3, r3, #3
1155:Drivers/STM32F7xx_HAL_Driver/Src/stm32f7xx_ll_usb.c ****       i++;
 2957              		.loc 1 1155 43 discriminator 1 view .LVU1031
 2958 0032 24FA03F3 		lsr	r3, r4, r3
1155:Drivers/STM32F7xx_HAL_Driver/Src/stm32f7xx_ll_usb.c ****       i++;
 2959              		.loc 1 1155 25 discriminator 1 view .LVU1032
 2960 0036 00F8013B 		strb	r3, [r0], #1
 2961              	.LVL203:
1156:Drivers/STM32F7xx_HAL_Driver/Src/stm32f7xx_ll_usb.c ****       pDest++;
 2962              		.loc 1 1156 7 is_stmt 1 discriminator 1 view .LVU1033
1156:Drivers/STM32F7xx_HAL_Driver/Src/stm32f7xx_ll_usb.c ****       pDest++;
 2963              		.loc 1 1156 8 is_stmt 0 discriminator 1 view .LVU1034
 2964 003a 0131     		adds	r1, r1, #1
 2965              	.LVL204:
1157:Drivers/STM32F7xx_HAL_Driver/Src/stm32f7xx_ll_usb.c ****       remaining_bytes--;
 2966              		.loc 1 1157 7 is_stmt 1 discriminator 1 view .LVU1035
1158:Drivers/STM32F7xx_HAL_Driver/Src/stm32f7xx_ll_usb.c ****     } while (remaining_bytes != 0U);
 2967              		.loc 1 1158 7 discriminator 1 view .LVU1036
1158:Drivers/STM32F7xx_HAL_Driver/Src/stm32f7xx_ll_usb.c ****     } while (remaining_bytes != 0U);
 2968              		.loc 1 1158 22 is_stmt 0 discriminator 1 view .LVU1037
 2969 003c 013A     		subs	r2, r2, #1
 2970              	.LVL205:
1158:Drivers/STM32F7xx_HAL_Driver/Src/stm32f7xx_ll_usb.c ****     } while (remaining_bytes != 0U);
 2971              		.loc 1 1158 22 discriminator 1 view .LVU1038
 2972 003e 92B2     		uxth	r2, r2
 2973              	.LVL206:
1159:Drivers/STM32F7xx_HAL_Driver/Src/stm32f7xx_ll_usb.c ****   }
 2974              		.loc 1 1159 30 is_stmt 1 discriminator 1 view .LVU1039
 2975 0040 002A     		cmp	r2, #0
 2976 0042 F4D1     		bne	.L209
 2977              	.LVL207:
 2978              	.L208:
1162:Drivers/STM32F7xx_HAL_Driver/Src/stm32f7xx_ll_usb.c **** }
 2979              		.loc 1 1162 3 view .LVU1040
1163:Drivers/STM32F7xx_HAL_Driver/Src/stm32f7xx_ll_usb.c **** 
 2980              		.loc 1 1163 1 is_stmt 0 view .LVU1041
 2981 0044 10BD     		pop	{r4, pc}
 2982              		.cfi_endproc
 2983              	.LFE159:
 2985              		.section	.text.USB_EPSetStall,"ax",%progbits
 2986              		.align	1
 2987              		.global	USB_EPSetStall
 2988              		.syntax unified
 2989              		.thumb
 2990              		.thumb_func
 2992              	USB_EPSetStall:
 2993              	.LVL208:
ARM GAS  /tmp/cc8ZLjKA.s 			page 98


 2994              	.LFB160:
1172:Drivers/STM32F7xx_HAL_Driver/Src/stm32f7xx_ll_usb.c ****   uint32_t USBx_BASE = (uint32_t)USBx;
 2995              		.loc 1 1172 1 is_stmt 1 view -0
 2996              		.cfi_startproc
 2997              		@ args = 0, pretend = 0, frame = 0
 2998              		@ frame_needed = 0, uses_anonymous_args = 0
 2999              		@ link register save eliminated.
1173:Drivers/STM32F7xx_HAL_Driver/Src/stm32f7xx_ll_usb.c ****   uint32_t epnum = (uint32_t)ep->num;
 3000              		.loc 1 1173 3 view .LVU1043
1174:Drivers/STM32F7xx_HAL_Driver/Src/stm32f7xx_ll_usb.c **** 
 3001              		.loc 1 1174 3 view .LVU1044
1174:Drivers/STM32F7xx_HAL_Driver/Src/stm32f7xx_ll_usb.c **** 
 3002              		.loc 1 1174 32 is_stmt 0 view .LVU1045
 3003 0000 0B78     		ldrb	r3, [r1]	@ zero_extendqisi2
 3004              	.LVL209:
1176:Drivers/STM32F7xx_HAL_Driver/Src/stm32f7xx_ll_usb.c ****   {
 3005              		.loc 1 1176 3 is_stmt 1 view .LVU1046
1176:Drivers/STM32F7xx_HAL_Driver/Src/stm32f7xx_ll_usb.c ****   {
 3006              		.loc 1 1176 9 is_stmt 0 view .LVU1047
 3007 0002 4A78     		ldrb	r2, [r1, #1]	@ zero_extendqisi2
1176:Drivers/STM32F7xx_HAL_Driver/Src/stm32f7xx_ll_usb.c ****   {
 3008              		.loc 1 1176 6 view .LVU1048
 3009 0004 012A     		cmp	r2, #1
 3010 0006 14D0     		beq	.L216
1186:Drivers/STM32F7xx_HAL_Driver/Src/stm32f7xx_ll_usb.c ****     {
 3011              		.loc 1 1186 5 is_stmt 1 view .LVU1049
1186:Drivers/STM32F7xx_HAL_Driver/Src/stm32f7xx_ll_usb.c ****     {
 3012              		.loc 1 1186 11 is_stmt 0 view .LVU1050
 3013 0008 00EB4310 		add	r0, r0, r3, lsl #5
 3014              	.LVL210:
1186:Drivers/STM32F7xx_HAL_Driver/Src/stm32f7xx_ll_usb.c ****     {
 3015              		.loc 1 1186 28 view .LVU1051
 3016 000c D0F8002B 		ldr	r2, [r0, #2816]
1186:Drivers/STM32F7xx_HAL_Driver/Src/stm32f7xx_ll_usb.c ****     {
 3017              		.loc 1 1186 8 view .LVU1052
 3018 0010 002A     		cmp	r2, #0
 3019 0012 06DB     		blt	.L215
1186:Drivers/STM32F7xx_HAL_Driver/Src/stm32f7xx_ll_usb.c ****     {
 3020              		.loc 1 1186 70 discriminator 1 view .LVU1053
 3021 0014 2BB1     		cbz	r3, .L215
1188:Drivers/STM32F7xx_HAL_Driver/Src/stm32f7xx_ll_usb.c ****     }
 3022              		.loc 1 1188 7 is_stmt 1 view .LVU1054
1188:Drivers/STM32F7xx_HAL_Driver/Src/stm32f7xx_ll_usb.c ****     }
 3023              		.loc 1 1188 24 is_stmt 0 view .LVU1055
 3024 0016 D0F8003B 		ldr	r3, [r0, #2816]
 3025              	.LVL211:
1188:Drivers/STM32F7xx_HAL_Driver/Src/stm32f7xx_ll_usb.c ****     }
 3026              		.loc 1 1188 34 view .LVU1056
 3027 001a 23F08043 		bic	r3, r3, #1073741824
 3028 001e C0F8003B 		str	r3, [r0, #2816]
 3029              	.LVL212:
 3030              	.L215:
1190:Drivers/STM32F7xx_HAL_Driver/Src/stm32f7xx_ll_usb.c ****   }
 3031              		.loc 1 1190 5 is_stmt 1 view .LVU1057
1190:Drivers/STM32F7xx_HAL_Driver/Src/stm32f7xx_ll_usb.c ****   }
 3032              		.loc 1 1190 22 is_stmt 0 view .LVU1058
 3033 0022 D0F8003B 		ldr	r3, [r0, #2816]
ARM GAS  /tmp/cc8ZLjKA.s 			page 99


1190:Drivers/STM32F7xx_HAL_Driver/Src/stm32f7xx_ll_usb.c ****   }
 3034              		.loc 1 1190 32 view .LVU1059
 3035 0026 43F40013 		orr	r3, r3, #2097152
 3036 002a C0F8003B 		str	r3, [r0, #2816]
 3037              	.L214:
1193:Drivers/STM32F7xx_HAL_Driver/Src/stm32f7xx_ll_usb.c **** }
 3038              		.loc 1 1193 3 is_stmt 1 view .LVU1060
1194:Drivers/STM32F7xx_HAL_Driver/Src/stm32f7xx_ll_usb.c **** 
 3039              		.loc 1 1194 1 is_stmt 0 view .LVU1061
 3040 002e 0020     		movs	r0, #0
 3041 0030 7047     		bx	lr
 3042              	.LVL213:
 3043              	.L216:
1178:Drivers/STM32F7xx_HAL_Driver/Src/stm32f7xx_ll_usb.c ****     {
 3044              		.loc 1 1178 5 is_stmt 1 view .LVU1062
1178:Drivers/STM32F7xx_HAL_Driver/Src/stm32f7xx_ll_usb.c ****     {
 3045              		.loc 1 1178 11 is_stmt 0 view .LVU1063
 3046 0032 00EB4310 		add	r0, r0, r3, lsl #5
 3047              	.LVL214:
1178:Drivers/STM32F7xx_HAL_Driver/Src/stm32f7xx_ll_usb.c ****     {
 3048              		.loc 1 1178 27 view .LVU1064
 3049 0036 D0F80029 		ldr	r2, [r0, #2304]
1178:Drivers/STM32F7xx_HAL_Driver/Src/stm32f7xx_ll_usb.c ****     {
 3050              		.loc 1 1178 8 view .LVU1065
 3051 003a 002A     		cmp	r2, #0
 3052 003c 06DB     		blt	.L213
1178:Drivers/STM32F7xx_HAL_Driver/Src/stm32f7xx_ll_usb.c ****     {
 3053              		.loc 1 1178 69 discriminator 1 view .LVU1066
 3054 003e 2BB1     		cbz	r3, .L213
1180:Drivers/STM32F7xx_HAL_Driver/Src/stm32f7xx_ll_usb.c ****     }
 3055              		.loc 1 1180 7 is_stmt 1 view .LVU1067
1180:Drivers/STM32F7xx_HAL_Driver/Src/stm32f7xx_ll_usb.c ****     }
 3056              		.loc 1 1180 23 is_stmt 0 view .LVU1068
 3057 0040 D0F80039 		ldr	r3, [r0, #2304]
 3058              	.LVL215:
1180:Drivers/STM32F7xx_HAL_Driver/Src/stm32f7xx_ll_usb.c ****     }
 3059              		.loc 1 1180 33 view .LVU1069
 3060 0044 23F08043 		bic	r3, r3, #1073741824
 3061 0048 C0F80039 		str	r3, [r0, #2304]
 3062              	.LVL216:
 3063              	.L213:
1182:Drivers/STM32F7xx_HAL_Driver/Src/stm32f7xx_ll_usb.c ****   }
 3064              		.loc 1 1182 5 is_stmt 1 view .LVU1070
1182:Drivers/STM32F7xx_HAL_Driver/Src/stm32f7xx_ll_usb.c ****   }
 3065              		.loc 1 1182 21 is_stmt 0 view .LVU1071
 3066 004c D0F80039 		ldr	r3, [r0, #2304]
1182:Drivers/STM32F7xx_HAL_Driver/Src/stm32f7xx_ll_usb.c ****   }
 3067              		.loc 1 1182 31 view .LVU1072
 3068 0050 43F40013 		orr	r3, r3, #2097152
 3069 0054 C0F80039 		str	r3, [r0, #2304]
 3070 0058 E9E7     		b	.L214
 3071              		.cfi_endproc
 3072              	.LFE160:
 3074              		.section	.text.USB_EPClearStall,"ax",%progbits
 3075              		.align	1
 3076              		.global	USB_EPClearStall
 3077              		.syntax unified
ARM GAS  /tmp/cc8ZLjKA.s 			page 100


 3078              		.thumb
 3079              		.thumb_func
 3081              	USB_EPClearStall:
 3082              	.LVL217:
 3083              	.LFB161:
1203:Drivers/STM32F7xx_HAL_Driver/Src/stm32f7xx_ll_usb.c ****   uint32_t USBx_BASE = (uint32_t)USBx;
 3084              		.loc 1 1203 1 is_stmt 1 view -0
 3085              		.cfi_startproc
 3086              		@ args = 0, pretend = 0, frame = 0
 3087              		@ frame_needed = 0, uses_anonymous_args = 0
 3088              		@ link register save eliminated.
1204:Drivers/STM32F7xx_HAL_Driver/Src/stm32f7xx_ll_usb.c ****   uint32_t epnum = (uint32_t)ep->num;
 3089              		.loc 1 1204 3 view .LVU1074
1205:Drivers/STM32F7xx_HAL_Driver/Src/stm32f7xx_ll_usb.c **** 
 3090              		.loc 1 1205 3 view .LVU1075
1205:Drivers/STM32F7xx_HAL_Driver/Src/stm32f7xx_ll_usb.c **** 
 3091              		.loc 1 1205 32 is_stmt 0 view .LVU1076
 3092 0000 0B78     		ldrb	r3, [r1]	@ zero_extendqisi2
 3093              	.LVL218:
1207:Drivers/STM32F7xx_HAL_Driver/Src/stm32f7xx_ll_usb.c ****   {
 3094              		.loc 1 1207 3 is_stmt 1 view .LVU1077
1207:Drivers/STM32F7xx_HAL_Driver/Src/stm32f7xx_ll_usb.c ****   {
 3095              		.loc 1 1207 9 is_stmt 0 view .LVU1078
 3096 0002 4A78     		ldrb	r2, [r1, #1]	@ zero_extendqisi2
1207:Drivers/STM32F7xx_HAL_Driver/Src/stm32f7xx_ll_usb.c ****   {
 3097              		.loc 1 1207 6 view .LVU1079
 3098 0004 012A     		cmp	r2, #1
 3099 0006 0ED0     		beq	.L220
1217:Drivers/STM32F7xx_HAL_Driver/Src/stm32f7xx_ll_usb.c ****     if ((ep->type == EP_TYPE_INTR) || (ep->type == EP_TYPE_BULK))
 3100              		.loc 1 1217 5 is_stmt 1 view .LVU1080
1217:Drivers/STM32F7xx_HAL_Driver/Src/stm32f7xx_ll_usb.c ****     if ((ep->type == EP_TYPE_INTR) || (ep->type == EP_TYPE_BULK))
 3101              		.loc 1 1217 22 is_stmt 0 view .LVU1081
 3102 0008 00EB4310 		add	r0, r0, r3, lsl #5
 3103              	.LVL219:
1217:Drivers/STM32F7xx_HAL_Driver/Src/stm32f7xx_ll_usb.c ****     if ((ep->type == EP_TYPE_INTR) || (ep->type == EP_TYPE_BULK))
 3104              		.loc 1 1217 22 view .LVU1082
 3105 000c D0F8003B 		ldr	r3, [r0, #2816]
 3106              	.LVL220:
1217:Drivers/STM32F7xx_HAL_Driver/Src/stm32f7xx_ll_usb.c ****     if ((ep->type == EP_TYPE_INTR) || (ep->type == EP_TYPE_BULK))
 3107              		.loc 1 1217 32 view .LVU1083
 3108 0010 23F40013 		bic	r3, r3, #2097152
 3109 0014 C0F8003B 		str	r3, [r0, #2816]
 3110              	.LVL221:
1218:Drivers/STM32F7xx_HAL_Driver/Src/stm32f7xx_ll_usb.c ****     {
 3111              		.loc 1 1218 5 is_stmt 1 view .LVU1084
1218:Drivers/STM32F7xx_HAL_Driver/Src/stm32f7xx_ll_usb.c ****     {
 3112              		.loc 1 1218 12 is_stmt 0 view .LVU1085
 3113 0018 0B79     		ldrb	r3, [r1, #4]	@ zero_extendqisi2
1218:Drivers/STM32F7xx_HAL_Driver/Src/stm32f7xx_ll_usb.c ****     {
 3114              		.loc 1 1218 36 view .LVU1086
 3115 001a 023B     		subs	r3, r3, #2
 3116 001c DBB2     		uxtb	r3, r3
1218:Drivers/STM32F7xx_HAL_Driver/Src/stm32f7xx_ll_usb.c ****     {
 3117              		.loc 1 1218 8 view .LVU1087
 3118 001e 012B     		cmp	r3, #1
 3119 0020 15D9     		bls	.L221
 3120              	.L219:
ARM GAS  /tmp/cc8ZLjKA.s 			page 101


1223:Drivers/STM32F7xx_HAL_Driver/Src/stm32f7xx_ll_usb.c **** }
 3121              		.loc 1 1223 3 is_stmt 1 view .LVU1088
1224:Drivers/STM32F7xx_HAL_Driver/Src/stm32f7xx_ll_usb.c **** 
 3122              		.loc 1 1224 1 is_stmt 0 view .LVU1089
 3123 0022 0020     		movs	r0, #0
 3124 0024 7047     		bx	lr
 3125              	.LVL222:
 3126              	.L220:
1209:Drivers/STM32F7xx_HAL_Driver/Src/stm32f7xx_ll_usb.c ****     if ((ep->type == EP_TYPE_INTR) || (ep->type == EP_TYPE_BULK))
 3127              		.loc 1 1209 5 is_stmt 1 view .LVU1090
1209:Drivers/STM32F7xx_HAL_Driver/Src/stm32f7xx_ll_usb.c ****     if ((ep->type == EP_TYPE_INTR) || (ep->type == EP_TYPE_BULK))
 3128              		.loc 1 1209 21 is_stmt 0 view .LVU1091
 3129 0026 00EB4310 		add	r0, r0, r3, lsl #5
 3130              	.LVL223:
1209:Drivers/STM32F7xx_HAL_Driver/Src/stm32f7xx_ll_usb.c ****     if ((ep->type == EP_TYPE_INTR) || (ep->type == EP_TYPE_BULK))
 3131              		.loc 1 1209 21 view .LVU1092
 3132 002a D0F80039 		ldr	r3, [r0, #2304]
 3133              	.LVL224:
1209:Drivers/STM32F7xx_HAL_Driver/Src/stm32f7xx_ll_usb.c ****     if ((ep->type == EP_TYPE_INTR) || (ep->type == EP_TYPE_BULK))
 3134              		.loc 1 1209 31 view .LVU1093
 3135 002e 23F40013 		bic	r3, r3, #2097152
 3136 0032 C0F80039 		str	r3, [r0, #2304]
 3137              	.LVL225:
1210:Drivers/STM32F7xx_HAL_Driver/Src/stm32f7xx_ll_usb.c ****     {
 3138              		.loc 1 1210 5 is_stmt 1 view .LVU1094
1210:Drivers/STM32F7xx_HAL_Driver/Src/stm32f7xx_ll_usb.c ****     {
 3139              		.loc 1 1210 12 is_stmt 0 view .LVU1095
 3140 0036 0B79     		ldrb	r3, [r1, #4]	@ zero_extendqisi2
1210:Drivers/STM32F7xx_HAL_Driver/Src/stm32f7xx_ll_usb.c ****     {
 3141              		.loc 1 1210 36 view .LVU1096
 3142 0038 023B     		subs	r3, r3, #2
 3143 003a DBB2     		uxtb	r3, r3
1210:Drivers/STM32F7xx_HAL_Driver/Src/stm32f7xx_ll_usb.c ****     {
 3144              		.loc 1 1210 8 view .LVU1097
 3145 003c 012B     		cmp	r3, #1
 3146 003e F0D8     		bhi	.L219
1212:Drivers/STM32F7xx_HAL_Driver/Src/stm32f7xx_ll_usb.c ****     }
 3147              		.loc 1 1212 7 is_stmt 1 view .LVU1098
1212:Drivers/STM32F7xx_HAL_Driver/Src/stm32f7xx_ll_usb.c ****     }
 3148              		.loc 1 1212 23 is_stmt 0 view .LVU1099
 3149 0040 D0F80039 		ldr	r3, [r0, #2304]
1212:Drivers/STM32F7xx_HAL_Driver/Src/stm32f7xx_ll_usb.c ****     }
 3150              		.loc 1 1212 33 view .LVU1100
 3151 0044 43F08053 		orr	r3, r3, #268435456
 3152 0048 C0F80039 		str	r3, [r0, #2304]
 3153 004c E9E7     		b	.L219
 3154              	.L221:
1220:Drivers/STM32F7xx_HAL_Driver/Src/stm32f7xx_ll_usb.c ****     }
 3155              		.loc 1 1220 7 is_stmt 1 view .LVU1101
1220:Drivers/STM32F7xx_HAL_Driver/Src/stm32f7xx_ll_usb.c ****     }
 3156              		.loc 1 1220 24 is_stmt 0 view .LVU1102
 3157 004e D0F8003B 		ldr	r3, [r0, #2816]
1220:Drivers/STM32F7xx_HAL_Driver/Src/stm32f7xx_ll_usb.c ****     }
 3158              		.loc 1 1220 34 view .LVU1103
 3159 0052 43F08053 		orr	r3, r3, #268435456
 3160 0056 C0F8003B 		str	r3, [r0, #2816]
 3161 005a E2E7     		b	.L219
ARM GAS  /tmp/cc8ZLjKA.s 			page 102


 3162              		.cfi_endproc
 3163              	.LFE161:
 3165              		.section	.text.USB_StopDevice,"ax",%progbits
 3166              		.align	1
 3167              		.global	USB_StopDevice
 3168              		.syntax unified
 3169              		.thumb
 3170              		.thumb_func
 3172              	USB_StopDevice:
 3173              	.LVL226:
 3174              	.LFB162:
1232:Drivers/STM32F7xx_HAL_Driver/Src/stm32f7xx_ll_usb.c ****   HAL_StatusTypeDef ret;
 3175              		.loc 1 1232 1 is_stmt 1 view -0
 3176              		.cfi_startproc
 3177              		@ args = 0, pretend = 0, frame = 0
 3178              		@ frame_needed = 0, uses_anonymous_args = 0
1232:Drivers/STM32F7xx_HAL_Driver/Src/stm32f7xx_ll_usb.c ****   HAL_StatusTypeDef ret;
 3179              		.loc 1 1232 1 is_stmt 0 view .LVU1105
 3180 0000 10B5     		push	{r4, lr}
 3181              		.cfi_def_cfa_offset 8
 3182              		.cfi_offset 4, -8
 3183              		.cfi_offset 14, -4
 3184 0002 0446     		mov	r4, r0
1233:Drivers/STM32F7xx_HAL_Driver/Src/stm32f7xx_ll_usb.c ****   uint32_t USBx_BASE = (uint32_t)USBx;
 3185              		.loc 1 1233 3 is_stmt 1 view .LVU1106
1234:Drivers/STM32F7xx_HAL_Driver/Src/stm32f7xx_ll_usb.c ****   uint32_t i;
 3186              		.loc 1 1234 3 view .LVU1107
 3187              	.LVL227:
1235:Drivers/STM32F7xx_HAL_Driver/Src/stm32f7xx_ll_usb.c **** 
 3188              		.loc 1 1235 3 view .LVU1108
1238:Drivers/STM32F7xx_HAL_Driver/Src/stm32f7xx_ll_usb.c ****   {
 3189              		.loc 1 1238 3 view .LVU1109
1238:Drivers/STM32F7xx_HAL_Driver/Src/stm32f7xx_ll_usb.c ****   {
 3190              		.loc 1 1238 10 is_stmt 0 view .LVU1110
 3191 0004 0022     		movs	r2, #0
1238:Drivers/STM32F7xx_HAL_Driver/Src/stm32f7xx_ll_usb.c ****   {
 3192              		.loc 1 1238 3 view .LVU1111
 3193 0006 08E0     		b	.L223
 3194              	.LVL228:
 3195              	.L224:
1240:Drivers/STM32F7xx_HAL_Driver/Src/stm32f7xx_ll_usb.c ****     USBx_OUTEP(i)->DOEPINT = 0xFB7FU;
 3196              		.loc 1 1240 5 is_stmt 1 discriminator 3 view .LVU1112
 3197 0008 04EB4213 		add	r3, r4, r2, lsl #5
1240:Drivers/STM32F7xx_HAL_Driver/Src/stm32f7xx_ll_usb.c ****     USBx_OUTEP(i)->DOEPINT = 0xFB7FU;
 3198              		.loc 1 1240 27 is_stmt 0 discriminator 3 view .LVU1113
 3199 000c 4FF67F31 		movw	r1, #64383
 3200 0010 C3F80819 		str	r1, [r3, #2312]
1241:Drivers/STM32F7xx_HAL_Driver/Src/stm32f7xx_ll_usb.c ****   }
 3201              		.loc 1 1241 5 is_stmt 1 discriminator 3 view .LVU1114
1241:Drivers/STM32F7xx_HAL_Driver/Src/stm32f7xx_ll_usb.c ****   }
 3202              		.loc 1 1241 28 is_stmt 0 discriminator 3 view .LVU1115
 3203 0014 C3F8081B 		str	r1, [r3, #2824]
1238:Drivers/STM32F7xx_HAL_Driver/Src/stm32f7xx_ll_usb.c ****   {
 3204              		.loc 1 1238 26 is_stmt 1 discriminator 3 view .LVU1116
 3205 0018 0132     		adds	r2, r2, #1
 3206              	.LVL229:
 3207              	.L223:
ARM GAS  /tmp/cc8ZLjKA.s 			page 103


1238:Drivers/STM32F7xx_HAL_Driver/Src/stm32f7xx_ll_usb.c ****   {
 3208              		.loc 1 1238 18 discriminator 1 view .LVU1117
 3209 001a 0E2A     		cmp	r2, #14
 3210 001c F4D9     		bls	.L224
1245:Drivers/STM32F7xx_HAL_Driver/Src/stm32f7xx_ll_usb.c ****   USBx_DEVICE->DOEPMSK  = 0U;
 3211              		.loc 1 1245 3 view .LVU1118
1245:Drivers/STM32F7xx_HAL_Driver/Src/stm32f7xx_ll_usb.c ****   USBx_DEVICE->DOEPMSK  = 0U;
 3212              		.loc 1 1245 25 is_stmt 0 view .LVU1119
 3213 001e 0022     		movs	r2, #0
 3214              	.LVL230:
1245:Drivers/STM32F7xx_HAL_Driver/Src/stm32f7xx_ll_usb.c ****   USBx_DEVICE->DOEPMSK  = 0U;
 3215              		.loc 1 1245 25 view .LVU1120
 3216 0020 C4F81028 		str	r2, [r4, #2064]
1246:Drivers/STM32F7xx_HAL_Driver/Src/stm32f7xx_ll_usb.c ****   USBx_DEVICE->DAINTMSK = 0U;
 3217              		.loc 1 1246 3 is_stmt 1 view .LVU1121
1246:Drivers/STM32F7xx_HAL_Driver/Src/stm32f7xx_ll_usb.c ****   USBx_DEVICE->DAINTMSK = 0U;
 3218              		.loc 1 1246 25 is_stmt 0 view .LVU1122
 3219 0024 C4F81428 		str	r2, [r4, #2068]
1247:Drivers/STM32F7xx_HAL_Driver/Src/stm32f7xx_ll_usb.c **** 
 3220              		.loc 1 1247 3 is_stmt 1 view .LVU1123
1247:Drivers/STM32F7xx_HAL_Driver/Src/stm32f7xx_ll_usb.c **** 
 3221              		.loc 1 1247 25 is_stmt 0 view .LVU1124
 3222 0028 C4F81C28 		str	r2, [r4, #2076]
1250:Drivers/STM32F7xx_HAL_Driver/Src/stm32f7xx_ll_usb.c ****   if (ret != HAL_OK)
 3223              		.loc 1 1250 3 is_stmt 1 view .LVU1125
1250:Drivers/STM32F7xx_HAL_Driver/Src/stm32f7xx_ll_usb.c ****   if (ret != HAL_OK)
 3224              		.loc 1 1250 9 is_stmt 0 view .LVU1126
 3225 002c 2046     		mov	r0, r4
 3226              	.LVL231:
1250:Drivers/STM32F7xx_HAL_Driver/Src/stm32f7xx_ll_usb.c ****   if (ret != HAL_OK)
 3227              		.loc 1 1250 9 view .LVU1127
 3228 002e FFF7FEFF 		bl	USB_FlushRxFifo
 3229              	.LVL232:
1251:Drivers/STM32F7xx_HAL_Driver/Src/stm32f7xx_ll_usb.c ****   {
 3230              		.loc 1 1251 3 is_stmt 1 view .LVU1128
1251:Drivers/STM32F7xx_HAL_Driver/Src/stm32f7xx_ll_usb.c ****   {
 3231              		.loc 1 1251 6 is_stmt 0 view .LVU1129
 3232 0032 00B1     		cbz	r0, .L227
 3233              	.L225:
1263:Drivers/STM32F7xx_HAL_Driver/Src/stm32f7xx_ll_usb.c **** 
 3234              		.loc 1 1263 1 view .LVU1130
 3235 0034 10BD     		pop	{r4, pc}
 3236              	.LVL233:
 3237              	.L227:
1256:Drivers/STM32F7xx_HAL_Driver/Src/stm32f7xx_ll_usb.c ****   if (ret != HAL_OK)
 3238              		.loc 1 1256 3 is_stmt 1 view .LVU1131
1256:Drivers/STM32F7xx_HAL_Driver/Src/stm32f7xx_ll_usb.c ****   if (ret != HAL_OK)
 3239              		.loc 1 1256 9 is_stmt 0 view .LVU1132
 3240 0036 1021     		movs	r1, #16
 3241 0038 2046     		mov	r0, r4
 3242              	.LVL234:
1256:Drivers/STM32F7xx_HAL_Driver/Src/stm32f7xx_ll_usb.c ****   if (ret != HAL_OK)
 3243              		.loc 1 1256 9 view .LVU1133
 3244 003a FFF7FEFF 		bl	USB_FlushTxFifo
 3245              	.LVL235:
1257:Drivers/STM32F7xx_HAL_Driver/Src/stm32f7xx_ll_usb.c ****   {
 3246              		.loc 1 1257 3 is_stmt 1 view .LVU1134
ARM GAS  /tmp/cc8ZLjKA.s 			page 104


 3247 003e F9E7     		b	.L225
 3248              		.cfi_endproc
 3249              	.LFE162:
 3251              		.section	.text.USB_SetDevAddress,"ax",%progbits
 3252              		.align	1
 3253              		.global	USB_SetDevAddress
 3254              		.syntax unified
 3255              		.thumb
 3256              		.thumb_func
 3258              	USB_SetDevAddress:
 3259              	.LVL236:
 3260              	.LFB163:
1273:Drivers/STM32F7xx_HAL_Driver/Src/stm32f7xx_ll_usb.c ****   uint32_t USBx_BASE = (uint32_t)USBx;
 3261              		.loc 1 1273 1 view -0
 3262              		.cfi_startproc
 3263              		@ args = 0, pretend = 0, frame = 0
 3264              		@ frame_needed = 0, uses_anonymous_args = 0
 3265              		@ link register save eliminated.
1274:Drivers/STM32F7xx_HAL_Driver/Src/stm32f7xx_ll_usb.c **** 
 3266              		.loc 1 1274 3 view .LVU1136
1276:Drivers/STM32F7xx_HAL_Driver/Src/stm32f7xx_ll_usb.c ****   USBx_DEVICE->DCFG |= ((uint32_t)address << 4) & USB_OTG_DCFG_DAD;
 3267              		.loc 1 1276 3 view .LVU1137
1276:Drivers/STM32F7xx_HAL_Driver/Src/stm32f7xx_ll_usb.c ****   USBx_DEVICE->DCFG |= ((uint32_t)address << 4) & USB_OTG_DCFG_DAD;
 3268              		.loc 1 1276 14 is_stmt 0 view .LVU1138
 3269 0000 D0F80038 		ldr	r3, [r0, #2048]
1276:Drivers/STM32F7xx_HAL_Driver/Src/stm32f7xx_ll_usb.c ****   USBx_DEVICE->DCFG |= ((uint32_t)address << 4) & USB_OTG_DCFG_DAD;
 3270              		.loc 1 1276 21 view .LVU1139
 3271 0004 23F4FE63 		bic	r3, r3, #2032
 3272 0008 C0F80038 		str	r3, [r0, #2048]
1277:Drivers/STM32F7xx_HAL_Driver/Src/stm32f7xx_ll_usb.c **** 
 3273              		.loc 1 1277 3 is_stmt 1 view .LVU1140
1277:Drivers/STM32F7xx_HAL_Driver/Src/stm32f7xx_ll_usb.c **** 
 3274              		.loc 1 1277 14 is_stmt 0 view .LVU1141
 3275 000c D0F80038 		ldr	r3, [r0, #2048]
1277:Drivers/STM32F7xx_HAL_Driver/Src/stm32f7xx_ll_usb.c **** 
 3276              		.loc 1 1277 43 view .LVU1142
 3277 0010 0901     		lsls	r1, r1, #4
 3278              	.LVL237:
1277:Drivers/STM32F7xx_HAL_Driver/Src/stm32f7xx_ll_usb.c **** 
 3279              		.loc 1 1277 49 view .LVU1143
 3280 0012 01F4FE61 		and	r1, r1, #2032
1277:Drivers/STM32F7xx_HAL_Driver/Src/stm32f7xx_ll_usb.c **** 
 3281              		.loc 1 1277 21 view .LVU1144
 3282 0016 0B43     		orrs	r3, r3, r1
 3283 0018 C0F80038 		str	r3, [r0, #2048]
1279:Drivers/STM32F7xx_HAL_Driver/Src/stm32f7xx_ll_usb.c **** }
 3284              		.loc 1 1279 3 is_stmt 1 view .LVU1145
1280:Drivers/STM32F7xx_HAL_Driver/Src/stm32f7xx_ll_usb.c **** 
 3285              		.loc 1 1280 1 is_stmt 0 view .LVU1146
 3286 001c 0020     		movs	r0, #0
 3287              	.LVL238:
1280:Drivers/STM32F7xx_HAL_Driver/Src/stm32f7xx_ll_usb.c **** 
 3288              		.loc 1 1280 1 view .LVU1147
 3289 001e 7047     		bx	lr
 3290              		.cfi_endproc
 3291              	.LFE163:
 3293              		.section	.text.USB_DevConnect,"ax",%progbits
ARM GAS  /tmp/cc8ZLjKA.s 			page 105


 3294              		.align	1
 3295              		.global	USB_DevConnect
 3296              		.syntax unified
 3297              		.thumb
 3298              		.thumb_func
 3300              	USB_DevConnect:
 3301              	.LVL239:
 3302              	.LFB164:
1288:Drivers/STM32F7xx_HAL_Driver/Src/stm32f7xx_ll_usb.c ****   uint32_t USBx_BASE = (uint32_t)USBx;
 3303              		.loc 1 1288 1 is_stmt 1 view -0
 3304              		.cfi_startproc
 3305              		@ args = 0, pretend = 0, frame = 0
 3306              		@ frame_needed = 0, uses_anonymous_args = 0
 3307              		@ link register save eliminated.
1289:Drivers/STM32F7xx_HAL_Driver/Src/stm32f7xx_ll_usb.c **** 
 3308              		.loc 1 1289 3 view .LVU1149
1292:Drivers/STM32F7xx_HAL_Driver/Src/stm32f7xx_ll_usb.c **** 
 3309              		.loc 1 1292 3 view .LVU1150
 3310 0000 D0F8003E 		ldr	r3, [r0, #3584]
1292:Drivers/STM32F7xx_HAL_Driver/Src/stm32f7xx_ll_usb.c **** 
 3311              		.loc 1 1292 16 is_stmt 0 view .LVU1151
 3312 0004 23F00303 		bic	r3, r3, #3
 3313 0008 C0F8003E 		str	r3, [r0, #3584]
1294:Drivers/STM32F7xx_HAL_Driver/Src/stm32f7xx_ll_usb.c **** 
 3314              		.loc 1 1294 3 is_stmt 1 view .LVU1152
1294:Drivers/STM32F7xx_HAL_Driver/Src/stm32f7xx_ll_usb.c **** 
 3315              		.loc 1 1294 14 is_stmt 0 view .LVU1153
 3316 000c D0F80438 		ldr	r3, [r0, #2052]
1294:Drivers/STM32F7xx_HAL_Driver/Src/stm32f7xx_ll_usb.c **** 
 3317              		.loc 1 1294 21 view .LVU1154
 3318 0010 23F00203 		bic	r3, r3, #2
 3319 0014 C0F80438 		str	r3, [r0, #2052]
1296:Drivers/STM32F7xx_HAL_Driver/Src/stm32f7xx_ll_usb.c **** }
 3320              		.loc 1 1296 3 is_stmt 1 view .LVU1155
1297:Drivers/STM32F7xx_HAL_Driver/Src/stm32f7xx_ll_usb.c **** 
 3321              		.loc 1 1297 1 is_stmt 0 view .LVU1156
 3322 0018 0020     		movs	r0, #0
 3323              	.LVL240:
1297:Drivers/STM32F7xx_HAL_Driver/Src/stm32f7xx_ll_usb.c **** 
 3324              		.loc 1 1297 1 view .LVU1157
 3325 001a 7047     		bx	lr
 3326              		.cfi_endproc
 3327              	.LFE164:
 3329              		.section	.text.USB_DevDisconnect,"ax",%progbits
 3330              		.align	1
 3331              		.global	USB_DevDisconnect
 3332              		.syntax unified
 3333              		.thumb
 3334              		.thumb_func
 3336              	USB_DevDisconnect:
 3337              	.LVL241:
 3338              	.LFB165:
1305:Drivers/STM32F7xx_HAL_Driver/Src/stm32f7xx_ll_usb.c ****   uint32_t USBx_BASE = (uint32_t)USBx;
 3339              		.loc 1 1305 1 is_stmt 1 view -0
 3340              		.cfi_startproc
 3341              		@ args = 0, pretend = 0, frame = 0
 3342              		@ frame_needed = 0, uses_anonymous_args = 0
ARM GAS  /tmp/cc8ZLjKA.s 			page 106


 3343              		@ link register save eliminated.
1306:Drivers/STM32F7xx_HAL_Driver/Src/stm32f7xx_ll_usb.c **** 
 3344              		.loc 1 1306 3 view .LVU1159
1309:Drivers/STM32F7xx_HAL_Driver/Src/stm32f7xx_ll_usb.c **** 
 3345              		.loc 1 1309 3 view .LVU1160
 3346 0000 D0F8003E 		ldr	r3, [r0, #3584]
1309:Drivers/STM32F7xx_HAL_Driver/Src/stm32f7xx_ll_usb.c **** 
 3347              		.loc 1 1309 16 is_stmt 0 view .LVU1161
 3348 0004 23F00303 		bic	r3, r3, #3
 3349 0008 C0F8003E 		str	r3, [r0, #3584]
1311:Drivers/STM32F7xx_HAL_Driver/Src/stm32f7xx_ll_usb.c **** 
 3350              		.loc 1 1311 3 is_stmt 1 view .LVU1162
1311:Drivers/STM32F7xx_HAL_Driver/Src/stm32f7xx_ll_usb.c **** 
 3351              		.loc 1 1311 14 is_stmt 0 view .LVU1163
 3352 000c D0F80438 		ldr	r3, [r0, #2052]
1311:Drivers/STM32F7xx_HAL_Driver/Src/stm32f7xx_ll_usb.c **** 
 3353              		.loc 1 1311 21 view .LVU1164
 3354 0010 43F00203 		orr	r3, r3, #2
 3355 0014 C0F80438 		str	r3, [r0, #2052]
1313:Drivers/STM32F7xx_HAL_Driver/Src/stm32f7xx_ll_usb.c **** }
 3356              		.loc 1 1313 3 is_stmt 1 view .LVU1165
1314:Drivers/STM32F7xx_HAL_Driver/Src/stm32f7xx_ll_usb.c **** 
 3357              		.loc 1 1314 1 is_stmt 0 view .LVU1166
 3358 0018 0020     		movs	r0, #0
 3359              	.LVL242:
1314:Drivers/STM32F7xx_HAL_Driver/Src/stm32f7xx_ll_usb.c **** 
 3360              		.loc 1 1314 1 view .LVU1167
 3361 001a 7047     		bx	lr
 3362              		.cfi_endproc
 3363              	.LFE165:
 3365              		.section	.text.USB_ReadInterrupts,"ax",%progbits
 3366              		.align	1
 3367              		.global	USB_ReadInterrupts
 3368              		.syntax unified
 3369              		.thumb
 3370              		.thumb_func
 3372              	USB_ReadInterrupts:
 3373              	.LVL243:
 3374              	.LFB166:
1322:Drivers/STM32F7xx_HAL_Driver/Src/stm32f7xx_ll_usb.c ****   uint32_t tmpreg;
 3375              		.loc 1 1322 1 is_stmt 1 view -0
 3376              		.cfi_startproc
 3377              		@ args = 0, pretend = 0, frame = 0
 3378              		@ frame_needed = 0, uses_anonymous_args = 0
 3379              		@ link register save eliminated.
1323:Drivers/STM32F7xx_HAL_Driver/Src/stm32f7xx_ll_usb.c **** 
 3380              		.loc 1 1323 3 view .LVU1169
1325:Drivers/STM32F7xx_HAL_Driver/Src/stm32f7xx_ll_usb.c ****   tmpreg &= USBx->GINTMSK;
 3381              		.loc 1 1325 3 view .LVU1170
1325:Drivers/STM32F7xx_HAL_Driver/Src/stm32f7xx_ll_usb.c ****   tmpreg &= USBx->GINTMSK;
 3382              		.loc 1 1325 10 is_stmt 0 view .LVU1171
 3383 0000 4269     		ldr	r2, [r0, #20]
 3384              	.LVL244:
1326:Drivers/STM32F7xx_HAL_Driver/Src/stm32f7xx_ll_usb.c **** 
 3385              		.loc 1 1326 3 is_stmt 1 view .LVU1172
1326:Drivers/STM32F7xx_HAL_Driver/Src/stm32f7xx_ll_usb.c **** 
 3386              		.loc 1 1326 17 is_stmt 0 view .LVU1173
ARM GAS  /tmp/cc8ZLjKA.s 			page 107


 3387 0002 8069     		ldr	r0, [r0, #24]
 3388              	.LVL245:
1328:Drivers/STM32F7xx_HAL_Driver/Src/stm32f7xx_ll_usb.c **** }
 3389              		.loc 1 1328 3 is_stmt 1 view .LVU1174
1329:Drivers/STM32F7xx_HAL_Driver/Src/stm32f7xx_ll_usb.c **** 
 3390              		.loc 1 1329 1 is_stmt 0 view .LVU1175
 3391 0004 1040     		ands	r0, r0, r2
 3392              	.LVL246:
1329:Drivers/STM32F7xx_HAL_Driver/Src/stm32f7xx_ll_usb.c **** 
 3393              		.loc 1 1329 1 view .LVU1176
 3394 0006 7047     		bx	lr
 3395              		.cfi_endproc
 3396              	.LFE166:
 3398              		.section	.text.USB_ReadChInterrupts,"ax",%progbits
 3399              		.align	1
 3400              		.global	USB_ReadChInterrupts
 3401              		.syntax unified
 3402              		.thumb
 3403              		.thumb_func
 3405              	USB_ReadChInterrupts:
 3406              	.LVL247:
 3407              	.LFB167:
1338:Drivers/STM32F7xx_HAL_Driver/Src/stm32f7xx_ll_usb.c ****   uint32_t USBx_BASE = (uint32_t)USBx;
 3408              		.loc 1 1338 1 is_stmt 1 view -0
 3409              		.cfi_startproc
 3410              		@ args = 0, pretend = 0, frame = 0
 3411              		@ frame_needed = 0, uses_anonymous_args = 0
 3412              		@ link register save eliminated.
1339:Drivers/STM32F7xx_HAL_Driver/Src/stm32f7xx_ll_usb.c ****   uint32_t tmpreg;
 3413              		.loc 1 1339 3 view .LVU1178
1340:Drivers/STM32F7xx_HAL_Driver/Src/stm32f7xx_ll_usb.c **** 
 3414              		.loc 1 1340 3 view .LVU1179
1342:Drivers/STM32F7xx_HAL_Driver/Src/stm32f7xx_ll_usb.c ****   tmpreg &= USBx_HC(chnum)->HCINTMSK;
 3415              		.loc 1 1342 3 view .LVU1180
1342:Drivers/STM32F7xx_HAL_Driver/Src/stm32f7xx_ll_usb.c ****   tmpreg &= USBx_HC(chnum)->HCINTMSK;
 3416              		.loc 1 1342 12 is_stmt 0 view .LVU1181
 3417 0000 00EB4110 		add	r0, r0, r1, lsl #5
 3418              	.LVL248:
1342:Drivers/STM32F7xx_HAL_Driver/Src/stm32f7xx_ll_usb.c ****   tmpreg &= USBx_HC(chnum)->HCINTMSK;
 3419              		.loc 1 1342 12 view .LVU1182
 3420 0004 00F5A063 		add	r3, r0, #1280
1342:Drivers/STM32F7xx_HAL_Driver/Src/stm32f7xx_ll_usb.c ****   tmpreg &= USBx_HC(chnum)->HCINTMSK;
 3421              		.loc 1 1342 10 view .LVU1183
 3422 0008 D0F80805 		ldr	r0, [r0, #1288]
 3423              	.LVL249:
1343:Drivers/STM32F7xx_HAL_Driver/Src/stm32f7xx_ll_usb.c **** 
 3424              		.loc 1 1343 3 is_stmt 1 view .LVU1184
1343:Drivers/STM32F7xx_HAL_Driver/Src/stm32f7xx_ll_usb.c **** 
 3425              		.loc 1 1343 27 is_stmt 0 view .LVU1185
 3426 000c DB68     		ldr	r3, [r3, #12]
 3427              	.LVL250:
1345:Drivers/STM32F7xx_HAL_Driver/Src/stm32f7xx_ll_usb.c **** }
 3428              		.loc 1 1345 3 is_stmt 1 view .LVU1186
1346:Drivers/STM32F7xx_HAL_Driver/Src/stm32f7xx_ll_usb.c **** 
 3429              		.loc 1 1346 1 is_stmt 0 view .LVU1187
 3430 000e 1840     		ands	r0, r0, r3
 3431              	.LVL251:
ARM GAS  /tmp/cc8ZLjKA.s 			page 108


1346:Drivers/STM32F7xx_HAL_Driver/Src/stm32f7xx_ll_usb.c **** 
 3432              		.loc 1 1346 1 view .LVU1188
 3433 0010 7047     		bx	lr
 3434              		.cfi_endproc
 3435              	.LFE167:
 3437              		.section	.text.USB_ReadDevAllOutEpInterrupt,"ax",%progbits
 3438              		.align	1
 3439              		.global	USB_ReadDevAllOutEpInterrupt
 3440              		.syntax unified
 3441              		.thumb
 3442              		.thumb_func
 3444              	USB_ReadDevAllOutEpInterrupt:
 3445              	.LVL252:
 3446              	.LFB168:
1354:Drivers/STM32F7xx_HAL_Driver/Src/stm32f7xx_ll_usb.c ****   uint32_t USBx_BASE = (uint32_t)USBx;
 3447              		.loc 1 1354 1 is_stmt 1 view -0
 3448              		.cfi_startproc
 3449              		@ args = 0, pretend = 0, frame = 0
 3450              		@ frame_needed = 0, uses_anonymous_args = 0
 3451              		@ link register save eliminated.
1355:Drivers/STM32F7xx_HAL_Driver/Src/stm32f7xx_ll_usb.c ****   uint32_t tmpreg;
 3452              		.loc 1 1355 3 view .LVU1190
1356:Drivers/STM32F7xx_HAL_Driver/Src/stm32f7xx_ll_usb.c **** 
 3453              		.loc 1 1356 3 view .LVU1191
1358:Drivers/STM32F7xx_HAL_Driver/Src/stm32f7xx_ll_usb.c ****   tmpreg &= USBx_DEVICE->DAINTMSK;
 3454              		.loc 1 1358 3 view .LVU1192
1358:Drivers/STM32F7xx_HAL_Driver/Src/stm32f7xx_ll_usb.c ****   tmpreg &= USBx_DEVICE->DAINTMSK;
 3455              		.loc 1 1358 11 is_stmt 0 view .LVU1193
 3456 0000 D0F81838 		ldr	r3, [r0, #2072]
1358:Drivers/STM32F7xx_HAL_Driver/Src/stm32f7xx_ll_usb.c ****   tmpreg &= USBx_DEVICE->DAINTMSK;
 3457              		.loc 1 1358 13 view .LVU1194
 3458 0004 00F50060 		add	r0, r0, #2048
 3459              	.LVL253:
1359:Drivers/STM32F7xx_HAL_Driver/Src/stm32f7xx_ll_usb.c **** 
 3460              		.loc 1 1359 3 is_stmt 1 view .LVU1195
1359:Drivers/STM32F7xx_HAL_Driver/Src/stm32f7xx_ll_usb.c **** 
 3461              		.loc 1 1359 24 is_stmt 0 view .LVU1196
 3462 0008 C069     		ldr	r0, [r0, #28]
 3463              	.LVL254:
1359:Drivers/STM32F7xx_HAL_Driver/Src/stm32f7xx_ll_usb.c **** 
 3464              		.loc 1 1359 10 view .LVU1197
 3465 000a 1840     		ands	r0, r0, r3
 3466              	.LVL255:
1361:Drivers/STM32F7xx_HAL_Driver/Src/stm32f7xx_ll_usb.c **** }
 3467              		.loc 1 1361 3 is_stmt 1 view .LVU1198
1362:Drivers/STM32F7xx_HAL_Driver/Src/stm32f7xx_ll_usb.c **** 
 3468              		.loc 1 1362 1 is_stmt 0 view .LVU1199
 3469 000c 000C     		lsrs	r0, r0, #16
 3470              	.LVL256:
1362:Drivers/STM32F7xx_HAL_Driver/Src/stm32f7xx_ll_usb.c **** 
 3471              		.loc 1 1362 1 view .LVU1200
 3472 000e 7047     		bx	lr
 3473              		.cfi_endproc
 3474              	.LFE168:
 3476              		.section	.text.USB_ReadDevAllInEpInterrupt,"ax",%progbits
 3477              		.align	1
 3478              		.global	USB_ReadDevAllInEpInterrupt
ARM GAS  /tmp/cc8ZLjKA.s 			page 109


 3479              		.syntax unified
 3480              		.thumb
 3481              		.thumb_func
 3483              	USB_ReadDevAllInEpInterrupt:
 3484              	.LVL257:
 3485              	.LFB169:
1370:Drivers/STM32F7xx_HAL_Driver/Src/stm32f7xx_ll_usb.c ****   uint32_t USBx_BASE = (uint32_t)USBx;
 3486              		.loc 1 1370 1 is_stmt 1 view -0
 3487              		.cfi_startproc
 3488              		@ args = 0, pretend = 0, frame = 0
 3489              		@ frame_needed = 0, uses_anonymous_args = 0
 3490              		@ link register save eliminated.
1371:Drivers/STM32F7xx_HAL_Driver/Src/stm32f7xx_ll_usb.c ****   uint32_t tmpreg;
 3491              		.loc 1 1371 3 view .LVU1202
1372:Drivers/STM32F7xx_HAL_Driver/Src/stm32f7xx_ll_usb.c **** 
 3492              		.loc 1 1372 3 view .LVU1203
1374:Drivers/STM32F7xx_HAL_Driver/Src/stm32f7xx_ll_usb.c ****   tmpreg &= USBx_DEVICE->DAINTMSK;
 3493              		.loc 1 1374 3 view .LVU1204
1374:Drivers/STM32F7xx_HAL_Driver/Src/stm32f7xx_ll_usb.c ****   tmpreg &= USBx_DEVICE->DAINTMSK;
 3494              		.loc 1 1374 11 is_stmt 0 view .LVU1205
 3495 0000 D0F81838 		ldr	r3, [r0, #2072]
1374:Drivers/STM32F7xx_HAL_Driver/Src/stm32f7xx_ll_usb.c ****   tmpreg &= USBx_DEVICE->DAINTMSK;
 3496              		.loc 1 1374 13 view .LVU1206
 3497 0004 00F50060 		add	r0, r0, #2048
 3498              	.LVL258:
1375:Drivers/STM32F7xx_HAL_Driver/Src/stm32f7xx_ll_usb.c **** 
 3499              		.loc 1 1375 3 is_stmt 1 view .LVU1207
1375:Drivers/STM32F7xx_HAL_Driver/Src/stm32f7xx_ll_usb.c **** 
 3500              		.loc 1 1375 24 is_stmt 0 view .LVU1208
 3501 0008 C069     		ldr	r0, [r0, #28]
 3502              	.LVL259:
1375:Drivers/STM32F7xx_HAL_Driver/Src/stm32f7xx_ll_usb.c **** 
 3503              		.loc 1 1375 10 view .LVU1209
 3504 000a 1840     		ands	r0, r0, r3
 3505              	.LVL260:
1377:Drivers/STM32F7xx_HAL_Driver/Src/stm32f7xx_ll_usb.c **** }
 3506              		.loc 1 1377 3 is_stmt 1 view .LVU1210
1378:Drivers/STM32F7xx_HAL_Driver/Src/stm32f7xx_ll_usb.c **** 
 3507              		.loc 1 1378 1 is_stmt 0 view .LVU1211
 3508 000c 80B2     		uxth	r0, r0
 3509              	.LVL261:
1378:Drivers/STM32F7xx_HAL_Driver/Src/stm32f7xx_ll_usb.c **** 
 3510              		.loc 1 1378 1 view .LVU1212
 3511 000e 7047     		bx	lr
 3512              		.cfi_endproc
 3513              	.LFE169:
 3515              		.section	.text.USB_ReadDevOutEPInterrupt,"ax",%progbits
 3516              		.align	1
 3517              		.global	USB_ReadDevOutEPInterrupt
 3518              		.syntax unified
 3519              		.thumb
 3520              		.thumb_func
 3522              	USB_ReadDevOutEPInterrupt:
 3523              	.LVL262:
 3524              	.LFB170:
1388:Drivers/STM32F7xx_HAL_Driver/Src/stm32f7xx_ll_usb.c ****   uint32_t USBx_BASE = (uint32_t)USBx;
 3525              		.loc 1 1388 1 is_stmt 1 view -0
ARM GAS  /tmp/cc8ZLjKA.s 			page 110


 3526              		.cfi_startproc
 3527              		@ args = 0, pretend = 0, frame = 0
 3528              		@ frame_needed = 0, uses_anonymous_args = 0
 3529              		@ link register save eliminated.
1389:Drivers/STM32F7xx_HAL_Driver/Src/stm32f7xx_ll_usb.c ****   uint32_t tmpreg;
 3530              		.loc 1 1389 3 view .LVU1214
1390:Drivers/STM32F7xx_HAL_Driver/Src/stm32f7xx_ll_usb.c **** 
 3531              		.loc 1 1390 3 view .LVU1215
1392:Drivers/STM32F7xx_HAL_Driver/Src/stm32f7xx_ll_usb.c ****   tmpreg &= USBx_DEVICE->DOEPMSK;
 3532              		.loc 1 1392 3 view .LVU1216
1392:Drivers/STM32F7xx_HAL_Driver/Src/stm32f7xx_ll_usb.c ****   tmpreg &= USBx_DEVICE->DOEPMSK;
 3533              		.loc 1 1392 13 is_stmt 0 view .LVU1217
 3534 0000 00EB4111 		add	r1, r0, r1, lsl #5
 3535              	.LVL263:
1392:Drivers/STM32F7xx_HAL_Driver/Src/stm32f7xx_ll_usb.c ****   tmpreg &= USBx_DEVICE->DOEPMSK;
 3536              		.loc 1 1392 11 view .LVU1218
 3537 0004 D1F8082B 		ldr	r2, [r1, #2824]
 3538              	.LVL264:
1393:Drivers/STM32F7xx_HAL_Driver/Src/stm32f7xx_ll_usb.c **** 
 3539              		.loc 1 1393 3 is_stmt 1 view .LVU1219
1393:Drivers/STM32F7xx_HAL_Driver/Src/stm32f7xx_ll_usb.c **** 
 3540              		.loc 1 1393 13 is_stmt 0 view .LVU1220
 3541 0008 00F50060 		add	r0, r0, #2048
 3542              	.LVL265:
1393:Drivers/STM32F7xx_HAL_Driver/Src/stm32f7xx_ll_usb.c **** 
 3543              		.loc 1 1393 24 view .LVU1221
 3544 000c 4069     		ldr	r0, [r0, #20]
 3545              	.LVL266:
1395:Drivers/STM32F7xx_HAL_Driver/Src/stm32f7xx_ll_usb.c **** }
 3546              		.loc 1 1395 3 is_stmt 1 view .LVU1222
1396:Drivers/STM32F7xx_HAL_Driver/Src/stm32f7xx_ll_usb.c **** 
 3547              		.loc 1 1396 1 is_stmt 0 view .LVU1223
 3548 000e 1040     		ands	r0, r0, r2
 3549              	.LVL267:
1396:Drivers/STM32F7xx_HAL_Driver/Src/stm32f7xx_ll_usb.c **** 
 3550              		.loc 1 1396 1 view .LVU1224
 3551 0010 7047     		bx	lr
 3552              		.cfi_endproc
 3553              	.LFE170:
 3555              		.section	.text.USB_ReadDevInEPInterrupt,"ax",%progbits
 3556              		.align	1
 3557              		.global	USB_ReadDevInEPInterrupt
 3558              		.syntax unified
 3559              		.thumb
 3560              		.thumb_func
 3562              	USB_ReadDevInEPInterrupt:
 3563              	.LVL268:
 3564              	.LFB171:
1406:Drivers/STM32F7xx_HAL_Driver/Src/stm32f7xx_ll_usb.c ****   uint32_t USBx_BASE = (uint32_t)USBx;
 3565              		.loc 1 1406 1 is_stmt 1 view -0
 3566              		.cfi_startproc
 3567              		@ args = 0, pretend = 0, frame = 0
 3568              		@ frame_needed = 0, uses_anonymous_args = 0
 3569              		@ link register save eliminated.
1407:Drivers/STM32F7xx_HAL_Driver/Src/stm32f7xx_ll_usb.c ****   uint32_t tmpreg;
 3570              		.loc 1 1407 3 view .LVU1226
1408:Drivers/STM32F7xx_HAL_Driver/Src/stm32f7xx_ll_usb.c ****   uint32_t msk;
ARM GAS  /tmp/cc8ZLjKA.s 			page 111


 3571              		.loc 1 1408 3 view .LVU1227
1409:Drivers/STM32F7xx_HAL_Driver/Src/stm32f7xx_ll_usb.c ****   uint32_t emp;
 3572              		.loc 1 1409 3 view .LVU1228
1410:Drivers/STM32F7xx_HAL_Driver/Src/stm32f7xx_ll_usb.c **** 
 3573              		.loc 1 1410 3 view .LVU1229
1412:Drivers/STM32F7xx_HAL_Driver/Src/stm32f7xx_ll_usb.c ****   emp = USBx_DEVICE->DIEPEMPMSK;
 3574              		.loc 1 1412 3 view .LVU1230
1412:Drivers/STM32F7xx_HAL_Driver/Src/stm32f7xx_ll_usb.c ****   emp = USBx_DEVICE->DIEPEMPMSK;
 3575              		.loc 1 1412 7 is_stmt 0 view .LVU1231
 3576 0000 D0F81028 		ldr	r2, [r0, #2064]
 3577              	.LVL269:
1413:Drivers/STM32F7xx_HAL_Driver/Src/stm32f7xx_ll_usb.c ****   msk |= ((emp >> (epnum & EP_ADDR_MSK)) & 0x1U) << 7;
 3578              		.loc 1 1413 3 is_stmt 1 view .LVU1232
1413:Drivers/STM32F7xx_HAL_Driver/Src/stm32f7xx_ll_usb.c ****   msk |= ((emp >> (epnum & EP_ADDR_MSK)) & 0x1U) << 7;
 3579              		.loc 1 1413 7 is_stmt 0 view .LVU1233
 3580 0004 D0F83438 		ldr	r3, [r0, #2100]
 3581              	.LVL270:
1414:Drivers/STM32F7xx_HAL_Driver/Src/stm32f7xx_ll_usb.c ****   tmpreg = USBx_INEP((uint32_t)epnum)->DIEPINT & msk;
 3582              		.loc 1 1414 3 is_stmt 1 view .LVU1234
1414:Drivers/STM32F7xx_HAL_Driver/Src/stm32f7xx_ll_usb.c ****   tmpreg = USBx_INEP((uint32_t)epnum)->DIEPINT & msk;
 3583              		.loc 1 1414 26 is_stmt 0 view .LVU1235
 3584 0008 01F00F0C 		and	ip, r1, #15
1414:Drivers/STM32F7xx_HAL_Driver/Src/stm32f7xx_ll_usb.c ****   tmpreg = USBx_INEP((uint32_t)epnum)->DIEPINT & msk;
 3585              		.loc 1 1414 16 view .LVU1236
 3586 000c 23FA0CF3 		lsr	r3, r3, ip
 3587              	.LVL271:
1414:Drivers/STM32F7xx_HAL_Driver/Src/stm32f7xx_ll_usb.c ****   tmpreg = USBx_INEP((uint32_t)epnum)->DIEPINT & msk;
 3588              		.loc 1 1414 50 view .LVU1237
 3589 0010 DB01     		lsls	r3, r3, #7
 3590 0012 DBB2     		uxtb	r3, r3
1414:Drivers/STM32F7xx_HAL_Driver/Src/stm32f7xx_ll_usb.c ****   tmpreg = USBx_INEP((uint32_t)epnum)->DIEPINT & msk;
 3591              		.loc 1 1414 7 view .LVU1238
 3592 0014 1343     		orrs	r3, r3, r2
 3593              	.LVL272:
1415:Drivers/STM32F7xx_HAL_Driver/Src/stm32f7xx_ll_usb.c **** 
 3594              		.loc 1 1415 3 is_stmt 1 view .LVU1239
1415:Drivers/STM32F7xx_HAL_Driver/Src/stm32f7xx_ll_usb.c **** 
 3595              		.loc 1 1415 12 is_stmt 0 view .LVU1240
 3596 0016 00EB4110 		add	r0, r0, r1, lsl #5
 3597              	.LVL273:
1415:Drivers/STM32F7xx_HAL_Driver/Src/stm32f7xx_ll_usb.c **** 
 3598              		.loc 1 1415 12 view .LVU1241
 3599 001a 00F51060 		add	r0, r0, #2304
1415:Drivers/STM32F7xx_HAL_Driver/Src/stm32f7xx_ll_usb.c **** 
 3600              		.loc 1 1415 38 view .LVU1242
 3601 001e 8068     		ldr	r0, [r0, #8]
 3602              	.LVL274:
1417:Drivers/STM32F7xx_HAL_Driver/Src/stm32f7xx_ll_usb.c **** }
 3603              		.loc 1 1417 3 is_stmt 1 view .LVU1243
1418:Drivers/STM32F7xx_HAL_Driver/Src/stm32f7xx_ll_usb.c **** 
 3604              		.loc 1 1418 1 is_stmt 0 view .LVU1244
 3605 0020 1840     		ands	r0, r0, r3
 3606              	.LVL275:
1418:Drivers/STM32F7xx_HAL_Driver/Src/stm32f7xx_ll_usb.c **** 
 3607              		.loc 1 1418 1 view .LVU1245
 3608 0022 7047     		bx	lr
 3609              		.cfi_endproc
ARM GAS  /tmp/cc8ZLjKA.s 			page 112


 3610              	.LFE171:
 3612              		.section	.text.USB_ClearInterrupts,"ax",%progbits
 3613              		.align	1
 3614              		.global	USB_ClearInterrupts
 3615              		.syntax unified
 3616              		.thumb
 3617              		.thumb_func
 3619              	USB_ClearInterrupts:
 3620              	.LVL276:
 3621              	.LFB172:
1427:Drivers/STM32F7xx_HAL_Driver/Src/stm32f7xx_ll_usb.c ****   USBx->GINTSTS |= interrupt;
 3622              		.loc 1 1427 1 is_stmt 1 view -0
 3623              		.cfi_startproc
 3624              		@ args = 0, pretend = 0, frame = 0
 3625              		@ frame_needed = 0, uses_anonymous_args = 0
 3626              		@ link register save eliminated.
1428:Drivers/STM32F7xx_HAL_Driver/Src/stm32f7xx_ll_usb.c **** }
 3627              		.loc 1 1428 3 view .LVU1247
1428:Drivers/STM32F7xx_HAL_Driver/Src/stm32f7xx_ll_usb.c **** }
 3628              		.loc 1 1428 7 is_stmt 0 view .LVU1248
 3629 0000 4369     		ldr	r3, [r0, #20]
1428:Drivers/STM32F7xx_HAL_Driver/Src/stm32f7xx_ll_usb.c **** }
 3630              		.loc 1 1428 17 view .LVU1249
 3631 0002 0B43     		orrs	r3, r3, r1
 3632 0004 4361     		str	r3, [r0, #20]
1429:Drivers/STM32F7xx_HAL_Driver/Src/stm32f7xx_ll_usb.c **** 
 3633              		.loc 1 1429 1 view .LVU1250
 3634 0006 7047     		bx	lr
 3635              		.cfi_endproc
 3636              	.LFE172:
 3638              		.section	.text.USB_GetMode,"ax",%progbits
 3639              		.align	1
 3640              		.global	USB_GetMode
 3641              		.syntax unified
 3642              		.thumb
 3643              		.thumb_func
 3645              	USB_GetMode:
 3646              	.LVL277:
 3647              	.LFB173:
1440:Drivers/STM32F7xx_HAL_Driver/Src/stm32f7xx_ll_usb.c ****   return ((USBx->GINTSTS) & 0x1U);
 3648              		.loc 1 1440 1 is_stmt 1 view -0
 3649              		.cfi_startproc
 3650              		@ args = 0, pretend = 0, frame = 0
 3651              		@ frame_needed = 0, uses_anonymous_args = 0
 3652              		@ link register save eliminated.
1441:Drivers/STM32F7xx_HAL_Driver/Src/stm32f7xx_ll_usb.c **** }
 3653              		.loc 1 1441 3 view .LVU1252
1441:Drivers/STM32F7xx_HAL_Driver/Src/stm32f7xx_ll_usb.c **** }
 3654              		.loc 1 1441 16 is_stmt 0 view .LVU1253
 3655 0000 4069     		ldr	r0, [r0, #20]
 3656              	.LVL278:
1442:Drivers/STM32F7xx_HAL_Driver/Src/stm32f7xx_ll_usb.c **** 
 3657              		.loc 1 1442 1 view .LVU1254
 3658 0002 00F00100 		and	r0, r0, #1
 3659 0006 7047     		bx	lr
 3660              		.cfi_endproc
 3661              	.LFE173:
ARM GAS  /tmp/cc8ZLjKA.s 			page 113


 3663              		.section	.text.USB_SetCurrentMode,"ax",%progbits
 3664              		.align	1
 3665              		.global	USB_SetCurrentMode
 3666              		.syntax unified
 3667              		.thumb
 3668              		.thumb_func
 3670              	USB_SetCurrentMode:
 3671              	.LVL279:
 3672              	.LFB145:
 284:Drivers/STM32F7xx_HAL_Driver/Src/stm32f7xx_ll_usb.c ****   uint32_t ms = 0U;
 3673              		.loc 1 284 1 is_stmt 1 view -0
 3674              		.cfi_startproc
 3675              		@ args = 0, pretend = 0, frame = 0
 3676              		@ frame_needed = 0, uses_anonymous_args = 0
 284:Drivers/STM32F7xx_HAL_Driver/Src/stm32f7xx_ll_usb.c ****   uint32_t ms = 0U;
 3677              		.loc 1 284 1 is_stmt 0 view .LVU1256
 3678 0000 38B5     		push	{r3, r4, r5, lr}
 3679              		.cfi_def_cfa_offset 16
 3680              		.cfi_offset 3, -16
 3681              		.cfi_offset 4, -12
 3682              		.cfi_offset 5, -8
 3683              		.cfi_offset 14, -4
 3684 0002 0546     		mov	r5, r0
 285:Drivers/STM32F7xx_HAL_Driver/Src/stm32f7xx_ll_usb.c **** 
 3685              		.loc 1 285 3 is_stmt 1 view .LVU1257
 3686              	.LVL280:
 287:Drivers/STM32F7xx_HAL_Driver/Src/stm32f7xx_ll_usb.c **** 
 3687              		.loc 1 287 3 view .LVU1258
 287:Drivers/STM32F7xx_HAL_Driver/Src/stm32f7xx_ll_usb.c **** 
 3688              		.loc 1 287 7 is_stmt 0 view .LVU1259
 3689 0004 C368     		ldr	r3, [r0, #12]
 287:Drivers/STM32F7xx_HAL_Driver/Src/stm32f7xx_ll_usb.c **** 
 3690              		.loc 1 287 17 view .LVU1260
 3691 0006 23F0C043 		bic	r3, r3, #1610612736
 3692 000a C360     		str	r3, [r0, #12]
 289:Drivers/STM32F7xx_HAL_Driver/Src/stm32f7xx_ll_usb.c ****   {
 3693              		.loc 1 289 3 is_stmt 1 view .LVU1261
 289:Drivers/STM32F7xx_HAL_Driver/Src/stm32f7xx_ll_usb.c ****   {
 3694              		.loc 1 289 6 is_stmt 0 view .LVU1262
 3695 000c 0129     		cmp	r1, #1
 3696 000e 13D0     		beq	.L248
 299:Drivers/STM32F7xx_HAL_Driver/Src/stm32f7xx_ll_usb.c ****   {
 3697              		.loc 1 299 8 is_stmt 1 view .LVU1263
 299:Drivers/STM32F7xx_HAL_Driver/Src/stm32f7xx_ll_usb.c ****   {
 3698              		.loc 1 299 11 is_stmt 0 view .LVU1264
 3699 0010 19BB     		cbnz	r1, .L245
 301:Drivers/STM32F7xx_HAL_Driver/Src/stm32f7xx_ll_usb.c **** 
 3700              		.loc 1 301 5 is_stmt 1 view .LVU1265
 301:Drivers/STM32F7xx_HAL_Driver/Src/stm32f7xx_ll_usb.c **** 
 3701              		.loc 1 301 9 is_stmt 0 view .LVU1266
 3702 0012 C368     		ldr	r3, [r0, #12]
 301:Drivers/STM32F7xx_HAL_Driver/Src/stm32f7xx_ll_usb.c **** 
 3703              		.loc 1 301 19 view .LVU1267
 3704 0014 43F08043 		orr	r3, r3, #1073741824
 3705 0018 C360     		str	r3, [r0, #12]
 285:Drivers/STM32F7xx_HAL_Driver/Src/stm32f7xx_ll_usb.c **** 
 3706              		.loc 1 285 12 view .LVU1268
ARM GAS  /tmp/cc8ZLjKA.s 			page 114


 3707 001a 0024     		movs	r4, #0
 3708              	.LVL281:
 3709              	.L244:
 303:Drivers/STM32F7xx_HAL_Driver/Src/stm32f7xx_ll_usb.c ****     {
 3710              		.loc 1 303 5 is_stmt 1 discriminator 2 view .LVU1269
 305:Drivers/STM32F7xx_HAL_Driver/Src/stm32f7xx_ll_usb.c ****       ms++;
 3711              		.loc 1 305 7 discriminator 2 view .LVU1270
 3712 001c 0120     		movs	r0, #1
 3713 001e FFF7FEFF 		bl	HAL_Delay
 3714              	.LVL282:
 306:Drivers/STM32F7xx_HAL_Driver/Src/stm32f7xx_ll_usb.c ****     } while ((USB_GetMode(USBx) != (uint32_t)USB_DEVICE_MODE) && (ms < 50U));
 3715              		.loc 1 306 7 discriminator 2 view .LVU1271
 306:Drivers/STM32F7xx_HAL_Driver/Src/stm32f7xx_ll_usb.c ****     } while ((USB_GetMode(USBx) != (uint32_t)USB_DEVICE_MODE) && (ms < 50U));
 3716              		.loc 1 306 9 is_stmt 0 discriminator 2 view .LVU1272
 3717 0022 0134     		adds	r4, r4, #1
 3718              	.LVL283:
 307:Drivers/STM32F7xx_HAL_Driver/Src/stm32f7xx_ll_usb.c ****   }
 3719              		.loc 1 307 63 is_stmt 1 discriminator 2 view .LVU1273
 307:Drivers/STM32F7xx_HAL_Driver/Src/stm32f7xx_ll_usb.c ****   }
 3720              		.loc 1 307 15 is_stmt 0 discriminator 2 view .LVU1274
 3721 0024 2846     		mov	r0, r5
 3722 0026 FFF7FEFF 		bl	USB_GetMode
 3723              	.LVL284:
 307:Drivers/STM32F7xx_HAL_Driver/Src/stm32f7xx_ll_usb.c ****   }
 3724              		.loc 1 307 63 discriminator 2 view .LVU1275
 3725 002a 08B1     		cbz	r0, .L241
 307:Drivers/STM32F7xx_HAL_Driver/Src/stm32f7xx_ll_usb.c ****   }
 3726              		.loc 1 307 63 discriminator 1 view .LVU1276
 3727 002c 312C     		cmp	r4, #49
 3728 002e F5D9     		bls	.L244
 3729              	.L241:
 314:Drivers/STM32F7xx_HAL_Driver/Src/stm32f7xx_ll_usb.c ****   {
 3730              		.loc 1 314 3 is_stmt 1 view .LVU1277
 314:Drivers/STM32F7xx_HAL_Driver/Src/stm32f7xx_ll_usb.c ****   {
 3731              		.loc 1 314 6 is_stmt 0 view .LVU1278
 3732 0030 322C     		cmp	r4, #50
 3733 0032 14D0     		beq	.L246
 319:Drivers/STM32F7xx_HAL_Driver/Src/stm32f7xx_ll_usb.c **** }
 3734              		.loc 1 319 10 view .LVU1279
 3735 0034 0020     		movs	r0, #0
 3736              	.LVL285:
 3737              	.L243:
 320:Drivers/STM32F7xx_HAL_Driver/Src/stm32f7xx_ll_usb.c **** 
 3738              		.loc 1 320 1 view .LVU1280
 3739 0036 38BD     		pop	{r3, r4, r5, pc}
 3740              	.LVL286:
 3741              	.L248:
 291:Drivers/STM32F7xx_HAL_Driver/Src/stm32f7xx_ll_usb.c **** 
 3742              		.loc 1 291 5 is_stmt 1 view .LVU1281
 291:Drivers/STM32F7xx_HAL_Driver/Src/stm32f7xx_ll_usb.c **** 
 3743              		.loc 1 291 9 is_stmt 0 view .LVU1282
 3744 0038 C368     		ldr	r3, [r0, #12]
 291:Drivers/STM32F7xx_HAL_Driver/Src/stm32f7xx_ll_usb.c **** 
 3745              		.loc 1 291 19 view .LVU1283
 3746 003a 43F00053 		orr	r3, r3, #536870912
 3747 003e C360     		str	r3, [r0, #12]
 285:Drivers/STM32F7xx_HAL_Driver/Src/stm32f7xx_ll_usb.c **** 
ARM GAS  /tmp/cc8ZLjKA.s 			page 115


 3748              		.loc 1 285 12 view .LVU1284
 3749 0040 0024     		movs	r4, #0
 3750              	.LVL287:
 3751              	.L242:
 293:Drivers/STM32F7xx_HAL_Driver/Src/stm32f7xx_ll_usb.c ****     {
 3752              		.loc 1 293 5 is_stmt 1 discriminator 2 view .LVU1285
 295:Drivers/STM32F7xx_HAL_Driver/Src/stm32f7xx_ll_usb.c ****       ms++;
 3753              		.loc 1 295 7 discriminator 2 view .LVU1286
 3754 0042 0120     		movs	r0, #1
 3755 0044 FFF7FEFF 		bl	HAL_Delay
 3756              	.LVL288:
 296:Drivers/STM32F7xx_HAL_Driver/Src/stm32f7xx_ll_usb.c ****     } while ((USB_GetMode(USBx) != (uint32_t)USB_HOST_MODE) && (ms < 50U));
 3757              		.loc 1 296 7 discriminator 2 view .LVU1287
 296:Drivers/STM32F7xx_HAL_Driver/Src/stm32f7xx_ll_usb.c ****     } while ((USB_GetMode(USBx) != (uint32_t)USB_HOST_MODE) && (ms < 50U));
 3758              		.loc 1 296 9 is_stmt 0 discriminator 2 view .LVU1288
 3759 0048 0134     		adds	r4, r4, #1
 3760              	.LVL289:
 297:Drivers/STM32F7xx_HAL_Driver/Src/stm32f7xx_ll_usb.c ****   }
 3761              		.loc 1 297 61 is_stmt 1 discriminator 2 view .LVU1289
 297:Drivers/STM32F7xx_HAL_Driver/Src/stm32f7xx_ll_usb.c ****   }
 3762              		.loc 1 297 15 is_stmt 0 discriminator 2 view .LVU1290
 3763 004a 2846     		mov	r0, r5
 3764 004c FFF7FEFF 		bl	USB_GetMode
 3765              	.LVL290:
 297:Drivers/STM32F7xx_HAL_Driver/Src/stm32f7xx_ll_usb.c ****   }
 3766              		.loc 1 297 61 discriminator 2 view .LVU1291
 3767 0050 0128     		cmp	r0, #1
 3768 0052 EDD0     		beq	.L241
 297:Drivers/STM32F7xx_HAL_Driver/Src/stm32f7xx_ll_usb.c ****   }
 3769              		.loc 1 297 61 discriminator 1 view .LVU1292
 3770 0054 312C     		cmp	r4, #49
 3771 0056 F4D9     		bls	.L242
 3772 0058 EAE7     		b	.L241
 3773              	.LVL291:
 3774              	.L245:
 311:Drivers/STM32F7xx_HAL_Driver/Src/stm32f7xx_ll_usb.c ****   }
 3775              		.loc 1 311 12 view .LVU1293
 3776 005a 0120     		movs	r0, #1
 3777              	.LVL292:
 311:Drivers/STM32F7xx_HAL_Driver/Src/stm32f7xx_ll_usb.c ****   }
 3778              		.loc 1 311 12 view .LVU1294
 3779 005c EBE7     		b	.L243
 3780              	.LVL293:
 3781              	.L246:
 316:Drivers/STM32F7xx_HAL_Driver/Src/stm32f7xx_ll_usb.c ****   }
 3782              		.loc 1 316 12 view .LVU1295
 3783 005e 0120     		movs	r0, #1
 3784 0060 E9E7     		b	.L243
 3785              		.cfi_endproc
 3786              	.LFE145:
 3788              		.section	.text.USB_ActivateSetup,"ax",%progbits
 3789              		.align	1
 3790              		.global	USB_ActivateSetup
 3791              		.syntax unified
 3792              		.thumb
 3793              		.thumb_func
 3795              	USB_ActivateSetup:
ARM GAS  /tmp/cc8ZLjKA.s 			page 116


 3796              	.LVL294:
 3797              	.LFB174:
1450:Drivers/STM32F7xx_HAL_Driver/Src/stm32f7xx_ll_usb.c ****   uint32_t USBx_BASE = (uint32_t)USBx;
 3798              		.loc 1 1450 1 is_stmt 1 view -0
 3799              		.cfi_startproc
 3800              		@ args = 0, pretend = 0, frame = 0
 3801              		@ frame_needed = 0, uses_anonymous_args = 0
 3802              		@ link register save eliminated.
1451:Drivers/STM32F7xx_HAL_Driver/Src/stm32f7xx_ll_usb.c **** 
 3803              		.loc 1 1451 3 view .LVU1297
1454:Drivers/STM32F7xx_HAL_Driver/Src/stm32f7xx_ll_usb.c **** 
 3804              		.loc 1 1454 3 view .LVU1298
1454:Drivers/STM32F7xx_HAL_Driver/Src/stm32f7xx_ll_usb.c **** 
 3805              		.loc 1 1454 16 is_stmt 0 view .LVU1299
 3806 0000 D0F80029 		ldr	r2, [r0, #2304]
1454:Drivers/STM32F7xx_HAL_Driver/Src/stm32f7xx_ll_usb.c **** 
 3807              		.loc 1 1454 26 view .LVU1300
 3808 0004 054B     		ldr	r3, .L250
 3809 0006 1340     		ands	r3, r3, r2
 3810 0008 C0F80039 		str	r3, [r0, #2304]
1456:Drivers/STM32F7xx_HAL_Driver/Src/stm32f7xx_ll_usb.c **** 
 3811              		.loc 1 1456 3 is_stmt 1 view .LVU1301
1456:Drivers/STM32F7xx_HAL_Driver/Src/stm32f7xx_ll_usb.c **** 
 3812              		.loc 1 1456 14 is_stmt 0 view .LVU1302
 3813 000c D0F80438 		ldr	r3, [r0, #2052]
1456:Drivers/STM32F7xx_HAL_Driver/Src/stm32f7xx_ll_usb.c **** 
 3814              		.loc 1 1456 21 view .LVU1303
 3815 0010 43F48073 		orr	r3, r3, #256
 3816 0014 C0F80438 		str	r3, [r0, #2052]
1458:Drivers/STM32F7xx_HAL_Driver/Src/stm32f7xx_ll_usb.c **** }
 3817              		.loc 1 1458 3 is_stmt 1 view .LVU1304
1459:Drivers/STM32F7xx_HAL_Driver/Src/stm32f7xx_ll_usb.c **** 
 3818              		.loc 1 1459 1 is_stmt 0 view .LVU1305
 3819 0018 0020     		movs	r0, #0
 3820              	.LVL295:
1459:Drivers/STM32F7xx_HAL_Driver/Src/stm32f7xx_ll_usb.c **** 
 3821              		.loc 1 1459 1 view .LVU1306
 3822 001a 7047     		bx	lr
 3823              	.L251:
 3824              		.align	2
 3825              	.L250:
 3826 001c 00F8FFFF 		.word	-2048
 3827              		.cfi_endproc
 3828              	.LFE174:
 3830              		.section	.text.USB_EP0_OutStart,"ax",%progbits
 3831              		.align	1
 3832              		.global	USB_EP0_OutStart
 3833              		.syntax unified
 3834              		.thumb
 3835              		.thumb_func
 3837              	USB_EP0_OutStart:
 3838              	.LVL296:
 3839              	.LFB175:
1472:Drivers/STM32F7xx_HAL_Driver/Src/stm32f7xx_ll_usb.c ****   uint32_t USBx_BASE = (uint32_t)USBx;
 3840              		.loc 1 1472 1 is_stmt 1 view -0
 3841              		.cfi_startproc
 3842              		@ args = 0, pretend = 0, frame = 0
ARM GAS  /tmp/cc8ZLjKA.s 			page 117


 3843              		@ frame_needed = 0, uses_anonymous_args = 0
 3844              		@ link register save eliminated.
1472:Drivers/STM32F7xx_HAL_Driver/Src/stm32f7xx_ll_usb.c ****   uint32_t USBx_BASE = (uint32_t)USBx;
 3845              		.loc 1 1472 1 is_stmt 0 view .LVU1308
 3846 0000 10B4     		push	{r4}
 3847              		.cfi_def_cfa_offset 4
 3848              		.cfi_offset 4, -4
1473:Drivers/STM32F7xx_HAL_Driver/Src/stm32f7xx_ll_usb.c ****   uint32_t gSNPSiD = *(__IO uint32_t *)(&USBx->CID + 0x1U);
 3849              		.loc 1 1473 3 is_stmt 1 view .LVU1309
 3850              	.LVL297:
1474:Drivers/STM32F7xx_HAL_Driver/Src/stm32f7xx_ll_usb.c **** 
 3851              		.loc 1 1474 3 view .LVU1310
1474:Drivers/STM32F7xx_HAL_Driver/Src/stm32f7xx_ll_usb.c **** 
 3852              		.loc 1 1474 12 is_stmt 0 view .LVU1311
 3853 0002 046C     		ldr	r4, [r0, #64]
 3854              	.LVL298:
1476:Drivers/STM32F7xx_HAL_Driver/Src/stm32f7xx_ll_usb.c ****   {
 3855              		.loc 1 1476 3 is_stmt 1 view .LVU1312
1476:Drivers/STM32F7xx_HAL_Driver/Src/stm32f7xx_ll_usb.c ****   {
 3856              		.loc 1 1476 6 is_stmt 0 view .LVU1313
 3857 0004 154B     		ldr	r3, .L257
 3858 0006 9C42     		cmp	r4, r3
 3859 0008 03D9     		bls	.L253
1478:Drivers/STM32F7xx_HAL_Driver/Src/stm32f7xx_ll_usb.c ****     {
 3860              		.loc 1 1478 5 is_stmt 1 view .LVU1314
1478:Drivers/STM32F7xx_HAL_Driver/Src/stm32f7xx_ll_usb.c ****     {
 3861              		.loc 1 1478 24 is_stmt 0 view .LVU1315
 3862 000a D0F8003B 		ldr	r3, [r0, #2816]
1478:Drivers/STM32F7xx_HAL_Driver/Src/stm32f7xx_ll_usb.c ****     {
 3863              		.loc 1 1478 8 view .LVU1316
 3864 000e 002B     		cmp	r3, #0
 3865 0010 16DB     		blt	.L254
 3866              	.L253:
1484:Drivers/STM32F7xx_HAL_Driver/Src/stm32f7xx_ll_usb.c ****   USBx_OUTEP(0U)->DOEPTSIZ |= (USB_OTG_DOEPTSIZ_PKTCNT & (1U << 19));
 3867              		.loc 1 1484 3 is_stmt 1 view .LVU1317
1484:Drivers/STM32F7xx_HAL_Driver/Src/stm32f7xx_ll_usb.c ****   USBx_OUTEP(0U)->DOEPTSIZ |= (USB_OTG_DOEPTSIZ_PKTCNT & (1U << 19));
 3868              		.loc 1 1484 28 is_stmt 0 view .LVU1318
 3869 0012 0024     		movs	r4, #0
 3870              	.LVL299:
1484:Drivers/STM32F7xx_HAL_Driver/Src/stm32f7xx_ll_usb.c ****   USBx_OUTEP(0U)->DOEPTSIZ |= (USB_OTG_DOEPTSIZ_PKTCNT & (1U << 19));
 3871              		.loc 1 1484 28 view .LVU1319
 3872 0014 C0F8104B 		str	r4, [r0, #2832]
1485:Drivers/STM32F7xx_HAL_Driver/Src/stm32f7xx_ll_usb.c ****   USBx_OUTEP(0U)->DOEPTSIZ |= (3U * 8U);
 3873              		.loc 1 1485 3 is_stmt 1 view .LVU1320
1485:Drivers/STM32F7xx_HAL_Driver/Src/stm32f7xx_ll_usb.c ****   USBx_OUTEP(0U)->DOEPTSIZ |= (3U * 8U);
 3874              		.loc 1 1485 17 is_stmt 0 view .LVU1321
 3875 0018 D0F8104B 		ldr	r4, [r0, #2832]
1485:Drivers/STM32F7xx_HAL_Driver/Src/stm32f7xx_ll_usb.c ****   USBx_OUTEP(0U)->DOEPTSIZ |= (3U * 8U);
 3876              		.loc 1 1485 28 view .LVU1322
 3877 001c 44F40024 		orr	r4, r4, #524288
 3878 0020 C0F8104B 		str	r4, [r0, #2832]
1486:Drivers/STM32F7xx_HAL_Driver/Src/stm32f7xx_ll_usb.c ****   USBx_OUTEP(0U)->DOEPTSIZ |=  USB_OTG_DOEPTSIZ_STUPCNT;
 3879              		.loc 1 1486 3 is_stmt 1 view .LVU1323
1486:Drivers/STM32F7xx_HAL_Driver/Src/stm32f7xx_ll_usb.c ****   USBx_OUTEP(0U)->DOEPTSIZ |=  USB_OTG_DOEPTSIZ_STUPCNT;
 3880              		.loc 1 1486 17 is_stmt 0 view .LVU1324
 3881 0024 D0F8104B 		ldr	r4, [r0, #2832]
1486:Drivers/STM32F7xx_HAL_Driver/Src/stm32f7xx_ll_usb.c ****   USBx_OUTEP(0U)->DOEPTSIZ |=  USB_OTG_DOEPTSIZ_STUPCNT;
ARM GAS  /tmp/cc8ZLjKA.s 			page 118


 3882              		.loc 1 1486 28 view .LVU1325
 3883 0028 44F01804 		orr	r4, r4, #24
 3884 002c C0F8104B 		str	r4, [r0, #2832]
1487:Drivers/STM32F7xx_HAL_Driver/Src/stm32f7xx_ll_usb.c **** 
 3885              		.loc 1 1487 3 is_stmt 1 view .LVU1326
1487:Drivers/STM32F7xx_HAL_Driver/Src/stm32f7xx_ll_usb.c **** 
 3886              		.loc 1 1487 17 is_stmt 0 view .LVU1327
 3887 0030 D0F8104B 		ldr	r4, [r0, #2832]
1487:Drivers/STM32F7xx_HAL_Driver/Src/stm32f7xx_ll_usb.c **** 
 3888              		.loc 1 1487 28 view .LVU1328
 3889 0034 44F0C044 		orr	r4, r4, #1610612736
 3890 0038 C0F8104B 		str	r4, [r0, #2832]
1489:Drivers/STM32F7xx_HAL_Driver/Src/stm32f7xx_ll_usb.c ****   {
 3891              		.loc 1 1489 3 is_stmt 1 view .LVU1329
1489:Drivers/STM32F7xx_HAL_Driver/Src/stm32f7xx_ll_usb.c ****   {
 3892              		.loc 1 1489 6 is_stmt 0 view .LVU1330
 3893 003c 0129     		cmp	r1, #1
 3894 003e 03D0     		beq	.L256
 3895              	.L254:
1497:Drivers/STM32F7xx_HAL_Driver/Src/stm32f7xx_ll_usb.c **** 
 3896              		.loc 1 1497 1 view .LVU1331
 3897 0040 0020     		movs	r0, #0
 3898              	.LVL300:
1497:Drivers/STM32F7xx_HAL_Driver/Src/stm32f7xx_ll_usb.c **** 
 3899              		.loc 1 1497 1 view .LVU1332
 3900 0042 5DF8044B 		ldr	r4, [sp], #4
 3901              		.cfi_remember_state
 3902              		.cfi_restore 4
 3903              		.cfi_def_cfa_offset 0
 3904 0046 7047     		bx	lr
 3905              	.LVL301:
 3906              	.L256:
 3907              		.cfi_restore_state
1491:Drivers/STM32F7xx_HAL_Driver/Src/stm32f7xx_ll_usb.c ****     /* EP enable */
 3908              		.loc 1 1491 5 is_stmt 1 view .LVU1333
1491:Drivers/STM32F7xx_HAL_Driver/Src/stm32f7xx_ll_usb.c ****     /* EP enable */
 3909              		.loc 1 1491 29 is_stmt 0 view .LVU1334
 3910 0048 C0F8142B 		str	r2, [r0, #2836]
1493:Drivers/STM32F7xx_HAL_Driver/Src/stm32f7xx_ll_usb.c ****   }
 3911              		.loc 1 1493 5 is_stmt 1 view .LVU1335
1493:Drivers/STM32F7xx_HAL_Driver/Src/stm32f7xx_ll_usb.c ****   }
 3912              		.loc 1 1493 19 is_stmt 0 view .LVU1336
 3913 004c D0F8003B 		ldr	r3, [r0, #2816]
1493:Drivers/STM32F7xx_HAL_Driver/Src/stm32f7xx_ll_usb.c ****   }
 3914              		.loc 1 1493 29 view .LVU1337
 3915 0050 43F08023 		orr	r3, r3, #-2147450880
 3916 0054 C0F8003B 		str	r3, [r0, #2816]
 3917 0058 F2E7     		b	.L254
 3918              	.L258:
 3919 005a 00BF     		.align	2
 3920              	.L257:
 3921 005c 0A30544F 		.word	1330917386
 3922              		.cfi_endproc
 3923              	.LFE175:
 3925              		.section	.text.USB_HostInit,"ax",%progbits
 3926              		.align	1
 3927              		.global	USB_HostInit
ARM GAS  /tmp/cc8ZLjKA.s 			page 119


 3928              		.syntax unified
 3929              		.thumb
 3930              		.thumb_func
 3932              	USB_HostInit:
 3933              	.LVL302:
 3934              	.LFB178:
1604:Drivers/STM32F7xx_HAL_Driver/Src/stm32f7xx_ll_usb.c **** 
1605:Drivers/STM32F7xx_HAL_Driver/Src/stm32f7xx_ll_usb.c **** #endif /* USBPHYC */
1606:Drivers/STM32F7xx_HAL_Driver/Src/stm32f7xx_ll_usb.c **** /**
1607:Drivers/STM32F7xx_HAL_Driver/Src/stm32f7xx_ll_usb.c ****   * @brief  USB_HostInit : Initializes the USB OTG controller registers
1608:Drivers/STM32F7xx_HAL_Driver/Src/stm32f7xx_ll_usb.c ****   *         for Host mode
1609:Drivers/STM32F7xx_HAL_Driver/Src/stm32f7xx_ll_usb.c ****   * @param  USBx  Selected device
1610:Drivers/STM32F7xx_HAL_Driver/Src/stm32f7xx_ll_usb.c ****   * @param  cfg   pointer to a USB_OTG_CfgTypeDef structure that contains
1611:Drivers/STM32F7xx_HAL_Driver/Src/stm32f7xx_ll_usb.c ****   *         the configuration information for the specified USBx peripheral.
1612:Drivers/STM32F7xx_HAL_Driver/Src/stm32f7xx_ll_usb.c ****   * @retval HAL status
1613:Drivers/STM32F7xx_HAL_Driver/Src/stm32f7xx_ll_usb.c ****   */
1614:Drivers/STM32F7xx_HAL_Driver/Src/stm32f7xx_ll_usb.c **** HAL_StatusTypeDef USB_HostInit(USB_OTG_GlobalTypeDef *USBx, USB_OTG_CfgTypeDef cfg)
1615:Drivers/STM32F7xx_HAL_Driver/Src/stm32f7xx_ll_usb.c **** {
 3935              		.loc 1 1615 1 is_stmt 1 view -0
 3936              		.cfi_startproc
 3937              		@ args = 56, pretend = 16, frame = 0
 3938              		@ frame_needed = 0, uses_anonymous_args = 0
 3939              		.loc 1 1615 1 is_stmt 0 view .LVU1339
 3940 0000 84B0     		sub	sp, sp, #16
 3941              		.cfi_def_cfa_offset 16
 3942 0002 38B5     		push	{r3, r4, r5, lr}
 3943              		.cfi_def_cfa_offset 32
 3944              		.cfi_offset 3, -32
 3945              		.cfi_offset 4, -28
 3946              		.cfi_offset 5, -24
 3947              		.cfi_offset 14, -20
 3948 0004 0446     		mov	r4, r0
 3949 0006 05A8     		add	r0, sp, #20
 3950              	.LVL303:
 3951              		.loc 1 1615 1 view .LVU1340
 3952 0008 80E80E00 		stm	r0, {r1, r2, r3}
1616:Drivers/STM32F7xx_HAL_Driver/Src/stm32f7xx_ll_usb.c ****   HAL_StatusTypeDef ret = HAL_OK;
 3953              		.loc 1 1616 3 is_stmt 1 view .LVU1341
 3954              	.LVL304:
1617:Drivers/STM32F7xx_HAL_Driver/Src/stm32f7xx_ll_usb.c ****   uint32_t USBx_BASE = (uint32_t)USBx;
 3955              		.loc 1 1617 3 view .LVU1342
1618:Drivers/STM32F7xx_HAL_Driver/Src/stm32f7xx_ll_usb.c ****   uint32_t i;
 3956              		.loc 1 1618 3 view .LVU1343
1619:Drivers/STM32F7xx_HAL_Driver/Src/stm32f7xx_ll_usb.c **** 
1620:Drivers/STM32F7xx_HAL_Driver/Src/stm32f7xx_ll_usb.c ****   /* Restart the Phy Clock */
1621:Drivers/STM32F7xx_HAL_Driver/Src/stm32f7xx_ll_usb.c ****   USBx_PCGCCTL = 0U;
 3957              		.loc 1 1621 3 view .LVU1344
 3958              		.loc 1 1621 16 is_stmt 0 view .LVU1345
 3959 000c 0023     		movs	r3, #0
 3960 000e C4F8003E 		str	r3, [r4, #3584]
1622:Drivers/STM32F7xx_HAL_Driver/Src/stm32f7xx_ll_usb.c **** 
1623:Drivers/STM32F7xx_HAL_Driver/Src/stm32f7xx_ll_usb.c ****   /* Disable VBUS sensing */
1624:Drivers/STM32F7xx_HAL_Driver/Src/stm32f7xx_ll_usb.c ****   USBx->GCCFG &= ~(USB_OTG_GCCFG_VBDEN);
 3961              		.loc 1 1624 3 is_stmt 1 view .LVU1346
 3962              		.loc 1 1624 7 is_stmt 0 view .LVU1347
 3963 0012 A36B     		ldr	r3, [r4, #56]
 3964              		.loc 1 1624 15 view .LVU1348
ARM GAS  /tmp/cc8ZLjKA.s 			page 120


 3965 0014 23F40013 		bic	r3, r3, #2097152
 3966 0018 A363     		str	r3, [r4, #56]
1625:Drivers/STM32F7xx_HAL_Driver/Src/stm32f7xx_ll_usb.c **** 
1626:Drivers/STM32F7xx_HAL_Driver/Src/stm32f7xx_ll_usb.c ****   if ((USBx->CID & (0x1U << 8)) != 0U)
 3967              		.loc 1 1626 3 is_stmt 1 view .LVU1349
 3968              		.loc 1 1626 12 is_stmt 0 view .LVU1350
 3969 001a E36B     		ldr	r3, [r4, #60]
 3970              		.loc 1 1626 6 view .LVU1351
 3971 001c 13F4807F 		tst	r3, #256
 3972 0020 10D0     		beq	.L260
1627:Drivers/STM32F7xx_HAL_Driver/Src/stm32f7xx_ll_usb.c ****   {
1628:Drivers/STM32F7xx_HAL_Driver/Src/stm32f7xx_ll_usb.c ****     if (cfg.speed == USBH_FSLS_SPEED)
 3973              		.loc 1 1628 5 is_stmt 1 view .LVU1352
 3974              		.loc 1 1628 12 is_stmt 0 view .LVU1353
 3975 0022 079B     		ldr	r3, [sp, #28]
 3976              		.loc 1 1628 8 view .LVU1354
 3977 0024 012B     		cmp	r3, #1
 3978 0026 06D0     		beq	.L273
1629:Drivers/STM32F7xx_HAL_Driver/Src/stm32f7xx_ll_usb.c ****     {
1630:Drivers/STM32F7xx_HAL_Driver/Src/stm32f7xx_ll_usb.c ****       /* Force Device Enumeration to FS/LS mode only */
1631:Drivers/STM32F7xx_HAL_Driver/Src/stm32f7xx_ll_usb.c ****       USBx_HOST->HCFG |= USB_OTG_HCFG_FSLSS;
1632:Drivers/STM32F7xx_HAL_Driver/Src/stm32f7xx_ll_usb.c ****     }
1633:Drivers/STM32F7xx_HAL_Driver/Src/stm32f7xx_ll_usb.c ****     else
1634:Drivers/STM32F7xx_HAL_Driver/Src/stm32f7xx_ll_usb.c ****     {
1635:Drivers/STM32F7xx_HAL_Driver/Src/stm32f7xx_ll_usb.c ****       /* Set default Max speed support */
1636:Drivers/STM32F7xx_HAL_Driver/Src/stm32f7xx_ll_usb.c ****       USBx_HOST->HCFG &= ~(USB_OTG_HCFG_FSLSS);
 3979              		.loc 1 1636 7 is_stmt 1 view .LVU1355
 3980              		.loc 1 1636 16 is_stmt 0 view .LVU1356
 3981 0028 D4F80034 		ldr	r3, [r4, #1024]
 3982              		.loc 1 1636 23 view .LVU1357
 3983 002c 23F00403 		bic	r3, r3, #4
 3984 0030 C4F80034 		str	r3, [r4, #1024]
 3985 0034 0CE0     		b	.L262
 3986              	.L273:
1631:Drivers/STM32F7xx_HAL_Driver/Src/stm32f7xx_ll_usb.c ****     }
 3987              		.loc 1 1631 7 is_stmt 1 view .LVU1358
1631:Drivers/STM32F7xx_HAL_Driver/Src/stm32f7xx_ll_usb.c ****     }
 3988              		.loc 1 1631 16 is_stmt 0 view .LVU1359
 3989 0036 D4F80034 		ldr	r3, [r4, #1024]
1631:Drivers/STM32F7xx_HAL_Driver/Src/stm32f7xx_ll_usb.c ****     }
 3990              		.loc 1 1631 23 view .LVU1360
 3991 003a 43F00403 		orr	r3, r3, #4
 3992 003e C4F80034 		str	r3, [r4, #1024]
 3993 0042 05E0     		b	.L262
 3994              	.L260:
1637:Drivers/STM32F7xx_HAL_Driver/Src/stm32f7xx_ll_usb.c ****     }
1638:Drivers/STM32F7xx_HAL_Driver/Src/stm32f7xx_ll_usb.c ****   }
1639:Drivers/STM32F7xx_HAL_Driver/Src/stm32f7xx_ll_usb.c ****   else
1640:Drivers/STM32F7xx_HAL_Driver/Src/stm32f7xx_ll_usb.c ****   {
1641:Drivers/STM32F7xx_HAL_Driver/Src/stm32f7xx_ll_usb.c ****     /* Set default Max speed support */
1642:Drivers/STM32F7xx_HAL_Driver/Src/stm32f7xx_ll_usb.c ****     USBx_HOST->HCFG &= ~(USB_OTG_HCFG_FSLSS);
 3995              		.loc 1 1642 5 is_stmt 1 view .LVU1361
 3996              		.loc 1 1642 14 is_stmt 0 view .LVU1362
 3997 0044 D4F80034 		ldr	r3, [r4, #1024]
 3998              		.loc 1 1642 21 view .LVU1363
 3999 0048 23F00403 		bic	r3, r3, #4
 4000 004c C4F80034 		str	r3, [r4, #1024]
ARM GAS  /tmp/cc8ZLjKA.s 			page 121


 4001              	.L262:
1643:Drivers/STM32F7xx_HAL_Driver/Src/stm32f7xx_ll_usb.c ****   }
1644:Drivers/STM32F7xx_HAL_Driver/Src/stm32f7xx_ll_usb.c **** 
1645:Drivers/STM32F7xx_HAL_Driver/Src/stm32f7xx_ll_usb.c ****   /* Make sure the FIFOs are flushed. */
1646:Drivers/STM32F7xx_HAL_Driver/Src/stm32f7xx_ll_usb.c ****   if (USB_FlushTxFifo(USBx, 0x10U) != HAL_OK) /* all Tx FIFOs */
 4002              		.loc 1 1646 3 is_stmt 1 view .LVU1364
 4003              		.loc 1 1646 7 is_stmt 0 view .LVU1365
 4004 0050 1021     		movs	r1, #16
 4005 0052 2046     		mov	r0, r4
 4006 0054 FFF7FEFF 		bl	USB_FlushTxFifo
 4007              	.LVL305:
 4008              		.loc 1 1646 6 view .LVU1366
 4009 0058 0546     		mov	r5, r0
 4010 005a 00B1     		cbz	r0, .L263
1647:Drivers/STM32F7xx_HAL_Driver/Src/stm32f7xx_ll_usb.c ****   {
1648:Drivers/STM32F7xx_HAL_Driver/Src/stm32f7xx_ll_usb.c ****     ret = HAL_ERROR;
 4011              		.loc 1 1648 9 view .LVU1367
 4012 005c 0125     		movs	r5, #1
 4013              	.L263:
 4014              	.LVL306:
1649:Drivers/STM32F7xx_HAL_Driver/Src/stm32f7xx_ll_usb.c ****   }
1650:Drivers/STM32F7xx_HAL_Driver/Src/stm32f7xx_ll_usb.c **** 
1651:Drivers/STM32F7xx_HAL_Driver/Src/stm32f7xx_ll_usb.c ****   if (USB_FlushRxFifo(USBx) != HAL_OK)
 4015              		.loc 1 1651 3 is_stmt 1 view .LVU1368
 4016              		.loc 1 1651 7 is_stmt 0 view .LVU1369
 4017 005e 2046     		mov	r0, r4
 4018 0060 FFF7FEFF 		bl	USB_FlushRxFifo
 4019              	.LVL307:
 4020              		.loc 1 1651 6 view .LVU1370
 4021 0064 00B1     		cbz	r0, .L264
1652:Drivers/STM32F7xx_HAL_Driver/Src/stm32f7xx_ll_usb.c ****   {
1653:Drivers/STM32F7xx_HAL_Driver/Src/stm32f7xx_ll_usb.c ****     ret = HAL_ERROR;
 4022              		.loc 1 1653 9 view .LVU1371
 4023 0066 0125     		movs	r5, #1
 4024              	.LVL308:
 4025              	.L264:
1654:Drivers/STM32F7xx_HAL_Driver/Src/stm32f7xx_ll_usb.c ****   }
1655:Drivers/STM32F7xx_HAL_Driver/Src/stm32f7xx_ll_usb.c **** 
1656:Drivers/STM32F7xx_HAL_Driver/Src/stm32f7xx_ll_usb.c ****   /* Clear all pending HC Interrupts */
1657:Drivers/STM32F7xx_HAL_Driver/Src/stm32f7xx_ll_usb.c ****   for (i = 0U; i < cfg.Host_channels; i++)
 4026              		.loc 1 1657 3 is_stmt 1 view .LVU1372
 4027              		.loc 1 1657 10 is_stmt 0 view .LVU1373
 4028 0068 0022     		movs	r2, #0
 4029              		.loc 1 1657 3 view .LVU1374
 4030 006a 09E0     		b	.L265
 4031              	.LVL309:
 4032              	.L266:
1658:Drivers/STM32F7xx_HAL_Driver/Src/stm32f7xx_ll_usb.c ****   {
1659:Drivers/STM32F7xx_HAL_Driver/Src/stm32f7xx_ll_usb.c ****     USBx_HC(i)->HCINT = 0xFFFFFFFFU;
 4033              		.loc 1 1659 5 is_stmt 1 discriminator 3 view .LVU1375
 4034 006c 04EB4213 		add	r3, r4, r2, lsl #5
 4035              		.loc 1 1659 23 is_stmt 0 discriminator 3 view .LVU1376
 4036 0070 4FF0FF31 		mov	r1, #-1
 4037 0074 C3F80815 		str	r1, [r3, #1288]
1660:Drivers/STM32F7xx_HAL_Driver/Src/stm32f7xx_ll_usb.c ****     USBx_HC(i)->HCINTMSK = 0U;
 4038              		.loc 1 1660 5 is_stmt 1 discriminator 3 view .LVU1377
 4039              		.loc 1 1660 26 is_stmt 0 discriminator 3 view .LVU1378
ARM GAS  /tmp/cc8ZLjKA.s 			page 122


 4040 0078 0021     		movs	r1, #0
 4041 007a C3F80C15 		str	r1, [r3, #1292]
1657:Drivers/STM32F7xx_HAL_Driver/Src/stm32f7xx_ll_usb.c ****   {
 4042              		.loc 1 1657 40 is_stmt 1 discriminator 3 view .LVU1379
 4043 007e 0132     		adds	r2, r2, #1
 4044              	.LVL310:
 4045              	.L265:
1657:Drivers/STM32F7xx_HAL_Driver/Src/stm32f7xx_ll_usb.c ****   {
 4046              		.loc 1 1657 18 discriminator 1 view .LVU1380
1657:Drivers/STM32F7xx_HAL_Driver/Src/stm32f7xx_ll_usb.c ****   {
 4047              		.loc 1 1657 23 is_stmt 0 discriminator 1 view .LVU1381
 4048 0080 069B     		ldr	r3, [sp, #24]
1657:Drivers/STM32F7xx_HAL_Driver/Src/stm32f7xx_ll_usb.c ****   {
 4049              		.loc 1 1657 18 discriminator 1 view .LVU1382
 4050 0082 9342     		cmp	r3, r2
 4051 0084 F2D8     		bhi	.L266
1661:Drivers/STM32F7xx_HAL_Driver/Src/stm32f7xx_ll_usb.c ****   }
1662:Drivers/STM32F7xx_HAL_Driver/Src/stm32f7xx_ll_usb.c **** 
1663:Drivers/STM32F7xx_HAL_Driver/Src/stm32f7xx_ll_usb.c ****   /* Disable all interrupts. */
1664:Drivers/STM32F7xx_HAL_Driver/Src/stm32f7xx_ll_usb.c ****   USBx->GINTMSK = 0U;
 4052              		.loc 1 1664 3 is_stmt 1 view .LVU1383
 4053              		.loc 1 1664 17 is_stmt 0 view .LVU1384
 4054 0086 0023     		movs	r3, #0
 4055 0088 A361     		str	r3, [r4, #24]
1665:Drivers/STM32F7xx_HAL_Driver/Src/stm32f7xx_ll_usb.c **** 
1666:Drivers/STM32F7xx_HAL_Driver/Src/stm32f7xx_ll_usb.c ****   /* Clear any pending interrupts */
1667:Drivers/STM32F7xx_HAL_Driver/Src/stm32f7xx_ll_usb.c ****   USBx->GINTSTS = 0xFFFFFFFFU;
 4056              		.loc 1 1667 3 is_stmt 1 view .LVU1385
 4057              		.loc 1 1667 17 is_stmt 0 view .LVU1386
 4058 008a 4FF0FF33 		mov	r3, #-1
 4059 008e 6361     		str	r3, [r4, #20]
1668:Drivers/STM32F7xx_HAL_Driver/Src/stm32f7xx_ll_usb.c **** 
1669:Drivers/STM32F7xx_HAL_Driver/Src/stm32f7xx_ll_usb.c ****   if ((USBx->CID & (0x1U << 8)) != 0U)
 4060              		.loc 1 1669 3 is_stmt 1 view .LVU1387
 4061              		.loc 1 1669 12 is_stmt 0 view .LVU1388
 4062 0090 E36B     		ldr	r3, [r4, #60]
 4063              		.loc 1 1669 6 view .LVU1389
 4064 0092 13F4807F 		tst	r3, #256
 4065 0096 17D0     		beq	.L267
1670:Drivers/STM32F7xx_HAL_Driver/Src/stm32f7xx_ll_usb.c ****   {
1671:Drivers/STM32F7xx_HAL_Driver/Src/stm32f7xx_ll_usb.c ****     /* set Rx FIFO size */
1672:Drivers/STM32F7xx_HAL_Driver/Src/stm32f7xx_ll_usb.c ****     USBx->GRXFSIZ  = 0x200U;
 4066              		.loc 1 1672 5 is_stmt 1 view .LVU1390
 4067              		.loc 1 1672 20 is_stmt 0 view .LVU1391
 4068 0098 4FF40073 		mov	r3, #512
 4069 009c 6362     		str	r3, [r4, #36]
1673:Drivers/STM32F7xx_HAL_Driver/Src/stm32f7xx_ll_usb.c ****     USBx->DIEPTXF0_HNPTXFSIZ = (uint32_t)(((0x100U << 16) & USB_OTG_NPTXFD) | 0x200U);
 4070              		.loc 1 1673 5 is_stmt 1 view .LVU1392
 4071              		.loc 1 1673 30 is_stmt 0 view .LVU1393
 4072 009e 03F18073 		add	r3, r3, #16777216
 4073 00a2 A362     		str	r3, [r4, #40]
1674:Drivers/STM32F7xx_HAL_Driver/Src/stm32f7xx_ll_usb.c ****     USBx->HPTXFSIZ = (uint32_t)(((0xE0U << 16) & USB_OTG_HPTXFSIZ_PTXFD) | 0x300U);
 4074              		.loc 1 1674 5 is_stmt 1 view .LVU1394
 4075              		.loc 1 1674 20 is_stmt 0 view .LVU1395
 4076 00a4 0D4B     		ldr	r3, .L274
 4077 00a6 C4F80031 		str	r3, [r4, #256]
 4078              	.L268:
ARM GAS  /tmp/cc8ZLjKA.s 			page 123


1675:Drivers/STM32F7xx_HAL_Driver/Src/stm32f7xx_ll_usb.c ****   }
1676:Drivers/STM32F7xx_HAL_Driver/Src/stm32f7xx_ll_usb.c ****   else
1677:Drivers/STM32F7xx_HAL_Driver/Src/stm32f7xx_ll_usb.c ****   {
1678:Drivers/STM32F7xx_HAL_Driver/Src/stm32f7xx_ll_usb.c ****     /* set Rx FIFO size */
1679:Drivers/STM32F7xx_HAL_Driver/Src/stm32f7xx_ll_usb.c ****     USBx->GRXFSIZ  = 0x80U;
1680:Drivers/STM32F7xx_HAL_Driver/Src/stm32f7xx_ll_usb.c ****     USBx->DIEPTXF0_HNPTXFSIZ = (uint32_t)(((0x60U << 16) & USB_OTG_NPTXFD) | 0x80U);
1681:Drivers/STM32F7xx_HAL_Driver/Src/stm32f7xx_ll_usb.c ****     USBx->HPTXFSIZ = (uint32_t)(((0x40U << 16)& USB_OTG_HPTXFSIZ_PTXFD) | 0xE0U);
1682:Drivers/STM32F7xx_HAL_Driver/Src/stm32f7xx_ll_usb.c ****   }
1683:Drivers/STM32F7xx_HAL_Driver/Src/stm32f7xx_ll_usb.c **** 
1684:Drivers/STM32F7xx_HAL_Driver/Src/stm32f7xx_ll_usb.c ****   /* Enable the common interrupts */
1685:Drivers/STM32F7xx_HAL_Driver/Src/stm32f7xx_ll_usb.c ****   if (cfg.dma_enable == 0U)
 4079              		.loc 1 1685 3 is_stmt 1 view .LVU1396
 4080              		.loc 1 1685 10 is_stmt 0 view .LVU1397
 4081 00aa 089B     		ldr	r3, [sp, #32]
 4082              		.loc 1 1685 6 view .LVU1398
 4083 00ac 1BB9     		cbnz	r3, .L269
1686:Drivers/STM32F7xx_HAL_Driver/Src/stm32f7xx_ll_usb.c ****   {
1687:Drivers/STM32F7xx_HAL_Driver/Src/stm32f7xx_ll_usb.c ****     USBx->GINTMSK |= USB_OTG_GINTMSK_RXFLVLM;
 4084              		.loc 1 1687 5 is_stmt 1 view .LVU1399
 4085              		.loc 1 1687 9 is_stmt 0 view .LVU1400
 4086 00ae A369     		ldr	r3, [r4, #24]
 4087              		.loc 1 1687 19 view .LVU1401
 4088 00b0 43F01003 		orr	r3, r3, #16
 4089 00b4 A361     		str	r3, [r4, #24]
 4090              	.L269:
1688:Drivers/STM32F7xx_HAL_Driver/Src/stm32f7xx_ll_usb.c ****   }
1689:Drivers/STM32F7xx_HAL_Driver/Src/stm32f7xx_ll_usb.c **** 
1690:Drivers/STM32F7xx_HAL_Driver/Src/stm32f7xx_ll_usb.c ****   /* Enable interrupts matching to the Host mode ONLY */
1691:Drivers/STM32F7xx_HAL_Driver/Src/stm32f7xx_ll_usb.c ****   USBx->GINTMSK |= (USB_OTG_GINTMSK_PRTIM            | USB_OTG_GINTMSK_HCIM | \
 4091              		.loc 1 1691 3 is_stmt 1 view .LVU1402
 4092              		.loc 1 1691 7 is_stmt 0 view .LVU1403
 4093 00b6 A269     		ldr	r2, [r4, #24]
 4094              	.LVL311:
 4095              		.loc 1 1691 17 view .LVU1404
 4096 00b8 094B     		ldr	r3, .L274+4
 4097 00ba 1343     		orrs	r3, r3, r2
 4098 00bc A361     		str	r3, [r4, #24]
1692:Drivers/STM32F7xx_HAL_Driver/Src/stm32f7xx_ll_usb.c ****                     USB_OTG_GINTMSK_SOFM             | USB_OTG_GINTSTS_DISCINT | \
1693:Drivers/STM32F7xx_HAL_Driver/Src/stm32f7xx_ll_usb.c ****                     USB_OTG_GINTMSK_PXFRM_IISOOXFRM  | USB_OTG_GINTMSK_WUIM);
1694:Drivers/STM32F7xx_HAL_Driver/Src/stm32f7xx_ll_usb.c **** 
1695:Drivers/STM32F7xx_HAL_Driver/Src/stm32f7xx_ll_usb.c ****   return ret;
 4099              		.loc 1 1695 3 is_stmt 1 view .LVU1405
1696:Drivers/STM32F7xx_HAL_Driver/Src/stm32f7xx_ll_usb.c **** }
 4100              		.loc 1 1696 1 is_stmt 0 view .LVU1406
 4101 00be 2846     		mov	r0, r5
 4102 00c0 BDE83840 		pop	{r3, r4, r5, lr}
 4103              		.cfi_remember_state
 4104              		.cfi_restore 14
 4105              		.cfi_restore 5
 4106              		.cfi_restore 4
 4107              		.cfi_restore 3
 4108              		.cfi_def_cfa_offset 16
 4109              	.LVL312:
 4110              		.loc 1 1696 1 view .LVU1407
 4111 00c4 04B0     		add	sp, sp, #16
 4112              		.cfi_def_cfa_offset 0
 4113 00c6 7047     		bx	lr
ARM GAS  /tmp/cc8ZLjKA.s 			page 124


 4114              	.LVL313:
 4115              	.L267:
 4116              		.cfi_restore_state
1679:Drivers/STM32F7xx_HAL_Driver/Src/stm32f7xx_ll_usb.c ****     USBx->DIEPTXF0_HNPTXFSIZ = (uint32_t)(((0x60U << 16) & USB_OTG_NPTXFD) | 0x80U);
 4117              		.loc 1 1679 5 is_stmt 1 view .LVU1408
1679:Drivers/STM32F7xx_HAL_Driver/Src/stm32f7xx_ll_usb.c ****     USBx->DIEPTXF0_HNPTXFSIZ = (uint32_t)(((0x60U << 16) & USB_OTG_NPTXFD) | 0x80U);
 4118              		.loc 1 1679 20 is_stmt 0 view .LVU1409
 4119 00c8 8023     		movs	r3, #128
 4120 00ca 6362     		str	r3, [r4, #36]
1680:Drivers/STM32F7xx_HAL_Driver/Src/stm32f7xx_ll_usb.c ****     USBx->HPTXFSIZ = (uint32_t)(((0x40U << 16)& USB_OTG_HPTXFSIZ_PTXFD) | 0xE0U);
 4121              		.loc 1 1680 5 is_stmt 1 view .LVU1410
1680:Drivers/STM32F7xx_HAL_Driver/Src/stm32f7xx_ll_usb.c ****     USBx->HPTXFSIZ = (uint32_t)(((0x40U << 16)& USB_OTG_HPTXFSIZ_PTXFD) | 0xE0U);
 4122              		.loc 1 1680 30 is_stmt 0 view .LVU1411
 4123 00cc 03F5C003 		add	r3, r3, #6291456
 4124 00d0 A362     		str	r3, [r4, #40]
1681:Drivers/STM32F7xx_HAL_Driver/Src/stm32f7xx_ll_usb.c ****   }
 4125              		.loc 1 1681 5 is_stmt 1 view .LVU1412
1681:Drivers/STM32F7xx_HAL_Driver/Src/stm32f7xx_ll_usb.c ****   }
 4126              		.loc 1 1681 20 is_stmt 0 view .LVU1413
 4127 00d2 044B     		ldr	r3, .L274+8
 4128 00d4 C4F80031 		str	r3, [r4, #256]
 4129 00d8 E7E7     		b	.L268
 4130              	.L275:
 4131 00da 00BF     		.align	2
 4132              	.L274:
 4133 00dc 0003E000 		.word	14680832
 4134 00e0 080020A3 		.word	-1558183928
 4135 00e4 E0004000 		.word	4194528
 4136              		.cfi_endproc
 4137              	.LFE178:
 4139              		.section	.text.USB_InitFSLSPClkSel,"ax",%progbits
 4140              		.align	1
 4141              		.global	USB_InitFSLSPClkSel
 4142              		.syntax unified
 4143              		.thumb
 4144              		.thumb_func
 4146              	USB_InitFSLSPClkSel:
 4147              	.LVL314:
 4148              	.LFB179:
1697:Drivers/STM32F7xx_HAL_Driver/Src/stm32f7xx_ll_usb.c **** 
1698:Drivers/STM32F7xx_HAL_Driver/Src/stm32f7xx_ll_usb.c **** /**
1699:Drivers/STM32F7xx_HAL_Driver/Src/stm32f7xx_ll_usb.c ****   * @brief  USB_InitFSLSPClkSel : Initializes the FSLSPClkSel field of the
1700:Drivers/STM32F7xx_HAL_Driver/Src/stm32f7xx_ll_usb.c ****   *         HCFG register on the PHY type and set the right frame interval
1701:Drivers/STM32F7xx_HAL_Driver/Src/stm32f7xx_ll_usb.c ****   * @param  USBx  Selected device
1702:Drivers/STM32F7xx_HAL_Driver/Src/stm32f7xx_ll_usb.c ****   * @param  freq  clock frequency
1703:Drivers/STM32F7xx_HAL_Driver/Src/stm32f7xx_ll_usb.c ****   *          This parameter can be one of these values:
1704:Drivers/STM32F7xx_HAL_Driver/Src/stm32f7xx_ll_usb.c ****   *           HCFG_48_MHZ : Full Speed 48 MHz Clock
1705:Drivers/STM32F7xx_HAL_Driver/Src/stm32f7xx_ll_usb.c ****   *           HCFG_6_MHZ : Low Speed 6 MHz Clock
1706:Drivers/STM32F7xx_HAL_Driver/Src/stm32f7xx_ll_usb.c ****   * @retval HAL status
1707:Drivers/STM32F7xx_HAL_Driver/Src/stm32f7xx_ll_usb.c ****   */
1708:Drivers/STM32F7xx_HAL_Driver/Src/stm32f7xx_ll_usb.c **** HAL_StatusTypeDef USB_InitFSLSPClkSel(USB_OTG_GlobalTypeDef *USBx, uint8_t freq)
1709:Drivers/STM32F7xx_HAL_Driver/Src/stm32f7xx_ll_usb.c **** {
 4149              		.loc 1 1709 1 is_stmt 1 view -0
 4150              		.cfi_startproc
 4151              		@ args = 0, pretend = 0, frame = 0
 4152              		@ frame_needed = 0, uses_anonymous_args = 0
 4153              		@ link register save eliminated.
ARM GAS  /tmp/cc8ZLjKA.s 			page 125


1710:Drivers/STM32F7xx_HAL_Driver/Src/stm32f7xx_ll_usb.c ****   uint32_t USBx_BASE = (uint32_t)USBx;
 4154              		.loc 1 1710 3 view .LVU1415
1711:Drivers/STM32F7xx_HAL_Driver/Src/stm32f7xx_ll_usb.c **** 
1712:Drivers/STM32F7xx_HAL_Driver/Src/stm32f7xx_ll_usb.c ****   USBx_HOST->HCFG &= ~(USB_OTG_HCFG_FSLSPCS);
 4155              		.loc 1 1712 3 view .LVU1416
 4156              		.loc 1 1712 12 is_stmt 0 view .LVU1417
 4157 0000 00F5806C 		add	ip, r0, #1024
 4158 0004 D0F80034 		ldr	r3, [r0, #1024]
 4159              		.loc 1 1712 19 view .LVU1418
 4160 0008 23F00303 		bic	r3, r3, #3
 4161 000c C0F80034 		str	r3, [r0, #1024]
1713:Drivers/STM32F7xx_HAL_Driver/Src/stm32f7xx_ll_usb.c ****   USBx_HOST->HCFG |= (uint32_t)freq & USB_OTG_HCFG_FSLSPCS;
 4162              		.loc 1 1713 3 is_stmt 1 view .LVU1419
 4163              		.loc 1 1713 12 is_stmt 0 view .LVU1420
 4164 0010 D0F80034 		ldr	r3, [r0, #1024]
 4165              		.loc 1 1713 37 view .LVU1421
 4166 0014 01F00302 		and	r2, r1, #3
 4167              		.loc 1 1713 19 view .LVU1422
 4168 0018 1343     		orrs	r3, r3, r2
 4169 001a C0F80034 		str	r3, [r0, #1024]
1714:Drivers/STM32F7xx_HAL_Driver/Src/stm32f7xx_ll_usb.c **** 
1715:Drivers/STM32F7xx_HAL_Driver/Src/stm32f7xx_ll_usb.c ****   if (freq == HCFG_48_MHZ)
 4170              		.loc 1 1715 3 is_stmt 1 view .LVU1423
 4171              		.loc 1 1715 6 is_stmt 0 view .LVU1424
 4172 001e 0129     		cmp	r1, #1
 4173 0020 03D0     		beq	.L279
1716:Drivers/STM32F7xx_HAL_Driver/Src/stm32f7xx_ll_usb.c ****   {
1717:Drivers/STM32F7xx_HAL_Driver/Src/stm32f7xx_ll_usb.c ****     USBx_HOST->HFIR = 48000U;
1718:Drivers/STM32F7xx_HAL_Driver/Src/stm32f7xx_ll_usb.c ****   }
1719:Drivers/STM32F7xx_HAL_Driver/Src/stm32f7xx_ll_usb.c ****   else if (freq == HCFG_6_MHZ)
 4174              		.loc 1 1719 8 is_stmt 1 view .LVU1425
 4175              		.loc 1 1719 11 is_stmt 0 view .LVU1426
 4176 0022 0229     		cmp	r1, #2
 4177 0024 06D0     		beq	.L280
 4178              	.L278:
1720:Drivers/STM32F7xx_HAL_Driver/Src/stm32f7xx_ll_usb.c ****   {
1721:Drivers/STM32F7xx_HAL_Driver/Src/stm32f7xx_ll_usb.c ****     USBx_HOST->HFIR = 6000U;
1722:Drivers/STM32F7xx_HAL_Driver/Src/stm32f7xx_ll_usb.c ****   }
1723:Drivers/STM32F7xx_HAL_Driver/Src/stm32f7xx_ll_usb.c ****   else
1724:Drivers/STM32F7xx_HAL_Driver/Src/stm32f7xx_ll_usb.c ****   {
1725:Drivers/STM32F7xx_HAL_Driver/Src/stm32f7xx_ll_usb.c ****     /* ... */
1726:Drivers/STM32F7xx_HAL_Driver/Src/stm32f7xx_ll_usb.c ****   }
 4179              		.loc 1 1726 3 is_stmt 1 view .LVU1427
1727:Drivers/STM32F7xx_HAL_Driver/Src/stm32f7xx_ll_usb.c **** 
1728:Drivers/STM32F7xx_HAL_Driver/Src/stm32f7xx_ll_usb.c ****   return HAL_OK;
 4180              		.loc 1 1728 3 view .LVU1428
1729:Drivers/STM32F7xx_HAL_Driver/Src/stm32f7xx_ll_usb.c **** }
 4181              		.loc 1 1729 1 is_stmt 0 view .LVU1429
 4182 0026 0020     		movs	r0, #0
 4183              	.LVL315:
 4184              		.loc 1 1729 1 view .LVU1430
 4185 0028 7047     		bx	lr
 4186              	.LVL316:
 4187              	.L279:
1717:Drivers/STM32F7xx_HAL_Driver/Src/stm32f7xx_ll_usb.c ****   }
 4188              		.loc 1 1717 5 is_stmt 1 view .LVU1431
1717:Drivers/STM32F7xx_HAL_Driver/Src/stm32f7xx_ll_usb.c ****   }
ARM GAS  /tmp/cc8ZLjKA.s 			page 126


 4189              		.loc 1 1717 21 is_stmt 0 view .LVU1432
 4190 002a 4BF68033 		movw	r3, #48000
 4191 002e CCF80430 		str	r3, [ip, #4]
 4192 0032 F8E7     		b	.L278
 4193              	.L280:
1721:Drivers/STM32F7xx_HAL_Driver/Src/stm32f7xx_ll_usb.c ****   }
 4194              		.loc 1 1721 5 is_stmt 1 view .LVU1433
1721:Drivers/STM32F7xx_HAL_Driver/Src/stm32f7xx_ll_usb.c ****   }
 4195              		.loc 1 1721 21 is_stmt 0 view .LVU1434
 4196 0034 41F27073 		movw	r3, #6000
 4197 0038 CCF80430 		str	r3, [ip, #4]
 4198 003c F3E7     		b	.L278
 4199              		.cfi_endproc
 4200              	.LFE179:
 4202              		.section	.text.USB_ResetPort,"ax",%progbits
 4203              		.align	1
 4204              		.global	USB_ResetPort
 4205              		.syntax unified
 4206              		.thumb
 4207              		.thumb_func
 4209              	USB_ResetPort:
 4210              	.LVL317:
 4211              	.LFB180:
1730:Drivers/STM32F7xx_HAL_Driver/Src/stm32f7xx_ll_usb.c **** 
1731:Drivers/STM32F7xx_HAL_Driver/Src/stm32f7xx_ll_usb.c **** /**
1732:Drivers/STM32F7xx_HAL_Driver/Src/stm32f7xx_ll_usb.c ****   * @brief  USB_OTG_ResetPort : Reset Host Port
1733:Drivers/STM32F7xx_HAL_Driver/Src/stm32f7xx_ll_usb.c ****   * @param  USBx  Selected device
1734:Drivers/STM32F7xx_HAL_Driver/Src/stm32f7xx_ll_usb.c ****   * @retval HAL status
1735:Drivers/STM32F7xx_HAL_Driver/Src/stm32f7xx_ll_usb.c ****   * @note (1)The application must wait at least 10 ms
1736:Drivers/STM32F7xx_HAL_Driver/Src/stm32f7xx_ll_usb.c ****   *   before clearing the reset bit.
1737:Drivers/STM32F7xx_HAL_Driver/Src/stm32f7xx_ll_usb.c ****   */
1738:Drivers/STM32F7xx_HAL_Driver/Src/stm32f7xx_ll_usb.c **** HAL_StatusTypeDef USB_ResetPort(USB_OTG_GlobalTypeDef *USBx)
1739:Drivers/STM32F7xx_HAL_Driver/Src/stm32f7xx_ll_usb.c **** {
 4212              		.loc 1 1739 1 is_stmt 1 view -0
 4213              		.cfi_startproc
 4214              		@ args = 0, pretend = 0, frame = 8
 4215              		@ frame_needed = 0, uses_anonymous_args = 0
 4216              		.loc 1 1739 1 is_stmt 0 view .LVU1436
 4217 0000 30B5     		push	{r4, r5, lr}
 4218              		.cfi_def_cfa_offset 12
 4219              		.cfi_offset 4, -12
 4220              		.cfi_offset 5, -8
 4221              		.cfi_offset 14, -4
 4222 0002 83B0     		sub	sp, sp, #12
 4223              		.cfi_def_cfa_offset 24
 4224 0004 0446     		mov	r4, r0
1740:Drivers/STM32F7xx_HAL_Driver/Src/stm32f7xx_ll_usb.c ****   uint32_t USBx_BASE = (uint32_t)USBx;
 4225              		.loc 1 1740 3 is_stmt 1 view .LVU1437
 4226              	.LVL318:
1741:Drivers/STM32F7xx_HAL_Driver/Src/stm32f7xx_ll_usb.c **** 
1742:Drivers/STM32F7xx_HAL_Driver/Src/stm32f7xx_ll_usb.c ****   __IO uint32_t hprt0 = 0U;
 4227              		.loc 1 1742 3 view .LVU1438
 4228              		.loc 1 1742 17 is_stmt 0 view .LVU1439
 4229 0006 0025     		movs	r5, #0
 4230 0008 0195     		str	r5, [sp, #4]
1743:Drivers/STM32F7xx_HAL_Driver/Src/stm32f7xx_ll_usb.c **** 
1744:Drivers/STM32F7xx_HAL_Driver/Src/stm32f7xx_ll_usb.c ****   hprt0 = USBx_HPRT0;
ARM GAS  /tmp/cc8ZLjKA.s 			page 127


 4231              		.loc 1 1744 3 is_stmt 1 view .LVU1440
 4232              		.loc 1 1744 11 is_stmt 0 view .LVU1441
 4233 000a D0F84034 		ldr	r3, [r0, #1088]
 4234              		.loc 1 1744 9 view .LVU1442
 4235 000e 0193     		str	r3, [sp, #4]
1745:Drivers/STM32F7xx_HAL_Driver/Src/stm32f7xx_ll_usb.c **** 
1746:Drivers/STM32F7xx_HAL_Driver/Src/stm32f7xx_ll_usb.c ****   hprt0 &= ~(USB_OTG_HPRT_PENA | USB_OTG_HPRT_PCDET |
 4236              		.loc 1 1746 3 is_stmt 1 view .LVU1443
 4237              		.loc 1 1746 9 is_stmt 0 view .LVU1444
 4238 0010 019B     		ldr	r3, [sp, #4]
 4239 0012 23F02E03 		bic	r3, r3, #46
 4240 0016 0193     		str	r3, [sp, #4]
1747:Drivers/STM32F7xx_HAL_Driver/Src/stm32f7xx_ll_usb.c ****              USB_OTG_HPRT_PENCHNG | USB_OTG_HPRT_POCCHNG);
1748:Drivers/STM32F7xx_HAL_Driver/Src/stm32f7xx_ll_usb.c **** 
1749:Drivers/STM32F7xx_HAL_Driver/Src/stm32f7xx_ll_usb.c ****   USBx_HPRT0 = (USB_OTG_HPRT_PRST | hprt0);
 4241              		.loc 1 1749 3 is_stmt 1 view .LVU1445
 4242              		.loc 1 1749 35 is_stmt 0 view .LVU1446
 4243 0018 019B     		ldr	r3, [sp, #4]
 4244 001a 43F48073 		orr	r3, r3, #256
 4245              		.loc 1 1749 14 view .LVU1447
 4246 001e C0F84034 		str	r3, [r0, #1088]
1750:Drivers/STM32F7xx_HAL_Driver/Src/stm32f7xx_ll_usb.c ****   HAL_Delay(100U);                                 /* See Note #1 */
 4247              		.loc 1 1750 3 is_stmt 1 view .LVU1448
 4248 0022 6420     		movs	r0, #100
 4249              	.LVL319:
 4250              		.loc 1 1750 3 is_stmt 0 view .LVU1449
 4251 0024 FFF7FEFF 		bl	HAL_Delay
 4252              	.LVL320:
1751:Drivers/STM32F7xx_HAL_Driver/Src/stm32f7xx_ll_usb.c ****   USBx_HPRT0 = ((~USB_OTG_HPRT_PRST) & hprt0);
 4253              		.loc 1 1751 3 is_stmt 1 view .LVU1450
 4254              		.loc 1 1751 38 is_stmt 0 view .LVU1451
 4255 0028 019B     		ldr	r3, [sp, #4]
 4256 002a 23F48073 		bic	r3, r3, #256
 4257              		.loc 1 1751 14 view .LVU1452
 4258 002e C4F84034 		str	r3, [r4, #1088]
1752:Drivers/STM32F7xx_HAL_Driver/Src/stm32f7xx_ll_usb.c ****   HAL_Delay(10U);
 4259              		.loc 1 1752 3 is_stmt 1 view .LVU1453
 4260 0032 0A20     		movs	r0, #10
 4261 0034 FFF7FEFF 		bl	HAL_Delay
 4262              	.LVL321:
1753:Drivers/STM32F7xx_HAL_Driver/Src/stm32f7xx_ll_usb.c **** 
1754:Drivers/STM32F7xx_HAL_Driver/Src/stm32f7xx_ll_usb.c ****   return HAL_OK;
 4263              		.loc 1 1754 3 view .LVU1454
1755:Drivers/STM32F7xx_HAL_Driver/Src/stm32f7xx_ll_usb.c **** }
 4264              		.loc 1 1755 1 is_stmt 0 view .LVU1455
 4265 0038 2846     		mov	r0, r5
 4266 003a 03B0     		add	sp, sp, #12
 4267              		.cfi_def_cfa_offset 12
 4268              		@ sp needed
 4269 003c 30BD     		pop	{r4, r5, pc}
 4270              		.loc 1 1755 1 view .LVU1456
 4271              		.cfi_endproc
 4272              	.LFE180:
 4274              		.section	.text.USB_DriveVbus,"ax",%progbits
 4275              		.align	1
 4276              		.global	USB_DriveVbus
 4277              		.syntax unified
ARM GAS  /tmp/cc8ZLjKA.s 			page 128


 4278              		.thumb
 4279              		.thumb_func
 4281              	USB_DriveVbus:
 4282              	.LVL322:
 4283              	.LFB181:
1756:Drivers/STM32F7xx_HAL_Driver/Src/stm32f7xx_ll_usb.c **** 
1757:Drivers/STM32F7xx_HAL_Driver/Src/stm32f7xx_ll_usb.c **** /**
1758:Drivers/STM32F7xx_HAL_Driver/Src/stm32f7xx_ll_usb.c ****   * @brief  USB_DriveVbus : activate or de-activate vbus
1759:Drivers/STM32F7xx_HAL_Driver/Src/stm32f7xx_ll_usb.c ****   * @param  state  VBUS state
1760:Drivers/STM32F7xx_HAL_Driver/Src/stm32f7xx_ll_usb.c ****   *          This parameter can be one of these values:
1761:Drivers/STM32F7xx_HAL_Driver/Src/stm32f7xx_ll_usb.c ****   *           0 : Deactivate VBUS
1762:Drivers/STM32F7xx_HAL_Driver/Src/stm32f7xx_ll_usb.c ****   *           1 : Activate VBUS
1763:Drivers/STM32F7xx_HAL_Driver/Src/stm32f7xx_ll_usb.c ****   * @retval HAL status
1764:Drivers/STM32F7xx_HAL_Driver/Src/stm32f7xx_ll_usb.c ****   */
1765:Drivers/STM32F7xx_HAL_Driver/Src/stm32f7xx_ll_usb.c **** HAL_StatusTypeDef USB_DriveVbus(USB_OTG_GlobalTypeDef *USBx, uint8_t state)
1766:Drivers/STM32F7xx_HAL_Driver/Src/stm32f7xx_ll_usb.c **** {
 4284              		.loc 1 1766 1 is_stmt 1 view -0
 4285              		.cfi_startproc
 4286              		@ args = 0, pretend = 0, frame = 8
 4287              		@ frame_needed = 0, uses_anonymous_args = 0
 4288              		@ link register save eliminated.
 4289              		.loc 1 1766 1 is_stmt 0 view .LVU1458
 4290 0000 82B0     		sub	sp, sp, #8
 4291              		.cfi_def_cfa_offset 8
1767:Drivers/STM32F7xx_HAL_Driver/Src/stm32f7xx_ll_usb.c ****   uint32_t USBx_BASE = (uint32_t)USBx;
 4292              		.loc 1 1767 3 is_stmt 1 view .LVU1459
 4293              	.LVL323:
1768:Drivers/STM32F7xx_HAL_Driver/Src/stm32f7xx_ll_usb.c ****   __IO uint32_t hprt0 = 0U;
 4294              		.loc 1 1768 3 view .LVU1460
 4295              		.loc 1 1768 17 is_stmt 0 view .LVU1461
 4296 0002 0023     		movs	r3, #0
 4297 0004 0193     		str	r3, [sp, #4]
1769:Drivers/STM32F7xx_HAL_Driver/Src/stm32f7xx_ll_usb.c **** 
1770:Drivers/STM32F7xx_HAL_Driver/Src/stm32f7xx_ll_usb.c ****   hprt0 = USBx_HPRT0;
 4298              		.loc 1 1770 3 is_stmt 1 view .LVU1462
 4299              		.loc 1 1770 11 is_stmt 0 view .LVU1463
 4300 0006 D0F84034 		ldr	r3, [r0, #1088]
 4301              		.loc 1 1770 9 view .LVU1464
 4302 000a 0193     		str	r3, [sp, #4]
1771:Drivers/STM32F7xx_HAL_Driver/Src/stm32f7xx_ll_usb.c **** 
1772:Drivers/STM32F7xx_HAL_Driver/Src/stm32f7xx_ll_usb.c ****   hprt0 &= ~(USB_OTG_HPRT_PENA | USB_OTG_HPRT_PCDET |
 4303              		.loc 1 1772 3 is_stmt 1 view .LVU1465
 4304              		.loc 1 1772 9 is_stmt 0 view .LVU1466
 4305 000c 019B     		ldr	r3, [sp, #4]
 4306 000e 23F02E03 		bic	r3, r3, #46
 4307 0012 0193     		str	r3, [sp, #4]
1773:Drivers/STM32F7xx_HAL_Driver/Src/stm32f7xx_ll_usb.c ****              USB_OTG_HPRT_PENCHNG | USB_OTG_HPRT_POCCHNG);
1774:Drivers/STM32F7xx_HAL_Driver/Src/stm32f7xx_ll_usb.c **** 
1775:Drivers/STM32F7xx_HAL_Driver/Src/stm32f7xx_ll_usb.c ****   if (((hprt0 & USB_OTG_HPRT_PPWR) == 0U) && (state == 1U))
 4308              		.loc 1 1775 3 is_stmt 1 view .LVU1467
 4309              		.loc 1 1775 15 is_stmt 0 view .LVU1468
 4310 0014 019B     		ldr	r3, [sp, #4]
 4311              		.loc 1 1775 6 view .LVU1469
 4312 0016 13F4805F 		tst	r3, #4096
 4313 001a 01D1     		bne	.L284
 4314              		.loc 1 1775 43 discriminator 1 view .LVU1470
 4315 001c 0129     		cmp	r1, #1
ARM GAS  /tmp/cc8ZLjKA.s 			page 129


 4316 001e 0CD0     		beq	.L287
 4317              	.L284:
1776:Drivers/STM32F7xx_HAL_Driver/Src/stm32f7xx_ll_usb.c ****   {
1777:Drivers/STM32F7xx_HAL_Driver/Src/stm32f7xx_ll_usb.c ****     USBx_HPRT0 = (USB_OTG_HPRT_PPWR | hprt0);
1778:Drivers/STM32F7xx_HAL_Driver/Src/stm32f7xx_ll_usb.c ****   }
1779:Drivers/STM32F7xx_HAL_Driver/Src/stm32f7xx_ll_usb.c ****   if (((hprt0 & USB_OTG_HPRT_PPWR) == USB_OTG_HPRT_PPWR) && (state == 0U))
 4318              		.loc 1 1779 3 is_stmt 1 view .LVU1471
 4319              		.loc 1 1779 15 is_stmt 0 view .LVU1472
 4320 0020 019B     		ldr	r3, [sp, #4]
 4321              		.loc 1 1779 6 view .LVU1473
 4322 0022 13F4805F 		tst	r3, #4096
 4323 0026 05D0     		beq	.L285
 4324              		.loc 1 1779 58 discriminator 1 view .LVU1474
 4325 0028 21B9     		cbnz	r1, .L285
1780:Drivers/STM32F7xx_HAL_Driver/Src/stm32f7xx_ll_usb.c ****   {
1781:Drivers/STM32F7xx_HAL_Driver/Src/stm32f7xx_ll_usb.c ****     USBx_HPRT0 = ((~USB_OTG_HPRT_PPWR) & hprt0);
 4326              		.loc 1 1781 5 is_stmt 1 view .LVU1475
 4327              		.loc 1 1781 40 is_stmt 0 view .LVU1476
 4328 002a 019B     		ldr	r3, [sp, #4]
 4329 002c 23F48053 		bic	r3, r3, #4096
 4330              		.loc 1 1781 16 view .LVU1477
 4331 0030 C0F84034 		str	r3, [r0, #1088]
 4332              	.L285:
1782:Drivers/STM32F7xx_HAL_Driver/Src/stm32f7xx_ll_usb.c ****   }
1783:Drivers/STM32F7xx_HAL_Driver/Src/stm32f7xx_ll_usb.c ****   return HAL_OK;
 4333              		.loc 1 1783 3 is_stmt 1 view .LVU1478
1784:Drivers/STM32F7xx_HAL_Driver/Src/stm32f7xx_ll_usb.c **** }
 4334              		.loc 1 1784 1 is_stmt 0 view .LVU1479
 4335 0034 0020     		movs	r0, #0
 4336              	.LVL324:
 4337              		.loc 1 1784 1 view .LVU1480
 4338 0036 02B0     		add	sp, sp, #8
 4339              		.cfi_remember_state
 4340              		.cfi_def_cfa_offset 0
 4341              		@ sp needed
 4342 0038 7047     		bx	lr
 4343              	.LVL325:
 4344              	.L287:
 4345              		.cfi_restore_state
1777:Drivers/STM32F7xx_HAL_Driver/Src/stm32f7xx_ll_usb.c ****   }
 4346              		.loc 1 1777 5 is_stmt 1 view .LVU1481
1777:Drivers/STM32F7xx_HAL_Driver/Src/stm32f7xx_ll_usb.c ****   }
 4347              		.loc 1 1777 37 is_stmt 0 view .LVU1482
 4348 003a 019B     		ldr	r3, [sp, #4]
 4349 003c 43F48053 		orr	r3, r3, #4096
1777:Drivers/STM32F7xx_HAL_Driver/Src/stm32f7xx_ll_usb.c ****   }
 4350              		.loc 1 1777 16 view .LVU1483
 4351 0040 C0F84034 		str	r3, [r0, #1088]
 4352 0044 ECE7     		b	.L284
 4353              		.cfi_endproc
 4354              	.LFE181:
 4356              		.section	.text.USB_GetHostSpeed,"ax",%progbits
 4357              		.align	1
 4358              		.global	USB_GetHostSpeed
 4359              		.syntax unified
 4360              		.thumb
 4361              		.thumb_func
ARM GAS  /tmp/cc8ZLjKA.s 			page 130


 4363              	USB_GetHostSpeed:
 4364              	.LVL326:
 4365              	.LFB182:
1785:Drivers/STM32F7xx_HAL_Driver/Src/stm32f7xx_ll_usb.c **** 
1786:Drivers/STM32F7xx_HAL_Driver/Src/stm32f7xx_ll_usb.c **** /**
1787:Drivers/STM32F7xx_HAL_Driver/Src/stm32f7xx_ll_usb.c ****   * @brief  Return Host Core speed
1788:Drivers/STM32F7xx_HAL_Driver/Src/stm32f7xx_ll_usb.c ****   * @param  USBx  Selected device
1789:Drivers/STM32F7xx_HAL_Driver/Src/stm32f7xx_ll_usb.c ****   * @retval speed : Host speed
1790:Drivers/STM32F7xx_HAL_Driver/Src/stm32f7xx_ll_usb.c ****   *          This parameter can be one of these values:
1791:Drivers/STM32F7xx_HAL_Driver/Src/stm32f7xx_ll_usb.c ****   *            @arg HCD_SPEED_HIGH: High speed mode
1792:Drivers/STM32F7xx_HAL_Driver/Src/stm32f7xx_ll_usb.c ****   *            @arg HCD_SPEED_FULL: Full speed mode
1793:Drivers/STM32F7xx_HAL_Driver/Src/stm32f7xx_ll_usb.c ****   *            @arg HCD_SPEED_LOW: Low speed mode
1794:Drivers/STM32F7xx_HAL_Driver/Src/stm32f7xx_ll_usb.c ****   */
1795:Drivers/STM32F7xx_HAL_Driver/Src/stm32f7xx_ll_usb.c **** uint32_t USB_GetHostSpeed(USB_OTG_GlobalTypeDef *USBx)
1796:Drivers/STM32F7xx_HAL_Driver/Src/stm32f7xx_ll_usb.c **** {
 4366              		.loc 1 1796 1 is_stmt 1 view -0
 4367              		.cfi_startproc
 4368              		@ args = 0, pretend = 0, frame = 8
 4369              		@ frame_needed = 0, uses_anonymous_args = 0
 4370              		@ link register save eliminated.
 4371              		.loc 1 1796 1 is_stmt 0 view .LVU1485
 4372 0000 82B0     		sub	sp, sp, #8
 4373              		.cfi_def_cfa_offset 8
1797:Drivers/STM32F7xx_HAL_Driver/Src/stm32f7xx_ll_usb.c ****   uint32_t USBx_BASE = (uint32_t)USBx;
 4374              		.loc 1 1797 3 is_stmt 1 view .LVU1486
 4375              	.LVL327:
1798:Drivers/STM32F7xx_HAL_Driver/Src/stm32f7xx_ll_usb.c ****   __IO uint32_t hprt0 = 0U;
 4376              		.loc 1 1798 3 view .LVU1487
 4377              		.loc 1 1798 17 is_stmt 0 view .LVU1488
 4378 0002 0023     		movs	r3, #0
 4379 0004 0193     		str	r3, [sp, #4]
1799:Drivers/STM32F7xx_HAL_Driver/Src/stm32f7xx_ll_usb.c **** 
1800:Drivers/STM32F7xx_HAL_Driver/Src/stm32f7xx_ll_usb.c ****   hprt0 = USBx_HPRT0;
 4380              		.loc 1 1800 3 is_stmt 1 view .LVU1489
 4381              		.loc 1 1800 11 is_stmt 0 view .LVU1490
 4382 0006 D0F84034 		ldr	r3, [r0, #1088]
 4383              		.loc 1 1800 9 view .LVU1491
 4384 000a 0193     		str	r3, [sp, #4]
1801:Drivers/STM32F7xx_HAL_Driver/Src/stm32f7xx_ll_usb.c ****   return ((hprt0 & USB_OTG_HPRT_PSPD) >> 17);
 4385              		.loc 1 1801 3 is_stmt 1 view .LVU1492
 4386              		.loc 1 1801 39 is_stmt 0 view .LVU1493
 4387 000c 0198     		ldr	r0, [sp, #4]
 4388              	.LVL328:
1802:Drivers/STM32F7xx_HAL_Driver/Src/stm32f7xx_ll_usb.c **** }
 4389              		.loc 1 1802 1 view .LVU1494
 4390 000e C0F34140 		ubfx	r0, r0, #17, #2
 4391 0012 02B0     		add	sp, sp, #8
 4392              		.cfi_def_cfa_offset 0
 4393              		@ sp needed
 4394 0014 7047     		bx	lr
 4395              		.cfi_endproc
 4396              	.LFE182:
 4398              		.section	.text.USB_GetCurrentFrame,"ax",%progbits
 4399              		.align	1
 4400              		.global	USB_GetCurrentFrame
 4401              		.syntax unified
 4402              		.thumb
ARM GAS  /tmp/cc8ZLjKA.s 			page 131


 4403              		.thumb_func
 4405              	USB_GetCurrentFrame:
 4406              	.LVL329:
 4407              	.LFB183:
1803:Drivers/STM32F7xx_HAL_Driver/Src/stm32f7xx_ll_usb.c **** 
1804:Drivers/STM32F7xx_HAL_Driver/Src/stm32f7xx_ll_usb.c **** /**
1805:Drivers/STM32F7xx_HAL_Driver/Src/stm32f7xx_ll_usb.c ****   * @brief  Return Host Current Frame number
1806:Drivers/STM32F7xx_HAL_Driver/Src/stm32f7xx_ll_usb.c ****   * @param  USBx  Selected device
1807:Drivers/STM32F7xx_HAL_Driver/Src/stm32f7xx_ll_usb.c ****   * @retval current frame number
1808:Drivers/STM32F7xx_HAL_Driver/Src/stm32f7xx_ll_usb.c ****   */
1809:Drivers/STM32F7xx_HAL_Driver/Src/stm32f7xx_ll_usb.c **** uint32_t USB_GetCurrentFrame(USB_OTG_GlobalTypeDef *USBx)
1810:Drivers/STM32F7xx_HAL_Driver/Src/stm32f7xx_ll_usb.c **** {
 4408              		.loc 1 1810 1 is_stmt 1 view -0
 4409              		.cfi_startproc
 4410              		@ args = 0, pretend = 0, frame = 0
 4411              		@ frame_needed = 0, uses_anonymous_args = 0
 4412              		@ link register save eliminated.
1811:Drivers/STM32F7xx_HAL_Driver/Src/stm32f7xx_ll_usb.c ****   uint32_t USBx_BASE = (uint32_t)USBx;
 4413              		.loc 1 1811 3 view .LVU1496
1812:Drivers/STM32F7xx_HAL_Driver/Src/stm32f7xx_ll_usb.c **** 
1813:Drivers/STM32F7xx_HAL_Driver/Src/stm32f7xx_ll_usb.c ****   return (USBx_HOST->HFNUM & USB_OTG_HFNUM_FRNUM);
 4414              		.loc 1 1813 3 view .LVU1497
 4415              		.loc 1 1813 11 is_stmt 0 view .LVU1498
 4416 0000 00F58060 		add	r0, r0, #1024
 4417              	.LVL330:
 4418              		.loc 1 1813 20 view .LVU1499
 4419 0004 8068     		ldr	r0, [r0, #8]
 4420              	.LVL331:
1814:Drivers/STM32F7xx_HAL_Driver/Src/stm32f7xx_ll_usb.c **** }
 4421              		.loc 1 1814 1 view .LVU1500
 4422 0006 80B2     		uxth	r0, r0
 4423 0008 7047     		bx	lr
 4424              		.cfi_endproc
 4425              	.LFE183:
 4427              		.section	.text.USB_HC_Init,"ax",%progbits
 4428              		.align	1
 4429              		.global	USB_HC_Init
 4430              		.syntax unified
 4431              		.thumb
 4432              		.thumb_func
 4434              	USB_HC_Init:
 4435              	.LVL332:
 4436              	.LFB184:
1815:Drivers/STM32F7xx_HAL_Driver/Src/stm32f7xx_ll_usb.c **** 
1816:Drivers/STM32F7xx_HAL_Driver/Src/stm32f7xx_ll_usb.c **** /**
1817:Drivers/STM32F7xx_HAL_Driver/Src/stm32f7xx_ll_usb.c ****   * @brief  Initialize a host channel
1818:Drivers/STM32F7xx_HAL_Driver/Src/stm32f7xx_ll_usb.c ****   * @param  USBx  Selected device
1819:Drivers/STM32F7xx_HAL_Driver/Src/stm32f7xx_ll_usb.c ****   * @param  ch_num  Channel number
1820:Drivers/STM32F7xx_HAL_Driver/Src/stm32f7xx_ll_usb.c ****   *         This parameter can be a value from 1 to 15
1821:Drivers/STM32F7xx_HAL_Driver/Src/stm32f7xx_ll_usb.c ****   * @param  epnum  Endpoint number
1822:Drivers/STM32F7xx_HAL_Driver/Src/stm32f7xx_ll_usb.c ****   *          This parameter can be a value from 1 to 15
1823:Drivers/STM32F7xx_HAL_Driver/Src/stm32f7xx_ll_usb.c ****   * @param  dev_address  Current device address
1824:Drivers/STM32F7xx_HAL_Driver/Src/stm32f7xx_ll_usb.c ****   *          This parameter can be a value from 0 to 255
1825:Drivers/STM32F7xx_HAL_Driver/Src/stm32f7xx_ll_usb.c ****   * @param  speed  Current device speed
1826:Drivers/STM32F7xx_HAL_Driver/Src/stm32f7xx_ll_usb.c ****   *          This parameter can be one of these values:
1827:Drivers/STM32F7xx_HAL_Driver/Src/stm32f7xx_ll_usb.c ****   *            @arg USB_OTG_SPEED_HIGH: High speed mode
1828:Drivers/STM32F7xx_HAL_Driver/Src/stm32f7xx_ll_usb.c ****   *            @arg USB_OTG_SPEED_FULL: Full speed mode
ARM GAS  /tmp/cc8ZLjKA.s 			page 132


1829:Drivers/STM32F7xx_HAL_Driver/Src/stm32f7xx_ll_usb.c ****   *            @arg USB_OTG_SPEED_LOW: Low speed mode
1830:Drivers/STM32F7xx_HAL_Driver/Src/stm32f7xx_ll_usb.c ****   * @param  ep_type  Endpoint Type
1831:Drivers/STM32F7xx_HAL_Driver/Src/stm32f7xx_ll_usb.c ****   *          This parameter can be one of these values:
1832:Drivers/STM32F7xx_HAL_Driver/Src/stm32f7xx_ll_usb.c ****   *            @arg EP_TYPE_CTRL: Control type
1833:Drivers/STM32F7xx_HAL_Driver/Src/stm32f7xx_ll_usb.c ****   *            @arg EP_TYPE_ISOC: Isochronous type
1834:Drivers/STM32F7xx_HAL_Driver/Src/stm32f7xx_ll_usb.c ****   *            @arg EP_TYPE_BULK: Bulk type
1835:Drivers/STM32F7xx_HAL_Driver/Src/stm32f7xx_ll_usb.c ****   *            @arg EP_TYPE_INTR: Interrupt type
1836:Drivers/STM32F7xx_HAL_Driver/Src/stm32f7xx_ll_usb.c ****   * @param  mps  Max Packet Size
1837:Drivers/STM32F7xx_HAL_Driver/Src/stm32f7xx_ll_usb.c ****   *          This parameter can be a value from 0 to 32K
1838:Drivers/STM32F7xx_HAL_Driver/Src/stm32f7xx_ll_usb.c ****   * @retval HAL state
1839:Drivers/STM32F7xx_HAL_Driver/Src/stm32f7xx_ll_usb.c ****   */
1840:Drivers/STM32F7xx_HAL_Driver/Src/stm32f7xx_ll_usb.c **** HAL_StatusTypeDef USB_HC_Init(USB_OTG_GlobalTypeDef *USBx, uint8_t ch_num,
1841:Drivers/STM32F7xx_HAL_Driver/Src/stm32f7xx_ll_usb.c ****                               uint8_t epnum, uint8_t dev_address, uint8_t speed,
1842:Drivers/STM32F7xx_HAL_Driver/Src/stm32f7xx_ll_usb.c ****                               uint8_t ep_type, uint16_t mps)
1843:Drivers/STM32F7xx_HAL_Driver/Src/stm32f7xx_ll_usb.c **** {
 4437              		.loc 1 1843 1 is_stmt 1 view -0
 4438              		.cfi_startproc
 4439              		@ args = 12, pretend = 0, frame = 0
 4440              		@ frame_needed = 0, uses_anonymous_args = 0
 4441              		.loc 1 1843 1 is_stmt 0 view .LVU1502
 4442 0000 2DE9F843 		push	{r3, r4, r5, r6, r7, r8, r9, lr}
 4443              		.cfi_def_cfa_offset 32
 4444              		.cfi_offset 3, -32
 4445              		.cfi_offset 4, -28
 4446              		.cfi_offset 5, -24
 4447              		.cfi_offset 6, -20
 4448              		.cfi_offset 7, -16
 4449              		.cfi_offset 8, -12
 4450              		.cfi_offset 9, -8
 4451              		.cfi_offset 14, -4
 4452 0004 9146     		mov	r9, r2
 4453 0006 1C46     		mov	r4, r3
 4454 0008 9DF82450 		ldrb	r5, [sp, #36]	@ zero_extendqisi2
1844:Drivers/STM32F7xx_HAL_Driver/Src/stm32f7xx_ll_usb.c ****   HAL_StatusTypeDef ret = HAL_OK;
 4455              		.loc 1 1844 3 is_stmt 1 view .LVU1503
 4456              	.LVL333:
1845:Drivers/STM32F7xx_HAL_Driver/Src/stm32f7xx_ll_usb.c ****   uint32_t USBx_BASE = (uint32_t)USBx;
 4457              		.loc 1 1845 3 view .LVU1504
1846:Drivers/STM32F7xx_HAL_Driver/Src/stm32f7xx_ll_usb.c ****   uint32_t HCcharEpDir;
 4458              		.loc 1 1846 3 view .LVU1505
1847:Drivers/STM32F7xx_HAL_Driver/Src/stm32f7xx_ll_usb.c ****   uint32_t HCcharLowSpeed;
 4459              		.loc 1 1847 3 view .LVU1506
1848:Drivers/STM32F7xx_HAL_Driver/Src/stm32f7xx_ll_usb.c ****   uint32_t HostCoreSpeed;
 4460              		.loc 1 1848 3 view .LVU1507
1849:Drivers/STM32F7xx_HAL_Driver/Src/stm32f7xx_ll_usb.c **** 
1850:Drivers/STM32F7xx_HAL_Driver/Src/stm32f7xx_ll_usb.c ****   /* Clear old interrupt conditions for this host channel. */
1851:Drivers/STM32F7xx_HAL_Driver/Src/stm32f7xx_ll_usb.c ****   USBx_HC((uint32_t)ch_num)->HCINT = 0xFFFFFFFFU;
 4461              		.loc 1 1851 3 view .LVU1508
 4462 000c 00EB4116 		add	r6, r0, r1, lsl #5
 4463 0010 06F5A063 		add	r3, r6, #1280
 4464              	.LVL334:
 4465              		.loc 1 1851 36 is_stmt 0 view .LVU1509
 4466 0014 4FF0FF32 		mov	r2, #-1
 4467              	.LVL335:
 4468              		.loc 1 1851 36 view .LVU1510
 4469 0018 9A60     		str	r2, [r3, #8]
1852:Drivers/STM32F7xx_HAL_Driver/Src/stm32f7xx_ll_usb.c **** 
ARM GAS  /tmp/cc8ZLjKA.s 			page 133


1853:Drivers/STM32F7xx_HAL_Driver/Src/stm32f7xx_ll_usb.c ****   /* Enable channel interrupts required for this transfer. */
1854:Drivers/STM32F7xx_HAL_Driver/Src/stm32f7xx_ll_usb.c ****   switch (ep_type)
 4470              		.loc 1 1854 3 is_stmt 1 view .LVU1511
 4471 001a 032D     		cmp	r5, #3
 4472 001c 7DD8     		bhi	.L301
 4473 001e DFE805F0 		tbb	[pc, r5]
 4474              	.L294:
 4475 0022 02       		.byte	(.L295-.L294)/2
 4476 0023 6E       		.byte	(.L296-.L294)/2
 4477 0024 02       		.byte	(.L295-.L294)/2
 4478 0025 18       		.byte	(.L293-.L294)/2
 4479              		.p2align 1
 4480              	.L295:
1855:Drivers/STM32F7xx_HAL_Driver/Src/stm32f7xx_ll_usb.c ****   {
1856:Drivers/STM32F7xx_HAL_Driver/Src/stm32f7xx_ll_usb.c ****     case EP_TYPE_CTRL:
1857:Drivers/STM32F7xx_HAL_Driver/Src/stm32f7xx_ll_usb.c ****     case EP_TYPE_BULK:
1858:Drivers/STM32F7xx_HAL_Driver/Src/stm32f7xx_ll_usb.c ****       USBx_HC((uint32_t)ch_num)->HCINTMSK = USB_OTG_HCINTMSK_XFRCM  |
 4481              		.loc 1 1858 7 view .LVU1512
 4482              		.loc 1 1858 43 is_stmt 0 view .LVU1513
 4483 0026 40F29D42 		movw	r2, #1181
 4484 002a DA60     		str	r2, [r3, #12]
1859:Drivers/STM32F7xx_HAL_Driver/Src/stm32f7xx_ll_usb.c ****                                             USB_OTG_HCINTMSK_STALLM |
1860:Drivers/STM32F7xx_HAL_Driver/Src/stm32f7xx_ll_usb.c ****                                             USB_OTG_HCINTMSK_TXERRM |
1861:Drivers/STM32F7xx_HAL_Driver/Src/stm32f7xx_ll_usb.c ****                                             USB_OTG_HCINTMSK_DTERRM |
1862:Drivers/STM32F7xx_HAL_Driver/Src/stm32f7xx_ll_usb.c ****                                             USB_OTG_HCINTMSK_AHBERR |
1863:Drivers/STM32F7xx_HAL_Driver/Src/stm32f7xx_ll_usb.c ****                                             USB_OTG_HCINTMSK_NAKM;
1864:Drivers/STM32F7xx_HAL_Driver/Src/stm32f7xx_ll_usb.c **** 
1865:Drivers/STM32F7xx_HAL_Driver/Src/stm32f7xx_ll_usb.c ****       if ((epnum & 0x80U) == 0x80U)
 4485              		.loc 1 1865 7 is_stmt 1 view .LVU1514
 4486              		.loc 1 1865 10 is_stmt 0 view .LVU1515
 4487 002c 19F0800F 		tst	r9, #128
 4488 0030 09D1     		bne	.L308
1866:Drivers/STM32F7xx_HAL_Driver/Src/stm32f7xx_ll_usb.c ****       {
1867:Drivers/STM32F7xx_HAL_Driver/Src/stm32f7xx_ll_usb.c ****         USBx_HC((uint32_t)ch_num)->HCINTMSK |= USB_OTG_HCINTMSK_BBERRM;
1868:Drivers/STM32F7xx_HAL_Driver/Src/stm32f7xx_ll_usb.c ****       }
1869:Drivers/STM32F7xx_HAL_Driver/Src/stm32f7xx_ll_usb.c ****       else
1870:Drivers/STM32F7xx_HAL_Driver/Src/stm32f7xx_ll_usb.c ****       {
1871:Drivers/STM32F7xx_HAL_Driver/Src/stm32f7xx_ll_usb.c ****         if ((USBx->CID & (0x1U << 8)) != 0U)
 4489              		.loc 1 1871 9 is_stmt 1 view .LVU1516
 4490              		.loc 1 1871 18 is_stmt 0 view .LVU1517
 4491 0032 C26B     		ldr	r2, [r0, #60]
 4492              		.loc 1 1871 12 view .LVU1518
 4493 0034 12F4807F 		tst	r2, #256
 4494 0038 71D0     		beq	.L302
1872:Drivers/STM32F7xx_HAL_Driver/Src/stm32f7xx_ll_usb.c ****         {
1873:Drivers/STM32F7xx_HAL_Driver/Src/stm32f7xx_ll_usb.c ****           USBx_HC((uint32_t)ch_num)->HCINTMSK |= USB_OTG_HCINTMSK_NYET |
 4495              		.loc 1 1873 11 is_stmt 1 view .LVU1519
 4496              		.loc 1 1873 36 is_stmt 0 view .LVU1520
 4497 003a DA68     		ldr	r2, [r3, #12]
 4498              		.loc 1 1873 47 view .LVU1521
 4499 003c 42F06002 		orr	r2, r2, #96
 4500 0040 DA60     		str	r2, [r3, #12]
1844:Drivers/STM32F7xx_HAL_Driver/Src/stm32f7xx_ll_usb.c ****   uint32_t USBx_BASE = (uint32_t)USBx;
 4501              		.loc 1 1844 21 view .LVU1522
 4502 0042 0027     		movs	r7, #0
 4503 0044 0CE0     		b	.L292
 4504              	.L308:
ARM GAS  /tmp/cc8ZLjKA.s 			page 134


1867:Drivers/STM32F7xx_HAL_Driver/Src/stm32f7xx_ll_usb.c ****       }
 4505              		.loc 1 1867 9 is_stmt 1 view .LVU1523
1867:Drivers/STM32F7xx_HAL_Driver/Src/stm32f7xx_ll_usb.c ****       }
 4506              		.loc 1 1867 34 is_stmt 0 view .LVU1524
 4507 0046 DA68     		ldr	r2, [r3, #12]
1867:Drivers/STM32F7xx_HAL_Driver/Src/stm32f7xx_ll_usb.c ****       }
 4508              		.loc 1 1867 45 view .LVU1525
 4509 0048 42F48072 		orr	r2, r2, #256
 4510 004c DA60     		str	r2, [r3, #12]
1844:Drivers/STM32F7xx_HAL_Driver/Src/stm32f7xx_ll_usb.c ****   uint32_t USBx_BASE = (uint32_t)USBx;
 4511              		.loc 1 1844 21 view .LVU1526
 4512 004e 0027     		movs	r7, #0
 4513 0050 06E0     		b	.L292
 4514              	.L293:
1874:Drivers/STM32F7xx_HAL_Driver/Src/stm32f7xx_ll_usb.c ****                                                  USB_OTG_HCINTMSK_ACKM;
1875:Drivers/STM32F7xx_HAL_Driver/Src/stm32f7xx_ll_usb.c ****         }
1876:Drivers/STM32F7xx_HAL_Driver/Src/stm32f7xx_ll_usb.c ****       }
1877:Drivers/STM32F7xx_HAL_Driver/Src/stm32f7xx_ll_usb.c ****       break;
1878:Drivers/STM32F7xx_HAL_Driver/Src/stm32f7xx_ll_usb.c **** 
1879:Drivers/STM32F7xx_HAL_Driver/Src/stm32f7xx_ll_usb.c ****     case EP_TYPE_INTR:
1880:Drivers/STM32F7xx_HAL_Driver/Src/stm32f7xx_ll_usb.c ****       USBx_HC((uint32_t)ch_num)->HCINTMSK = USB_OTG_HCINTMSK_XFRCM  |
 4515              		.loc 1 1880 7 is_stmt 1 view .LVU1527
 4516              		.loc 1 1880 43 is_stmt 0 view .LVU1528
 4517 0052 40F29D62 		movw	r2, #1693
 4518 0056 DA60     		str	r2, [r3, #12]
1881:Drivers/STM32F7xx_HAL_Driver/Src/stm32f7xx_ll_usb.c ****                                             USB_OTG_HCINTMSK_STALLM |
1882:Drivers/STM32F7xx_HAL_Driver/Src/stm32f7xx_ll_usb.c ****                                             USB_OTG_HCINTMSK_TXERRM |
1883:Drivers/STM32F7xx_HAL_Driver/Src/stm32f7xx_ll_usb.c ****                                             USB_OTG_HCINTMSK_DTERRM |
1884:Drivers/STM32F7xx_HAL_Driver/Src/stm32f7xx_ll_usb.c ****                                             USB_OTG_HCINTMSK_NAKM   |
1885:Drivers/STM32F7xx_HAL_Driver/Src/stm32f7xx_ll_usb.c ****                                             USB_OTG_HCINTMSK_AHBERR |
1886:Drivers/STM32F7xx_HAL_Driver/Src/stm32f7xx_ll_usb.c ****                                             USB_OTG_HCINTMSK_FRMORM;
1887:Drivers/STM32F7xx_HAL_Driver/Src/stm32f7xx_ll_usb.c **** 
1888:Drivers/STM32F7xx_HAL_Driver/Src/stm32f7xx_ll_usb.c ****       if ((epnum & 0x80U) == 0x80U)
 4519              		.loc 1 1888 7 is_stmt 1 view .LVU1529
 4520              		.loc 1 1888 10 is_stmt 0 view .LVU1530
 4521 0058 19F0800F 		tst	r9, #128
 4522 005c 49D1     		bne	.L309
1844:Drivers/STM32F7xx_HAL_Driver/Src/stm32f7xx_ll_usb.c ****   uint32_t USBx_BASE = (uint32_t)USBx;
 4523              		.loc 1 1844 21 view .LVU1531
 4524 005e 0027     		movs	r7, #0
 4525              	.L292:
 4526              	.LVL336:
1889:Drivers/STM32F7xx_HAL_Driver/Src/stm32f7xx_ll_usb.c ****       {
1890:Drivers/STM32F7xx_HAL_Driver/Src/stm32f7xx_ll_usb.c ****         USBx_HC((uint32_t)ch_num)->HCINTMSK |= USB_OTG_HCINTMSK_BBERRM;
1891:Drivers/STM32F7xx_HAL_Driver/Src/stm32f7xx_ll_usb.c ****       }
1892:Drivers/STM32F7xx_HAL_Driver/Src/stm32f7xx_ll_usb.c **** 
1893:Drivers/STM32F7xx_HAL_Driver/Src/stm32f7xx_ll_usb.c ****       break;
1894:Drivers/STM32F7xx_HAL_Driver/Src/stm32f7xx_ll_usb.c **** 
1895:Drivers/STM32F7xx_HAL_Driver/Src/stm32f7xx_ll_usb.c ****     case EP_TYPE_ISOC:
1896:Drivers/STM32F7xx_HAL_Driver/Src/stm32f7xx_ll_usb.c ****       USBx_HC((uint32_t)ch_num)->HCINTMSK = USB_OTG_HCINTMSK_XFRCM  |
1897:Drivers/STM32F7xx_HAL_Driver/Src/stm32f7xx_ll_usb.c ****                                             USB_OTG_HCINTMSK_ACKM   |
1898:Drivers/STM32F7xx_HAL_Driver/Src/stm32f7xx_ll_usb.c ****                                             USB_OTG_HCINTMSK_AHBERR |
1899:Drivers/STM32F7xx_HAL_Driver/Src/stm32f7xx_ll_usb.c ****                                             USB_OTG_HCINTMSK_FRMORM;
1900:Drivers/STM32F7xx_HAL_Driver/Src/stm32f7xx_ll_usb.c **** 
1901:Drivers/STM32F7xx_HAL_Driver/Src/stm32f7xx_ll_usb.c ****       if ((epnum & 0x80U) == 0x80U)
1902:Drivers/STM32F7xx_HAL_Driver/Src/stm32f7xx_ll_usb.c ****       {
1903:Drivers/STM32F7xx_HAL_Driver/Src/stm32f7xx_ll_usb.c ****         USBx_HC((uint32_t)ch_num)->HCINTMSK |= (USB_OTG_HCINTMSK_TXERRM | USB_OTG_HCINTMSK_BBERRM);
ARM GAS  /tmp/cc8ZLjKA.s 			page 135


1904:Drivers/STM32F7xx_HAL_Driver/Src/stm32f7xx_ll_usb.c ****       }
1905:Drivers/STM32F7xx_HAL_Driver/Src/stm32f7xx_ll_usb.c ****       break;
1906:Drivers/STM32F7xx_HAL_Driver/Src/stm32f7xx_ll_usb.c **** 
1907:Drivers/STM32F7xx_HAL_Driver/Src/stm32f7xx_ll_usb.c ****     default:
1908:Drivers/STM32F7xx_HAL_Driver/Src/stm32f7xx_ll_usb.c ****       ret = HAL_ERROR;
1909:Drivers/STM32F7xx_HAL_Driver/Src/stm32f7xx_ll_usb.c ****       break;
1910:Drivers/STM32F7xx_HAL_Driver/Src/stm32f7xx_ll_usb.c ****   }
1911:Drivers/STM32F7xx_HAL_Driver/Src/stm32f7xx_ll_usb.c **** 
1912:Drivers/STM32F7xx_HAL_Driver/Src/stm32f7xx_ll_usb.c ****   /* Enable host channel Halt interrupt */
1913:Drivers/STM32F7xx_HAL_Driver/Src/stm32f7xx_ll_usb.c ****   USBx_HC((uint32_t)ch_num)->HCINTMSK |= USB_OTG_HCINTMSK_CHHM;
 4527              		.loc 1 1913 3 is_stmt 1 view .LVU1532
 4528              		.loc 1 1913 28 is_stmt 0 view .LVU1533
 4529 0060 DA68     		ldr	r2, [r3, #12]
 4530              		.loc 1 1913 39 view .LVU1534
 4531 0062 42F00202 		orr	r2, r2, #2
 4532 0066 DA60     		str	r2, [r3, #12]
1914:Drivers/STM32F7xx_HAL_Driver/Src/stm32f7xx_ll_usb.c **** 
1915:Drivers/STM32F7xx_HAL_Driver/Src/stm32f7xx_ll_usb.c ****   /* Enable the top level host channel interrupt. */
1916:Drivers/STM32F7xx_HAL_Driver/Src/stm32f7xx_ll_usb.c ****   USBx_HOST->HAINTMSK |= 1UL << (ch_num & 0xFU);
 4533              		.loc 1 1916 3 is_stmt 1 view .LVU1535
 4534              		.loc 1 1916 12 is_stmt 0 view .LVU1536
 4535 0068 D0F81834 		ldr	r3, [r0, #1048]
 4536              		.loc 1 1916 41 view .LVU1537
 4537 006c 01F00F01 		and	r1, r1, #15
 4538              	.LVL337:
 4539              		.loc 1 1916 30 view .LVU1538
 4540 0070 0122     		movs	r2, #1
 4541 0072 8A40     		lsls	r2, r2, r1
 4542              		.loc 1 1916 23 view .LVU1539
 4543 0074 1343     		orrs	r3, r3, r2
 4544 0076 C0F81834 		str	r3, [r0, #1048]
1917:Drivers/STM32F7xx_HAL_Driver/Src/stm32f7xx_ll_usb.c **** 
1918:Drivers/STM32F7xx_HAL_Driver/Src/stm32f7xx_ll_usb.c ****   /* Make sure host channel interrupts are enabled. */
1919:Drivers/STM32F7xx_HAL_Driver/Src/stm32f7xx_ll_usb.c ****   USBx->GINTMSK |= USB_OTG_GINTMSK_HCIM;
 4545              		.loc 1 1919 3 is_stmt 1 view .LVU1540
 4546              		.loc 1 1919 7 is_stmt 0 view .LVU1541
 4547 007a 8369     		ldr	r3, [r0, #24]
 4548              		.loc 1 1919 17 view .LVU1542
 4549 007c 43F00073 		orr	r3, r3, #33554432
 4550 0080 8361     		str	r3, [r0, #24]
1920:Drivers/STM32F7xx_HAL_Driver/Src/stm32f7xx_ll_usb.c **** 
1921:Drivers/STM32F7xx_HAL_Driver/Src/stm32f7xx_ll_usb.c ****   /* Program the HCCHAR register */
1922:Drivers/STM32F7xx_HAL_Driver/Src/stm32f7xx_ll_usb.c ****   if ((epnum & 0x80U) == 0x80U)
 4551              		.loc 1 1922 3 is_stmt 1 view .LVU1543
 4552              		.loc 1 1922 6 is_stmt 0 view .LVU1544
 4553 0082 19F0800F 		tst	r9, #128
 4554 0086 4CD1     		bne	.L310
1923:Drivers/STM32F7xx_HAL_Driver/Src/stm32f7xx_ll_usb.c ****   {
1924:Drivers/STM32F7xx_HAL_Driver/Src/stm32f7xx_ll_usb.c ****     HCcharEpDir = (0x1U << 15) & USB_OTG_HCCHAR_EPDIR;
1925:Drivers/STM32F7xx_HAL_Driver/Src/stm32f7xx_ll_usb.c ****   }
1926:Drivers/STM32F7xx_HAL_Driver/Src/stm32f7xx_ll_usb.c ****   else
1927:Drivers/STM32F7xx_HAL_Driver/Src/stm32f7xx_ll_usb.c ****   {
1928:Drivers/STM32F7xx_HAL_Driver/Src/stm32f7xx_ll_usb.c ****     HCcharEpDir = 0U;
 4555              		.loc 1 1928 17 view .LVU1545
 4556 0088 4FF00008 		mov	r8, #0
 4557              	.L298:
 4558              	.LVL338:
ARM GAS  /tmp/cc8ZLjKA.s 			page 136


1929:Drivers/STM32F7xx_HAL_Driver/Src/stm32f7xx_ll_usb.c ****   }
1930:Drivers/STM32F7xx_HAL_Driver/Src/stm32f7xx_ll_usb.c **** 
1931:Drivers/STM32F7xx_HAL_Driver/Src/stm32f7xx_ll_usb.c ****   HostCoreSpeed = USB_GetHostSpeed(USBx);
 4559              		.loc 1 1931 3 is_stmt 1 view .LVU1546
 4560              		.loc 1 1931 19 is_stmt 0 view .LVU1547
 4561 008c FFF7FEFF 		bl	USB_GetHostSpeed
 4562              	.LVL339:
1932:Drivers/STM32F7xx_HAL_Driver/Src/stm32f7xx_ll_usb.c **** 
1933:Drivers/STM32F7xx_HAL_Driver/Src/stm32f7xx_ll_usb.c ****   /* LS device plugged to HUB */
1934:Drivers/STM32F7xx_HAL_Driver/Src/stm32f7xx_ll_usb.c ****   if ((speed == HPRT0_PRTSPD_LOW_SPEED) && (HostCoreSpeed != HPRT0_PRTSPD_LOW_SPEED))
 4563              		.loc 1 1934 3 is_stmt 1 view .LVU1548
 4564              		.loc 1 1934 41 is_stmt 0 view .LVU1549
 4565 0090 9DF82030 		ldrb	r3, [sp, #32]	@ zero_extendqisi2
 4566 0094 022B     		cmp	r3, #2
 4567 0096 14BF     		ite	ne
 4568 0098 0023     		movne	r3, #0
 4569 009a 0123     		moveq	r3, #1
 4570 009c 0228     		cmp	r0, #2
 4571 009e 08BF     		it	eq
 4572 00a0 0023     		moveq	r3, #0
 4573              		.loc 1 1934 6 view .LVU1550
 4574 00a2 002B     		cmp	r3, #0
 4575 00a4 40D0     		beq	.L306
1935:Drivers/STM32F7xx_HAL_Driver/Src/stm32f7xx_ll_usb.c ****   {
1936:Drivers/STM32F7xx_HAL_Driver/Src/stm32f7xx_ll_usb.c ****     HCcharLowSpeed = (0x1U << 17) & USB_OTG_HCCHAR_LSDEV;
 4576              		.loc 1 1936 20 view .LVU1551
 4577 00a6 4FF40032 		mov	r2, #131072
 4578              	.L299:
 4579              	.LVL340:
1937:Drivers/STM32F7xx_HAL_Driver/Src/stm32f7xx_ll_usb.c ****   }
1938:Drivers/STM32F7xx_HAL_Driver/Src/stm32f7xx_ll_usb.c ****   else
1939:Drivers/STM32F7xx_HAL_Driver/Src/stm32f7xx_ll_usb.c ****   {
1940:Drivers/STM32F7xx_HAL_Driver/Src/stm32f7xx_ll_usb.c ****     HCcharLowSpeed = 0U;
1941:Drivers/STM32F7xx_HAL_Driver/Src/stm32f7xx_ll_usb.c ****   }
1942:Drivers/STM32F7xx_HAL_Driver/Src/stm32f7xx_ll_usb.c **** 
1943:Drivers/STM32F7xx_HAL_Driver/Src/stm32f7xx_ll_usb.c ****   USBx_HC((uint32_t)ch_num)->HCCHAR = (((uint32_t)dev_address << 22) & USB_OTG_HCCHAR_DAD) |
 4580              		.loc 1 1943 3 is_stmt 1 view .LVU1552
 4581              		.loc 1 1943 63 is_stmt 0 view .LVU1553
 4582 00aa A305     		lsls	r3, r4, #22
 4583              		.loc 1 1943 70 view .LVU1554
 4584 00ac 03F0FE53 		and	r3, r3, #532676608
1944:Drivers/STM32F7xx_HAL_Driver/Src/stm32f7xx_ll_usb.c ****                                       ((((uint32_t)epnum & 0x7FU) << 11) & USB_OTG_HCCHAR_EPNUM) |
 4585              		.loc 1 1944 67 view .LVU1555
 4586 00b0 4FEAC929 		lsl	r9, r9, #11
 4587              		.loc 1 1944 74 view .LVU1556
 4588 00b4 09F4F049 		and	r9, r9, #30720
1943:Drivers/STM32F7xx_HAL_Driver/Src/stm32f7xx_ll_usb.c ****                                       ((((uint32_t)epnum & 0x7FU) << 11) & USB_OTG_HCCHAR_EPNUM) |
 4589              		.loc 1 1943 92 view .LVU1557
 4590 00b8 43EA0903 		orr	r3, r3, r9
1945:Drivers/STM32F7xx_HAL_Driver/Src/stm32f7xx_ll_usb.c ****                                       (((uint32_t)ep_type << 18) & USB_OTG_HCCHAR_EPTYP) |
 4591              		.loc 1 1945 59 view .LVU1558
 4592 00bc A904     		lsls	r1, r5, #18
 4593              		.loc 1 1945 66 view .LVU1559
 4594 00be 01F44021 		and	r1, r1, #786432
1944:Drivers/STM32F7xx_HAL_Driver/Src/stm32f7xx_ll_usb.c ****                                       ((((uint32_t)epnum & 0x7FU) << 11) & USB_OTG_HCCHAR_EPNUM) |
 4595              		.loc 1 1944 98 view .LVU1560
 4596 00c2 0B43     		orrs	r3, r3, r1
ARM GAS  /tmp/cc8ZLjKA.s 			page 137


1946:Drivers/STM32F7xx_HAL_Driver/Src/stm32f7xx_ll_usb.c ****                                       ((uint32_t)mps & USB_OTG_HCCHAR_MPSIZ) | HCcharEpDir | HCchar
 4597              		.loc 1 1946 54 view .LVU1561
 4598 00c4 BDF82810 		ldrh	r1, [sp, #40]
 4599 00c8 C1F30A01 		ubfx	r1, r1, #0, #11
1945:Drivers/STM32F7xx_HAL_Driver/Src/stm32f7xx_ll_usb.c ****                                       (((uint32_t)ep_type << 18) & USB_OTG_HCCHAR_EPTYP) |
 4600              		.loc 1 1945 90 view .LVU1562
 4601 00cc 0B43     		orrs	r3, r3, r1
 4602              		.loc 1 1946 78 view .LVU1563
 4603 00ce 43EA0803 		orr	r3, r3, r8
 4604              		.loc 1 1946 92 view .LVU1564
 4605 00d2 1343     		orrs	r3, r3, r2
1943:Drivers/STM32F7xx_HAL_Driver/Src/stm32f7xx_ll_usb.c ****                                       ((((uint32_t)epnum & 0x7FU) << 11) & USB_OTG_HCCHAR_EPNUM) |
 4606              		.loc 1 1943 37 view .LVU1565
 4607 00d4 C6F80035 		str	r3, [r6, #1280]
1947:Drivers/STM32F7xx_HAL_Driver/Src/stm32f7xx_ll_usb.c **** 
1948:Drivers/STM32F7xx_HAL_Driver/Src/stm32f7xx_ll_usb.c ****   if ((ep_type == EP_TYPE_INTR) || (ep_type == EP_TYPE_ISOC))
 4608              		.loc 1 1948 3 is_stmt 1 view .LVU1566
 4609              		.loc 1 1948 6 is_stmt 0 view .LVU1567
 4610 00d8 012D     		cmp	r5, #1
 4611 00da 18BF     		it	ne
 4612 00dc 032D     		cmpne	r5, #3
 4613 00de 05D1     		bne	.L300
1949:Drivers/STM32F7xx_HAL_Driver/Src/stm32f7xx_ll_usb.c ****   {
1950:Drivers/STM32F7xx_HAL_Driver/Src/stm32f7xx_ll_usb.c ****     USBx_HC((uint32_t)ch_num)->HCCHAR |= USB_OTG_HCCHAR_ODDFRM;
 4614              		.loc 1 1950 5 is_stmt 1 view .LVU1568
 4615              		.loc 1 1950 30 is_stmt 0 view .LVU1569
 4616 00e0 D6F80035 		ldr	r3, [r6, #1280]
 4617              		.loc 1 1950 39 view .LVU1570
 4618 00e4 43F00053 		orr	r3, r3, #536870912
 4619 00e8 C6F80035 		str	r3, [r6, #1280]
 4620              	.L300:
1951:Drivers/STM32F7xx_HAL_Driver/Src/stm32f7xx_ll_usb.c ****   }
1952:Drivers/STM32F7xx_HAL_Driver/Src/stm32f7xx_ll_usb.c **** 
1953:Drivers/STM32F7xx_HAL_Driver/Src/stm32f7xx_ll_usb.c ****   return ret;
 4621              		.loc 1 1953 3 is_stmt 1 view .LVU1571
1954:Drivers/STM32F7xx_HAL_Driver/Src/stm32f7xx_ll_usb.c **** }
 4622              		.loc 1 1954 1 is_stmt 0 view .LVU1572
 4623 00ec 3846     		mov	r0, r7
 4624              	.LVL341:
 4625              		.loc 1 1954 1 view .LVU1573
 4626 00ee BDE8F883 		pop	{r3, r4, r5, r6, r7, r8, r9, pc}
 4627              	.LVL342:
 4628              	.L309:
1890:Drivers/STM32F7xx_HAL_Driver/Src/stm32f7xx_ll_usb.c ****       }
 4629              		.loc 1 1890 9 is_stmt 1 view .LVU1574
1890:Drivers/STM32F7xx_HAL_Driver/Src/stm32f7xx_ll_usb.c ****       }
 4630              		.loc 1 1890 34 is_stmt 0 view .LVU1575
 4631 00f2 DA68     		ldr	r2, [r3, #12]
1890:Drivers/STM32F7xx_HAL_Driver/Src/stm32f7xx_ll_usb.c ****       }
 4632              		.loc 1 1890 45 view .LVU1576
 4633 00f4 42F48072 		orr	r2, r2, #256
 4634 00f8 DA60     		str	r2, [r3, #12]
1844:Drivers/STM32F7xx_HAL_Driver/Src/stm32f7xx_ll_usb.c ****   uint32_t USBx_BASE = (uint32_t)USBx;
 4635              		.loc 1 1844 21 view .LVU1577
 4636 00fa 0027     		movs	r7, #0
 4637 00fc B0E7     		b	.L292
 4638              	.L296:
ARM GAS  /tmp/cc8ZLjKA.s 			page 138


1896:Drivers/STM32F7xx_HAL_Driver/Src/stm32f7xx_ll_usb.c ****                                             USB_OTG_HCINTMSK_ACKM   |
 4639              		.loc 1 1896 7 is_stmt 1 view .LVU1578
1896:Drivers/STM32F7xx_HAL_Driver/Src/stm32f7xx_ll_usb.c ****                                             USB_OTG_HCINTMSK_ACKM   |
 4640              		.loc 1 1896 43 is_stmt 0 view .LVU1579
 4641 00fe 40F22522 		movw	r2, #549
 4642 0102 DA60     		str	r2, [r3, #12]
1901:Drivers/STM32F7xx_HAL_Driver/Src/stm32f7xx_ll_usb.c ****       {
 4643              		.loc 1 1901 7 is_stmt 1 view .LVU1580
1901:Drivers/STM32F7xx_HAL_Driver/Src/stm32f7xx_ll_usb.c ****       {
 4644              		.loc 1 1901 10 is_stmt 0 view .LVU1581
 4645 0104 19F0800F 		tst	r9, #128
 4646 0108 01D1     		bne	.L311
1844:Drivers/STM32F7xx_HAL_Driver/Src/stm32f7xx_ll_usb.c ****   uint32_t USBx_BASE = (uint32_t)USBx;
 4647              		.loc 1 1844 21 view .LVU1582
 4648 010a 0027     		movs	r7, #0
 4649 010c A8E7     		b	.L292
 4650              	.L311:
1903:Drivers/STM32F7xx_HAL_Driver/Src/stm32f7xx_ll_usb.c ****       }
 4651              		.loc 1 1903 9 is_stmt 1 view .LVU1583
1903:Drivers/STM32F7xx_HAL_Driver/Src/stm32f7xx_ll_usb.c ****       }
 4652              		.loc 1 1903 34 is_stmt 0 view .LVU1584
 4653 010e DA68     		ldr	r2, [r3, #12]
1903:Drivers/STM32F7xx_HAL_Driver/Src/stm32f7xx_ll_usb.c ****       }
 4654              		.loc 1 1903 45 view .LVU1585
 4655 0110 42F4C072 		orr	r2, r2, #384
 4656 0114 DA60     		str	r2, [r3, #12]
1844:Drivers/STM32F7xx_HAL_Driver/Src/stm32f7xx_ll_usb.c ****   uint32_t USBx_BASE = (uint32_t)USBx;
 4657              		.loc 1 1844 21 view .LVU1586
 4658 0116 0027     		movs	r7, #0
 4659 0118 A2E7     		b	.L292
 4660              	.L301:
1854:Drivers/STM32F7xx_HAL_Driver/Src/stm32f7xx_ll_usb.c ****   {
 4661              		.loc 1 1854 3 view .LVU1587
 4662 011a 0127     		movs	r7, #1
 4663 011c A0E7     		b	.L292
 4664              	.L302:
1844:Drivers/STM32F7xx_HAL_Driver/Src/stm32f7xx_ll_usb.c ****   uint32_t USBx_BASE = (uint32_t)USBx;
 4665              		.loc 1 1844 21 view .LVU1588
 4666 011e 0027     		movs	r7, #0
 4667 0120 9EE7     		b	.L292
 4668              	.LVL343:
 4669              	.L310:
1924:Drivers/STM32F7xx_HAL_Driver/Src/stm32f7xx_ll_usb.c ****   }
 4670              		.loc 1 1924 17 view .LVU1589
 4671 0122 4FF40048 		mov	r8, #32768
 4672 0126 B1E7     		b	.L298
 4673              	.LVL344:
 4674              	.L306:
1940:Drivers/STM32F7xx_HAL_Driver/Src/stm32f7xx_ll_usb.c ****   }
 4675              		.loc 1 1940 20 view .LVU1590
 4676 0128 0022     		movs	r2, #0
 4677 012a BEE7     		b	.L299
 4678              		.cfi_endproc
 4679              	.LFE184:
 4681              		.section	.text.USB_HC_ReadInterrupt,"ax",%progbits
 4682              		.align	1
 4683              		.global	USB_HC_ReadInterrupt
ARM GAS  /tmp/cc8ZLjKA.s 			page 139


 4684              		.syntax unified
 4685              		.thumb
 4686              		.thumb_func
 4688              	USB_HC_ReadInterrupt:
 4689              	.LVL345:
 4690              	.LFB186:
1955:Drivers/STM32F7xx_HAL_Driver/Src/stm32f7xx_ll_usb.c **** 
1956:Drivers/STM32F7xx_HAL_Driver/Src/stm32f7xx_ll_usb.c **** /**
1957:Drivers/STM32F7xx_HAL_Driver/Src/stm32f7xx_ll_usb.c ****   * @brief  Start a transfer over a host channel
1958:Drivers/STM32F7xx_HAL_Driver/Src/stm32f7xx_ll_usb.c ****   * @param  USBx  Selected device
1959:Drivers/STM32F7xx_HAL_Driver/Src/stm32f7xx_ll_usb.c ****   * @param  hc  pointer to host channel structure
1960:Drivers/STM32F7xx_HAL_Driver/Src/stm32f7xx_ll_usb.c ****   * @param  dma USB dma enabled or disabled
1961:Drivers/STM32F7xx_HAL_Driver/Src/stm32f7xx_ll_usb.c ****   *          This parameter can be one of these values:
1962:Drivers/STM32F7xx_HAL_Driver/Src/stm32f7xx_ll_usb.c ****   *           0 : DMA feature not used
1963:Drivers/STM32F7xx_HAL_Driver/Src/stm32f7xx_ll_usb.c ****   *           1 : DMA feature used
1964:Drivers/STM32F7xx_HAL_Driver/Src/stm32f7xx_ll_usb.c ****   * @retval HAL state
1965:Drivers/STM32F7xx_HAL_Driver/Src/stm32f7xx_ll_usb.c ****   */
1966:Drivers/STM32F7xx_HAL_Driver/Src/stm32f7xx_ll_usb.c **** HAL_StatusTypeDef USB_HC_StartXfer(USB_OTG_GlobalTypeDef *USBx, USB_OTG_HCTypeDef *hc, uint8_t dma)
1967:Drivers/STM32F7xx_HAL_Driver/Src/stm32f7xx_ll_usb.c **** {
1968:Drivers/STM32F7xx_HAL_Driver/Src/stm32f7xx_ll_usb.c ****   uint32_t USBx_BASE = (uint32_t)USBx;
1969:Drivers/STM32F7xx_HAL_Driver/Src/stm32f7xx_ll_usb.c ****   uint32_t ch_num = (uint32_t)hc->ch_num;
1970:Drivers/STM32F7xx_HAL_Driver/Src/stm32f7xx_ll_usb.c ****   __IO uint32_t tmpreg;
1971:Drivers/STM32F7xx_HAL_Driver/Src/stm32f7xx_ll_usb.c ****   uint8_t  is_oddframe;
1972:Drivers/STM32F7xx_HAL_Driver/Src/stm32f7xx_ll_usb.c ****   uint16_t len_words;
1973:Drivers/STM32F7xx_HAL_Driver/Src/stm32f7xx_ll_usb.c ****   uint16_t num_packets;
1974:Drivers/STM32F7xx_HAL_Driver/Src/stm32f7xx_ll_usb.c ****   uint16_t max_hc_pkt_count = 256U;
1975:Drivers/STM32F7xx_HAL_Driver/Src/stm32f7xx_ll_usb.c **** 
1976:Drivers/STM32F7xx_HAL_Driver/Src/stm32f7xx_ll_usb.c ****   if (((USBx->CID & (0x1U << 8)) != 0U) && (hc->speed == USBH_HS_SPEED))
1977:Drivers/STM32F7xx_HAL_Driver/Src/stm32f7xx_ll_usb.c ****   {
1978:Drivers/STM32F7xx_HAL_Driver/Src/stm32f7xx_ll_usb.c ****     /* in DMA mode host Core automatically issues ping  in case of NYET/NAK */
1979:Drivers/STM32F7xx_HAL_Driver/Src/stm32f7xx_ll_usb.c ****     if ((dma == 1U) && ((hc->ep_type == EP_TYPE_CTRL) || (hc->ep_type == EP_TYPE_BULK)))
1980:Drivers/STM32F7xx_HAL_Driver/Src/stm32f7xx_ll_usb.c ****     {
1981:Drivers/STM32F7xx_HAL_Driver/Src/stm32f7xx_ll_usb.c ****       USBx_HC((uint32_t)ch_num)->HCINTMSK &= ~(USB_OTG_HCINTMSK_NYET |
1982:Drivers/STM32F7xx_HAL_Driver/Src/stm32f7xx_ll_usb.c ****                                                USB_OTG_HCINTMSK_ACKM |
1983:Drivers/STM32F7xx_HAL_Driver/Src/stm32f7xx_ll_usb.c ****                                                USB_OTG_HCINTMSK_NAKM);
1984:Drivers/STM32F7xx_HAL_Driver/Src/stm32f7xx_ll_usb.c ****     }
1985:Drivers/STM32F7xx_HAL_Driver/Src/stm32f7xx_ll_usb.c **** 
1986:Drivers/STM32F7xx_HAL_Driver/Src/stm32f7xx_ll_usb.c ****     if ((dma == 0U) && (hc->do_ping == 1U))
1987:Drivers/STM32F7xx_HAL_Driver/Src/stm32f7xx_ll_usb.c ****     {
1988:Drivers/STM32F7xx_HAL_Driver/Src/stm32f7xx_ll_usb.c ****       (void)USB_DoPing(USBx, hc->ch_num);
1989:Drivers/STM32F7xx_HAL_Driver/Src/stm32f7xx_ll_usb.c ****       return HAL_OK;
1990:Drivers/STM32F7xx_HAL_Driver/Src/stm32f7xx_ll_usb.c ****     }
1991:Drivers/STM32F7xx_HAL_Driver/Src/stm32f7xx_ll_usb.c **** 
1992:Drivers/STM32F7xx_HAL_Driver/Src/stm32f7xx_ll_usb.c ****   }
1993:Drivers/STM32F7xx_HAL_Driver/Src/stm32f7xx_ll_usb.c **** 
1994:Drivers/STM32F7xx_HAL_Driver/Src/stm32f7xx_ll_usb.c ****   /* Compute the expected number of packets associated to the transfer */
1995:Drivers/STM32F7xx_HAL_Driver/Src/stm32f7xx_ll_usb.c ****   if (hc->xfer_len > 0U)
1996:Drivers/STM32F7xx_HAL_Driver/Src/stm32f7xx_ll_usb.c ****   {
1997:Drivers/STM32F7xx_HAL_Driver/Src/stm32f7xx_ll_usb.c ****     num_packets = (uint16_t)((hc->xfer_len + hc->max_packet - 1U) / hc->max_packet);
1998:Drivers/STM32F7xx_HAL_Driver/Src/stm32f7xx_ll_usb.c **** 
1999:Drivers/STM32F7xx_HAL_Driver/Src/stm32f7xx_ll_usb.c ****     if (num_packets > max_hc_pkt_count)
2000:Drivers/STM32F7xx_HAL_Driver/Src/stm32f7xx_ll_usb.c ****     {
2001:Drivers/STM32F7xx_HAL_Driver/Src/stm32f7xx_ll_usb.c ****       num_packets = max_hc_pkt_count;
2002:Drivers/STM32F7xx_HAL_Driver/Src/stm32f7xx_ll_usb.c ****       hc->XferSize = (uint32_t)num_packets * hc->max_packet;
2003:Drivers/STM32F7xx_HAL_Driver/Src/stm32f7xx_ll_usb.c ****     }
2004:Drivers/STM32F7xx_HAL_Driver/Src/stm32f7xx_ll_usb.c ****   }
2005:Drivers/STM32F7xx_HAL_Driver/Src/stm32f7xx_ll_usb.c ****   else
ARM GAS  /tmp/cc8ZLjKA.s 			page 140


2006:Drivers/STM32F7xx_HAL_Driver/Src/stm32f7xx_ll_usb.c ****   {
2007:Drivers/STM32F7xx_HAL_Driver/Src/stm32f7xx_ll_usb.c ****     num_packets = 1U;
2008:Drivers/STM32F7xx_HAL_Driver/Src/stm32f7xx_ll_usb.c ****   }
2009:Drivers/STM32F7xx_HAL_Driver/Src/stm32f7xx_ll_usb.c **** 
2010:Drivers/STM32F7xx_HAL_Driver/Src/stm32f7xx_ll_usb.c ****   /*
2011:Drivers/STM32F7xx_HAL_Driver/Src/stm32f7xx_ll_usb.c ****    * For IN channel HCTSIZ.XferSize is expected to be an integer multiple of
2012:Drivers/STM32F7xx_HAL_Driver/Src/stm32f7xx_ll_usb.c ****    * max_packet size.
2013:Drivers/STM32F7xx_HAL_Driver/Src/stm32f7xx_ll_usb.c ****    */
2014:Drivers/STM32F7xx_HAL_Driver/Src/stm32f7xx_ll_usb.c ****   if (hc->ep_is_in != 0U)
2015:Drivers/STM32F7xx_HAL_Driver/Src/stm32f7xx_ll_usb.c ****   {
2016:Drivers/STM32F7xx_HAL_Driver/Src/stm32f7xx_ll_usb.c ****     hc->XferSize = (uint32_t)num_packets * hc->max_packet;
2017:Drivers/STM32F7xx_HAL_Driver/Src/stm32f7xx_ll_usb.c ****   }
2018:Drivers/STM32F7xx_HAL_Driver/Src/stm32f7xx_ll_usb.c ****   else
2019:Drivers/STM32F7xx_HAL_Driver/Src/stm32f7xx_ll_usb.c ****   {
2020:Drivers/STM32F7xx_HAL_Driver/Src/stm32f7xx_ll_usb.c ****     hc->XferSize = hc->xfer_len;
2021:Drivers/STM32F7xx_HAL_Driver/Src/stm32f7xx_ll_usb.c ****   }
2022:Drivers/STM32F7xx_HAL_Driver/Src/stm32f7xx_ll_usb.c **** 
2023:Drivers/STM32F7xx_HAL_Driver/Src/stm32f7xx_ll_usb.c ****   /* Initialize the HCTSIZn register */
2024:Drivers/STM32F7xx_HAL_Driver/Src/stm32f7xx_ll_usb.c ****   USBx_HC(ch_num)->HCTSIZ = (hc->XferSize & USB_OTG_HCTSIZ_XFRSIZ) |
2025:Drivers/STM32F7xx_HAL_Driver/Src/stm32f7xx_ll_usb.c ****                             (((uint32_t)num_packets << 19) & USB_OTG_HCTSIZ_PKTCNT) |
2026:Drivers/STM32F7xx_HAL_Driver/Src/stm32f7xx_ll_usb.c ****                             (((uint32_t)hc->data_pid << 29) & USB_OTG_HCTSIZ_DPID);
2027:Drivers/STM32F7xx_HAL_Driver/Src/stm32f7xx_ll_usb.c **** 
2028:Drivers/STM32F7xx_HAL_Driver/Src/stm32f7xx_ll_usb.c ****   if (dma != 0U)
2029:Drivers/STM32F7xx_HAL_Driver/Src/stm32f7xx_ll_usb.c ****   {
2030:Drivers/STM32F7xx_HAL_Driver/Src/stm32f7xx_ll_usb.c ****     /* xfer_buff MUST be 32-bits aligned */
2031:Drivers/STM32F7xx_HAL_Driver/Src/stm32f7xx_ll_usb.c ****     USBx_HC(ch_num)->HCDMA = (uint32_t)hc->xfer_buff;
2032:Drivers/STM32F7xx_HAL_Driver/Src/stm32f7xx_ll_usb.c ****   }
2033:Drivers/STM32F7xx_HAL_Driver/Src/stm32f7xx_ll_usb.c **** 
2034:Drivers/STM32F7xx_HAL_Driver/Src/stm32f7xx_ll_usb.c ****   is_oddframe = (((uint32_t)USBx_HOST->HFNUM & 0x01U) != 0U) ? 0U : 1U;
2035:Drivers/STM32F7xx_HAL_Driver/Src/stm32f7xx_ll_usb.c ****   USBx_HC(ch_num)->HCCHAR &= ~USB_OTG_HCCHAR_ODDFRM;
2036:Drivers/STM32F7xx_HAL_Driver/Src/stm32f7xx_ll_usb.c ****   USBx_HC(ch_num)->HCCHAR |= (uint32_t)is_oddframe << 29;
2037:Drivers/STM32F7xx_HAL_Driver/Src/stm32f7xx_ll_usb.c **** 
2038:Drivers/STM32F7xx_HAL_Driver/Src/stm32f7xx_ll_usb.c ****   /* Set host channel enable */
2039:Drivers/STM32F7xx_HAL_Driver/Src/stm32f7xx_ll_usb.c ****   tmpreg = USBx_HC(ch_num)->HCCHAR;
2040:Drivers/STM32F7xx_HAL_Driver/Src/stm32f7xx_ll_usb.c ****   tmpreg &= ~USB_OTG_HCCHAR_CHDIS;
2041:Drivers/STM32F7xx_HAL_Driver/Src/stm32f7xx_ll_usb.c **** 
2042:Drivers/STM32F7xx_HAL_Driver/Src/stm32f7xx_ll_usb.c ****   /* make sure to set the correct ep direction */
2043:Drivers/STM32F7xx_HAL_Driver/Src/stm32f7xx_ll_usb.c ****   if (hc->ep_is_in != 0U)
2044:Drivers/STM32F7xx_HAL_Driver/Src/stm32f7xx_ll_usb.c ****   {
2045:Drivers/STM32F7xx_HAL_Driver/Src/stm32f7xx_ll_usb.c ****     tmpreg |= USB_OTG_HCCHAR_EPDIR;
2046:Drivers/STM32F7xx_HAL_Driver/Src/stm32f7xx_ll_usb.c ****   }
2047:Drivers/STM32F7xx_HAL_Driver/Src/stm32f7xx_ll_usb.c ****   else
2048:Drivers/STM32F7xx_HAL_Driver/Src/stm32f7xx_ll_usb.c ****   {
2049:Drivers/STM32F7xx_HAL_Driver/Src/stm32f7xx_ll_usb.c ****     tmpreg &= ~USB_OTG_HCCHAR_EPDIR;
2050:Drivers/STM32F7xx_HAL_Driver/Src/stm32f7xx_ll_usb.c ****   }
2051:Drivers/STM32F7xx_HAL_Driver/Src/stm32f7xx_ll_usb.c ****   tmpreg |= USB_OTG_HCCHAR_CHENA;
2052:Drivers/STM32F7xx_HAL_Driver/Src/stm32f7xx_ll_usb.c ****   USBx_HC(ch_num)->HCCHAR = tmpreg;
2053:Drivers/STM32F7xx_HAL_Driver/Src/stm32f7xx_ll_usb.c **** 
2054:Drivers/STM32F7xx_HAL_Driver/Src/stm32f7xx_ll_usb.c ****   if (dma != 0U) /* dma mode */
2055:Drivers/STM32F7xx_HAL_Driver/Src/stm32f7xx_ll_usb.c ****   {
2056:Drivers/STM32F7xx_HAL_Driver/Src/stm32f7xx_ll_usb.c ****     return HAL_OK;
2057:Drivers/STM32F7xx_HAL_Driver/Src/stm32f7xx_ll_usb.c ****   }
2058:Drivers/STM32F7xx_HAL_Driver/Src/stm32f7xx_ll_usb.c **** 
2059:Drivers/STM32F7xx_HAL_Driver/Src/stm32f7xx_ll_usb.c ****   if ((hc->ep_is_in == 0U) && (hc->xfer_len > 0U))
2060:Drivers/STM32F7xx_HAL_Driver/Src/stm32f7xx_ll_usb.c ****   {
2061:Drivers/STM32F7xx_HAL_Driver/Src/stm32f7xx_ll_usb.c ****     switch (hc->ep_type)
2062:Drivers/STM32F7xx_HAL_Driver/Src/stm32f7xx_ll_usb.c ****     {
ARM GAS  /tmp/cc8ZLjKA.s 			page 141


2063:Drivers/STM32F7xx_HAL_Driver/Src/stm32f7xx_ll_usb.c ****       /* Non periodic transfer */
2064:Drivers/STM32F7xx_HAL_Driver/Src/stm32f7xx_ll_usb.c ****       case EP_TYPE_CTRL:
2065:Drivers/STM32F7xx_HAL_Driver/Src/stm32f7xx_ll_usb.c ****       case EP_TYPE_BULK:
2066:Drivers/STM32F7xx_HAL_Driver/Src/stm32f7xx_ll_usb.c **** 
2067:Drivers/STM32F7xx_HAL_Driver/Src/stm32f7xx_ll_usb.c ****         len_words = (uint16_t)((hc->xfer_len + 3U) / 4U);
2068:Drivers/STM32F7xx_HAL_Driver/Src/stm32f7xx_ll_usb.c **** 
2069:Drivers/STM32F7xx_HAL_Driver/Src/stm32f7xx_ll_usb.c ****         /* check if there is enough space in FIFO space */
2070:Drivers/STM32F7xx_HAL_Driver/Src/stm32f7xx_ll_usb.c ****         if (len_words > (USBx->HNPTXSTS & 0xFFFFU))
2071:Drivers/STM32F7xx_HAL_Driver/Src/stm32f7xx_ll_usb.c ****         {
2072:Drivers/STM32F7xx_HAL_Driver/Src/stm32f7xx_ll_usb.c ****           /* need to process data in nptxfempty interrupt */
2073:Drivers/STM32F7xx_HAL_Driver/Src/stm32f7xx_ll_usb.c ****           USBx->GINTMSK |= USB_OTG_GINTMSK_NPTXFEM;
2074:Drivers/STM32F7xx_HAL_Driver/Src/stm32f7xx_ll_usb.c ****         }
2075:Drivers/STM32F7xx_HAL_Driver/Src/stm32f7xx_ll_usb.c ****         break;
2076:Drivers/STM32F7xx_HAL_Driver/Src/stm32f7xx_ll_usb.c **** 
2077:Drivers/STM32F7xx_HAL_Driver/Src/stm32f7xx_ll_usb.c ****       /* Periodic transfer */
2078:Drivers/STM32F7xx_HAL_Driver/Src/stm32f7xx_ll_usb.c ****       case EP_TYPE_INTR:
2079:Drivers/STM32F7xx_HAL_Driver/Src/stm32f7xx_ll_usb.c ****       case EP_TYPE_ISOC:
2080:Drivers/STM32F7xx_HAL_Driver/Src/stm32f7xx_ll_usb.c ****         len_words = (uint16_t)((hc->xfer_len + 3U) / 4U);
2081:Drivers/STM32F7xx_HAL_Driver/Src/stm32f7xx_ll_usb.c ****         /* check if there is enough space in FIFO space */
2082:Drivers/STM32F7xx_HAL_Driver/Src/stm32f7xx_ll_usb.c ****         if (len_words > (USBx_HOST->HPTXSTS & 0xFFFFU)) /* split the transfer */
2083:Drivers/STM32F7xx_HAL_Driver/Src/stm32f7xx_ll_usb.c ****         {
2084:Drivers/STM32F7xx_HAL_Driver/Src/stm32f7xx_ll_usb.c ****           /* need to process data in ptxfempty interrupt */
2085:Drivers/STM32F7xx_HAL_Driver/Src/stm32f7xx_ll_usb.c ****           USBx->GINTMSK |= USB_OTG_GINTMSK_PTXFEM;
2086:Drivers/STM32F7xx_HAL_Driver/Src/stm32f7xx_ll_usb.c ****         }
2087:Drivers/STM32F7xx_HAL_Driver/Src/stm32f7xx_ll_usb.c ****         break;
2088:Drivers/STM32F7xx_HAL_Driver/Src/stm32f7xx_ll_usb.c **** 
2089:Drivers/STM32F7xx_HAL_Driver/Src/stm32f7xx_ll_usb.c ****       default:
2090:Drivers/STM32F7xx_HAL_Driver/Src/stm32f7xx_ll_usb.c ****         break;
2091:Drivers/STM32F7xx_HAL_Driver/Src/stm32f7xx_ll_usb.c ****     }
2092:Drivers/STM32F7xx_HAL_Driver/Src/stm32f7xx_ll_usb.c **** 
2093:Drivers/STM32F7xx_HAL_Driver/Src/stm32f7xx_ll_usb.c ****     /* Write packet into the Tx FIFO. */
2094:Drivers/STM32F7xx_HAL_Driver/Src/stm32f7xx_ll_usb.c ****     (void)USB_WritePacket(USBx, hc->xfer_buff, hc->ch_num, (uint16_t)hc->xfer_len, 0);
2095:Drivers/STM32F7xx_HAL_Driver/Src/stm32f7xx_ll_usb.c ****   }
2096:Drivers/STM32F7xx_HAL_Driver/Src/stm32f7xx_ll_usb.c **** 
2097:Drivers/STM32F7xx_HAL_Driver/Src/stm32f7xx_ll_usb.c ****   return HAL_OK;
2098:Drivers/STM32F7xx_HAL_Driver/Src/stm32f7xx_ll_usb.c **** }
2099:Drivers/STM32F7xx_HAL_Driver/Src/stm32f7xx_ll_usb.c **** 
2100:Drivers/STM32F7xx_HAL_Driver/Src/stm32f7xx_ll_usb.c **** /**
2101:Drivers/STM32F7xx_HAL_Driver/Src/stm32f7xx_ll_usb.c ****   * @brief Read all host channel interrupts status
2102:Drivers/STM32F7xx_HAL_Driver/Src/stm32f7xx_ll_usb.c ****   * @param  USBx  Selected device
2103:Drivers/STM32F7xx_HAL_Driver/Src/stm32f7xx_ll_usb.c ****   * @retval HAL state
2104:Drivers/STM32F7xx_HAL_Driver/Src/stm32f7xx_ll_usb.c ****   */
2105:Drivers/STM32F7xx_HAL_Driver/Src/stm32f7xx_ll_usb.c **** uint32_t USB_HC_ReadInterrupt(USB_OTG_GlobalTypeDef *USBx)
2106:Drivers/STM32F7xx_HAL_Driver/Src/stm32f7xx_ll_usb.c **** {
 4691              		.loc 1 2106 1 is_stmt 1 view -0
 4692              		.cfi_startproc
 4693              		@ args = 0, pretend = 0, frame = 0
 4694              		@ frame_needed = 0, uses_anonymous_args = 0
 4695              		@ link register save eliminated.
2107:Drivers/STM32F7xx_HAL_Driver/Src/stm32f7xx_ll_usb.c ****   uint32_t USBx_BASE = (uint32_t)USBx;
 4696              		.loc 1 2107 3 view .LVU1592
2108:Drivers/STM32F7xx_HAL_Driver/Src/stm32f7xx_ll_usb.c **** 
2109:Drivers/STM32F7xx_HAL_Driver/Src/stm32f7xx_ll_usb.c ****   return ((USBx_HOST->HAINT) & 0xFFFFU);
 4697              		.loc 1 2109 3 view .LVU1593
 4698              		.loc 1 2109 12 is_stmt 0 view .LVU1594
 4699 0000 00F58060 		add	r0, r0, #1024
 4700              	.LVL346:
ARM GAS  /tmp/cc8ZLjKA.s 			page 142


 4701              		.loc 1 2109 21 view .LVU1595
 4702 0004 4069     		ldr	r0, [r0, #20]
 4703              	.LVL347:
2110:Drivers/STM32F7xx_HAL_Driver/Src/stm32f7xx_ll_usb.c **** }
 4704              		.loc 1 2110 1 view .LVU1596
 4705 0006 80B2     		uxth	r0, r0
 4706 0008 7047     		bx	lr
 4707              		.cfi_endproc
 4708              	.LFE186:
 4710              		.section	.text.USB_HC_Halt,"ax",%progbits
 4711              		.align	1
 4712              		.global	USB_HC_Halt
 4713              		.syntax unified
 4714              		.thumb
 4715              		.thumb_func
 4717              	USB_HC_Halt:
 4718              	.LVL348:
 4719              	.LFB187:
2111:Drivers/STM32F7xx_HAL_Driver/Src/stm32f7xx_ll_usb.c **** 
2112:Drivers/STM32F7xx_HAL_Driver/Src/stm32f7xx_ll_usb.c **** /**
2113:Drivers/STM32F7xx_HAL_Driver/Src/stm32f7xx_ll_usb.c ****   * @brief  Halt a host channel
2114:Drivers/STM32F7xx_HAL_Driver/Src/stm32f7xx_ll_usb.c ****   * @param  USBx  Selected device
2115:Drivers/STM32F7xx_HAL_Driver/Src/stm32f7xx_ll_usb.c ****   * @param  hc_num  Host Channel number
2116:Drivers/STM32F7xx_HAL_Driver/Src/stm32f7xx_ll_usb.c ****   *         This parameter can be a value from 1 to 15
2117:Drivers/STM32F7xx_HAL_Driver/Src/stm32f7xx_ll_usb.c ****   * @retval HAL state
2118:Drivers/STM32F7xx_HAL_Driver/Src/stm32f7xx_ll_usb.c ****   */
2119:Drivers/STM32F7xx_HAL_Driver/Src/stm32f7xx_ll_usb.c **** HAL_StatusTypeDef USB_HC_Halt(USB_OTG_GlobalTypeDef *USBx, uint8_t hc_num)
2120:Drivers/STM32F7xx_HAL_Driver/Src/stm32f7xx_ll_usb.c **** {
 4720              		.loc 1 2120 1 is_stmt 1 view -0
 4721              		.cfi_startproc
 4722              		@ args = 0, pretend = 0, frame = 8
 4723              		@ frame_needed = 0, uses_anonymous_args = 0
 4724              		@ link register save eliminated.
 4725              		.loc 1 2120 1 is_stmt 0 view .LVU1598
 4726 0000 10B4     		push	{r4}
 4727              		.cfi_def_cfa_offset 4
 4728              		.cfi_offset 4, -4
 4729 0002 83B0     		sub	sp, sp, #12
 4730              		.cfi_def_cfa_offset 16
2121:Drivers/STM32F7xx_HAL_Driver/Src/stm32f7xx_ll_usb.c ****   uint32_t USBx_BASE = (uint32_t)USBx;
 4731              		.loc 1 2121 3 is_stmt 1 view .LVU1599
 4732              	.LVL349:
2122:Drivers/STM32F7xx_HAL_Driver/Src/stm32f7xx_ll_usb.c ****   uint32_t hcnum = (uint32_t)hc_num;
 4733              		.loc 1 2122 3 view .LVU1600
2123:Drivers/STM32F7xx_HAL_Driver/Src/stm32f7xx_ll_usb.c ****   __IO uint32_t count = 0U;
 4734              		.loc 1 2123 3 view .LVU1601
 4735              		.loc 1 2123 17 is_stmt 0 view .LVU1602
 4736 0004 0023     		movs	r3, #0
 4737 0006 0193     		str	r3, [sp, #4]
2124:Drivers/STM32F7xx_HAL_Driver/Src/stm32f7xx_ll_usb.c ****   uint32_t HcEpType = (USBx_HC(hcnum)->HCCHAR & USB_OTG_HCCHAR_EPTYP) >> 18;
 4738              		.loc 1 2124 3 is_stmt 1 view .LVU1603
 4739              		.loc 1 2124 24 is_stmt 0 view .LVU1604
 4740 0008 00EB4111 		add	r1, r0, r1, lsl #5
 4741              	.LVL350:
 4742              		.loc 1 2124 24 view .LVU1605
 4743 000c 01F5A06C 		add	ip, r1, #1280
 4744              		.loc 1 2124 38 view .LVU1606
ARM GAS  /tmp/cc8ZLjKA.s 			page 143


 4745 0010 D1F80035 		ldr	r3, [r1, #1280]
 4746              		.loc 1 2124 12 view .LVU1607
 4747 0014 C3F38143 		ubfx	r3, r3, #18, #2
 4748              	.LVL351:
2125:Drivers/STM32F7xx_HAL_Driver/Src/stm32f7xx_ll_usb.c ****   uint32_t ChannelEna = (USBx_HC(hcnum)->HCCHAR & USB_OTG_HCCHAR_CHENA) >> 31;
 4749              		.loc 1 2125 3 is_stmt 1 view .LVU1608
 4750              		.loc 1 2125 40 is_stmt 0 view .LVU1609
 4751 0018 D1F80025 		ldr	r2, [r1, #1280]
 4752              	.LVL352:
2126:Drivers/STM32F7xx_HAL_Driver/Src/stm32f7xx_ll_usb.c **** 
2127:Drivers/STM32F7xx_HAL_Driver/Src/stm32f7xx_ll_usb.c ****   if (((USBx->GAHBCFG & USB_OTG_GAHBCFG_DMAEN) == USB_OTG_GAHBCFG_DMAEN) &&
 4753              		.loc 1 2127 3 is_stmt 1 view .LVU1610
 4754              		.loc 1 2127 13 is_stmt 0 view .LVU1611
 4755 001c 8468     		ldr	r4, [r0, #8]
 4756              		.loc 1 2127 6 view .LVU1612
 4757 001e 14F0200F 		tst	r4, #32
 4758 0022 02D0     		beq	.L314
 4759 0024 D20F     		lsrs	r2, r2, #31
 4760              	.LVL353:
 4761              		.loc 1 2127 74 discriminator 1 view .LVU1613
 4762 0026 002A     		cmp	r2, #0
 4763 0028 59D0     		beq	.L315
 4764              	.LVL354:
 4765              	.L314:
2128:Drivers/STM32F7xx_HAL_Driver/Src/stm32f7xx_ll_usb.c ****       (ChannelEna == 0U))
2129:Drivers/STM32F7xx_HAL_Driver/Src/stm32f7xx_ll_usb.c ****   {
2130:Drivers/STM32F7xx_HAL_Driver/Src/stm32f7xx_ll_usb.c ****     return HAL_OK;
2131:Drivers/STM32F7xx_HAL_Driver/Src/stm32f7xx_ll_usb.c ****   }
2132:Drivers/STM32F7xx_HAL_Driver/Src/stm32f7xx_ll_usb.c **** 
2133:Drivers/STM32F7xx_HAL_Driver/Src/stm32f7xx_ll_usb.c ****   /* Check for space in the request queue to issue the halt. */
2134:Drivers/STM32F7xx_HAL_Driver/Src/stm32f7xx_ll_usb.c ****   if ((HcEpType == HCCHAR_CTRL) || (HcEpType == HCCHAR_BULK))
 4766              		.loc 1 2134 3 is_stmt 1 view .LVU1614
 4767              		.loc 1 2134 6 is_stmt 0 view .LVU1615
 4768 002a 022B     		cmp	r3, #2
 4769 002c 18BF     		it	ne
 4770 002e 002B     		cmpne	r3, #0
 4771 0030 2CD1     		bne	.L316
2135:Drivers/STM32F7xx_HAL_Driver/Src/stm32f7xx_ll_usb.c ****   {
2136:Drivers/STM32F7xx_HAL_Driver/Src/stm32f7xx_ll_usb.c ****     USBx_HC(hcnum)->HCCHAR |= USB_OTG_HCCHAR_CHDIS;
 4772              		.loc 1 2136 5 is_stmt 1 view .LVU1616
 4773              		.loc 1 2136 19 is_stmt 0 view .LVU1617
 4774 0032 D1F80035 		ldr	r3, [r1, #1280]
 4775              	.LVL355:
 4776              		.loc 1 2136 28 view .LVU1618
 4777 0036 43F08043 		orr	r3, r3, #1073741824
 4778 003a C1F80035 		str	r3, [r1, #1280]
2137:Drivers/STM32F7xx_HAL_Driver/Src/stm32f7xx_ll_usb.c **** 
2138:Drivers/STM32F7xx_HAL_Driver/Src/stm32f7xx_ll_usb.c ****     if ((USBx->GAHBCFG & USB_OTG_GAHBCFG_DMAEN) == 0U)
 4779              		.loc 1 2138 5 is_stmt 1 view .LVU1619
 4780              		.loc 1 2138 14 is_stmt 0 view .LVU1620
 4781 003e 8368     		ldr	r3, [r0, #8]
 4782              		.loc 1 2138 8 view .LVU1621
 4783 0040 13F0200F 		tst	r3, #32
 4784 0044 4BD1     		bne	.L315
2139:Drivers/STM32F7xx_HAL_Driver/Src/stm32f7xx_ll_usb.c ****     {
2140:Drivers/STM32F7xx_HAL_Driver/Src/stm32f7xx_ll_usb.c ****       if ((USBx->HNPTXSTS & (0xFFU << 16)) == 0U)
 4785              		.loc 1 2140 7 is_stmt 1 view .LVU1622
ARM GAS  /tmp/cc8ZLjKA.s 			page 144


 4786              		.loc 1 2140 16 is_stmt 0 view .LVU1623
 4787 0046 C36A     		ldr	r3, [r0, #44]
 4788              		.loc 1 2140 10 view .LVU1624
 4789 0048 13F47F0F 		tst	r3, #16711680
 4790 004c 17D1     		bne	.L317
2141:Drivers/STM32F7xx_HAL_Driver/Src/stm32f7xx_ll_usb.c ****       {
2142:Drivers/STM32F7xx_HAL_Driver/Src/stm32f7xx_ll_usb.c ****         USBx_HC(hcnum)->HCCHAR &= ~USB_OTG_HCCHAR_CHENA;
 4791              		.loc 1 2142 9 is_stmt 1 view .LVU1625
 4792              		.loc 1 2142 23 is_stmt 0 view .LVU1626
 4793 004e D1F80035 		ldr	r3, [r1, #1280]
 4794              		.loc 1 2142 32 view .LVU1627
 4795 0052 23F00043 		bic	r3, r3, #-2147483648
 4796 0056 C1F80035 		str	r3, [r1, #1280]
2143:Drivers/STM32F7xx_HAL_Driver/Src/stm32f7xx_ll_usb.c ****         USBx_HC(hcnum)->HCCHAR |= USB_OTG_HCCHAR_CHENA;
 4797              		.loc 1 2143 9 is_stmt 1 view .LVU1628
 4798              		.loc 1 2143 23 is_stmt 0 view .LVU1629
 4799 005a D1F80035 		ldr	r3, [r1, #1280]
 4800              		.loc 1 2143 32 view .LVU1630
 4801 005e 43F00043 		orr	r3, r3, #-2147483648
 4802 0062 C1F80035 		str	r3, [r1, #1280]
 4803              	.L318:
2144:Drivers/STM32F7xx_HAL_Driver/Src/stm32f7xx_ll_usb.c ****         do
 4804              		.loc 1 2144 9 is_stmt 1 view .LVU1631
2145:Drivers/STM32F7xx_HAL_Driver/Src/stm32f7xx_ll_usb.c ****         {
2146:Drivers/STM32F7xx_HAL_Driver/Src/stm32f7xx_ll_usb.c ****           count++;
 4805              		.loc 1 2146 11 view .LVU1632
 4806              		.loc 1 2146 16 is_stmt 0 view .LVU1633
 4807 0066 019B     		ldr	r3, [sp, #4]
 4808 0068 0133     		adds	r3, r3, #1
 4809 006a 0193     		str	r3, [sp, #4]
2147:Drivers/STM32F7xx_HAL_Driver/Src/stm32f7xx_ll_usb.c **** 
2148:Drivers/STM32F7xx_HAL_Driver/Src/stm32f7xx_ll_usb.c ****           if (count > 1000U)
 4810              		.loc 1 2148 11 is_stmt 1 view .LVU1634
 4811              		.loc 1 2148 21 is_stmt 0 view .LVU1635
 4812 006c 019B     		ldr	r3, [sp, #4]
 4813              		.loc 1 2148 14 view .LVU1636
 4814 006e B3F57A7F 		cmp	r3, #1000
 4815 0072 34D8     		bhi	.L315
2149:Drivers/STM32F7xx_HAL_Driver/Src/stm32f7xx_ll_usb.c ****           {
2150:Drivers/STM32F7xx_HAL_Driver/Src/stm32f7xx_ll_usb.c ****             break;
2151:Drivers/STM32F7xx_HAL_Driver/Src/stm32f7xx_ll_usb.c ****           }
2152:Drivers/STM32F7xx_HAL_Driver/Src/stm32f7xx_ll_usb.c ****         } while ((USBx_HC(hcnum)->HCCHAR & USB_OTG_HCCHAR_CHENA) == USB_OTG_HCCHAR_CHENA);
 4816              		.loc 1 2152 66 is_stmt 1 view .LVU1637
 4817              		.loc 1 2152 33 is_stmt 0 view .LVU1638
 4818 0074 DCF80030 		ldr	r3, [ip]
 4819              		.loc 1 2152 66 view .LVU1639
 4820 0078 002B     		cmp	r3, #0
 4821 007a F4DB     		blt	.L318
 4822 007c 2FE0     		b	.L315
 4823              	.L317:
2153:Drivers/STM32F7xx_HAL_Driver/Src/stm32f7xx_ll_usb.c ****       }
2154:Drivers/STM32F7xx_HAL_Driver/Src/stm32f7xx_ll_usb.c ****       else
2155:Drivers/STM32F7xx_HAL_Driver/Src/stm32f7xx_ll_usb.c ****       {
2156:Drivers/STM32F7xx_HAL_Driver/Src/stm32f7xx_ll_usb.c ****         USBx_HC(hcnum)->HCCHAR |= USB_OTG_HCCHAR_CHENA;
 4824              		.loc 1 2156 9 is_stmt 1 view .LVU1640
 4825              		.loc 1 2156 23 is_stmt 0 view .LVU1641
 4826 007e D1F80035 		ldr	r3, [r1, #1280]
ARM GAS  /tmp/cc8ZLjKA.s 			page 145


 4827              		.loc 1 2156 32 view .LVU1642
 4828 0082 43F00043 		orr	r3, r3, #-2147483648
 4829 0086 C1F80035 		str	r3, [r1, #1280]
 4830 008a 28E0     		b	.L315
 4831              	.LVL356:
 4832              	.L316:
2157:Drivers/STM32F7xx_HAL_Driver/Src/stm32f7xx_ll_usb.c ****       }
2158:Drivers/STM32F7xx_HAL_Driver/Src/stm32f7xx_ll_usb.c ****     }
2159:Drivers/STM32F7xx_HAL_Driver/Src/stm32f7xx_ll_usb.c ****   }
2160:Drivers/STM32F7xx_HAL_Driver/Src/stm32f7xx_ll_usb.c ****   else
2161:Drivers/STM32F7xx_HAL_Driver/Src/stm32f7xx_ll_usb.c ****   {
2162:Drivers/STM32F7xx_HAL_Driver/Src/stm32f7xx_ll_usb.c ****     USBx_HC(hcnum)->HCCHAR |= USB_OTG_HCCHAR_CHDIS;
 4833              		.loc 1 2162 5 is_stmt 1 view .LVU1643
 4834              		.loc 1 2162 19 is_stmt 0 view .LVU1644
 4835 008c D1F80035 		ldr	r3, [r1, #1280]
 4836              	.LVL357:
 4837              		.loc 1 2162 28 view .LVU1645
 4838 0090 43F08043 		orr	r3, r3, #1073741824
 4839 0094 C1F80035 		str	r3, [r1, #1280]
2163:Drivers/STM32F7xx_HAL_Driver/Src/stm32f7xx_ll_usb.c **** 
2164:Drivers/STM32F7xx_HAL_Driver/Src/stm32f7xx_ll_usb.c ****     if ((USBx_HOST->HPTXSTS & (0xFFU << 16)) == 0U)
 4840              		.loc 1 2164 5 is_stmt 1 view .LVU1646
 4841              		.loc 1 2164 19 is_stmt 0 view .LVU1647
 4842 0098 D0F81034 		ldr	r3, [r0, #1040]
 4843              		.loc 1 2164 8 view .LVU1648
 4844 009c 13F47F0F 		tst	r3, #16711680
 4845 00a0 17D1     		bne	.L319
2165:Drivers/STM32F7xx_HAL_Driver/Src/stm32f7xx_ll_usb.c ****     {
2166:Drivers/STM32F7xx_HAL_Driver/Src/stm32f7xx_ll_usb.c ****       USBx_HC(hcnum)->HCCHAR &= ~USB_OTG_HCCHAR_CHENA;
 4846              		.loc 1 2166 7 is_stmt 1 view .LVU1649
 4847              		.loc 1 2166 21 is_stmt 0 view .LVU1650
 4848 00a2 D1F80035 		ldr	r3, [r1, #1280]
 4849              		.loc 1 2166 30 view .LVU1651
 4850 00a6 23F00043 		bic	r3, r3, #-2147483648
 4851 00aa C1F80035 		str	r3, [r1, #1280]
2167:Drivers/STM32F7xx_HAL_Driver/Src/stm32f7xx_ll_usb.c ****       USBx_HC(hcnum)->HCCHAR |= USB_OTG_HCCHAR_CHENA;
 4852              		.loc 1 2167 7 is_stmt 1 view .LVU1652
 4853              		.loc 1 2167 21 is_stmt 0 view .LVU1653
 4854 00ae D1F80035 		ldr	r3, [r1, #1280]
 4855              		.loc 1 2167 30 view .LVU1654
 4856 00b2 43F00043 		orr	r3, r3, #-2147483648
 4857 00b6 C1F80035 		str	r3, [r1, #1280]
 4858              	.L320:
2168:Drivers/STM32F7xx_HAL_Driver/Src/stm32f7xx_ll_usb.c ****       do
 4859              		.loc 1 2168 7 is_stmt 1 view .LVU1655
2169:Drivers/STM32F7xx_HAL_Driver/Src/stm32f7xx_ll_usb.c ****       {
2170:Drivers/STM32F7xx_HAL_Driver/Src/stm32f7xx_ll_usb.c ****         count++;
 4860              		.loc 1 2170 9 view .LVU1656
 4861              		.loc 1 2170 14 is_stmt 0 view .LVU1657
 4862 00ba 019B     		ldr	r3, [sp, #4]
 4863 00bc 0133     		adds	r3, r3, #1
 4864 00be 0193     		str	r3, [sp, #4]
2171:Drivers/STM32F7xx_HAL_Driver/Src/stm32f7xx_ll_usb.c **** 
2172:Drivers/STM32F7xx_HAL_Driver/Src/stm32f7xx_ll_usb.c ****         if (count > 1000U)
 4865              		.loc 1 2172 9 is_stmt 1 view .LVU1658
 4866              		.loc 1 2172 19 is_stmt 0 view .LVU1659
 4867 00c0 019B     		ldr	r3, [sp, #4]
ARM GAS  /tmp/cc8ZLjKA.s 			page 146


 4868              		.loc 1 2172 12 view .LVU1660
 4869 00c2 B3F57A7F 		cmp	r3, #1000
 4870 00c6 0AD8     		bhi	.L315
2173:Drivers/STM32F7xx_HAL_Driver/Src/stm32f7xx_ll_usb.c ****         {
2174:Drivers/STM32F7xx_HAL_Driver/Src/stm32f7xx_ll_usb.c ****           break;
2175:Drivers/STM32F7xx_HAL_Driver/Src/stm32f7xx_ll_usb.c ****         }
2176:Drivers/STM32F7xx_HAL_Driver/Src/stm32f7xx_ll_usb.c ****       } while ((USBx_HC(hcnum)->HCCHAR & USB_OTG_HCCHAR_CHENA) == USB_OTG_HCCHAR_CHENA);
 4871              		.loc 1 2176 64 is_stmt 1 view .LVU1661
 4872              		.loc 1 2176 31 is_stmt 0 view .LVU1662
 4873 00c8 DCF80030 		ldr	r3, [ip]
 4874              		.loc 1 2176 64 view .LVU1663
 4875 00cc 002B     		cmp	r3, #0
 4876 00ce F4DB     		blt	.L320
 4877 00d0 05E0     		b	.L315
 4878              	.L319:
2177:Drivers/STM32F7xx_HAL_Driver/Src/stm32f7xx_ll_usb.c ****     }
2178:Drivers/STM32F7xx_HAL_Driver/Src/stm32f7xx_ll_usb.c ****     else
2179:Drivers/STM32F7xx_HAL_Driver/Src/stm32f7xx_ll_usb.c ****     {
2180:Drivers/STM32F7xx_HAL_Driver/Src/stm32f7xx_ll_usb.c ****       USBx_HC(hcnum)->HCCHAR |= USB_OTG_HCCHAR_CHENA;
 4879              		.loc 1 2180 7 is_stmt 1 view .LVU1664
 4880              		.loc 1 2180 21 is_stmt 0 view .LVU1665
 4881 00d2 D1F80035 		ldr	r3, [r1, #1280]
 4882              		.loc 1 2180 30 view .LVU1666
 4883 00d6 43F00043 		orr	r3, r3, #-2147483648
 4884 00da C1F80035 		str	r3, [r1, #1280]
 4885              	.L315:
2181:Drivers/STM32F7xx_HAL_Driver/Src/stm32f7xx_ll_usb.c ****     }
2182:Drivers/STM32F7xx_HAL_Driver/Src/stm32f7xx_ll_usb.c ****   }
2183:Drivers/STM32F7xx_HAL_Driver/Src/stm32f7xx_ll_usb.c **** 
2184:Drivers/STM32F7xx_HAL_Driver/Src/stm32f7xx_ll_usb.c ****   return HAL_OK;
2185:Drivers/STM32F7xx_HAL_Driver/Src/stm32f7xx_ll_usb.c **** }
 4886              		.loc 1 2185 1 view .LVU1667
 4887 00de 0020     		movs	r0, #0
 4888              	.LVL358:
 4889              		.loc 1 2185 1 view .LVU1668
 4890 00e0 03B0     		add	sp, sp, #12
 4891              		.cfi_def_cfa_offset 4
 4892              		@ sp needed
 4893 00e2 5DF8044B 		ldr	r4, [sp], #4
 4894              		.cfi_restore 4
 4895              		.cfi_def_cfa_offset 0
 4896 00e6 7047     		bx	lr
 4897              		.cfi_endproc
 4898              	.LFE187:
 4900              		.section	.text.USB_DoPing,"ax",%progbits
 4901              		.align	1
 4902              		.global	USB_DoPing
 4903              		.syntax unified
 4904              		.thumb
 4905              		.thumb_func
 4907              	USB_DoPing:
 4908              	.LVL359:
 4909              	.LFB188:
2186:Drivers/STM32F7xx_HAL_Driver/Src/stm32f7xx_ll_usb.c **** 
2187:Drivers/STM32F7xx_HAL_Driver/Src/stm32f7xx_ll_usb.c **** /**
2188:Drivers/STM32F7xx_HAL_Driver/Src/stm32f7xx_ll_usb.c ****   * @brief  Initiate Do Ping protocol
2189:Drivers/STM32F7xx_HAL_Driver/Src/stm32f7xx_ll_usb.c ****   * @param  USBx  Selected device
ARM GAS  /tmp/cc8ZLjKA.s 			page 147


2190:Drivers/STM32F7xx_HAL_Driver/Src/stm32f7xx_ll_usb.c ****   * @param  hc_num  Host Channel number
2191:Drivers/STM32F7xx_HAL_Driver/Src/stm32f7xx_ll_usb.c ****   *         This parameter can be a value from 1 to 15
2192:Drivers/STM32F7xx_HAL_Driver/Src/stm32f7xx_ll_usb.c ****   * @retval HAL state
2193:Drivers/STM32F7xx_HAL_Driver/Src/stm32f7xx_ll_usb.c ****   */
2194:Drivers/STM32F7xx_HAL_Driver/Src/stm32f7xx_ll_usb.c **** HAL_StatusTypeDef USB_DoPing(USB_OTG_GlobalTypeDef *USBx, uint8_t ch_num)
2195:Drivers/STM32F7xx_HAL_Driver/Src/stm32f7xx_ll_usb.c **** {
 4910              		.loc 1 2195 1 is_stmt 1 view -0
 4911              		.cfi_startproc
 4912              		@ args = 0, pretend = 0, frame = 0
 4913              		@ frame_needed = 0, uses_anonymous_args = 0
 4914              		@ link register save eliminated.
2196:Drivers/STM32F7xx_HAL_Driver/Src/stm32f7xx_ll_usb.c ****   uint32_t USBx_BASE = (uint32_t)USBx;
 4915              		.loc 1 2196 3 view .LVU1670
2197:Drivers/STM32F7xx_HAL_Driver/Src/stm32f7xx_ll_usb.c ****   uint32_t chnum = (uint32_t)ch_num;
 4916              		.loc 1 2197 3 view .LVU1671
2198:Drivers/STM32F7xx_HAL_Driver/Src/stm32f7xx_ll_usb.c ****   uint32_t num_packets = 1U;
 4917              		.loc 1 2198 3 view .LVU1672
2199:Drivers/STM32F7xx_HAL_Driver/Src/stm32f7xx_ll_usb.c ****   uint32_t tmpreg;
 4918              		.loc 1 2199 3 view .LVU1673
2200:Drivers/STM32F7xx_HAL_Driver/Src/stm32f7xx_ll_usb.c **** 
2201:Drivers/STM32F7xx_HAL_Driver/Src/stm32f7xx_ll_usb.c ****   USBx_HC(chnum)->HCTSIZ = ((num_packets << 19) & USB_OTG_HCTSIZ_PKTCNT) |
 4919              		.loc 1 2201 3 view .LVU1674
 4920 0000 00EB4110 		add	r0, r0, r1, lsl #5
 4921              	.LVL360:
 4922              		.loc 1 2201 26 is_stmt 0 view .LVU1675
 4923 0004 064A     		ldr	r2, .L323
 4924 0006 C0F81025 		str	r2, [r0, #1296]
2202:Drivers/STM32F7xx_HAL_Driver/Src/stm32f7xx_ll_usb.c ****                            USB_OTG_HCTSIZ_DOPING;
2203:Drivers/STM32F7xx_HAL_Driver/Src/stm32f7xx_ll_usb.c **** 
2204:Drivers/STM32F7xx_HAL_Driver/Src/stm32f7xx_ll_usb.c ****   /* Set host channel enable */
2205:Drivers/STM32F7xx_HAL_Driver/Src/stm32f7xx_ll_usb.c ****   tmpreg = USBx_HC(chnum)->HCCHAR;
 4925              		.loc 1 2205 3 is_stmt 1 view .LVU1676
 4926              		.loc 1 2205 10 is_stmt 0 view .LVU1677
 4927 000a D0F80035 		ldr	r3, [r0, #1280]
 4928              	.LVL361:
2206:Drivers/STM32F7xx_HAL_Driver/Src/stm32f7xx_ll_usb.c ****   tmpreg &= ~USB_OTG_HCCHAR_CHDIS;
 4929              		.loc 1 2206 3 is_stmt 1 view .LVU1678
 4930              		.loc 1 2206 10 is_stmt 0 view .LVU1679
 4931 000e 23F08043 		bic	r3, r3, #1073741824
 4932              	.LVL362:
2207:Drivers/STM32F7xx_HAL_Driver/Src/stm32f7xx_ll_usb.c ****   tmpreg |= USB_OTG_HCCHAR_CHENA;
 4933              		.loc 1 2207 3 is_stmt 1 view .LVU1680
 4934              		.loc 1 2207 10 is_stmt 0 view .LVU1681
 4935 0012 43F00043 		orr	r3, r3, #-2147483648
 4936              	.LVL363:
2208:Drivers/STM32F7xx_HAL_Driver/Src/stm32f7xx_ll_usb.c ****   USBx_HC(chnum)->HCCHAR = tmpreg;
 4937              		.loc 1 2208 3 is_stmt 1 view .LVU1682
 4938              		.loc 1 2208 26 is_stmt 0 view .LVU1683
 4939 0016 C0F80035 		str	r3, [r0, #1280]
2209:Drivers/STM32F7xx_HAL_Driver/Src/stm32f7xx_ll_usb.c **** 
2210:Drivers/STM32F7xx_HAL_Driver/Src/stm32f7xx_ll_usb.c ****   return HAL_OK;
 4940              		.loc 1 2210 3 is_stmt 1 view .LVU1684
2211:Drivers/STM32F7xx_HAL_Driver/Src/stm32f7xx_ll_usb.c **** }
 4941              		.loc 1 2211 1 is_stmt 0 view .LVU1685
 4942 001a 0020     		movs	r0, #0
 4943 001c 7047     		bx	lr
 4944              	.L324:
ARM GAS  /tmp/cc8ZLjKA.s 			page 148


 4945 001e 00BF     		.align	2
 4946              	.L323:
 4947 0020 00000880 		.word	-2146959360
 4948              		.cfi_endproc
 4949              	.LFE188:
 4951              		.section	.text.USB_HC_StartXfer,"ax",%progbits
 4952              		.align	1
 4953              		.global	USB_HC_StartXfer
 4954              		.syntax unified
 4955              		.thumb
 4956              		.thumb_func
 4958              	USB_HC_StartXfer:
 4959              	.LVL364:
 4960              	.LFB185:
1967:Drivers/STM32F7xx_HAL_Driver/Src/stm32f7xx_ll_usb.c ****   uint32_t USBx_BASE = (uint32_t)USBx;
 4961              		.loc 1 1967 1 is_stmt 1 view -0
 4962              		.cfi_startproc
 4963              		@ args = 0, pretend = 0, frame = 8
 4964              		@ frame_needed = 0, uses_anonymous_args = 0
1967:Drivers/STM32F7xx_HAL_Driver/Src/stm32f7xx_ll_usb.c ****   uint32_t USBx_BASE = (uint32_t)USBx;
 4965              		.loc 1 1967 1 is_stmt 0 view .LVU1687
 4966 0000 30B5     		push	{r4, r5, lr}
 4967              		.cfi_def_cfa_offset 12
 4968              		.cfi_offset 4, -12
 4969              		.cfi_offset 5, -8
 4970              		.cfi_offset 14, -4
 4971 0002 85B0     		sub	sp, sp, #20
 4972              		.cfi_def_cfa_offset 32
1968:Drivers/STM32F7xx_HAL_Driver/Src/stm32f7xx_ll_usb.c ****   uint32_t ch_num = (uint32_t)hc->ch_num;
 4973              		.loc 1 1968 3 is_stmt 1 view .LVU1688
 4974              	.LVL365:
1969:Drivers/STM32F7xx_HAL_Driver/Src/stm32f7xx_ll_usb.c ****   __IO uint32_t tmpreg;
 4975              		.loc 1 1969 3 view .LVU1689
1969:Drivers/STM32F7xx_HAL_Driver/Src/stm32f7xx_ll_usb.c ****   __IO uint32_t tmpreg;
 4976              		.loc 1 1969 33 is_stmt 0 view .LVU1690
 4977 0004 4B78     		ldrb	r3, [r1, #1]	@ zero_extendqisi2
 4978              	.LVL366:
1970:Drivers/STM32F7xx_HAL_Driver/Src/stm32f7xx_ll_usb.c ****   uint8_t  is_oddframe;
 4979              		.loc 1 1970 3 is_stmt 1 view .LVU1691
1971:Drivers/STM32F7xx_HAL_Driver/Src/stm32f7xx_ll_usb.c ****   uint16_t len_words;
 4980              		.loc 1 1971 3 view .LVU1692
1972:Drivers/STM32F7xx_HAL_Driver/Src/stm32f7xx_ll_usb.c ****   uint16_t num_packets;
 4981              		.loc 1 1972 3 view .LVU1693
1973:Drivers/STM32F7xx_HAL_Driver/Src/stm32f7xx_ll_usb.c ****   uint16_t max_hc_pkt_count = 256U;
 4982              		.loc 1 1973 3 view .LVU1694
1974:Drivers/STM32F7xx_HAL_Driver/Src/stm32f7xx_ll_usb.c **** 
 4983              		.loc 1 1974 3 view .LVU1695
1976:Drivers/STM32F7xx_HAL_Driver/Src/stm32f7xx_ll_usb.c ****   {
 4984              		.loc 1 1976 3 view .LVU1696
1976:Drivers/STM32F7xx_HAL_Driver/Src/stm32f7xx_ll_usb.c ****   {
 4985              		.loc 1 1976 13 is_stmt 0 view .LVU1697
 4986 0006 C46B     		ldr	r4, [r0, #60]
1976:Drivers/STM32F7xx_HAL_Driver/Src/stm32f7xx_ll_usb.c ****   {
 4987              		.loc 1 1976 6 view .LVU1698
 4988 0008 14F4807F 		tst	r4, #256
 4989 000c 07D0     		beq	.L326
1976:Drivers/STM32F7xx_HAL_Driver/Src/stm32f7xx_ll_usb.c ****   {
ARM GAS  /tmp/cc8ZLjKA.s 			page 149


 4990              		.loc 1 1976 47 discriminator 1 view .LVU1699
 4991 000e 0C79     		ldrb	r4, [r1, #4]	@ zero_extendqisi2
1976:Drivers/STM32F7xx_HAL_Driver/Src/stm32f7xx_ll_usb.c ****   {
 4992              		.loc 1 1976 41 discriminator 1 view .LVU1700
 4993 0010 2CB9     		cbnz	r4, .L326
1979:Drivers/STM32F7xx_HAL_Driver/Src/stm32f7xx_ll_usb.c ****     {
 4994              		.loc 1 1979 5 is_stmt 1 view .LVU1701
1979:Drivers/STM32F7xx_HAL_Driver/Src/stm32f7xx_ll_usb.c ****     {
 4995              		.loc 1 1979 8 is_stmt 0 view .LVU1702
 4996 0012 012A     		cmp	r2, #1
 4997 0014 16D0     		beq	.L342
 4998              	.L327:
1986:Drivers/STM32F7xx_HAL_Driver/Src/stm32f7xx_ll_usb.c ****     {
 4999              		.loc 1 1986 5 is_stmt 1 view .LVU1703
1986:Drivers/STM32F7xx_HAL_Driver/Src/stm32f7xx_ll_usb.c ****     {
 5000              		.loc 1 1986 8 is_stmt 0 view .LVU1704
 5001 0016 12B9     		cbnz	r2, .L326
1986:Drivers/STM32F7xx_HAL_Driver/Src/stm32f7xx_ll_usb.c ****     {
 5002              		.loc 1 1986 27 discriminator 1 view .LVU1705
 5003 0018 4C79     		ldrb	r4, [r1, #5]	@ zero_extendqisi2
1986:Drivers/STM32F7xx_HAL_Driver/Src/stm32f7xx_ll_usb.c ****     {
 5004              		.loc 1 1986 21 discriminator 1 view .LVU1706
 5005 001a 012C     		cmp	r4, #1
 5006 001c 20D0     		beq	.L343
 5007              	.L326:
1995:Drivers/STM32F7xx_HAL_Driver/Src/stm32f7xx_ll_usb.c ****   {
 5008              		.loc 1 1995 3 is_stmt 1 view .LVU1707
1995:Drivers/STM32F7xx_HAL_Driver/Src/stm32f7xx_ll_usb.c ****   {
 5009              		.loc 1 1995 9 is_stmt 0 view .LVU1708
 5010 001e 4C69     		ldr	r4, [r1, #20]
1995:Drivers/STM32F7xx_HAL_Driver/Src/stm32f7xx_ll_usb.c ****   {
 5011              		.loc 1 1995 6 view .LVU1709
 5012 0020 14B3     		cbz	r4, .L339
1997:Drivers/STM32F7xx_HAL_Driver/Src/stm32f7xx_ll_usb.c **** 
 5013              		.loc 1 1997 5 is_stmt 1 view .LVU1710
1997:Drivers/STM32F7xx_HAL_Driver/Src/stm32f7xx_ll_usb.c **** 
 5014              		.loc 1 1997 48 is_stmt 0 view .LVU1711
 5015 0022 0D89     		ldrh	r5, [r1, #8]
1997:Drivers/STM32F7xx_HAL_Driver/Src/stm32f7xx_ll_usb.c **** 
 5016              		.loc 1 1997 44 view .LVU1712
 5017 0024 04EB050C 		add	ip, r4, r5
1997:Drivers/STM32F7xx_HAL_Driver/Src/stm32f7xx_ll_usb.c **** 
 5018              		.loc 1 1997 61 view .LVU1713
 5019 0028 0CF1FF3C 		add	ip, ip, #-1
1997:Drivers/STM32F7xx_HAL_Driver/Src/stm32f7xx_ll_usb.c **** 
 5020              		.loc 1 1997 67 view .LVU1714
 5021 002c BCFBF5FC 		udiv	ip, ip, r5
1997:Drivers/STM32F7xx_HAL_Driver/Src/stm32f7xx_ll_usb.c **** 
 5022              		.loc 1 1997 17 view .LVU1715
 5023 0030 1FFA8CFC 		uxth	ip, ip
 5024              	.LVL367:
1999:Drivers/STM32F7xx_HAL_Driver/Src/stm32f7xx_ll_usb.c ****     {
 5025              		.loc 1 1999 5 is_stmt 1 view .LVU1716
1999:Drivers/STM32F7xx_HAL_Driver/Src/stm32f7xx_ll_usb.c ****     {
 5026              		.loc 1 1999 8 is_stmt 0 view .LVU1717
 5027 0034 BCF5807F 		cmp	ip, #256
 5028 0038 18D9     		bls	.L329
ARM GAS  /tmp/cc8ZLjKA.s 			page 150


2001:Drivers/STM32F7xx_HAL_Driver/Src/stm32f7xx_ll_usb.c ****       hc->XferSize = (uint32_t)num_packets * hc->max_packet;
 5029              		.loc 1 2001 7 is_stmt 1 view .LVU1718
 5030              	.LVL368:
2002:Drivers/STM32F7xx_HAL_Driver/Src/stm32f7xx_ll_usb.c ****     }
 5031              		.loc 1 2002 7 view .LVU1719
2002:Drivers/STM32F7xx_HAL_Driver/Src/stm32f7xx_ll_usb.c ****     }
 5032              		.loc 1 2002 44 is_stmt 0 view .LVU1720
 5033 003a 2D02     		lsls	r5, r5, #8
2002:Drivers/STM32F7xx_HAL_Driver/Src/stm32f7xx_ll_usb.c ****     }
 5034              		.loc 1 2002 20 view .LVU1721
 5035 003c 0D61     		str	r5, [r1, #16]
2001:Drivers/STM32F7xx_HAL_Driver/Src/stm32f7xx_ll_usb.c ****       hc->XferSize = (uint32_t)num_packets * hc->max_packet;
 5036              		.loc 1 2001 19 view .LVU1722
 5037 003e 4FF4807C 		mov	ip, #256
 5038 0042 13E0     		b	.L329
 5039              	.LVL369:
 5040              	.L342:
1979:Drivers/STM32F7xx_HAL_Driver/Src/stm32f7xx_ll_usb.c ****     {
 5041              		.loc 1 1979 28 discriminator 1 view .LVU1723
 5042 0044 CC79     		ldrb	r4, [r1, #7]	@ zero_extendqisi2
1979:Drivers/STM32F7xx_HAL_Driver/Src/stm32f7xx_ll_usb.c ****     {
 5043              		.loc 1 1979 21 discriminator 1 view .LVU1724
 5044 0046 022C     		cmp	r4, #2
 5045 0048 18BF     		it	ne
 5046 004a 002C     		cmpne	r4, #0
 5047 004c E3D1     		bne	.L327
1981:Drivers/STM32F7xx_HAL_Driver/Src/stm32f7xx_ll_usb.c ****                                                USB_OTG_HCINTMSK_ACKM |
 5048              		.loc 1 1981 7 is_stmt 1 view .LVU1725
1981:Drivers/STM32F7xx_HAL_Driver/Src/stm32f7xx_ll_usb.c ****                                                USB_OTG_HCINTMSK_ACKM |
 5049              		.loc 1 1981 32 is_stmt 0 view .LVU1726
 5050 004e 00EB4314 		add	r4, r0, r3, lsl #5
 5051 0052 D4F80C55 		ldr	r5, [r4, #1292]
1981:Drivers/STM32F7xx_HAL_Driver/Src/stm32f7xx_ll_usb.c ****                                                USB_OTG_HCINTMSK_ACKM |
 5052              		.loc 1 1981 43 view .LVU1727
 5053 0056 25F07005 		bic	r5, r5, #112
 5054 005a C4F80C55 		str	r5, [r4, #1292]
 5055 005e DAE7     		b	.L327
 5056              	.L343:
1988:Drivers/STM32F7xx_HAL_Driver/Src/stm32f7xx_ll_usb.c ****       return HAL_OK;
 5057              		.loc 1 1988 7 is_stmt 1 view .LVU1728
1988:Drivers/STM32F7xx_HAL_Driver/Src/stm32f7xx_ll_usb.c ****       return HAL_OK;
 5058              		.loc 1 1988 13 is_stmt 0 view .LVU1729
 5059 0060 4978     		ldrb	r1, [r1, #1]	@ zero_extendqisi2
 5060              	.LVL370:
1988:Drivers/STM32F7xx_HAL_Driver/Src/stm32f7xx_ll_usb.c ****       return HAL_OK;
 5061              		.loc 1 1988 13 view .LVU1730
 5062 0062 FFF7FEFF 		bl	USB_DoPing
 5063              	.LVL371:
1989:Drivers/STM32F7xx_HAL_Driver/Src/stm32f7xx_ll_usb.c ****     }
 5064              		.loc 1 1989 7 is_stmt 1 view .LVU1731
1989:Drivers/STM32F7xx_HAL_Driver/Src/stm32f7xx_ll_usb.c ****     }
 5065              		.loc 1 1989 14 is_stmt 0 view .LVU1732
 5066 0066 6FE0     		b	.L328
 5067              	.LVL372:
 5068              	.L339:
2007:Drivers/STM32F7xx_HAL_Driver/Src/stm32f7xx_ll_usb.c ****   }
 5069              		.loc 1 2007 17 view .LVU1733
ARM GAS  /tmp/cc8ZLjKA.s 			page 151


 5070 0068 4FF0010C 		mov	ip, #1
 5071              	.L329:
 5072              	.LVL373:
2014:Drivers/STM32F7xx_HAL_Driver/Src/stm32f7xx_ll_usb.c ****   {
 5073              		.loc 1 2014 3 is_stmt 1 view .LVU1734
2014:Drivers/STM32F7xx_HAL_Driver/Src/stm32f7xx_ll_usb.c ****   {
 5074              		.loc 1 2014 9 is_stmt 0 view .LVU1735
 5075 006c CD78     		ldrb	r5, [r1, #3]	@ zero_extendqisi2
2014:Drivers/STM32F7xx_HAL_Driver/Src/stm32f7xx_ll_usb.c ****   {
 5076              		.loc 1 2014 6 view .LVU1736
 5077 006e 002D     		cmp	r5, #0
 5078 0070 51D0     		beq	.L330
2016:Drivers/STM32F7xx_HAL_Driver/Src/stm32f7xx_ll_usb.c ****   }
 5079              		.loc 1 2016 5 is_stmt 1 view .LVU1737
2016:Drivers/STM32F7xx_HAL_Driver/Src/stm32f7xx_ll_usb.c ****   }
 5080              		.loc 1 2016 46 is_stmt 0 view .LVU1738
 5081 0072 0C89     		ldrh	r4, [r1, #8]
2016:Drivers/STM32F7xx_HAL_Driver/Src/stm32f7xx_ll_usb.c ****   }
 5082              		.loc 1 2016 42 view .LVU1739
 5083 0074 04FB0CF4 		mul	r4, r4, ip
2016:Drivers/STM32F7xx_HAL_Driver/Src/stm32f7xx_ll_usb.c ****   }
 5084              		.loc 1 2016 18 view .LVU1740
 5085 0078 0C61     		str	r4, [r1, #16]
 5086              	.L331:
2024:Drivers/STM32F7xx_HAL_Driver/Src/stm32f7xx_ll_usb.c ****                             (((uint32_t)num_packets << 19) & USB_OTG_HCTSIZ_PKTCNT) |
 5087              		.loc 1 2024 3 is_stmt 1 view .LVU1741
2024:Drivers/STM32F7xx_HAL_Driver/Src/stm32f7xx_ll_usb.c ****                             (((uint32_t)num_packets << 19) & USB_OTG_HCTSIZ_PKTCNT) |
 5088              		.loc 1 2024 32 is_stmt 0 view .LVU1742
 5089 007a 0C69     		ldr	r4, [r1, #16]
2024:Drivers/STM32F7xx_HAL_Driver/Src/stm32f7xx_ll_usb.c ****                             (((uint32_t)num_packets << 19) & USB_OTG_HCTSIZ_PKTCNT) |
 5090              		.loc 1 2024 43 view .LVU1743
 5091 007c C4F31204 		ubfx	r4, r4, #0, #19
2025:Drivers/STM32F7xx_HAL_Driver/Src/stm32f7xx_ll_usb.c ****                             (((uint32_t)hc->data_pid << 29) & USB_OTG_HCTSIZ_DPID);
 5092              		.loc 1 2025 60 view .LVU1744
 5093 0080 394D     		ldr	r5, .L344
 5094 0082 05EACC4C 		and	ip, r5, ip, lsl #19
 5095              	.LVL374:
2024:Drivers/STM32F7xx_HAL_Driver/Src/stm32f7xx_ll_usb.c ****                             (((uint32_t)num_packets << 19) & USB_OTG_HCTSIZ_PKTCNT) |
 5096              		.loc 1 2024 68 view .LVU1745
 5097 0086 44EA0C04 		orr	r4, r4, ip
2026:Drivers/STM32F7xx_HAL_Driver/Src/stm32f7xx_ll_usb.c **** 
 5098              		.loc 1 2026 43 view .LVU1746
 5099 008a 91F80AC0 		ldrb	ip, [r1, #10]	@ zero_extendqisi2
2026:Drivers/STM32F7xx_HAL_Driver/Src/stm32f7xx_ll_usb.c **** 
 5100              		.loc 1 2026 54 view .LVU1747
 5101 008e 4FEA4C7C 		lsl	ip, ip, #29
2026:Drivers/STM32F7xx_HAL_Driver/Src/stm32f7xx_ll_usb.c **** 
 5102              		.loc 1 2026 61 view .LVU1748
 5103 0092 0CF0C04C 		and	ip, ip, #1610612736
2024:Drivers/STM32F7xx_HAL_Driver/Src/stm32f7xx_ll_usb.c ****                             (((uint32_t)num_packets << 19) & USB_OTG_HCTSIZ_PKTCNT) |
 5104              		.loc 1 2024 3 view .LVU1749
 5105 0096 00EB4313 		add	r3, r0, r3, lsl #5
 5106              	.LVL375:
2025:Drivers/STM32F7xx_HAL_Driver/Src/stm32f7xx_ll_usb.c ****                             (((uint32_t)hc->data_pid << 29) & USB_OTG_HCTSIZ_DPID);
 5107              		.loc 1 2025 85 view .LVU1750
 5108 009a 44EA0C04 		orr	r4, r4, ip
2024:Drivers/STM32F7xx_HAL_Driver/Src/stm32f7xx_ll_usb.c ****                             (((uint32_t)num_packets << 19) & USB_OTG_HCTSIZ_PKTCNT) |
ARM GAS  /tmp/cc8ZLjKA.s 			page 152


 5109              		.loc 1 2024 27 view .LVU1751
 5110 009e C3F81045 		str	r4, [r3, #1296]
2028:Drivers/STM32F7xx_HAL_Driver/Src/stm32f7xx_ll_usb.c ****   {
 5111              		.loc 1 2028 3 is_stmt 1 view .LVU1752
2028:Drivers/STM32F7xx_HAL_Driver/Src/stm32f7xx_ll_usb.c ****   {
 5112              		.loc 1 2028 6 is_stmt 0 view .LVU1753
 5113 00a2 12B1     		cbz	r2, .L332
2031:Drivers/STM32F7xx_HAL_Driver/Src/stm32f7xx_ll_usb.c ****   }
 5114              		.loc 1 2031 5 is_stmt 1 view .LVU1754
2031:Drivers/STM32F7xx_HAL_Driver/Src/stm32f7xx_ll_usb.c ****   }
 5115              		.loc 1 2031 42 is_stmt 0 view .LVU1755
 5116 00a4 CC68     		ldr	r4, [r1, #12]
2031:Drivers/STM32F7xx_HAL_Driver/Src/stm32f7xx_ll_usb.c ****   }
 5117              		.loc 1 2031 28 view .LVU1756
 5118 00a6 C3F81445 		str	r4, [r3, #1300]
 5119              	.L332:
2034:Drivers/STM32F7xx_HAL_Driver/Src/stm32f7xx_ll_usb.c ****   USBx_HC(ch_num)->HCCHAR &= ~USB_OTG_HCCHAR_ODDFRM;
 5120              		.loc 1 2034 3 is_stmt 1 view .LVU1757
2034:Drivers/STM32F7xx_HAL_Driver/Src/stm32f7xx_ll_usb.c ****   USBx_HC(ch_num)->HCCHAR &= ~USB_OTG_HCCHAR_ODDFRM;
 5121              		.loc 1 2034 29 is_stmt 0 view .LVU1758
 5122 00aa 00F58065 		add	r5, r0, #1024
2034:Drivers/STM32F7xx_HAL_Driver/Src/stm32f7xx_ll_usb.c ****   USBx_HC(ch_num)->HCCHAR &= ~USB_OTG_HCCHAR_ODDFRM;
 5123              		.loc 1 2034 38 view .LVU1759
 5124 00ae AC68     		ldr	r4, [r5, #8]
2034:Drivers/STM32F7xx_HAL_Driver/Src/stm32f7xx_ll_usb.c ****   USBx_HC(ch_num)->HCCHAR &= ~USB_OTG_HCCHAR_ODDFRM;
 5125              		.loc 1 2034 67 view .LVU1760
 5126 00b0 14F0010F 		tst	r4, #1
 5127 00b4 0CBF     		ite	eq
 5128 00b6 4FF0010C 		moveq	ip, #1
 5129 00ba 4FF0000C 		movne	ip, #0
 5130              	.LVL376:
2035:Drivers/STM32F7xx_HAL_Driver/Src/stm32f7xx_ll_usb.c ****   USBx_HC(ch_num)->HCCHAR |= (uint32_t)is_oddframe << 29;
 5131              		.loc 1 2035 3 is_stmt 1 view .LVU1761
2035:Drivers/STM32F7xx_HAL_Driver/Src/stm32f7xx_ll_usb.c ****   USBx_HC(ch_num)->HCCHAR |= (uint32_t)is_oddframe << 29;
 5132              		.loc 1 2035 18 is_stmt 0 view .LVU1762
 5133 00be D3F80045 		ldr	r4, [r3, #1280]
2035:Drivers/STM32F7xx_HAL_Driver/Src/stm32f7xx_ll_usb.c ****   USBx_HC(ch_num)->HCCHAR |= (uint32_t)is_oddframe << 29;
 5134              		.loc 1 2035 27 view .LVU1763
 5135 00c2 24F00054 		bic	r4, r4, #536870912
 5136 00c6 C3F80045 		str	r4, [r3, #1280]
2036:Drivers/STM32F7xx_HAL_Driver/Src/stm32f7xx_ll_usb.c **** 
 5137              		.loc 1 2036 3 is_stmt 1 view .LVU1764
2036:Drivers/STM32F7xx_HAL_Driver/Src/stm32f7xx_ll_usb.c **** 
 5138              		.loc 1 2036 18 is_stmt 0 view .LVU1765
 5139 00ca D3F80045 		ldr	r4, [r3, #1280]
2036:Drivers/STM32F7xx_HAL_Driver/Src/stm32f7xx_ll_usb.c **** 
 5140              		.loc 1 2036 27 view .LVU1766
 5141 00ce 44EA4C74 		orr	r4, r4, ip, lsl #29
 5142 00d2 C3F80045 		str	r4, [r3, #1280]
2039:Drivers/STM32F7xx_HAL_Driver/Src/stm32f7xx_ll_usb.c ****   tmpreg &= ~USB_OTG_HCCHAR_CHDIS;
 5143              		.loc 1 2039 3 is_stmt 1 view .LVU1767
2039:Drivers/STM32F7xx_HAL_Driver/Src/stm32f7xx_ll_usb.c ****   tmpreg &= ~USB_OTG_HCCHAR_CHDIS;
 5144              		.loc 1 2039 27 is_stmt 0 view .LVU1768
 5145 00d6 D3F80045 		ldr	r4, [r3, #1280]
2039:Drivers/STM32F7xx_HAL_Driver/Src/stm32f7xx_ll_usb.c ****   tmpreg &= ~USB_OTG_HCCHAR_CHDIS;
 5146              		.loc 1 2039 10 view .LVU1769
 5147 00da 0394     		str	r4, [sp, #12]
ARM GAS  /tmp/cc8ZLjKA.s 			page 153


2040:Drivers/STM32F7xx_HAL_Driver/Src/stm32f7xx_ll_usb.c **** 
 5148              		.loc 1 2040 3 is_stmt 1 view .LVU1770
2040:Drivers/STM32F7xx_HAL_Driver/Src/stm32f7xx_ll_usb.c **** 
 5149              		.loc 1 2040 10 is_stmt 0 view .LVU1771
 5150 00dc 039C     		ldr	r4, [sp, #12]
 5151 00de 24F08044 		bic	r4, r4, #1073741824
 5152 00e2 0394     		str	r4, [sp, #12]
2043:Drivers/STM32F7xx_HAL_Driver/Src/stm32f7xx_ll_usb.c ****   {
 5153              		.loc 1 2043 3 is_stmt 1 view .LVU1772
2043:Drivers/STM32F7xx_HAL_Driver/Src/stm32f7xx_ll_usb.c ****   {
 5154              		.loc 1 2043 9 is_stmt 0 view .LVU1773
 5155 00e4 CC78     		ldrb	r4, [r1, #3]	@ zero_extendqisi2
2043:Drivers/STM32F7xx_HAL_Driver/Src/stm32f7xx_ll_usb.c ****   {
 5156              		.loc 1 2043 6 view .LVU1774
 5157 00e6 C4B1     		cbz	r4, .L333
2045:Drivers/STM32F7xx_HAL_Driver/Src/stm32f7xx_ll_usb.c ****   }
 5158              		.loc 1 2045 5 is_stmt 1 view .LVU1775
2045:Drivers/STM32F7xx_HAL_Driver/Src/stm32f7xx_ll_usb.c ****   }
 5159              		.loc 1 2045 12 is_stmt 0 view .LVU1776
 5160 00e8 039C     		ldr	r4, [sp, #12]
 5161 00ea 44F40044 		orr	r4, r4, #32768
 5162 00ee 0394     		str	r4, [sp, #12]
 5163              	.L334:
2051:Drivers/STM32F7xx_HAL_Driver/Src/stm32f7xx_ll_usb.c ****   USBx_HC(ch_num)->HCCHAR = tmpreg;
 5164              		.loc 1 2051 3 is_stmt 1 view .LVU1777
2051:Drivers/STM32F7xx_HAL_Driver/Src/stm32f7xx_ll_usb.c ****   USBx_HC(ch_num)->HCCHAR = tmpreg;
 5165              		.loc 1 2051 10 is_stmt 0 view .LVU1778
 5166 00f0 039C     		ldr	r4, [sp, #12]
 5167 00f2 44F00044 		orr	r4, r4, #-2147483648
 5168 00f6 0394     		str	r4, [sp, #12]
2052:Drivers/STM32F7xx_HAL_Driver/Src/stm32f7xx_ll_usb.c **** 
 5169              		.loc 1 2052 3 is_stmt 1 view .LVU1779
2052:Drivers/STM32F7xx_HAL_Driver/Src/stm32f7xx_ll_usb.c **** 
 5170              		.loc 1 2052 27 is_stmt 0 view .LVU1780
 5171 00f8 039C     		ldr	r4, [sp, #12]
 5172 00fa C3F80045 		str	r4, [r3, #1280]
2054:Drivers/STM32F7xx_HAL_Driver/Src/stm32f7xx_ll_usb.c ****   {
 5173              		.loc 1 2054 3 is_stmt 1 view .LVU1781
2054:Drivers/STM32F7xx_HAL_Driver/Src/stm32f7xx_ll_usb.c ****   {
 5174              		.loc 1 2054 6 is_stmt 0 view .LVU1782
 5175 00fe 1ABB     		cbnz	r2, .L328
2059:Drivers/STM32F7xx_HAL_Driver/Src/stm32f7xx_ll_usb.c ****   {
 5176              		.loc 1 2059 3 is_stmt 1 view .LVU1783
2059:Drivers/STM32F7xx_HAL_Driver/Src/stm32f7xx_ll_usb.c ****   {
 5177              		.loc 1 2059 10 is_stmt 0 view .LVU1784
 5178 0100 CB78     		ldrb	r3, [r1, #3]	@ zero_extendqisi2
2059:Drivers/STM32F7xx_HAL_Driver/Src/stm32f7xx_ll_usb.c ****   {
 5179              		.loc 1 2059 6 view .LVU1785
 5180 0102 0BBB     		cbnz	r3, .L328
2059:Drivers/STM32F7xx_HAL_Driver/Src/stm32f7xx_ll_usb.c ****   {
 5181              		.loc 1 2059 34 discriminator 1 view .LVU1786
 5182 0104 4B69     		ldr	r3, [r1, #20]
2059:Drivers/STM32F7xx_HAL_Driver/Src/stm32f7xx_ll_usb.c ****   {
 5183              		.loc 1 2059 28 discriminator 1 view .LVU1787
 5184 0106 FBB1     		cbz	r3, .L328
2061:Drivers/STM32F7xx_HAL_Driver/Src/stm32f7xx_ll_usb.c ****     {
 5185              		.loc 1 2061 5 is_stmt 1 view .LVU1788
ARM GAS  /tmp/cc8ZLjKA.s 			page 154


2061:Drivers/STM32F7xx_HAL_Driver/Src/stm32f7xx_ll_usb.c ****     {
 5186              		.loc 1 2061 15 is_stmt 0 view .LVU1789
 5187 0108 CA79     		ldrb	r2, [r1, #7]	@ zero_extendqisi2
 5188              	.LVL377:
2061:Drivers/STM32F7xx_HAL_Driver/Src/stm32f7xx_ll_usb.c ****     {
 5189              		.loc 1 2061 5 view .LVU1790
 5190 010a 032A     		cmp	r2, #3
 5191 010c 15D8     		bhi	.L335
 5192 010e DFE802F0 		tbb	[pc, r2]
 5193              	.L337:
 5194 0112 09       		.byte	(.L338-.L337)/2
 5195 0113 1E       		.byte	(.L336-.L337)/2
 5196 0114 09       		.byte	(.L338-.L337)/2
 5197 0115 1E       		.byte	(.L336-.L337)/2
 5198              	.LVL378:
 5199              		.p2align 1
 5200              	.L330:
2020:Drivers/STM32F7xx_HAL_Driver/Src/stm32f7xx_ll_usb.c ****   }
 5201              		.loc 1 2020 5 is_stmt 1 view .LVU1791
2020:Drivers/STM32F7xx_HAL_Driver/Src/stm32f7xx_ll_usb.c ****   }
 5202              		.loc 1 2020 18 is_stmt 0 view .LVU1792
 5203 0116 0C61     		str	r4, [r1, #16]
 5204 0118 AFE7     		b	.L331
 5205              	.LVL379:
 5206              	.L333:
2049:Drivers/STM32F7xx_HAL_Driver/Src/stm32f7xx_ll_usb.c ****   }
 5207              		.loc 1 2049 5 is_stmt 1 view .LVU1793
2049:Drivers/STM32F7xx_HAL_Driver/Src/stm32f7xx_ll_usb.c ****   }
 5208              		.loc 1 2049 12 is_stmt 0 view .LVU1794
 5209 011a 039C     		ldr	r4, [sp, #12]
 5210 011c 24F40044 		bic	r4, r4, #32768
 5211 0120 0394     		str	r4, [sp, #12]
 5212 0122 E5E7     		b	.L334
 5213              	.LVL380:
 5214              	.L338:
2067:Drivers/STM32F7xx_HAL_Driver/Src/stm32f7xx_ll_usb.c **** 
 5215              		.loc 1 2067 9 is_stmt 1 view .LVU1795
2067:Drivers/STM32F7xx_HAL_Driver/Src/stm32f7xx_ll_usb.c **** 
 5216              		.loc 1 2067 46 is_stmt 0 view .LVU1796
 5217 0124 0333     		adds	r3, r3, #3
 5218              	.LVL381:
2070:Drivers/STM32F7xx_HAL_Driver/Src/stm32f7xx_ll_usb.c ****         {
 5219              		.loc 1 2070 9 is_stmt 1 view .LVU1797
2070:Drivers/STM32F7xx_HAL_Driver/Src/stm32f7xx_ll_usb.c ****         {
 5220              		.loc 1 2070 30 is_stmt 0 view .LVU1798
 5221 0126 C26A     		ldr	r2, [r0, #44]
2070:Drivers/STM32F7xx_HAL_Driver/Src/stm32f7xx_ll_usb.c ****         {
 5222              		.loc 1 2070 41 view .LVU1799
 5223 0128 92B2     		uxth	r2, r2
2070:Drivers/STM32F7xx_HAL_Driver/Src/stm32f7xx_ll_usb.c ****         {
 5224              		.loc 1 2070 12 view .LVU1800
 5225 012a C3F38F03 		ubfx	r3, r3, #2, #16
 5226              	.LVL382:
2070:Drivers/STM32F7xx_HAL_Driver/Src/stm32f7xx_ll_usb.c ****         {
 5227              		.loc 1 2070 12 view .LVU1801
 5228 012e 9A42     		cmp	r2, r3
 5229 0130 03D2     		bcs	.L335
ARM GAS  /tmp/cc8ZLjKA.s 			page 155


2073:Drivers/STM32F7xx_HAL_Driver/Src/stm32f7xx_ll_usb.c ****         }
 5230              		.loc 1 2073 11 is_stmt 1 view .LVU1802
2073:Drivers/STM32F7xx_HAL_Driver/Src/stm32f7xx_ll_usb.c ****         }
 5231              		.loc 1 2073 15 is_stmt 0 view .LVU1803
 5232 0132 8369     		ldr	r3, [r0, #24]
2073:Drivers/STM32F7xx_HAL_Driver/Src/stm32f7xx_ll_usb.c ****         }
 5233              		.loc 1 2073 25 view .LVU1804
 5234 0134 43F02003 		orr	r3, r3, #32
 5235 0138 8361     		str	r3, [r0, #24]
 5236              	.LVL383:
 5237              	.L335:
2094:Drivers/STM32F7xx_HAL_Driver/Src/stm32f7xx_ll_usb.c ****   }
 5238              		.loc 1 2094 5 is_stmt 1 view .LVU1805
2094:Drivers/STM32F7xx_HAL_Driver/Src/stm32f7xx_ll_usb.c ****   }
 5239              		.loc 1 2094 11 is_stmt 0 view .LVU1806
 5240 013a 0023     		movs	r3, #0
 5241 013c 0093     		str	r3, [sp]
 5242 013e 8B8A     		ldrh	r3, [r1, #20]
 5243 0140 4A78     		ldrb	r2, [r1, #1]	@ zero_extendqisi2
 5244 0142 C968     		ldr	r1, [r1, #12]
 5245              	.LVL384:
2094:Drivers/STM32F7xx_HAL_Driver/Src/stm32f7xx_ll_usb.c ****   }
 5246              		.loc 1 2094 11 view .LVU1807
 5247 0144 FFF7FEFF 		bl	USB_WritePacket
 5248              	.LVL385:
 5249              	.L328:
2098:Drivers/STM32F7xx_HAL_Driver/Src/stm32f7xx_ll_usb.c **** 
 5250              		.loc 1 2098 1 view .LVU1808
 5251 0148 0020     		movs	r0, #0
 5252 014a 05B0     		add	sp, sp, #20
 5253              		.cfi_remember_state
 5254              		.cfi_def_cfa_offset 12
 5255              		@ sp needed
 5256 014c 30BD     		pop	{r4, r5, pc}
 5257              	.LVL386:
 5258              	.L336:
 5259              		.cfi_restore_state
2080:Drivers/STM32F7xx_HAL_Driver/Src/stm32f7xx_ll_usb.c ****         /* check if there is enough space in FIFO space */
 5260              		.loc 1 2080 9 is_stmt 1 view .LVU1809
2080:Drivers/STM32F7xx_HAL_Driver/Src/stm32f7xx_ll_usb.c ****         /* check if there is enough space in FIFO space */
 5261              		.loc 1 2080 46 is_stmt 0 view .LVU1810
 5262 014e 0333     		adds	r3, r3, #3
 5263              	.LVL387:
2082:Drivers/STM32F7xx_HAL_Driver/Src/stm32f7xx_ll_usb.c ****         {
 5264              		.loc 1 2082 9 is_stmt 1 view .LVU1811
2082:Drivers/STM32F7xx_HAL_Driver/Src/stm32f7xx_ll_usb.c ****         {
 5265              		.loc 1 2082 35 is_stmt 0 view .LVU1812
 5266 0150 2A69     		ldr	r2, [r5, #16]
2082:Drivers/STM32F7xx_HAL_Driver/Src/stm32f7xx_ll_usb.c ****         {
 5267              		.loc 1 2082 45 view .LVU1813
 5268 0152 92B2     		uxth	r2, r2
2082:Drivers/STM32F7xx_HAL_Driver/Src/stm32f7xx_ll_usb.c ****         {
 5269              		.loc 1 2082 12 view .LVU1814
 5270 0154 C3F38F03 		ubfx	r3, r3, #2, #16
 5271              	.LVL388:
2082:Drivers/STM32F7xx_HAL_Driver/Src/stm32f7xx_ll_usb.c ****         {
 5272              		.loc 1 2082 12 view .LVU1815
ARM GAS  /tmp/cc8ZLjKA.s 			page 156


 5273 0158 9A42     		cmp	r2, r3
 5274 015a EED2     		bcs	.L335
2085:Drivers/STM32F7xx_HAL_Driver/Src/stm32f7xx_ll_usb.c ****         }
 5275              		.loc 1 2085 11 is_stmt 1 view .LVU1816
2085:Drivers/STM32F7xx_HAL_Driver/Src/stm32f7xx_ll_usb.c ****         }
 5276              		.loc 1 2085 15 is_stmt 0 view .LVU1817
 5277 015c 8369     		ldr	r3, [r0, #24]
2085:Drivers/STM32F7xx_HAL_Driver/Src/stm32f7xx_ll_usb.c ****         }
 5278              		.loc 1 2085 25 view .LVU1818
 5279 015e 43F08063 		orr	r3, r3, #67108864
 5280 0162 8361     		str	r3, [r0, #24]
 5281              	.LVL389:
2085:Drivers/STM32F7xx_HAL_Driver/Src/stm32f7xx_ll_usb.c ****         }
 5282              		.loc 1 2085 25 view .LVU1819
 5283 0164 E9E7     		b	.L335
 5284              	.L345:
 5285 0166 00BF     		.align	2
 5286              	.L344:
 5287 0168 0000F81F 		.word	536346624
 5288              		.cfi_endproc
 5289              	.LFE185:
 5291              		.section	.text.USB_StopHost,"ax",%progbits
 5292              		.align	1
 5293              		.global	USB_StopHost
 5294              		.syntax unified
 5295              		.thumb
 5296              		.thumb_func
 5298              	USB_StopHost:
 5299              	.LVL390:
 5300              	.LFB189:
2212:Drivers/STM32F7xx_HAL_Driver/Src/stm32f7xx_ll_usb.c **** 
2213:Drivers/STM32F7xx_HAL_Driver/Src/stm32f7xx_ll_usb.c **** /**
2214:Drivers/STM32F7xx_HAL_Driver/Src/stm32f7xx_ll_usb.c ****   * @brief  Stop Host Core
2215:Drivers/STM32F7xx_HAL_Driver/Src/stm32f7xx_ll_usb.c ****   * @param  USBx  Selected device
2216:Drivers/STM32F7xx_HAL_Driver/Src/stm32f7xx_ll_usb.c ****   * @retval HAL state
2217:Drivers/STM32F7xx_HAL_Driver/Src/stm32f7xx_ll_usb.c ****   */
2218:Drivers/STM32F7xx_HAL_Driver/Src/stm32f7xx_ll_usb.c **** HAL_StatusTypeDef USB_StopHost(USB_OTG_GlobalTypeDef *USBx)
2219:Drivers/STM32F7xx_HAL_Driver/Src/stm32f7xx_ll_usb.c **** {
 5301              		.loc 1 2219 1 is_stmt 1 view -0
 5302              		.cfi_startproc
 5303              		@ args = 0, pretend = 0, frame = 8
 5304              		@ frame_needed = 0, uses_anonymous_args = 0
 5305              		.loc 1 2219 1 is_stmt 0 view .LVU1821
 5306 0000 30B5     		push	{r4, r5, lr}
 5307              		.cfi_def_cfa_offset 12
 5308              		.cfi_offset 4, -12
 5309              		.cfi_offset 5, -8
 5310              		.cfi_offset 14, -4
 5311 0002 83B0     		sub	sp, sp, #12
 5312              		.cfi_def_cfa_offset 24
 5313 0004 0446     		mov	r4, r0
2220:Drivers/STM32F7xx_HAL_Driver/Src/stm32f7xx_ll_usb.c ****   HAL_StatusTypeDef ret = HAL_OK;
 5314              		.loc 1 2220 3 is_stmt 1 view .LVU1822
 5315              	.LVL391:
2221:Drivers/STM32F7xx_HAL_Driver/Src/stm32f7xx_ll_usb.c ****   uint32_t USBx_BASE = (uint32_t)USBx;
 5316              		.loc 1 2221 3 view .LVU1823
2222:Drivers/STM32F7xx_HAL_Driver/Src/stm32f7xx_ll_usb.c ****   __IO uint32_t count = 0U;
ARM GAS  /tmp/cc8ZLjKA.s 			page 157


 5317              		.loc 1 2222 3 view .LVU1824
 5318              		.loc 1 2222 17 is_stmt 0 view .LVU1825
 5319 0006 0023     		movs	r3, #0
 5320 0008 0193     		str	r3, [sp, #4]
2223:Drivers/STM32F7xx_HAL_Driver/Src/stm32f7xx_ll_usb.c ****   uint32_t value;
 5321              		.loc 1 2223 3 is_stmt 1 view .LVU1826
2224:Drivers/STM32F7xx_HAL_Driver/Src/stm32f7xx_ll_usb.c ****   uint32_t i;
 5322              		.loc 1 2224 3 view .LVU1827
2225:Drivers/STM32F7xx_HAL_Driver/Src/stm32f7xx_ll_usb.c **** 
2226:Drivers/STM32F7xx_HAL_Driver/Src/stm32f7xx_ll_usb.c ****   (void)USB_DisableGlobalInt(USBx);
 5323              		.loc 1 2226 3 view .LVU1828
 5324              		.loc 1 2226 9 is_stmt 0 view .LVU1829
 5325 000a FFF7FEFF 		bl	USB_DisableGlobalInt
 5326              	.LVL392:
2227:Drivers/STM32F7xx_HAL_Driver/Src/stm32f7xx_ll_usb.c **** 
2228:Drivers/STM32F7xx_HAL_Driver/Src/stm32f7xx_ll_usb.c ****   /* Flush USB FIFO */
2229:Drivers/STM32F7xx_HAL_Driver/Src/stm32f7xx_ll_usb.c ****   if (USB_FlushTxFifo(USBx, 0x10U) != HAL_OK) /* all Tx FIFOs */
 5327              		.loc 1 2229 3 is_stmt 1 view .LVU1830
 5328              		.loc 1 2229 7 is_stmt 0 view .LVU1831
 5329 000e 1021     		movs	r1, #16
 5330 0010 2046     		mov	r0, r4
 5331 0012 FFF7FEFF 		bl	USB_FlushTxFifo
 5332              	.LVL393:
 5333              		.loc 1 2229 6 view .LVU1832
 5334 0016 0546     		mov	r5, r0
 5335 0018 00B1     		cbz	r0, .L347
2230:Drivers/STM32F7xx_HAL_Driver/Src/stm32f7xx_ll_usb.c ****   {
2231:Drivers/STM32F7xx_HAL_Driver/Src/stm32f7xx_ll_usb.c ****     ret = HAL_ERROR;
 5336              		.loc 1 2231 9 view .LVU1833
 5337 001a 0125     		movs	r5, #1
 5338              	.L347:
 5339              	.LVL394:
2232:Drivers/STM32F7xx_HAL_Driver/Src/stm32f7xx_ll_usb.c ****   }
2233:Drivers/STM32F7xx_HAL_Driver/Src/stm32f7xx_ll_usb.c **** 
2234:Drivers/STM32F7xx_HAL_Driver/Src/stm32f7xx_ll_usb.c ****   if (USB_FlushRxFifo(USBx) != HAL_OK)
 5340              		.loc 1 2234 3 is_stmt 1 view .LVU1834
 5341              		.loc 1 2234 7 is_stmt 0 view .LVU1835
 5342 001c 2046     		mov	r0, r4
 5343 001e FFF7FEFF 		bl	USB_FlushRxFifo
 5344              	.LVL395:
 5345              		.loc 1 2234 6 view .LVU1836
 5346 0022 00B1     		cbz	r0, .L348
2235:Drivers/STM32F7xx_HAL_Driver/Src/stm32f7xx_ll_usb.c ****   {
2236:Drivers/STM32F7xx_HAL_Driver/Src/stm32f7xx_ll_usb.c ****     ret = HAL_ERROR;
 5347              		.loc 1 2236 9 view .LVU1837
 5348 0024 0125     		movs	r5, #1
 5349              	.LVL396:
 5350              	.L348:
2237:Drivers/STM32F7xx_HAL_Driver/Src/stm32f7xx_ll_usb.c ****   }
2238:Drivers/STM32F7xx_HAL_Driver/Src/stm32f7xx_ll_usb.c **** 
2239:Drivers/STM32F7xx_HAL_Driver/Src/stm32f7xx_ll_usb.c ****   /* Flush out any leftover queued requests. */
2240:Drivers/STM32F7xx_HAL_Driver/Src/stm32f7xx_ll_usb.c ****   for (i = 0U; i <= 15U; i++)
 5351              		.loc 1 2240 3 is_stmt 1 view .LVU1838
 5352              		.loc 1 2240 10 is_stmt 0 view .LVU1839
 5353 0026 0022     		movs	r2, #0
 5354              		.loc 1 2240 3 view .LVU1840
 5355 0028 0AE0     		b	.L349
ARM GAS  /tmp/cc8ZLjKA.s 			page 158


 5356              	.LVL397:
 5357              	.L350:
2241:Drivers/STM32F7xx_HAL_Driver/Src/stm32f7xx_ll_usb.c ****   {
2242:Drivers/STM32F7xx_HAL_Driver/Src/stm32f7xx_ll_usb.c ****     value = USBx_HC(i)->HCCHAR;
 5358              		.loc 1 2242 5 is_stmt 1 discriminator 3 view .LVU1841
 5359              		.loc 1 2242 13 is_stmt 0 discriminator 3 view .LVU1842
 5360 002a 04EB4211 		add	r1, r4, r2, lsl #5
 5361              		.loc 1 2242 11 discriminator 3 view .LVU1843
 5362 002e D1F80035 		ldr	r3, [r1, #1280]
 5363              	.LVL398:
2243:Drivers/STM32F7xx_HAL_Driver/Src/stm32f7xx_ll_usb.c ****     value |=  USB_OTG_HCCHAR_CHDIS;
 5364              		.loc 1 2243 5 is_stmt 1 discriminator 3 view .LVU1844
2244:Drivers/STM32F7xx_HAL_Driver/Src/stm32f7xx_ll_usb.c ****     value &= ~USB_OTG_HCCHAR_CHENA;
 5365              		.loc 1 2244 5 discriminator 3 view .LVU1845
2245:Drivers/STM32F7xx_HAL_Driver/Src/stm32f7xx_ll_usb.c ****     value &= ~USB_OTG_HCCHAR_EPDIR;
 5366              		.loc 1 2245 5 discriminator 3 view .LVU1846
 5367 0032 23F08023 		bic	r3, r3, #-2147450880
 5368              	.LVL399:
 5369              		.loc 1 2245 11 is_stmt 0 discriminator 3 view .LVU1847
 5370 0036 43F08043 		orr	r3, r3, #1073741824
 5371              	.LVL400:
2246:Drivers/STM32F7xx_HAL_Driver/Src/stm32f7xx_ll_usb.c ****     USBx_HC(i)->HCCHAR = value;
 5372              		.loc 1 2246 5 is_stmt 1 discriminator 3 view .LVU1848
 5373              		.loc 1 2246 24 is_stmt 0 discriminator 3 view .LVU1849
 5374 003a C1F80035 		str	r3, [r1, #1280]
2240:Drivers/STM32F7xx_HAL_Driver/Src/stm32f7xx_ll_usb.c ****   {
 5375              		.loc 1 2240 27 is_stmt 1 discriminator 3 view .LVU1850
 5376 003e 0132     		adds	r2, r2, #1
 5377              	.LVL401:
 5378              	.L349:
2240:Drivers/STM32F7xx_HAL_Driver/Src/stm32f7xx_ll_usb.c ****   {
 5379              		.loc 1 2240 18 discriminator 1 view .LVU1851
 5380 0040 0F2A     		cmp	r2, #15
 5381 0042 F2D9     		bls	.L350
2247:Drivers/STM32F7xx_HAL_Driver/Src/stm32f7xx_ll_usb.c ****   }
2248:Drivers/STM32F7xx_HAL_Driver/Src/stm32f7xx_ll_usb.c **** 
2249:Drivers/STM32F7xx_HAL_Driver/Src/stm32f7xx_ll_usb.c ****   /* Halt all channels to put them into a known state. */
2250:Drivers/STM32F7xx_HAL_Driver/Src/stm32f7xx_ll_usb.c ****   for (i = 0U; i <= 15U; i++)
 5382              		.loc 1 2250 10 is_stmt 0 view .LVU1852
 5383 0044 0021     		movs	r1, #0
 5384 0046 00E0     		b	.L351
 5385              	.LVL402:
 5386              	.L352:
 5387              		.loc 1 2250 27 is_stmt 1 discriminator 2 view .LVU1853
 5388 0048 0131     		adds	r1, r1, #1
 5389              	.LVL403:
 5390              	.L351:
 5391              		.loc 1 2250 18 discriminator 1 view .LVU1854
 5392 004a 0F29     		cmp	r1, #15
 5393 004c 16D8     		bhi	.L358
2251:Drivers/STM32F7xx_HAL_Driver/Src/stm32f7xx_ll_usb.c ****   {
2252:Drivers/STM32F7xx_HAL_Driver/Src/stm32f7xx_ll_usb.c ****     value = USBx_HC(i)->HCCHAR;
 5394              		.loc 1 2252 5 view .LVU1855
 5395              		.loc 1 2252 13 is_stmt 0 view .LVU1856
 5396 004e 04EB4110 		add	r0, r4, r1, lsl #5
 5397 0052 00F5A062 		add	r2, r0, #1280
 5398              		.loc 1 2252 11 view .LVU1857
ARM GAS  /tmp/cc8ZLjKA.s 			page 159


 5399 0056 D0F80035 		ldr	r3, [r0, #1280]
 5400              	.LVL404:
2253:Drivers/STM32F7xx_HAL_Driver/Src/stm32f7xx_ll_usb.c ****     value |= USB_OTG_HCCHAR_CHDIS;
 5401              		.loc 1 2253 5 is_stmt 1 view .LVU1858
2254:Drivers/STM32F7xx_HAL_Driver/Src/stm32f7xx_ll_usb.c ****     value |= USB_OTG_HCCHAR_CHENA;
 5402              		.loc 1 2254 5 view .LVU1859
2255:Drivers/STM32F7xx_HAL_Driver/Src/stm32f7xx_ll_usb.c ****     value &= ~USB_OTG_HCCHAR_EPDIR;
 5403              		.loc 1 2255 5 view .LVU1860
 5404 005a 23F40043 		bic	r3, r3, #32768
 5405              	.LVL405:
 5406              		.loc 1 2255 11 is_stmt 0 view .LVU1861
 5407 005e 43F04043 		orr	r3, r3, #-1073741824
 5408              	.LVL406:
2256:Drivers/STM32F7xx_HAL_Driver/Src/stm32f7xx_ll_usb.c ****     USBx_HC(i)->HCCHAR = value;
 5409              		.loc 1 2256 5 is_stmt 1 view .LVU1862
 5410              		.loc 1 2256 24 is_stmt 0 view .LVU1863
 5411 0062 C0F80035 		str	r3, [r0, #1280]
 5412              	.LVL407:
 5413              	.L353:
2257:Drivers/STM32F7xx_HAL_Driver/Src/stm32f7xx_ll_usb.c **** 
2258:Drivers/STM32F7xx_HAL_Driver/Src/stm32f7xx_ll_usb.c ****     do
 5414              		.loc 1 2258 5 is_stmt 1 view .LVU1864
2259:Drivers/STM32F7xx_HAL_Driver/Src/stm32f7xx_ll_usb.c ****     {
2260:Drivers/STM32F7xx_HAL_Driver/Src/stm32f7xx_ll_usb.c ****       count++;
 5415              		.loc 1 2260 7 view .LVU1865
 5416              		.loc 1 2260 12 is_stmt 0 view .LVU1866
 5417 0066 019B     		ldr	r3, [sp, #4]
 5418 0068 0133     		adds	r3, r3, #1
 5419 006a 0193     		str	r3, [sp, #4]
2261:Drivers/STM32F7xx_HAL_Driver/Src/stm32f7xx_ll_usb.c **** 
2262:Drivers/STM32F7xx_HAL_Driver/Src/stm32f7xx_ll_usb.c ****       if (count > 1000U)
 5420              		.loc 1 2262 7 is_stmt 1 view .LVU1867
 5421              		.loc 1 2262 17 is_stmt 0 view .LVU1868
 5422 006c 019B     		ldr	r3, [sp, #4]
 5423              		.loc 1 2262 10 view .LVU1869
 5424 006e B3F57A7F 		cmp	r3, #1000
 5425 0072 E9D8     		bhi	.L352
2263:Drivers/STM32F7xx_HAL_Driver/Src/stm32f7xx_ll_usb.c ****       {
2264:Drivers/STM32F7xx_HAL_Driver/Src/stm32f7xx_ll_usb.c ****         break;
2265:Drivers/STM32F7xx_HAL_Driver/Src/stm32f7xx_ll_usb.c ****       }
2266:Drivers/STM32F7xx_HAL_Driver/Src/stm32f7xx_ll_usb.c ****     } while ((USBx_HC(i)->HCCHAR & USB_OTG_HCCHAR_CHENA) == USB_OTG_HCCHAR_CHENA);
 5426              		.loc 1 2266 58 is_stmt 1 view .LVU1870
 5427              		.loc 1 2266 25 is_stmt 0 view .LVU1871
 5428 0074 1368     		ldr	r3, [r2]
 5429              		.loc 1 2266 58 view .LVU1872
 5430 0076 002B     		cmp	r3, #0
 5431 0078 F5DB     		blt	.L353
 5432 007a E5E7     		b	.L352
 5433              	.LVL408:
 5434              	.L358:
2267:Drivers/STM32F7xx_HAL_Driver/Src/stm32f7xx_ll_usb.c ****   }
2268:Drivers/STM32F7xx_HAL_Driver/Src/stm32f7xx_ll_usb.c **** 
2269:Drivers/STM32F7xx_HAL_Driver/Src/stm32f7xx_ll_usb.c ****   /* Clear any pending Host interrupts */
2270:Drivers/STM32F7xx_HAL_Driver/Src/stm32f7xx_ll_usb.c ****   USBx_HOST->HAINT = 0xFFFFFFFFU;
 5435              		.loc 1 2270 3 is_stmt 1 view .LVU1873
 5436              		.loc 1 2270 20 is_stmt 0 view .LVU1874
 5437 007c 4FF0FF33 		mov	r3, #-1
ARM GAS  /tmp/cc8ZLjKA.s 			page 160


 5438 0080 C4F81434 		str	r3, [r4, #1044]
2271:Drivers/STM32F7xx_HAL_Driver/Src/stm32f7xx_ll_usb.c ****   USBx->GINTSTS = 0xFFFFFFFFU;
 5439              		.loc 1 2271 3 is_stmt 1 view .LVU1875
 5440              		.loc 1 2271 17 is_stmt 0 view .LVU1876
 5441 0084 6361     		str	r3, [r4, #20]
2272:Drivers/STM32F7xx_HAL_Driver/Src/stm32f7xx_ll_usb.c **** 
2273:Drivers/STM32F7xx_HAL_Driver/Src/stm32f7xx_ll_usb.c ****   (void)USB_EnableGlobalInt(USBx);
 5442              		.loc 1 2273 3 is_stmt 1 view .LVU1877
 5443              		.loc 1 2273 9 is_stmt 0 view .LVU1878
 5444 0086 2046     		mov	r0, r4
 5445 0088 FFF7FEFF 		bl	USB_EnableGlobalInt
 5446              	.LVL409:
2274:Drivers/STM32F7xx_HAL_Driver/Src/stm32f7xx_ll_usb.c **** 
2275:Drivers/STM32F7xx_HAL_Driver/Src/stm32f7xx_ll_usb.c ****   return ret;
 5447              		.loc 1 2275 3 is_stmt 1 view .LVU1879
2276:Drivers/STM32F7xx_HAL_Driver/Src/stm32f7xx_ll_usb.c **** }
 5448              		.loc 1 2276 1 is_stmt 0 view .LVU1880
 5449 008c 2846     		mov	r0, r5
 5450 008e 03B0     		add	sp, sp, #12
 5451              		.cfi_def_cfa_offset 12
 5452              		@ sp needed
 5453 0090 30BD     		pop	{r4, r5, pc}
 5454              		.loc 1 2276 1 view .LVU1881
 5455              		.cfi_endproc
 5456              	.LFE189:
 5458              		.section	.text.USB_ActivateRemoteWakeup,"ax",%progbits
 5459              		.align	1
 5460              		.global	USB_ActivateRemoteWakeup
 5461              		.syntax unified
 5462              		.thumb
 5463              		.thumb_func
 5465              	USB_ActivateRemoteWakeup:
 5466              	.LVL410:
 5467              	.LFB190:
2277:Drivers/STM32F7xx_HAL_Driver/Src/stm32f7xx_ll_usb.c **** 
2278:Drivers/STM32F7xx_HAL_Driver/Src/stm32f7xx_ll_usb.c **** /**
2279:Drivers/STM32F7xx_HAL_Driver/Src/stm32f7xx_ll_usb.c ****   * @brief  USB_ActivateRemoteWakeup active remote wakeup signalling
2280:Drivers/STM32F7xx_HAL_Driver/Src/stm32f7xx_ll_usb.c ****   * @param  USBx Selected device
2281:Drivers/STM32F7xx_HAL_Driver/Src/stm32f7xx_ll_usb.c ****   * @retval HAL status
2282:Drivers/STM32F7xx_HAL_Driver/Src/stm32f7xx_ll_usb.c ****   */
2283:Drivers/STM32F7xx_HAL_Driver/Src/stm32f7xx_ll_usb.c **** HAL_StatusTypeDef USB_ActivateRemoteWakeup(USB_OTG_GlobalTypeDef *USBx)
2284:Drivers/STM32F7xx_HAL_Driver/Src/stm32f7xx_ll_usb.c **** {
 5468              		.loc 1 2284 1 is_stmt 1 view -0
 5469              		.cfi_startproc
 5470              		@ args = 0, pretend = 0, frame = 0
 5471              		@ frame_needed = 0, uses_anonymous_args = 0
 5472              		@ link register save eliminated.
2285:Drivers/STM32F7xx_HAL_Driver/Src/stm32f7xx_ll_usb.c ****   uint32_t USBx_BASE = (uint32_t)USBx;
 5473              		.loc 1 2285 3 view .LVU1883
2286:Drivers/STM32F7xx_HAL_Driver/Src/stm32f7xx_ll_usb.c **** 
2287:Drivers/STM32F7xx_HAL_Driver/Src/stm32f7xx_ll_usb.c ****   if ((USBx_DEVICE->DSTS & USB_OTG_DSTS_SUSPSTS) == USB_OTG_DSTS_SUSPSTS)
 5474              		.loc 1 2287 3 view .LVU1884
 5475              		.loc 1 2287 19 is_stmt 0 view .LVU1885
 5476 0000 D0F80838 		ldr	r3, [r0, #2056]
 5477              		.loc 1 2287 8 view .LVU1886
 5478 0004 00F50060 		add	r0, r0, #2048
 5479              	.LVL411:
ARM GAS  /tmp/cc8ZLjKA.s 			page 161


 5480              		.loc 1 2287 6 view .LVU1887
 5481 0008 13F0010F 		tst	r3, #1
 5482 000c 03D0     		beq	.L360
2288:Drivers/STM32F7xx_HAL_Driver/Src/stm32f7xx_ll_usb.c ****   {
2289:Drivers/STM32F7xx_HAL_Driver/Src/stm32f7xx_ll_usb.c ****     /* active Remote wakeup signalling */
2290:Drivers/STM32F7xx_HAL_Driver/Src/stm32f7xx_ll_usb.c ****     USBx_DEVICE->DCTL |= USB_OTG_DCTL_RWUSIG;
 5483              		.loc 1 2290 5 is_stmt 1 view .LVU1888
 5484              		.loc 1 2290 16 is_stmt 0 view .LVU1889
 5485 000e 4368     		ldr	r3, [r0, #4]
 5486              		.loc 1 2290 23 view .LVU1890
 5487 0010 43F00103 		orr	r3, r3, #1
 5488 0014 4360     		str	r3, [r0, #4]
 5489              	.L360:
2291:Drivers/STM32F7xx_HAL_Driver/Src/stm32f7xx_ll_usb.c ****   }
2292:Drivers/STM32F7xx_HAL_Driver/Src/stm32f7xx_ll_usb.c **** 
2293:Drivers/STM32F7xx_HAL_Driver/Src/stm32f7xx_ll_usb.c ****   return HAL_OK;
 5490              		.loc 1 2293 3 is_stmt 1 view .LVU1891
2294:Drivers/STM32F7xx_HAL_Driver/Src/stm32f7xx_ll_usb.c **** }
 5491              		.loc 1 2294 1 is_stmt 0 view .LVU1892
 5492 0016 0020     		movs	r0, #0
 5493              	.LVL412:
 5494              		.loc 1 2294 1 view .LVU1893
 5495 0018 7047     		bx	lr
 5496              		.cfi_endproc
 5497              	.LFE190:
 5499              		.section	.text.USB_DeActivateRemoteWakeup,"ax",%progbits
 5500              		.align	1
 5501              		.global	USB_DeActivateRemoteWakeup
 5502              		.syntax unified
 5503              		.thumb
 5504              		.thumb_func
 5506              	USB_DeActivateRemoteWakeup:
 5507              	.LVL413:
 5508              	.LFB191:
2295:Drivers/STM32F7xx_HAL_Driver/Src/stm32f7xx_ll_usb.c **** 
2296:Drivers/STM32F7xx_HAL_Driver/Src/stm32f7xx_ll_usb.c **** /**
2297:Drivers/STM32F7xx_HAL_Driver/Src/stm32f7xx_ll_usb.c ****   * @brief  USB_DeActivateRemoteWakeup de-active remote wakeup signalling
2298:Drivers/STM32F7xx_HAL_Driver/Src/stm32f7xx_ll_usb.c ****   * @param  USBx Selected device
2299:Drivers/STM32F7xx_HAL_Driver/Src/stm32f7xx_ll_usb.c ****   * @retval HAL status
2300:Drivers/STM32F7xx_HAL_Driver/Src/stm32f7xx_ll_usb.c ****   */
2301:Drivers/STM32F7xx_HAL_Driver/Src/stm32f7xx_ll_usb.c **** HAL_StatusTypeDef USB_DeActivateRemoteWakeup(USB_OTG_GlobalTypeDef *USBx)
2302:Drivers/STM32F7xx_HAL_Driver/Src/stm32f7xx_ll_usb.c **** {
 5509              		.loc 1 2302 1 is_stmt 1 view -0
 5510              		.cfi_startproc
 5511              		@ args = 0, pretend = 0, frame = 0
 5512              		@ frame_needed = 0, uses_anonymous_args = 0
 5513              		@ link register save eliminated.
2303:Drivers/STM32F7xx_HAL_Driver/Src/stm32f7xx_ll_usb.c ****   uint32_t USBx_BASE = (uint32_t)USBx;
 5514              		.loc 1 2303 3 view .LVU1895
2304:Drivers/STM32F7xx_HAL_Driver/Src/stm32f7xx_ll_usb.c **** 
2305:Drivers/STM32F7xx_HAL_Driver/Src/stm32f7xx_ll_usb.c ****   /* active Remote wakeup signalling */
2306:Drivers/STM32F7xx_HAL_Driver/Src/stm32f7xx_ll_usb.c ****   USBx_DEVICE->DCTL &= ~(USB_OTG_DCTL_RWUSIG);
 5515              		.loc 1 2306 3 view .LVU1896
 5516              		.loc 1 2306 14 is_stmt 0 view .LVU1897
 5517 0000 D0F80438 		ldr	r3, [r0, #2052]
 5518              		.loc 1 2306 21 view .LVU1898
 5519 0004 23F00103 		bic	r3, r3, #1
ARM GAS  /tmp/cc8ZLjKA.s 			page 162


 5520 0008 C0F80438 		str	r3, [r0, #2052]
2307:Drivers/STM32F7xx_HAL_Driver/Src/stm32f7xx_ll_usb.c **** 
2308:Drivers/STM32F7xx_HAL_Driver/Src/stm32f7xx_ll_usb.c ****   return HAL_OK;
 5521              		.loc 1 2308 3 is_stmt 1 view .LVU1899
2309:Drivers/STM32F7xx_HAL_Driver/Src/stm32f7xx_ll_usb.c **** }
 5522              		.loc 1 2309 1 is_stmt 0 view .LVU1900
 5523 000c 0020     		movs	r0, #0
 5524              	.LVL414:
 5525              		.loc 1 2309 1 view .LVU1901
 5526 000e 7047     		bx	lr
 5527              		.cfi_endproc
 5528              	.LFE191:
 5530              		.text
 5531              	.Letext0:
 5532              		.file 2 "/home/qrsnap/.config/Code/User/globalStorage/bmd.stm32-for-vscode/@xpack-dev-tools/arm-no
 5533              		.file 3 "/home/qrsnap/.config/Code/User/globalStorage/bmd.stm32-for-vscode/@xpack-dev-tools/arm-no
 5534              		.file 4 "Drivers/CMSIS/Include/cmsis_gcc.h"
 5535              		.file 5 "Drivers/CMSIS/Device/ST/STM32F7xx/Include/stm32f723xx.h"
 5536              		.file 6 "Drivers/STM32F7xx_HAL_Driver/Inc/stm32f7xx_hal_def.h"
 5537              		.file 7 "Drivers/STM32F7xx_HAL_Driver/Inc/stm32f7xx_ll_usb.h"
 5538              		.file 8 "Drivers/STM32F7xx_HAL_Driver/Inc/stm32f7xx_hal.h"
ARM GAS  /tmp/cc8ZLjKA.s 			page 163


DEFINED SYMBOLS
                            *ABS*:00000000 stm32f7xx_ll_usb.c
     /tmp/cc8ZLjKA.s:21     .text.USB_CoreReset:00000000 $t
     /tmp/cc8ZLjKA.s:26     .text.USB_CoreReset:00000000 USB_CoreReset
     /tmp/cc8ZLjKA.s:119    .text.USB_CoreReset:0000004c $d
     /tmp/cc8ZLjKA.s:124    .text.USB_HS_PHYCInit:00000000 $t
     /tmp/cc8ZLjKA.s:129    .text.USB_HS_PHYCInit:00000000 USB_HS_PHYCInit
     /tmp/cc8ZLjKA.s:224    .text.USB_HS_PHYCInit:00000054 $d
     /tmp/cc8ZLjKA.s:230    .text.USB_CoreInit:00000000 $t
     /tmp/cc8ZLjKA.s:236    .text.USB_CoreInit:00000000 USB_CoreInit
     /tmp/cc8ZLjKA.s:439    .text.USB_CoreInit:000000d0 $d
     /tmp/cc8ZLjKA.s:444    .text.USB_SetTurnaroundTime:00000000 $t
     /tmp/cc8ZLjKA.s:450    .text.USB_SetTurnaroundTime:00000000 USB_SetTurnaroundTime
     /tmp/cc8ZLjKA.s:603    .text.USB_SetTurnaroundTime:0000009c $d
     /tmp/cc8ZLjKA.s:625    .text.USB_EnableGlobalInt:00000000 $t
     /tmp/cc8ZLjKA.s:631    .text.USB_EnableGlobalInt:00000000 USB_EnableGlobalInt
     /tmp/cc8ZLjKA.s:655    .text.USB_DisableGlobalInt:00000000 $t
     /tmp/cc8ZLjKA.s:661    .text.USB_DisableGlobalInt:00000000 USB_DisableGlobalInt
     /tmp/cc8ZLjKA.s:685    .text.USB_FlushTxFifo:00000000 $t
     /tmp/cc8ZLjKA.s:691    .text.USB_FlushTxFifo:00000000 USB_FlushTxFifo
     /tmp/cc8ZLjKA.s:786    .text.USB_FlushTxFifo:0000004c $d
     /tmp/cc8ZLjKA.s:791    .text.USB_FlushRxFifo:00000000 $t
     /tmp/cc8ZLjKA.s:797    .text.USB_FlushRxFifo:00000000 USB_FlushRxFifo
     /tmp/cc8ZLjKA.s:888    .text.USB_FlushRxFifo:00000048 $d
     /tmp/cc8ZLjKA.s:893    .text.USB_SetDevSpeed:00000000 $t
     /tmp/cc8ZLjKA.s:899    .text.USB_SetDevSpeed:00000000 USB_SetDevSpeed
     /tmp/cc8ZLjKA.s:926    .text.USB_DevInit:00000000 $t
     /tmp/cc8ZLjKA.s:932    .text.USB_DevInit:00000000 USB_DevInit
     /tmp/cc8ZLjKA.s:1309   .text.USB_DevInit:0000019c $d
     /tmp/cc8ZLjKA.s:1315   .text.USB_GetDevSpeed:00000000 $t
     /tmp/cc8ZLjKA.s:1321   .text.USB_GetDevSpeed:00000000 USB_GetDevSpeed
     /tmp/cc8ZLjKA.s:1371   .text.USB_ActivateEndpoint:00000000 $t
     /tmp/cc8ZLjKA.s:1377   .text.USB_ActivateEndpoint:00000000 USB_ActivateEndpoint
     /tmp/cc8ZLjKA.s:1491   .text.USB_ActivateEndpoint:00000094 $d
     /tmp/cc8ZLjKA.s:1496   .text.USB_ActivateDedicatedEndpoint:00000000 $t
     /tmp/cc8ZLjKA.s:1502   .text.USB_ActivateDedicatedEndpoint:00000000 USB_ActivateDedicatedEndpoint
     /tmp/cc8ZLjKA.s:1634   .text.USB_ActivateDedicatedEndpoint:0000009c $d
     /tmp/cc8ZLjKA.s:1639   .text.USB_DeactivateEndpoint:00000000 $t
     /tmp/cc8ZLjKA.s:1645   .text.USB_DeactivateEndpoint:00000000 USB_DeactivateEndpoint
     /tmp/cc8ZLjKA.s:1813   .text.USB_DeactivateEndpoint:000000d8 $d
     /tmp/cc8ZLjKA.s:1819   .text.USB_DeactivateDedicatedEndpoint:00000000 $t
     /tmp/cc8ZLjKA.s:1825   .text.USB_DeactivateDedicatedEndpoint:00000000 USB_DeactivateDedicatedEndpoint
     /tmp/cc8ZLjKA.s:1954   .text.USB_EP0StartXfer:00000000 $t
     /tmp/cc8ZLjKA.s:1960   .text.USB_EP0StartXfer:00000000 USB_EP0StartXfer
     /tmp/cc8ZLjKA.s:2211   .text.USB_EP0StartXfer:00000118 $d
     /tmp/cc8ZLjKA.s:2217   .text.USB_EPStopXfer:00000000 $t
     /tmp/cc8ZLjKA.s:2223   .text.USB_EPStopXfer:00000000 USB_EPStopXfer
     /tmp/cc8ZLjKA.s:2380   .text.USB_WritePacket:00000000 $t
     /tmp/cc8ZLjKA.s:2386   .text.USB_WritePacket:00000000 USB_WritePacket
     /tmp/cc8ZLjKA.s:2454   .text.USB_EPStartXfer:00000000 $t
     /tmp/cc8ZLjKA.s:2460   .text.USB_EPStartXfer:00000000 USB_EPStartXfer
     /tmp/cc8ZLjKA.s:2875   .text.USB_EPStartXfer:00000224 $d
     /tmp/cc8ZLjKA.s:2882   .text.USB_ReadPacket:00000000 $t
     /tmp/cc8ZLjKA.s:2888   .text.USB_ReadPacket:00000000 USB_ReadPacket
     /tmp/cc8ZLjKA.s:2986   .text.USB_EPSetStall:00000000 $t
     /tmp/cc8ZLjKA.s:2992   .text.USB_EPSetStall:00000000 USB_EPSetStall
     /tmp/cc8ZLjKA.s:3075   .text.USB_EPClearStall:00000000 $t
ARM GAS  /tmp/cc8ZLjKA.s 			page 164


     /tmp/cc8ZLjKA.s:3081   .text.USB_EPClearStall:00000000 USB_EPClearStall
     /tmp/cc8ZLjKA.s:3166   .text.USB_StopDevice:00000000 $t
     /tmp/cc8ZLjKA.s:3172   .text.USB_StopDevice:00000000 USB_StopDevice
     /tmp/cc8ZLjKA.s:3252   .text.USB_SetDevAddress:00000000 $t
     /tmp/cc8ZLjKA.s:3258   .text.USB_SetDevAddress:00000000 USB_SetDevAddress
     /tmp/cc8ZLjKA.s:3294   .text.USB_DevConnect:00000000 $t
     /tmp/cc8ZLjKA.s:3300   .text.USB_DevConnect:00000000 USB_DevConnect
     /tmp/cc8ZLjKA.s:3330   .text.USB_DevDisconnect:00000000 $t
     /tmp/cc8ZLjKA.s:3336   .text.USB_DevDisconnect:00000000 USB_DevDisconnect
     /tmp/cc8ZLjKA.s:3366   .text.USB_ReadInterrupts:00000000 $t
     /tmp/cc8ZLjKA.s:3372   .text.USB_ReadInterrupts:00000000 USB_ReadInterrupts
     /tmp/cc8ZLjKA.s:3399   .text.USB_ReadChInterrupts:00000000 $t
     /tmp/cc8ZLjKA.s:3405   .text.USB_ReadChInterrupts:00000000 USB_ReadChInterrupts
     /tmp/cc8ZLjKA.s:3438   .text.USB_ReadDevAllOutEpInterrupt:00000000 $t
     /tmp/cc8ZLjKA.s:3444   .text.USB_ReadDevAllOutEpInterrupt:00000000 USB_ReadDevAllOutEpInterrupt
     /tmp/cc8ZLjKA.s:3477   .text.USB_ReadDevAllInEpInterrupt:00000000 $t
     /tmp/cc8ZLjKA.s:3483   .text.USB_ReadDevAllInEpInterrupt:00000000 USB_ReadDevAllInEpInterrupt
     /tmp/cc8ZLjKA.s:3516   .text.USB_ReadDevOutEPInterrupt:00000000 $t
     /tmp/cc8ZLjKA.s:3522   .text.USB_ReadDevOutEPInterrupt:00000000 USB_ReadDevOutEPInterrupt
     /tmp/cc8ZLjKA.s:3556   .text.USB_ReadDevInEPInterrupt:00000000 $t
     /tmp/cc8ZLjKA.s:3562   .text.USB_ReadDevInEPInterrupt:00000000 USB_ReadDevInEPInterrupt
     /tmp/cc8ZLjKA.s:3613   .text.USB_ClearInterrupts:00000000 $t
     /tmp/cc8ZLjKA.s:3619   .text.USB_ClearInterrupts:00000000 USB_ClearInterrupts
     /tmp/cc8ZLjKA.s:3639   .text.USB_GetMode:00000000 $t
     /tmp/cc8ZLjKA.s:3645   .text.USB_GetMode:00000000 USB_GetMode
     /tmp/cc8ZLjKA.s:3664   .text.USB_SetCurrentMode:00000000 $t
     /tmp/cc8ZLjKA.s:3670   .text.USB_SetCurrentMode:00000000 USB_SetCurrentMode
     /tmp/cc8ZLjKA.s:3789   .text.USB_ActivateSetup:00000000 $t
     /tmp/cc8ZLjKA.s:3795   .text.USB_ActivateSetup:00000000 USB_ActivateSetup
     /tmp/cc8ZLjKA.s:3826   .text.USB_ActivateSetup:0000001c $d
     /tmp/cc8ZLjKA.s:3831   .text.USB_EP0_OutStart:00000000 $t
     /tmp/cc8ZLjKA.s:3837   .text.USB_EP0_OutStart:00000000 USB_EP0_OutStart
     /tmp/cc8ZLjKA.s:3921   .text.USB_EP0_OutStart:0000005c $d
     /tmp/cc8ZLjKA.s:3926   .text.USB_HostInit:00000000 $t
     /tmp/cc8ZLjKA.s:3932   .text.USB_HostInit:00000000 USB_HostInit
     /tmp/cc8ZLjKA.s:4133   .text.USB_HostInit:000000dc $d
     /tmp/cc8ZLjKA.s:4140   .text.USB_InitFSLSPClkSel:00000000 $t
     /tmp/cc8ZLjKA.s:4146   .text.USB_InitFSLSPClkSel:00000000 USB_InitFSLSPClkSel
     /tmp/cc8ZLjKA.s:4203   .text.USB_ResetPort:00000000 $t
     /tmp/cc8ZLjKA.s:4209   .text.USB_ResetPort:00000000 USB_ResetPort
     /tmp/cc8ZLjKA.s:4275   .text.USB_DriveVbus:00000000 $t
     /tmp/cc8ZLjKA.s:4281   .text.USB_DriveVbus:00000000 USB_DriveVbus
     /tmp/cc8ZLjKA.s:4357   .text.USB_GetHostSpeed:00000000 $t
     /tmp/cc8ZLjKA.s:4363   .text.USB_GetHostSpeed:00000000 USB_GetHostSpeed
     /tmp/cc8ZLjKA.s:4399   .text.USB_GetCurrentFrame:00000000 $t
     /tmp/cc8ZLjKA.s:4405   .text.USB_GetCurrentFrame:00000000 USB_GetCurrentFrame
     /tmp/cc8ZLjKA.s:4428   .text.USB_HC_Init:00000000 $t
     /tmp/cc8ZLjKA.s:4434   .text.USB_HC_Init:00000000 USB_HC_Init
     /tmp/cc8ZLjKA.s:4475   .text.USB_HC_Init:00000022 $d
     /tmp/cc8ZLjKA.s:4479   .text.USB_HC_Init:00000026 $t
     /tmp/cc8ZLjKA.s:4682   .text.USB_HC_ReadInterrupt:00000000 $t
     /tmp/cc8ZLjKA.s:4688   .text.USB_HC_ReadInterrupt:00000000 USB_HC_ReadInterrupt
     /tmp/cc8ZLjKA.s:4711   .text.USB_HC_Halt:00000000 $t
     /tmp/cc8ZLjKA.s:4717   .text.USB_HC_Halt:00000000 USB_HC_Halt
     /tmp/cc8ZLjKA.s:4901   .text.USB_DoPing:00000000 $t
     /tmp/cc8ZLjKA.s:4907   .text.USB_DoPing:00000000 USB_DoPing
     /tmp/cc8ZLjKA.s:4947   .text.USB_DoPing:00000020 $d
ARM GAS  /tmp/cc8ZLjKA.s 			page 165


     /tmp/cc8ZLjKA.s:4952   .text.USB_HC_StartXfer:00000000 $t
     /tmp/cc8ZLjKA.s:4958   .text.USB_HC_StartXfer:00000000 USB_HC_StartXfer
     /tmp/cc8ZLjKA.s:5194   .text.USB_HC_StartXfer:00000112 $d
     /tmp/cc8ZLjKA.s:5199   .text.USB_HC_StartXfer:00000116 $t
     /tmp/cc8ZLjKA.s:5287   .text.USB_HC_StartXfer:00000168 $d
     /tmp/cc8ZLjKA.s:5292   .text.USB_StopHost:00000000 $t
     /tmp/cc8ZLjKA.s:5298   .text.USB_StopHost:00000000 USB_StopHost
     /tmp/cc8ZLjKA.s:5459   .text.USB_ActivateRemoteWakeup:00000000 $t
     /tmp/cc8ZLjKA.s:5465   .text.USB_ActivateRemoteWakeup:00000000 USB_ActivateRemoteWakeup
     /tmp/cc8ZLjKA.s:5500   .text.USB_DeActivateRemoteWakeup:00000000 $t
     /tmp/cc8ZLjKA.s:5506   .text.USB_DeActivateRemoteWakeup:00000000 USB_DeActivateRemoteWakeup

UNDEFINED SYMBOLS
HAL_Delay
