ARM GAS  /tmp/ccumN2qI.s 			page 1


   1              		.cpu cortex-m7
   2              		.arch armv7e-m
   3              		.fpu fpv5-sp-d16
   4              		.eabi_attribute 27, 1
   5              		.eabi_attribute 28, 1
   6              		.eabi_attribute 20, 1
   7              		.eabi_attribute 21, 1
   8              		.eabi_attribute 23, 3
   9              		.eabi_attribute 24, 1
  10              		.eabi_attribute 25, 1
  11              		.eabi_attribute 26, 1
  12              		.eabi_attribute 30, 1
  13              		.eabi_attribute 34, 1
  14              		.eabi_attribute 18, 4
  15              		.file	"stm32f7xx_hal_pwr_ex.c"
  16              		.text
  17              	.Ltext0:
  18              		.cfi_sections	.debug_frame
  19              		.file 1 "Drivers/STM32F7xx_HAL_Driver/Src/stm32f7xx_hal_pwr_ex.c"
  20              		.section	.text.HAL_PWREx_EnableBkUpReg,"ax",%progbits
  21              		.align	1
  22              		.global	HAL_PWREx_EnableBkUpReg
  23              		.syntax unified
  24              		.thumb
  25              		.thumb_func
  27              	HAL_PWREx_EnableBkUpReg:
  28              	.LFB141:
   1:Drivers/STM32F7xx_HAL_Driver/Src/stm32f7xx_hal_pwr_ex.c **** /**
   2:Drivers/STM32F7xx_HAL_Driver/Src/stm32f7xx_hal_pwr_ex.c ****   ******************************************************************************
   3:Drivers/STM32F7xx_HAL_Driver/Src/stm32f7xx_hal_pwr_ex.c ****   * @file    stm32f7xx_hal_pwr_ex.c
   4:Drivers/STM32F7xx_HAL_Driver/Src/stm32f7xx_hal_pwr_ex.c ****   * @author  MCD Application Team
   5:Drivers/STM32F7xx_HAL_Driver/Src/stm32f7xx_hal_pwr_ex.c ****   * @brief   Extended PWR HAL module driver.
   6:Drivers/STM32F7xx_HAL_Driver/Src/stm32f7xx_hal_pwr_ex.c ****   *          This file provides firmware functions to manage the following 
   7:Drivers/STM32F7xx_HAL_Driver/Src/stm32f7xx_hal_pwr_ex.c ****   *          functionalities of PWR extension peripheral:           
   8:Drivers/STM32F7xx_HAL_Driver/Src/stm32f7xx_hal_pwr_ex.c ****   *           + Peripheral Extended features functions
   9:Drivers/STM32F7xx_HAL_Driver/Src/stm32f7xx_hal_pwr_ex.c ****   *         
  10:Drivers/STM32F7xx_HAL_Driver/Src/stm32f7xx_hal_pwr_ex.c ****   ******************************************************************************
  11:Drivers/STM32F7xx_HAL_Driver/Src/stm32f7xx_hal_pwr_ex.c ****   * @attention
  12:Drivers/STM32F7xx_HAL_Driver/Src/stm32f7xx_hal_pwr_ex.c ****   *
  13:Drivers/STM32F7xx_HAL_Driver/Src/stm32f7xx_hal_pwr_ex.c ****   * Copyright (c) 2017 STMicroelectronics.
  14:Drivers/STM32F7xx_HAL_Driver/Src/stm32f7xx_hal_pwr_ex.c ****   * All rights reserved.
  15:Drivers/STM32F7xx_HAL_Driver/Src/stm32f7xx_hal_pwr_ex.c ****   *
  16:Drivers/STM32F7xx_HAL_Driver/Src/stm32f7xx_hal_pwr_ex.c ****   * This software is licensed under terms that can be found in the LICENSE file
  17:Drivers/STM32F7xx_HAL_Driver/Src/stm32f7xx_hal_pwr_ex.c ****   * in the root directory of this software component.
  18:Drivers/STM32F7xx_HAL_Driver/Src/stm32f7xx_hal_pwr_ex.c ****   * If no LICENSE file comes with this software, it is provided AS-IS.
  19:Drivers/STM32F7xx_HAL_Driver/Src/stm32f7xx_hal_pwr_ex.c ****   *
  20:Drivers/STM32F7xx_HAL_Driver/Src/stm32f7xx_hal_pwr_ex.c ****   ******************************************************************************
  21:Drivers/STM32F7xx_HAL_Driver/Src/stm32f7xx_hal_pwr_ex.c ****   */
  22:Drivers/STM32F7xx_HAL_Driver/Src/stm32f7xx_hal_pwr_ex.c **** 
  23:Drivers/STM32F7xx_HAL_Driver/Src/stm32f7xx_hal_pwr_ex.c **** /* Includes ------------------------------------------------------------------*/
  24:Drivers/STM32F7xx_HAL_Driver/Src/stm32f7xx_hal_pwr_ex.c **** #include "stm32f7xx_hal.h"
  25:Drivers/STM32F7xx_HAL_Driver/Src/stm32f7xx_hal_pwr_ex.c **** 
  26:Drivers/STM32F7xx_HAL_Driver/Src/stm32f7xx_hal_pwr_ex.c **** /** @addtogroup STM32F7xx_HAL_Driver
  27:Drivers/STM32F7xx_HAL_Driver/Src/stm32f7xx_hal_pwr_ex.c ****   * @{
  28:Drivers/STM32F7xx_HAL_Driver/Src/stm32f7xx_hal_pwr_ex.c ****   */
  29:Drivers/STM32F7xx_HAL_Driver/Src/stm32f7xx_hal_pwr_ex.c **** 
  30:Drivers/STM32F7xx_HAL_Driver/Src/stm32f7xx_hal_pwr_ex.c **** /** @defgroup PWREx PWREx
ARM GAS  /tmp/ccumN2qI.s 			page 2


  31:Drivers/STM32F7xx_HAL_Driver/Src/stm32f7xx_hal_pwr_ex.c ****   * @brief PWR HAL module driver
  32:Drivers/STM32F7xx_HAL_Driver/Src/stm32f7xx_hal_pwr_ex.c ****   * @{
  33:Drivers/STM32F7xx_HAL_Driver/Src/stm32f7xx_hal_pwr_ex.c ****   */
  34:Drivers/STM32F7xx_HAL_Driver/Src/stm32f7xx_hal_pwr_ex.c **** 
  35:Drivers/STM32F7xx_HAL_Driver/Src/stm32f7xx_hal_pwr_ex.c **** #ifdef HAL_PWR_MODULE_ENABLED
  36:Drivers/STM32F7xx_HAL_Driver/Src/stm32f7xx_hal_pwr_ex.c **** 
  37:Drivers/STM32F7xx_HAL_Driver/Src/stm32f7xx_hal_pwr_ex.c **** /* Private typedef -----------------------------------------------------------*/
  38:Drivers/STM32F7xx_HAL_Driver/Src/stm32f7xx_hal_pwr_ex.c **** /* Private define ------------------------------------------------------------*/
  39:Drivers/STM32F7xx_HAL_Driver/Src/stm32f7xx_hal_pwr_ex.c **** /** @addtogroup PWREx_Private_Constants
  40:Drivers/STM32F7xx_HAL_Driver/Src/stm32f7xx_hal_pwr_ex.c ****   * @{
  41:Drivers/STM32F7xx_HAL_Driver/Src/stm32f7xx_hal_pwr_ex.c ****   */    
  42:Drivers/STM32F7xx_HAL_Driver/Src/stm32f7xx_hal_pwr_ex.c **** #define PWR_OVERDRIVE_TIMEOUT_VALUE  1000
  43:Drivers/STM32F7xx_HAL_Driver/Src/stm32f7xx_hal_pwr_ex.c **** #define PWR_UDERDRIVE_TIMEOUT_VALUE  1000
  44:Drivers/STM32F7xx_HAL_Driver/Src/stm32f7xx_hal_pwr_ex.c **** #define PWR_BKPREG_TIMEOUT_VALUE     1000
  45:Drivers/STM32F7xx_HAL_Driver/Src/stm32f7xx_hal_pwr_ex.c **** #define PWR_VOSRDY_TIMEOUT_VALUE     1000
  46:Drivers/STM32F7xx_HAL_Driver/Src/stm32f7xx_hal_pwr_ex.c **** /**
  47:Drivers/STM32F7xx_HAL_Driver/Src/stm32f7xx_hal_pwr_ex.c ****   * @}
  48:Drivers/STM32F7xx_HAL_Driver/Src/stm32f7xx_hal_pwr_ex.c ****   */
  49:Drivers/STM32F7xx_HAL_Driver/Src/stm32f7xx_hal_pwr_ex.c ****     
  50:Drivers/STM32F7xx_HAL_Driver/Src/stm32f7xx_hal_pwr_ex.c **** /* Private macro -------------------------------------------------------------*/
  51:Drivers/STM32F7xx_HAL_Driver/Src/stm32f7xx_hal_pwr_ex.c **** /* Private variables ---------------------------------------------------------*/
  52:Drivers/STM32F7xx_HAL_Driver/Src/stm32f7xx_hal_pwr_ex.c **** /* Private function prototypes -----------------------------------------------*/
  53:Drivers/STM32F7xx_HAL_Driver/Src/stm32f7xx_hal_pwr_ex.c **** /* Private functions ---------------------------------------------------------*/
  54:Drivers/STM32F7xx_HAL_Driver/Src/stm32f7xx_hal_pwr_ex.c **** /** @defgroup PWREx_Exported_Functions PWREx Exported Functions
  55:Drivers/STM32F7xx_HAL_Driver/Src/stm32f7xx_hal_pwr_ex.c ****   *  @{
  56:Drivers/STM32F7xx_HAL_Driver/Src/stm32f7xx_hal_pwr_ex.c ****   */
  57:Drivers/STM32F7xx_HAL_Driver/Src/stm32f7xx_hal_pwr_ex.c **** 
  58:Drivers/STM32F7xx_HAL_Driver/Src/stm32f7xx_hal_pwr_ex.c **** /** @defgroup PWREx_Exported_Functions_Group1 Peripheral Extended features functions 
  59:Drivers/STM32F7xx_HAL_Driver/Src/stm32f7xx_hal_pwr_ex.c ****   *  @brief Peripheral Extended features functions 
  60:Drivers/STM32F7xx_HAL_Driver/Src/stm32f7xx_hal_pwr_ex.c ****   *
  61:Drivers/STM32F7xx_HAL_Driver/Src/stm32f7xx_hal_pwr_ex.c **** @verbatim   
  62:Drivers/STM32F7xx_HAL_Driver/Src/stm32f7xx_hal_pwr_ex.c **** 
  63:Drivers/STM32F7xx_HAL_Driver/Src/stm32f7xx_hal_pwr_ex.c ****  ===============================================================================
  64:Drivers/STM32F7xx_HAL_Driver/Src/stm32f7xx_hal_pwr_ex.c ****                  ##### Peripheral extended features functions #####
  65:Drivers/STM32F7xx_HAL_Driver/Src/stm32f7xx_hal_pwr_ex.c ****  ===============================================================================
  66:Drivers/STM32F7xx_HAL_Driver/Src/stm32f7xx_hal_pwr_ex.c **** 
  67:Drivers/STM32F7xx_HAL_Driver/Src/stm32f7xx_hal_pwr_ex.c ****     *** Main and Backup Regulators configuration ***
  68:Drivers/STM32F7xx_HAL_Driver/Src/stm32f7xx_hal_pwr_ex.c ****     ================================================
  69:Drivers/STM32F7xx_HAL_Driver/Src/stm32f7xx_hal_pwr_ex.c ****     [..] 
  70:Drivers/STM32F7xx_HAL_Driver/Src/stm32f7xx_hal_pwr_ex.c ****       (+) The backup domain includes 4 Kbytes of backup SRAM accessible only from 
  71:Drivers/STM32F7xx_HAL_Driver/Src/stm32f7xx_hal_pwr_ex.c ****           the CPU, and address in 32-bit, 16-bit or 8-bit mode. Its content is 
  72:Drivers/STM32F7xx_HAL_Driver/Src/stm32f7xx_hal_pwr_ex.c ****           retained even in Standby or VBAT mode when the low power backup regulator
  73:Drivers/STM32F7xx_HAL_Driver/Src/stm32f7xx_hal_pwr_ex.c ****           is enabled. It can be considered as an internal EEPROM when VBAT is 
  74:Drivers/STM32F7xx_HAL_Driver/Src/stm32f7xx_hal_pwr_ex.c ****           always present. You can use the HAL_PWREx_EnableBkUpReg() function to 
  75:Drivers/STM32F7xx_HAL_Driver/Src/stm32f7xx_hal_pwr_ex.c ****           enable the low power backup regulator. 
  76:Drivers/STM32F7xx_HAL_Driver/Src/stm32f7xx_hal_pwr_ex.c **** 
  77:Drivers/STM32F7xx_HAL_Driver/Src/stm32f7xx_hal_pwr_ex.c ****       (+) When the backup domain is supplied by VDD (analog switch connected to VDD) 
  78:Drivers/STM32F7xx_HAL_Driver/Src/stm32f7xx_hal_pwr_ex.c ****           the backup SRAM is powered from VDD which replaces the VBAT power supply to 
  79:Drivers/STM32F7xx_HAL_Driver/Src/stm32f7xx_hal_pwr_ex.c ****           save battery life.
  80:Drivers/STM32F7xx_HAL_Driver/Src/stm32f7xx_hal_pwr_ex.c **** 
  81:Drivers/STM32F7xx_HAL_Driver/Src/stm32f7xx_hal_pwr_ex.c ****       (+) The backup SRAM is not mass erased by a tamper event. It is read 
  82:Drivers/STM32F7xx_HAL_Driver/Src/stm32f7xx_hal_pwr_ex.c ****           protected to prevent confidential data, such as cryptographic private 
  83:Drivers/STM32F7xx_HAL_Driver/Src/stm32f7xx_hal_pwr_ex.c ****           key, from being accessed. The backup SRAM can be erased only through 
  84:Drivers/STM32F7xx_HAL_Driver/Src/stm32f7xx_hal_pwr_ex.c ****           the Flash interface when a protection level change from level 1 to 
  85:Drivers/STM32F7xx_HAL_Driver/Src/stm32f7xx_hal_pwr_ex.c ****           level 0 is requested. 
  86:Drivers/STM32F7xx_HAL_Driver/Src/stm32f7xx_hal_pwr_ex.c ****       -@- Refer to the description of Read protection (RDP) in the Flash 
  87:Drivers/STM32F7xx_HAL_Driver/Src/stm32f7xx_hal_pwr_ex.c ****           programming manual.
ARM GAS  /tmp/ccumN2qI.s 			page 3


  88:Drivers/STM32F7xx_HAL_Driver/Src/stm32f7xx_hal_pwr_ex.c **** 
  89:Drivers/STM32F7xx_HAL_Driver/Src/stm32f7xx_hal_pwr_ex.c ****       (+) The main internal regulator can be configured to have a tradeoff between 
  90:Drivers/STM32F7xx_HAL_Driver/Src/stm32f7xx_hal_pwr_ex.c ****           performance and power consumption when the device does not operate at 
  91:Drivers/STM32F7xx_HAL_Driver/Src/stm32f7xx_hal_pwr_ex.c ****           the maximum frequency. This is done through __HAL_PWR_MAINREGULATORMODE_CONFIG() 
  92:Drivers/STM32F7xx_HAL_Driver/Src/stm32f7xx_hal_pwr_ex.c ****           macro which configure VOS bit in PWR_CR register
  93:Drivers/STM32F7xx_HAL_Driver/Src/stm32f7xx_hal_pwr_ex.c ****           
  94:Drivers/STM32F7xx_HAL_Driver/Src/stm32f7xx_hal_pwr_ex.c ****         Refer to the product datasheets for more details.
  95:Drivers/STM32F7xx_HAL_Driver/Src/stm32f7xx_hal_pwr_ex.c **** 
  96:Drivers/STM32F7xx_HAL_Driver/Src/stm32f7xx_hal_pwr_ex.c ****     *** FLASH Power Down configuration ****
  97:Drivers/STM32F7xx_HAL_Driver/Src/stm32f7xx_hal_pwr_ex.c ****     =======================================
  98:Drivers/STM32F7xx_HAL_Driver/Src/stm32f7xx_hal_pwr_ex.c ****     [..] 
  99:Drivers/STM32F7xx_HAL_Driver/Src/stm32f7xx_hal_pwr_ex.c ****       (+) By setting the FPDS bit in the PWR_CR register by using the 
 100:Drivers/STM32F7xx_HAL_Driver/Src/stm32f7xx_hal_pwr_ex.c ****           HAL_PWREx_EnableFlashPowerDown() function, the Flash memory also enters power 
 101:Drivers/STM32F7xx_HAL_Driver/Src/stm32f7xx_hal_pwr_ex.c ****           down mode when the device enters Stop mode. When the Flash memory 
 102:Drivers/STM32F7xx_HAL_Driver/Src/stm32f7xx_hal_pwr_ex.c ****           is in power down mode, an additional startup delay is incurred when 
 103:Drivers/STM32F7xx_HAL_Driver/Src/stm32f7xx_hal_pwr_ex.c ****           waking up from Stop mode.
 104:Drivers/STM32F7xx_HAL_Driver/Src/stm32f7xx_hal_pwr_ex.c **** 
 105:Drivers/STM32F7xx_HAL_Driver/Src/stm32f7xx_hal_pwr_ex.c ****     *** Over-Drive and Under-Drive configuration ****
 106:Drivers/STM32F7xx_HAL_Driver/Src/stm32f7xx_hal_pwr_ex.c ****     =================================================
 107:Drivers/STM32F7xx_HAL_Driver/Src/stm32f7xx_hal_pwr_ex.c ****     [..]         
 108:Drivers/STM32F7xx_HAL_Driver/Src/stm32f7xx_hal_pwr_ex.c ****        (+) In Run mode: the main regulator has 2 operating modes available:
 109:Drivers/STM32F7xx_HAL_Driver/Src/stm32f7xx_hal_pwr_ex.c ****         (++) Normal mode: The CPU and core logic operate at maximum frequency at a given 
 110:Drivers/STM32F7xx_HAL_Driver/Src/stm32f7xx_hal_pwr_ex.c ****              voltage scaling (scale 1, scale 2 or scale 3)
 111:Drivers/STM32F7xx_HAL_Driver/Src/stm32f7xx_hal_pwr_ex.c ****         (++) Over-drive mode: This mode allows the CPU and the core logic to operate at a 
 112:Drivers/STM32F7xx_HAL_Driver/Src/stm32f7xx_hal_pwr_ex.c ****             higher frequency than the normal mode for a given voltage scaling (scale 1,  
 113:Drivers/STM32F7xx_HAL_Driver/Src/stm32f7xx_hal_pwr_ex.c ****             scale 2 or scale 3). This mode is enabled through HAL_PWREx_EnableOverDrive() function 
 114:Drivers/STM32F7xx_HAL_Driver/Src/stm32f7xx_hal_pwr_ex.c ****             disabled by HAL_PWREx_DisableOverDrive() function, to enter or exit from Over-drive mod
 115:Drivers/STM32F7xx_HAL_Driver/Src/stm32f7xx_hal_pwr_ex.c ****             the sequence described in Reference manual.
 116:Drivers/STM32F7xx_HAL_Driver/Src/stm32f7xx_hal_pwr_ex.c ****              
 117:Drivers/STM32F7xx_HAL_Driver/Src/stm32f7xx_hal_pwr_ex.c ****        (+) In Stop mode: the main regulator or low power regulator supplies a low power 
 118:Drivers/STM32F7xx_HAL_Driver/Src/stm32f7xx_hal_pwr_ex.c ****            voltage to the 1.2V domain, thus preserving the content of registers 
 119:Drivers/STM32F7xx_HAL_Driver/Src/stm32f7xx_hal_pwr_ex.c ****            and internal SRAM. 2 operating modes are available:
 120:Drivers/STM32F7xx_HAL_Driver/Src/stm32f7xx_hal_pwr_ex.c ****          (++) Normal mode: the 1.2V domain is preserved in nominal leakage mode. This mode is only 
 121:Drivers/STM32F7xx_HAL_Driver/Src/stm32f7xx_hal_pwr_ex.c ****               available when the main regulator or the low power regulator is used in Scale 3 or 
 122:Drivers/STM32F7xx_HAL_Driver/Src/stm32f7xx_hal_pwr_ex.c ****               low voltage mode.
 123:Drivers/STM32F7xx_HAL_Driver/Src/stm32f7xx_hal_pwr_ex.c ****          (++) Under-drive mode: the 1.2V domain is preserved in reduced leakage mode. This mode is 
 124:Drivers/STM32F7xx_HAL_Driver/Src/stm32f7xx_hal_pwr_ex.c ****               available when the main regulator or the low power regulator is in low voltage mode.
 125:Drivers/STM32F7xx_HAL_Driver/Src/stm32f7xx_hal_pwr_ex.c **** 
 126:Drivers/STM32F7xx_HAL_Driver/Src/stm32f7xx_hal_pwr_ex.c **** @endverbatim
 127:Drivers/STM32F7xx_HAL_Driver/Src/stm32f7xx_hal_pwr_ex.c ****   * @{
 128:Drivers/STM32F7xx_HAL_Driver/Src/stm32f7xx_hal_pwr_ex.c ****   */
 129:Drivers/STM32F7xx_HAL_Driver/Src/stm32f7xx_hal_pwr_ex.c **** 
 130:Drivers/STM32F7xx_HAL_Driver/Src/stm32f7xx_hal_pwr_ex.c **** /**
 131:Drivers/STM32F7xx_HAL_Driver/Src/stm32f7xx_hal_pwr_ex.c ****   * @brief Enables the Backup Regulator.
 132:Drivers/STM32F7xx_HAL_Driver/Src/stm32f7xx_hal_pwr_ex.c ****   * @retval HAL status
 133:Drivers/STM32F7xx_HAL_Driver/Src/stm32f7xx_hal_pwr_ex.c ****   */
 134:Drivers/STM32F7xx_HAL_Driver/Src/stm32f7xx_hal_pwr_ex.c **** HAL_StatusTypeDef HAL_PWREx_EnableBkUpReg(void)
 135:Drivers/STM32F7xx_HAL_Driver/Src/stm32f7xx_hal_pwr_ex.c **** {
  29              		.loc 1 135 1 view -0
  30              		.cfi_startproc
  31              		@ args = 0, pretend = 0, frame = 0
  32              		@ frame_needed = 0, uses_anonymous_args = 0
  33 0000 10B5     		push	{r4, lr}
  34              		.cfi_def_cfa_offset 8
  35              		.cfi_offset 4, -8
  36              		.cfi_offset 14, -4
 136:Drivers/STM32F7xx_HAL_Driver/Src/stm32f7xx_hal_pwr_ex.c ****   uint32_t tickstart = 0;
ARM GAS  /tmp/ccumN2qI.s 			page 4


  37              		.loc 1 136 3 view .LVU1
  38              	.LVL0:
 137:Drivers/STM32F7xx_HAL_Driver/Src/stm32f7xx_hal_pwr_ex.c **** 
 138:Drivers/STM32F7xx_HAL_Driver/Src/stm32f7xx_hal_pwr_ex.c ****   /* Enable Backup regulator */
 139:Drivers/STM32F7xx_HAL_Driver/Src/stm32f7xx_hal_pwr_ex.c ****   PWR->CSR1 |= PWR_CSR1_BRE;
  39              		.loc 1 139 3 view .LVU2
  40              		.loc 1 139 6 is_stmt 0 view .LVU3
  41 0002 0D4B     		ldr	r3, .L8
  42 0004 5A68     		ldr	r2, [r3, #4]
  43              		.loc 1 139 13 view .LVU4
  44 0006 42F40072 		orr	r2, r2, #512
  45 000a 5A60     		str	r2, [r3, #4]
 140:Drivers/STM32F7xx_HAL_Driver/Src/stm32f7xx_hal_pwr_ex.c ****     
 141:Drivers/STM32F7xx_HAL_Driver/Src/stm32f7xx_hal_pwr_ex.c ****   /* Workaround for the following hardware bug: */
 142:Drivers/STM32F7xx_HAL_Driver/Src/stm32f7xx_hal_pwr_ex.c ****   /* Id 19: PWR : No STANDBY wake-up when Back-up RAM enabled (ref. Errata Sheet p23) */
 143:Drivers/STM32F7xx_HAL_Driver/Src/stm32f7xx_hal_pwr_ex.c ****   PWR->CSR1 |= PWR_CSR1_EIWUP;
  46              		.loc 1 143 3 is_stmt 1 view .LVU5
  47              		.loc 1 143 6 is_stmt 0 view .LVU6
  48 000c 5A68     		ldr	r2, [r3, #4]
  49              		.loc 1 143 13 view .LVU7
  50 000e 42F48072 		orr	r2, r2, #256
  51 0012 5A60     		str	r2, [r3, #4]
 144:Drivers/STM32F7xx_HAL_Driver/Src/stm32f7xx_hal_pwr_ex.c **** 
 145:Drivers/STM32F7xx_HAL_Driver/Src/stm32f7xx_hal_pwr_ex.c ****   /* Get tick */
 146:Drivers/STM32F7xx_HAL_Driver/Src/stm32f7xx_hal_pwr_ex.c ****   tickstart = HAL_GetTick();
  52              		.loc 1 146 3 is_stmt 1 view .LVU8
  53              		.loc 1 146 15 is_stmt 0 view .LVU9
  54 0014 FFF7FEFF 		bl	HAL_GetTick
  55              	.LVL1:
  56 0018 0446     		mov	r4, r0
  57              	.LVL2:
 147:Drivers/STM32F7xx_HAL_Driver/Src/stm32f7xx_hal_pwr_ex.c **** 
 148:Drivers/STM32F7xx_HAL_Driver/Src/stm32f7xx_hal_pwr_ex.c ****   /* Wait till Backup regulator ready flag is set */  
 149:Drivers/STM32F7xx_HAL_Driver/Src/stm32f7xx_hal_pwr_ex.c ****   while(__HAL_PWR_GET_FLAG(PWR_FLAG_BRR) == RESET)
  58              		.loc 1 149 3 is_stmt 1 view .LVU10
  59              	.L2:
  60              		.loc 1 149 42 view .LVU11
  61              		.loc 1 149 9 is_stmt 0 view .LVU12
  62 001a 074B     		ldr	r3, .L8
  63 001c 5B68     		ldr	r3, [r3, #4]
  64              		.loc 1 149 42 view .LVU13
  65 001e 13F0080F 		tst	r3, #8
  66 0022 07D1     		bne	.L7
 150:Drivers/STM32F7xx_HAL_Driver/Src/stm32f7xx_hal_pwr_ex.c ****   {
 151:Drivers/STM32F7xx_HAL_Driver/Src/stm32f7xx_hal_pwr_ex.c ****     if((HAL_GetTick() - tickstart ) > PWR_BKPREG_TIMEOUT_VALUE)
  67              		.loc 1 151 5 is_stmt 1 view .LVU14
  68              		.loc 1 151 9 is_stmt 0 view .LVU15
  69 0024 FFF7FEFF 		bl	HAL_GetTick
  70              	.LVL3:
  71              		.loc 1 151 23 view .LVU16
  72 0028 001B     		subs	r0, r0, r4
  73              		.loc 1 151 7 view .LVU17
  74 002a B0F57A7F 		cmp	r0, #1000
  75 002e F4D9     		bls	.L2
 152:Drivers/STM32F7xx_HAL_Driver/Src/stm32f7xx_hal_pwr_ex.c ****     {
 153:Drivers/STM32F7xx_HAL_Driver/Src/stm32f7xx_hal_pwr_ex.c ****       return HAL_TIMEOUT;
  76              		.loc 1 153 14 view .LVU18
ARM GAS  /tmp/ccumN2qI.s 			page 5


  77 0030 0320     		movs	r0, #3
  78 0032 00E0     		b	.L3
  79              	.L7:
 154:Drivers/STM32F7xx_HAL_Driver/Src/stm32f7xx_hal_pwr_ex.c ****     } 
 155:Drivers/STM32F7xx_HAL_Driver/Src/stm32f7xx_hal_pwr_ex.c ****   }
 156:Drivers/STM32F7xx_HAL_Driver/Src/stm32f7xx_hal_pwr_ex.c ****   return HAL_OK;
  80              		.loc 1 156 10 view .LVU19
  81 0034 0020     		movs	r0, #0
  82              	.L3:
 157:Drivers/STM32F7xx_HAL_Driver/Src/stm32f7xx_hal_pwr_ex.c **** }
  83              		.loc 1 157 1 view .LVU20
  84 0036 10BD     		pop	{r4, pc}
  85              	.LVL4:
  86              	.L9:
  87              		.loc 1 157 1 view .LVU21
  88              		.align	2
  89              	.L8:
  90 0038 00700040 		.word	1073770496
  91              		.cfi_endproc
  92              	.LFE141:
  94              		.section	.text.HAL_PWREx_DisableBkUpReg,"ax",%progbits
  95              		.align	1
  96              		.global	HAL_PWREx_DisableBkUpReg
  97              		.syntax unified
  98              		.thumb
  99              		.thumb_func
 101              	HAL_PWREx_DisableBkUpReg:
 102              	.LFB142:
 158:Drivers/STM32F7xx_HAL_Driver/Src/stm32f7xx_hal_pwr_ex.c **** 
 159:Drivers/STM32F7xx_HAL_Driver/Src/stm32f7xx_hal_pwr_ex.c **** /**
 160:Drivers/STM32F7xx_HAL_Driver/Src/stm32f7xx_hal_pwr_ex.c ****   * @brief Disables the Backup Regulator.
 161:Drivers/STM32F7xx_HAL_Driver/Src/stm32f7xx_hal_pwr_ex.c ****   * @retval HAL status
 162:Drivers/STM32F7xx_HAL_Driver/Src/stm32f7xx_hal_pwr_ex.c ****   */
 163:Drivers/STM32F7xx_HAL_Driver/Src/stm32f7xx_hal_pwr_ex.c **** HAL_StatusTypeDef HAL_PWREx_DisableBkUpReg(void)
 164:Drivers/STM32F7xx_HAL_Driver/Src/stm32f7xx_hal_pwr_ex.c **** {
 103              		.loc 1 164 1 is_stmt 1 view -0
 104              		.cfi_startproc
 105              		@ args = 0, pretend = 0, frame = 0
 106              		@ frame_needed = 0, uses_anonymous_args = 0
 107 0000 10B5     		push	{r4, lr}
 108              		.cfi_def_cfa_offset 8
 109              		.cfi_offset 4, -8
 110              		.cfi_offset 14, -4
 165:Drivers/STM32F7xx_HAL_Driver/Src/stm32f7xx_hal_pwr_ex.c ****   uint32_t tickstart = 0;
 111              		.loc 1 165 3 view .LVU23
 112              	.LVL5:
 166:Drivers/STM32F7xx_HAL_Driver/Src/stm32f7xx_hal_pwr_ex.c ****   
 167:Drivers/STM32F7xx_HAL_Driver/Src/stm32f7xx_hal_pwr_ex.c ****   /* Disable Backup regulator */
 168:Drivers/STM32F7xx_HAL_Driver/Src/stm32f7xx_hal_pwr_ex.c ****   PWR->CSR1 &= (uint32_t)~((uint32_t)PWR_CSR1_BRE);
 113              		.loc 1 168 3 view .LVU24
 114              		.loc 1 168 6 is_stmt 0 view .LVU25
 115 0002 0D4B     		ldr	r3, .L17
 116 0004 5A68     		ldr	r2, [r3, #4]
 117              		.loc 1 168 13 view .LVU26
 118 0006 22F40072 		bic	r2, r2, #512
 119 000a 5A60     		str	r2, [r3, #4]
 169:Drivers/STM32F7xx_HAL_Driver/Src/stm32f7xx_hal_pwr_ex.c ****   
ARM GAS  /tmp/ccumN2qI.s 			page 6


 170:Drivers/STM32F7xx_HAL_Driver/Src/stm32f7xx_hal_pwr_ex.c ****   /* Workaround for the following hardware bug: */
 171:Drivers/STM32F7xx_HAL_Driver/Src/stm32f7xx_hal_pwr_ex.c ****   /* Id 19: PWR : No STANDBY wake-up when Back-up RAM enabled (ref. Errata Sheet p23) */
 172:Drivers/STM32F7xx_HAL_Driver/Src/stm32f7xx_hal_pwr_ex.c ****   PWR->CSR1 |= PWR_CSR1_EIWUP;
 120              		.loc 1 172 3 is_stmt 1 view .LVU27
 121              		.loc 1 172 6 is_stmt 0 view .LVU28
 122 000c 5A68     		ldr	r2, [r3, #4]
 123              		.loc 1 172 13 view .LVU29
 124 000e 42F48072 		orr	r2, r2, #256
 125 0012 5A60     		str	r2, [r3, #4]
 173:Drivers/STM32F7xx_HAL_Driver/Src/stm32f7xx_hal_pwr_ex.c **** 
 174:Drivers/STM32F7xx_HAL_Driver/Src/stm32f7xx_hal_pwr_ex.c ****   /* Get tick */
 175:Drivers/STM32F7xx_HAL_Driver/Src/stm32f7xx_hal_pwr_ex.c ****   tickstart = HAL_GetTick();
 126              		.loc 1 175 3 is_stmt 1 view .LVU30
 127              		.loc 1 175 15 is_stmt 0 view .LVU31
 128 0014 FFF7FEFF 		bl	HAL_GetTick
 129              	.LVL6:
 130 0018 0446     		mov	r4, r0
 131              	.LVL7:
 176:Drivers/STM32F7xx_HAL_Driver/Src/stm32f7xx_hal_pwr_ex.c **** 
 177:Drivers/STM32F7xx_HAL_Driver/Src/stm32f7xx_hal_pwr_ex.c ****   /* Wait till Backup regulator ready flag is set */  
 178:Drivers/STM32F7xx_HAL_Driver/Src/stm32f7xx_hal_pwr_ex.c ****   while(__HAL_PWR_GET_FLAG(PWR_FLAG_BRR) != RESET)
 132              		.loc 1 178 3 is_stmt 1 view .LVU32
 133              	.L11:
 134              		.loc 1 178 42 view .LVU33
 135              		.loc 1 178 9 is_stmt 0 view .LVU34
 136 001a 074B     		ldr	r3, .L17
 137 001c 5B68     		ldr	r3, [r3, #4]
 138              		.loc 1 178 42 view .LVU35
 139 001e 13F0080F 		tst	r3, #8
 140 0022 07D0     		beq	.L16
 179:Drivers/STM32F7xx_HAL_Driver/Src/stm32f7xx_hal_pwr_ex.c ****   {
 180:Drivers/STM32F7xx_HAL_Driver/Src/stm32f7xx_hal_pwr_ex.c ****     if((HAL_GetTick() - tickstart ) > PWR_BKPREG_TIMEOUT_VALUE)
 141              		.loc 1 180 5 is_stmt 1 view .LVU36
 142              		.loc 1 180 9 is_stmt 0 view .LVU37
 143 0024 FFF7FEFF 		bl	HAL_GetTick
 144              	.LVL8:
 145              		.loc 1 180 23 view .LVU38
 146 0028 001B     		subs	r0, r0, r4
 147              		.loc 1 180 7 view .LVU39
 148 002a B0F57A7F 		cmp	r0, #1000
 149 002e F4D9     		bls	.L11
 181:Drivers/STM32F7xx_HAL_Driver/Src/stm32f7xx_hal_pwr_ex.c ****     {
 182:Drivers/STM32F7xx_HAL_Driver/Src/stm32f7xx_hal_pwr_ex.c ****       return HAL_TIMEOUT;
 150              		.loc 1 182 14 view .LVU40
 151 0030 0320     		movs	r0, #3
 152 0032 00E0     		b	.L12
 153              	.L16:
 183:Drivers/STM32F7xx_HAL_Driver/Src/stm32f7xx_hal_pwr_ex.c ****     } 
 184:Drivers/STM32F7xx_HAL_Driver/Src/stm32f7xx_hal_pwr_ex.c ****   }
 185:Drivers/STM32F7xx_HAL_Driver/Src/stm32f7xx_hal_pwr_ex.c ****   return HAL_OK;
 154              		.loc 1 185 10 view .LVU41
 155 0034 0020     		movs	r0, #0
 156              	.L12:
 186:Drivers/STM32F7xx_HAL_Driver/Src/stm32f7xx_hal_pwr_ex.c **** }
 157              		.loc 1 186 1 view .LVU42
 158 0036 10BD     		pop	{r4, pc}
 159              	.LVL9:
ARM GAS  /tmp/ccumN2qI.s 			page 7


 160              	.L18:
 161              		.loc 1 186 1 view .LVU43
 162              		.align	2
 163              	.L17:
 164 0038 00700040 		.word	1073770496
 165              		.cfi_endproc
 166              	.LFE142:
 168              		.section	.text.HAL_PWREx_EnableFlashPowerDown,"ax",%progbits
 169              		.align	1
 170              		.global	HAL_PWREx_EnableFlashPowerDown
 171              		.syntax unified
 172              		.thumb
 173              		.thumb_func
 175              	HAL_PWREx_EnableFlashPowerDown:
 176              	.LFB143:
 187:Drivers/STM32F7xx_HAL_Driver/Src/stm32f7xx_hal_pwr_ex.c **** 
 188:Drivers/STM32F7xx_HAL_Driver/Src/stm32f7xx_hal_pwr_ex.c **** /**
 189:Drivers/STM32F7xx_HAL_Driver/Src/stm32f7xx_hal_pwr_ex.c ****   * @brief Enables the Flash Power Down in Stop mode.
 190:Drivers/STM32F7xx_HAL_Driver/Src/stm32f7xx_hal_pwr_ex.c ****   * @retval None
 191:Drivers/STM32F7xx_HAL_Driver/Src/stm32f7xx_hal_pwr_ex.c ****   */
 192:Drivers/STM32F7xx_HAL_Driver/Src/stm32f7xx_hal_pwr_ex.c **** void HAL_PWREx_EnableFlashPowerDown(void)
 193:Drivers/STM32F7xx_HAL_Driver/Src/stm32f7xx_hal_pwr_ex.c **** {
 177              		.loc 1 193 1 is_stmt 1 view -0
 178              		.cfi_startproc
 179              		@ args = 0, pretend = 0, frame = 0
 180              		@ frame_needed = 0, uses_anonymous_args = 0
 181              		@ link register save eliminated.
 194:Drivers/STM32F7xx_HAL_Driver/Src/stm32f7xx_hal_pwr_ex.c ****   /* Enable the Flash Power Down */
 195:Drivers/STM32F7xx_HAL_Driver/Src/stm32f7xx_hal_pwr_ex.c ****   PWR->CR1 |= PWR_CR1_FPDS;
 182              		.loc 1 195 3 view .LVU45
 183              		.loc 1 195 6 is_stmt 0 view .LVU46
 184 0000 024A     		ldr	r2, .L20
 185 0002 1368     		ldr	r3, [r2]
 186              		.loc 1 195 12 view .LVU47
 187 0004 43F40073 		orr	r3, r3, #512
 188 0008 1360     		str	r3, [r2]
 196:Drivers/STM32F7xx_HAL_Driver/Src/stm32f7xx_hal_pwr_ex.c **** }
 189              		.loc 1 196 1 view .LVU48
 190 000a 7047     		bx	lr
 191              	.L21:
 192              		.align	2
 193              	.L20:
 194 000c 00700040 		.word	1073770496
 195              		.cfi_endproc
 196              	.LFE143:
 198              		.section	.text.HAL_PWREx_DisableFlashPowerDown,"ax",%progbits
 199              		.align	1
 200              		.global	HAL_PWREx_DisableFlashPowerDown
 201              		.syntax unified
 202              		.thumb
 203              		.thumb_func
 205              	HAL_PWREx_DisableFlashPowerDown:
 206              	.LFB144:
 197:Drivers/STM32F7xx_HAL_Driver/Src/stm32f7xx_hal_pwr_ex.c **** 
 198:Drivers/STM32F7xx_HAL_Driver/Src/stm32f7xx_hal_pwr_ex.c **** /**
 199:Drivers/STM32F7xx_HAL_Driver/Src/stm32f7xx_hal_pwr_ex.c ****   * @brief Disables the Flash Power Down in Stop mode.
 200:Drivers/STM32F7xx_HAL_Driver/Src/stm32f7xx_hal_pwr_ex.c ****   * @retval None
ARM GAS  /tmp/ccumN2qI.s 			page 8


 201:Drivers/STM32F7xx_HAL_Driver/Src/stm32f7xx_hal_pwr_ex.c ****   */
 202:Drivers/STM32F7xx_HAL_Driver/Src/stm32f7xx_hal_pwr_ex.c **** void HAL_PWREx_DisableFlashPowerDown(void)
 203:Drivers/STM32F7xx_HAL_Driver/Src/stm32f7xx_hal_pwr_ex.c **** {
 207              		.loc 1 203 1 is_stmt 1 view -0
 208              		.cfi_startproc
 209              		@ args = 0, pretend = 0, frame = 0
 210              		@ frame_needed = 0, uses_anonymous_args = 0
 211              		@ link register save eliminated.
 204:Drivers/STM32F7xx_HAL_Driver/Src/stm32f7xx_hal_pwr_ex.c ****   /* Disable the Flash Power Down */
 205:Drivers/STM32F7xx_HAL_Driver/Src/stm32f7xx_hal_pwr_ex.c ****   PWR->CR1 &= (uint32_t)~((uint32_t)PWR_CR1_FPDS);
 212              		.loc 1 205 3 view .LVU50
 213              		.loc 1 205 6 is_stmt 0 view .LVU51
 214 0000 024A     		ldr	r2, .L23
 215 0002 1368     		ldr	r3, [r2]
 216              		.loc 1 205 12 view .LVU52
 217 0004 23F40073 		bic	r3, r3, #512
 218 0008 1360     		str	r3, [r2]
 206:Drivers/STM32F7xx_HAL_Driver/Src/stm32f7xx_hal_pwr_ex.c **** }
 219              		.loc 1 206 1 view .LVU53
 220 000a 7047     		bx	lr
 221              	.L24:
 222              		.align	2
 223              	.L23:
 224 000c 00700040 		.word	1073770496
 225              		.cfi_endproc
 226              	.LFE144:
 228              		.section	.text.HAL_PWREx_EnableMainRegulatorLowVoltage,"ax",%progbits
 229              		.align	1
 230              		.global	HAL_PWREx_EnableMainRegulatorLowVoltage
 231              		.syntax unified
 232              		.thumb
 233              		.thumb_func
 235              	HAL_PWREx_EnableMainRegulatorLowVoltage:
 236              	.LFB145:
 207:Drivers/STM32F7xx_HAL_Driver/Src/stm32f7xx_hal_pwr_ex.c **** 
 208:Drivers/STM32F7xx_HAL_Driver/Src/stm32f7xx_hal_pwr_ex.c **** /**
 209:Drivers/STM32F7xx_HAL_Driver/Src/stm32f7xx_hal_pwr_ex.c ****   * @brief Enables Main Regulator low voltage mode.
 210:Drivers/STM32F7xx_HAL_Driver/Src/stm32f7xx_hal_pwr_ex.c ****   * @retval None
 211:Drivers/STM32F7xx_HAL_Driver/Src/stm32f7xx_hal_pwr_ex.c ****   */
 212:Drivers/STM32F7xx_HAL_Driver/Src/stm32f7xx_hal_pwr_ex.c **** void HAL_PWREx_EnableMainRegulatorLowVoltage(void)
 213:Drivers/STM32F7xx_HAL_Driver/Src/stm32f7xx_hal_pwr_ex.c **** {
 237              		.loc 1 213 1 is_stmt 1 view -0
 238              		.cfi_startproc
 239              		@ args = 0, pretend = 0, frame = 0
 240              		@ frame_needed = 0, uses_anonymous_args = 0
 241              		@ link register save eliminated.
 214:Drivers/STM32F7xx_HAL_Driver/Src/stm32f7xx_hal_pwr_ex.c ****   /* Enable Main regulator low voltage */
 215:Drivers/STM32F7xx_HAL_Driver/Src/stm32f7xx_hal_pwr_ex.c ****   PWR->CR1 |= PWR_CR1_MRUDS;
 242              		.loc 1 215 3 view .LVU55
 243              		.loc 1 215 6 is_stmt 0 view .LVU56
 244 0000 024A     		ldr	r2, .L26
 245 0002 1368     		ldr	r3, [r2]
 246              		.loc 1 215 12 view .LVU57
 247 0004 43F40063 		orr	r3, r3, #2048
 248 0008 1360     		str	r3, [r2]
 216:Drivers/STM32F7xx_HAL_Driver/Src/stm32f7xx_hal_pwr_ex.c **** }
 249              		.loc 1 216 1 view .LVU58
ARM GAS  /tmp/ccumN2qI.s 			page 9


 250 000a 7047     		bx	lr
 251              	.L27:
 252              		.align	2
 253              	.L26:
 254 000c 00700040 		.word	1073770496
 255              		.cfi_endproc
 256              	.LFE145:
 258              		.section	.text.HAL_PWREx_DisableMainRegulatorLowVoltage,"ax",%progbits
 259              		.align	1
 260              		.global	HAL_PWREx_DisableMainRegulatorLowVoltage
 261              		.syntax unified
 262              		.thumb
 263              		.thumb_func
 265              	HAL_PWREx_DisableMainRegulatorLowVoltage:
 266              	.LFB146:
 217:Drivers/STM32F7xx_HAL_Driver/Src/stm32f7xx_hal_pwr_ex.c **** 
 218:Drivers/STM32F7xx_HAL_Driver/Src/stm32f7xx_hal_pwr_ex.c **** /**
 219:Drivers/STM32F7xx_HAL_Driver/Src/stm32f7xx_hal_pwr_ex.c ****   * @brief Disables Main Regulator low voltage mode.
 220:Drivers/STM32F7xx_HAL_Driver/Src/stm32f7xx_hal_pwr_ex.c ****   * @retval None
 221:Drivers/STM32F7xx_HAL_Driver/Src/stm32f7xx_hal_pwr_ex.c ****   */
 222:Drivers/STM32F7xx_HAL_Driver/Src/stm32f7xx_hal_pwr_ex.c **** void HAL_PWREx_DisableMainRegulatorLowVoltage(void)
 223:Drivers/STM32F7xx_HAL_Driver/Src/stm32f7xx_hal_pwr_ex.c **** {  
 267              		.loc 1 223 1 is_stmt 1 view -0
 268              		.cfi_startproc
 269              		@ args = 0, pretend = 0, frame = 0
 270              		@ frame_needed = 0, uses_anonymous_args = 0
 271              		@ link register save eliminated.
 224:Drivers/STM32F7xx_HAL_Driver/Src/stm32f7xx_hal_pwr_ex.c ****   /* Disable Main regulator low voltage */
 225:Drivers/STM32F7xx_HAL_Driver/Src/stm32f7xx_hal_pwr_ex.c ****   PWR->CR1 &= (uint32_t)~((uint32_t)PWR_CR1_MRUDS);
 272              		.loc 1 225 3 view .LVU60
 273              		.loc 1 225 6 is_stmt 0 view .LVU61
 274 0000 024A     		ldr	r2, .L29
 275 0002 1368     		ldr	r3, [r2]
 276              		.loc 1 225 12 view .LVU62
 277 0004 23F40063 		bic	r3, r3, #2048
 278 0008 1360     		str	r3, [r2]
 226:Drivers/STM32F7xx_HAL_Driver/Src/stm32f7xx_hal_pwr_ex.c **** }
 279              		.loc 1 226 1 view .LVU63
 280 000a 7047     		bx	lr
 281              	.L30:
 282              		.align	2
 283              	.L29:
 284 000c 00700040 		.word	1073770496
 285              		.cfi_endproc
 286              	.LFE146:
 288              		.section	.text.HAL_PWREx_EnableLowRegulatorLowVoltage,"ax",%progbits
 289              		.align	1
 290              		.global	HAL_PWREx_EnableLowRegulatorLowVoltage
 291              		.syntax unified
 292              		.thumb
 293              		.thumb_func
 295              	HAL_PWREx_EnableLowRegulatorLowVoltage:
 296              	.LFB147:
 227:Drivers/STM32F7xx_HAL_Driver/Src/stm32f7xx_hal_pwr_ex.c **** 
 228:Drivers/STM32F7xx_HAL_Driver/Src/stm32f7xx_hal_pwr_ex.c **** /**
 229:Drivers/STM32F7xx_HAL_Driver/Src/stm32f7xx_hal_pwr_ex.c ****   * @brief Enables Low Power Regulator low voltage mode.
 230:Drivers/STM32F7xx_HAL_Driver/Src/stm32f7xx_hal_pwr_ex.c ****   * @retval None
ARM GAS  /tmp/ccumN2qI.s 			page 10


 231:Drivers/STM32F7xx_HAL_Driver/Src/stm32f7xx_hal_pwr_ex.c ****   */
 232:Drivers/STM32F7xx_HAL_Driver/Src/stm32f7xx_hal_pwr_ex.c **** void HAL_PWREx_EnableLowRegulatorLowVoltage(void)
 233:Drivers/STM32F7xx_HAL_Driver/Src/stm32f7xx_hal_pwr_ex.c **** {
 297              		.loc 1 233 1 is_stmt 1 view -0
 298              		.cfi_startproc
 299              		@ args = 0, pretend = 0, frame = 0
 300              		@ frame_needed = 0, uses_anonymous_args = 0
 301              		@ link register save eliminated.
 234:Drivers/STM32F7xx_HAL_Driver/Src/stm32f7xx_hal_pwr_ex.c ****   /* Enable low power regulator */
 235:Drivers/STM32F7xx_HAL_Driver/Src/stm32f7xx_hal_pwr_ex.c ****   PWR->CR1 |= PWR_CR1_LPUDS;
 302              		.loc 1 235 3 view .LVU65
 303              		.loc 1 235 6 is_stmt 0 view .LVU66
 304 0000 024A     		ldr	r2, .L32
 305 0002 1368     		ldr	r3, [r2]
 306              		.loc 1 235 12 view .LVU67
 307 0004 43F48063 		orr	r3, r3, #1024
 308 0008 1360     		str	r3, [r2]
 236:Drivers/STM32F7xx_HAL_Driver/Src/stm32f7xx_hal_pwr_ex.c **** }
 309              		.loc 1 236 1 view .LVU68
 310 000a 7047     		bx	lr
 311              	.L33:
 312              		.align	2
 313              	.L32:
 314 000c 00700040 		.word	1073770496
 315              		.cfi_endproc
 316              	.LFE147:
 318              		.section	.text.HAL_PWREx_DisableLowRegulatorLowVoltage,"ax",%progbits
 319              		.align	1
 320              		.global	HAL_PWREx_DisableLowRegulatorLowVoltage
 321              		.syntax unified
 322              		.thumb
 323              		.thumb_func
 325              	HAL_PWREx_DisableLowRegulatorLowVoltage:
 326              	.LFB148:
 237:Drivers/STM32F7xx_HAL_Driver/Src/stm32f7xx_hal_pwr_ex.c **** 
 238:Drivers/STM32F7xx_HAL_Driver/Src/stm32f7xx_hal_pwr_ex.c **** /**
 239:Drivers/STM32F7xx_HAL_Driver/Src/stm32f7xx_hal_pwr_ex.c ****   * @brief Disables Low Power Regulator low voltage mode.
 240:Drivers/STM32F7xx_HAL_Driver/Src/stm32f7xx_hal_pwr_ex.c ****   * @retval None
 241:Drivers/STM32F7xx_HAL_Driver/Src/stm32f7xx_hal_pwr_ex.c ****   */
 242:Drivers/STM32F7xx_HAL_Driver/Src/stm32f7xx_hal_pwr_ex.c **** void HAL_PWREx_DisableLowRegulatorLowVoltage(void)
 243:Drivers/STM32F7xx_HAL_Driver/Src/stm32f7xx_hal_pwr_ex.c **** {
 327              		.loc 1 243 1 is_stmt 1 view -0
 328              		.cfi_startproc
 329              		@ args = 0, pretend = 0, frame = 0
 330              		@ frame_needed = 0, uses_anonymous_args = 0
 331              		@ link register save eliminated.
 244:Drivers/STM32F7xx_HAL_Driver/Src/stm32f7xx_hal_pwr_ex.c ****   /* Disable low power regulator */
 245:Drivers/STM32F7xx_HAL_Driver/Src/stm32f7xx_hal_pwr_ex.c ****   PWR->CR1 &= (uint32_t)~((uint32_t)PWR_CR1_LPUDS);
 332              		.loc 1 245 3 view .LVU70
 333              		.loc 1 245 6 is_stmt 0 view .LVU71
 334 0000 024A     		ldr	r2, .L35
 335 0002 1368     		ldr	r3, [r2]
 336              		.loc 1 245 12 view .LVU72
 337 0004 23F48063 		bic	r3, r3, #1024
 338 0008 1360     		str	r3, [r2]
 246:Drivers/STM32F7xx_HAL_Driver/Src/stm32f7xx_hal_pwr_ex.c **** }
 339              		.loc 1 246 1 view .LVU73
ARM GAS  /tmp/ccumN2qI.s 			page 11


 340 000a 7047     		bx	lr
 341              	.L36:
 342              		.align	2
 343              	.L35:
 344 000c 00700040 		.word	1073770496
 345              		.cfi_endproc
 346              	.LFE148:
 348              		.section	.text.HAL_PWREx_EnableOverDrive,"ax",%progbits
 349              		.align	1
 350              		.global	HAL_PWREx_EnableOverDrive
 351              		.syntax unified
 352              		.thumb
 353              		.thumb_func
 355              	HAL_PWREx_EnableOverDrive:
 356              	.LFB149:
 247:Drivers/STM32F7xx_HAL_Driver/Src/stm32f7xx_hal_pwr_ex.c **** 
 248:Drivers/STM32F7xx_HAL_Driver/Src/stm32f7xx_hal_pwr_ex.c **** /**
 249:Drivers/STM32F7xx_HAL_Driver/Src/stm32f7xx_hal_pwr_ex.c ****   * @brief  Activates the Over-Drive mode.
 250:Drivers/STM32F7xx_HAL_Driver/Src/stm32f7xx_hal_pwr_ex.c ****   * @note   This mode allows the CPU and the core logic to operate at a higher frequency
 251:Drivers/STM32F7xx_HAL_Driver/Src/stm32f7xx_hal_pwr_ex.c ****   *         than the normal mode for a given voltage scaling (scale 1, scale 2 or scale 3).   
 252:Drivers/STM32F7xx_HAL_Driver/Src/stm32f7xx_hal_pwr_ex.c ****   * @note   It is recommended to enter or exit Over-drive mode when the application is not running 
 253:Drivers/STM32F7xx_HAL_Driver/Src/stm32f7xx_hal_pwr_ex.c ****   *         critical tasks and when the system clock source is either HSI or HSE. 
 254:Drivers/STM32F7xx_HAL_Driver/Src/stm32f7xx_hal_pwr_ex.c ****   *         During the Over-drive switch activation, no peripheral clocks should be enabled.   
 255:Drivers/STM32F7xx_HAL_Driver/Src/stm32f7xx_hal_pwr_ex.c ****   *         The peripheral clocks must be enabled once the Over-drive mode is activated.   
 256:Drivers/STM32F7xx_HAL_Driver/Src/stm32f7xx_hal_pwr_ex.c ****   * @retval HAL status
 257:Drivers/STM32F7xx_HAL_Driver/Src/stm32f7xx_hal_pwr_ex.c ****   */
 258:Drivers/STM32F7xx_HAL_Driver/Src/stm32f7xx_hal_pwr_ex.c **** HAL_StatusTypeDef HAL_PWREx_EnableOverDrive(void)
 259:Drivers/STM32F7xx_HAL_Driver/Src/stm32f7xx_hal_pwr_ex.c **** {
 357              		.loc 1 259 1 is_stmt 1 view -0
 358              		.cfi_startproc
 359              		@ args = 0, pretend = 0, frame = 8
 360              		@ frame_needed = 0, uses_anonymous_args = 0
 361 0000 10B5     		push	{r4, lr}
 362              		.cfi_def_cfa_offset 8
 363              		.cfi_offset 4, -8
 364              		.cfi_offset 14, -4
 365 0002 82B0     		sub	sp, sp, #8
 366              		.cfi_def_cfa_offset 16
 260:Drivers/STM32F7xx_HAL_Driver/Src/stm32f7xx_hal_pwr_ex.c ****   uint32_t tickstart = 0;
 367              		.loc 1 260 3 view .LVU75
 368              	.LVL10:
 261:Drivers/STM32F7xx_HAL_Driver/Src/stm32f7xx_hal_pwr_ex.c **** 
 262:Drivers/STM32F7xx_HAL_Driver/Src/stm32f7xx_hal_pwr_ex.c ****   __HAL_RCC_PWR_CLK_ENABLE();
 369              		.loc 1 262 3 view .LVU76
 370              	.LBB2:
 371              		.loc 1 262 3 view .LVU77
 372              		.loc 1 262 3 view .LVU78
 373 0004 1B4B     		ldr	r3, .L48
 374 0006 1A6C     		ldr	r2, [r3, #64]
 375 0008 42F08052 		orr	r2, r2, #268435456
 376 000c 1A64     		str	r2, [r3, #64]
 377              		.loc 1 262 3 view .LVU79
 378 000e 1B6C     		ldr	r3, [r3, #64]
 379 0010 03F08053 		and	r3, r3, #268435456
 380 0014 0193     		str	r3, [sp, #4]
 381              		.loc 1 262 3 view .LVU80
 382 0016 019B     		ldr	r3, [sp, #4]
ARM GAS  /tmp/ccumN2qI.s 			page 12


 383              	.LBE2:
 384              		.loc 1 262 3 view .LVU81
 263:Drivers/STM32F7xx_HAL_Driver/Src/stm32f7xx_hal_pwr_ex.c ****   
 264:Drivers/STM32F7xx_HAL_Driver/Src/stm32f7xx_hal_pwr_ex.c ****   /* Enable the Over-drive to extend the clock frequency to 216 MHz */
 265:Drivers/STM32F7xx_HAL_Driver/Src/stm32f7xx_hal_pwr_ex.c ****   __HAL_PWR_OVERDRIVE_ENABLE();
 385              		.loc 1 265 3 view .LVU82
 386 0018 174A     		ldr	r2, .L48+4
 387 001a 1368     		ldr	r3, [r2]
 388 001c 43F48033 		orr	r3, r3, #65536
 389 0020 1360     		str	r3, [r2]
 266:Drivers/STM32F7xx_HAL_Driver/Src/stm32f7xx_hal_pwr_ex.c **** 
 267:Drivers/STM32F7xx_HAL_Driver/Src/stm32f7xx_hal_pwr_ex.c ****   /* Get tick */
 268:Drivers/STM32F7xx_HAL_Driver/Src/stm32f7xx_hal_pwr_ex.c ****   tickstart = HAL_GetTick();
 390              		.loc 1 268 3 view .LVU83
 391              		.loc 1 268 15 is_stmt 0 view .LVU84
 392 0022 FFF7FEFF 		bl	HAL_GetTick
 393              	.LVL11:
 394 0026 0446     		mov	r4, r0
 395              	.LVL12:
 269:Drivers/STM32F7xx_HAL_Driver/Src/stm32f7xx_hal_pwr_ex.c **** 
 270:Drivers/STM32F7xx_HAL_Driver/Src/stm32f7xx_hal_pwr_ex.c ****   while(!__HAL_PWR_GET_FLAG(PWR_FLAG_ODRDY))
 396              		.loc 1 270 3 is_stmt 1 view .LVU85
 397              	.L38:
 398              		.loc 1 270 9 view .LVU86
 399              		.loc 1 270 10 is_stmt 0 view .LVU87
 400 0028 134B     		ldr	r3, .L48+4
 401 002a 5B68     		ldr	r3, [r3, #4]
 402              		.loc 1 270 9 view .LVU88
 403 002c 13F4803F 		tst	r3, #65536
 404 0030 08D1     		bne	.L46
 271:Drivers/STM32F7xx_HAL_Driver/Src/stm32f7xx_hal_pwr_ex.c ****   {
 272:Drivers/STM32F7xx_HAL_Driver/Src/stm32f7xx_hal_pwr_ex.c ****     if((HAL_GetTick() - tickstart ) > PWR_OVERDRIVE_TIMEOUT_VALUE)
 405              		.loc 1 272 5 is_stmt 1 view .LVU89
 406              		.loc 1 272 9 is_stmt 0 view .LVU90
 407 0032 FFF7FEFF 		bl	HAL_GetTick
 408              	.LVL13:
 409              		.loc 1 272 23 view .LVU91
 410 0036 001B     		subs	r0, r0, r4
 411              		.loc 1 272 7 view .LVU92
 412 0038 B0F57A7F 		cmp	r0, #1000
 413 003c F4D9     		bls	.L38
 273:Drivers/STM32F7xx_HAL_Driver/Src/stm32f7xx_hal_pwr_ex.c ****     {
 274:Drivers/STM32F7xx_HAL_Driver/Src/stm32f7xx_hal_pwr_ex.c ****       return HAL_TIMEOUT;
 414              		.loc 1 274 14 view .LVU93
 415 003e 0320     		movs	r0, #3
 416              	.L39:
 275:Drivers/STM32F7xx_HAL_Driver/Src/stm32f7xx_hal_pwr_ex.c ****     }
 276:Drivers/STM32F7xx_HAL_Driver/Src/stm32f7xx_hal_pwr_ex.c ****   }
 277:Drivers/STM32F7xx_HAL_Driver/Src/stm32f7xx_hal_pwr_ex.c ****   
 278:Drivers/STM32F7xx_HAL_Driver/Src/stm32f7xx_hal_pwr_ex.c ****   /* Enable the Over-drive switch */
 279:Drivers/STM32F7xx_HAL_Driver/Src/stm32f7xx_hal_pwr_ex.c ****   __HAL_PWR_OVERDRIVESWITCHING_ENABLE();
 280:Drivers/STM32F7xx_HAL_Driver/Src/stm32f7xx_hal_pwr_ex.c **** 
 281:Drivers/STM32F7xx_HAL_Driver/Src/stm32f7xx_hal_pwr_ex.c ****   /* Get tick */
 282:Drivers/STM32F7xx_HAL_Driver/Src/stm32f7xx_hal_pwr_ex.c ****   tickstart = HAL_GetTick();
 283:Drivers/STM32F7xx_HAL_Driver/Src/stm32f7xx_hal_pwr_ex.c **** 
 284:Drivers/STM32F7xx_HAL_Driver/Src/stm32f7xx_hal_pwr_ex.c ****   while(!__HAL_PWR_GET_FLAG(PWR_FLAG_ODSWRDY))
 285:Drivers/STM32F7xx_HAL_Driver/Src/stm32f7xx_hal_pwr_ex.c ****   {
ARM GAS  /tmp/ccumN2qI.s 			page 13


 286:Drivers/STM32F7xx_HAL_Driver/Src/stm32f7xx_hal_pwr_ex.c ****     if((HAL_GetTick() - tickstart ) > PWR_OVERDRIVE_TIMEOUT_VALUE)
 287:Drivers/STM32F7xx_HAL_Driver/Src/stm32f7xx_hal_pwr_ex.c ****     {
 288:Drivers/STM32F7xx_HAL_Driver/Src/stm32f7xx_hal_pwr_ex.c ****       return HAL_TIMEOUT;
 289:Drivers/STM32F7xx_HAL_Driver/Src/stm32f7xx_hal_pwr_ex.c ****     }
 290:Drivers/STM32F7xx_HAL_Driver/Src/stm32f7xx_hal_pwr_ex.c ****   } 
 291:Drivers/STM32F7xx_HAL_Driver/Src/stm32f7xx_hal_pwr_ex.c ****   return HAL_OK;
 292:Drivers/STM32F7xx_HAL_Driver/Src/stm32f7xx_hal_pwr_ex.c **** }
 417              		.loc 1 292 1 view .LVU94
 418 0040 02B0     		add	sp, sp, #8
 419              		.cfi_remember_state
 420              		.cfi_def_cfa_offset 8
 421              		@ sp needed
 422 0042 10BD     		pop	{r4, pc}
 423              	.LVL14:
 424              	.L46:
 425              		.cfi_restore_state
 279:Drivers/STM32F7xx_HAL_Driver/Src/stm32f7xx_hal_pwr_ex.c **** 
 426              		.loc 1 279 3 is_stmt 1 view .LVU95
 427 0044 0C4A     		ldr	r2, .L48+4
 428 0046 1368     		ldr	r3, [r2]
 429 0048 43F40033 		orr	r3, r3, #131072
 430 004c 1360     		str	r3, [r2]
 282:Drivers/STM32F7xx_HAL_Driver/Src/stm32f7xx_hal_pwr_ex.c **** 
 431              		.loc 1 282 3 view .LVU96
 282:Drivers/STM32F7xx_HAL_Driver/Src/stm32f7xx_hal_pwr_ex.c **** 
 432              		.loc 1 282 15 is_stmt 0 view .LVU97
 433 004e FFF7FEFF 		bl	HAL_GetTick
 434              	.LVL15:
 435 0052 0446     		mov	r4, r0
 436              	.LVL16:
 284:Drivers/STM32F7xx_HAL_Driver/Src/stm32f7xx_hal_pwr_ex.c ****   {
 437              		.loc 1 284 3 is_stmt 1 view .LVU98
 438              	.L41:
 284:Drivers/STM32F7xx_HAL_Driver/Src/stm32f7xx_hal_pwr_ex.c ****   {
 439              		.loc 1 284 9 view .LVU99
 284:Drivers/STM32F7xx_HAL_Driver/Src/stm32f7xx_hal_pwr_ex.c ****   {
 440              		.loc 1 284 10 is_stmt 0 view .LVU100
 441 0054 084B     		ldr	r3, .L48+4
 442 0056 5B68     		ldr	r3, [r3, #4]
 284:Drivers/STM32F7xx_HAL_Driver/Src/stm32f7xx_hal_pwr_ex.c ****   {
 443              		.loc 1 284 9 view .LVU101
 444 0058 13F4003F 		tst	r3, #131072
 445 005c 07D1     		bne	.L47
 286:Drivers/STM32F7xx_HAL_Driver/Src/stm32f7xx_hal_pwr_ex.c ****     {
 446              		.loc 1 286 5 is_stmt 1 view .LVU102
 286:Drivers/STM32F7xx_HAL_Driver/Src/stm32f7xx_hal_pwr_ex.c ****     {
 447              		.loc 1 286 9 is_stmt 0 view .LVU103
 448 005e FFF7FEFF 		bl	HAL_GetTick
 449              	.LVL17:
 286:Drivers/STM32F7xx_HAL_Driver/Src/stm32f7xx_hal_pwr_ex.c ****     {
 450              		.loc 1 286 23 view .LVU104
 451 0062 001B     		subs	r0, r0, r4
 286:Drivers/STM32F7xx_HAL_Driver/Src/stm32f7xx_hal_pwr_ex.c ****     {
 452              		.loc 1 286 7 view .LVU105
 453 0064 B0F57A7F 		cmp	r0, #1000
 454 0068 F4D9     		bls	.L41
 288:Drivers/STM32F7xx_HAL_Driver/Src/stm32f7xx_hal_pwr_ex.c ****     }
ARM GAS  /tmp/ccumN2qI.s 			page 14


 455              		.loc 1 288 14 view .LVU106
 456 006a 0320     		movs	r0, #3
 457 006c E8E7     		b	.L39
 458              	.L47:
 291:Drivers/STM32F7xx_HAL_Driver/Src/stm32f7xx_hal_pwr_ex.c **** }
 459              		.loc 1 291 10 view .LVU107
 460 006e 0020     		movs	r0, #0
 461 0070 E6E7     		b	.L39
 462              	.L49:
 463 0072 00BF     		.align	2
 464              	.L48:
 465 0074 00380240 		.word	1073887232
 466 0078 00700040 		.word	1073770496
 467              		.cfi_endproc
 468              	.LFE149:
 470              		.section	.text.HAL_PWREx_DisableOverDrive,"ax",%progbits
 471              		.align	1
 472              		.global	HAL_PWREx_DisableOverDrive
 473              		.syntax unified
 474              		.thumb
 475              		.thumb_func
 477              	HAL_PWREx_DisableOverDrive:
 478              	.LFB150:
 293:Drivers/STM32F7xx_HAL_Driver/Src/stm32f7xx_hal_pwr_ex.c **** 
 294:Drivers/STM32F7xx_HAL_Driver/Src/stm32f7xx_hal_pwr_ex.c **** /**
 295:Drivers/STM32F7xx_HAL_Driver/Src/stm32f7xx_hal_pwr_ex.c ****   * @brief  Deactivates the Over-Drive mode.
 296:Drivers/STM32F7xx_HAL_Driver/Src/stm32f7xx_hal_pwr_ex.c ****   * @note   This mode allows the CPU and the core logic to operate at a higher frequency
 297:Drivers/STM32F7xx_HAL_Driver/Src/stm32f7xx_hal_pwr_ex.c ****   *         than the normal mode for a given voltage scaling (scale 1, scale 2 or scale 3).    
 298:Drivers/STM32F7xx_HAL_Driver/Src/stm32f7xx_hal_pwr_ex.c ****   * @note   It is recommended to enter or exit Over-drive mode when the application is not running 
 299:Drivers/STM32F7xx_HAL_Driver/Src/stm32f7xx_hal_pwr_ex.c ****   *         critical tasks and when the system clock source is either HSI or HSE. 
 300:Drivers/STM32F7xx_HAL_Driver/Src/stm32f7xx_hal_pwr_ex.c ****   *         During the Over-drive switch activation, no peripheral clocks should be enabled.   
 301:Drivers/STM32F7xx_HAL_Driver/Src/stm32f7xx_hal_pwr_ex.c ****   *         The peripheral clocks must be enabled once the Over-drive mode is activated.
 302:Drivers/STM32F7xx_HAL_Driver/Src/stm32f7xx_hal_pwr_ex.c ****   * @retval HAL status
 303:Drivers/STM32F7xx_HAL_Driver/Src/stm32f7xx_hal_pwr_ex.c ****   */
 304:Drivers/STM32F7xx_HAL_Driver/Src/stm32f7xx_hal_pwr_ex.c **** HAL_StatusTypeDef HAL_PWREx_DisableOverDrive(void)
 305:Drivers/STM32F7xx_HAL_Driver/Src/stm32f7xx_hal_pwr_ex.c **** {
 479              		.loc 1 305 1 is_stmt 1 view -0
 480              		.cfi_startproc
 481              		@ args = 0, pretend = 0, frame = 8
 482              		@ frame_needed = 0, uses_anonymous_args = 0
 483 0000 10B5     		push	{r4, lr}
 484              		.cfi_def_cfa_offset 8
 485              		.cfi_offset 4, -8
 486              		.cfi_offset 14, -4
 487 0002 82B0     		sub	sp, sp, #8
 488              		.cfi_def_cfa_offset 16
 306:Drivers/STM32F7xx_HAL_Driver/Src/stm32f7xx_hal_pwr_ex.c ****   uint32_t tickstart = 0;
 489              		.loc 1 306 3 view .LVU109
 490              	.LVL18:
 307:Drivers/STM32F7xx_HAL_Driver/Src/stm32f7xx_hal_pwr_ex.c ****   
 308:Drivers/STM32F7xx_HAL_Driver/Src/stm32f7xx_hal_pwr_ex.c ****   __HAL_RCC_PWR_CLK_ENABLE();
 491              		.loc 1 308 3 view .LVU110
 492              	.LBB3:
 493              		.loc 1 308 3 view .LVU111
 494              		.loc 1 308 3 view .LVU112
 495 0004 1B4B     		ldr	r3, .L61
 496 0006 1A6C     		ldr	r2, [r3, #64]
ARM GAS  /tmp/ccumN2qI.s 			page 15


 497 0008 42F08052 		orr	r2, r2, #268435456
 498 000c 1A64     		str	r2, [r3, #64]
 499              		.loc 1 308 3 view .LVU113
 500 000e 1B6C     		ldr	r3, [r3, #64]
 501 0010 03F08053 		and	r3, r3, #268435456
 502 0014 0193     		str	r3, [sp, #4]
 503              		.loc 1 308 3 view .LVU114
 504 0016 019B     		ldr	r3, [sp, #4]
 505              	.LBE3:
 506              		.loc 1 308 3 view .LVU115
 309:Drivers/STM32F7xx_HAL_Driver/Src/stm32f7xx_hal_pwr_ex.c ****     
 310:Drivers/STM32F7xx_HAL_Driver/Src/stm32f7xx_hal_pwr_ex.c ****   /* Disable the Over-drive switch */
 311:Drivers/STM32F7xx_HAL_Driver/Src/stm32f7xx_hal_pwr_ex.c ****   __HAL_PWR_OVERDRIVESWITCHING_DISABLE();
 507              		.loc 1 311 3 view .LVU116
 508 0018 174A     		ldr	r2, .L61+4
 509 001a 1368     		ldr	r3, [r2]
 510 001c 23F40033 		bic	r3, r3, #131072
 511 0020 1360     		str	r3, [r2]
 312:Drivers/STM32F7xx_HAL_Driver/Src/stm32f7xx_hal_pwr_ex.c ****   
 313:Drivers/STM32F7xx_HAL_Driver/Src/stm32f7xx_hal_pwr_ex.c ****   /* Get tick */
 314:Drivers/STM32F7xx_HAL_Driver/Src/stm32f7xx_hal_pwr_ex.c ****   tickstart = HAL_GetTick();
 512              		.loc 1 314 3 view .LVU117
 513              		.loc 1 314 15 is_stmt 0 view .LVU118
 514 0022 FFF7FEFF 		bl	HAL_GetTick
 515              	.LVL19:
 516 0026 0446     		mov	r4, r0
 517              	.LVL20:
 315:Drivers/STM32F7xx_HAL_Driver/Src/stm32f7xx_hal_pwr_ex.c ****  
 316:Drivers/STM32F7xx_HAL_Driver/Src/stm32f7xx_hal_pwr_ex.c ****   while(__HAL_PWR_GET_FLAG(PWR_FLAG_ODSWRDY))
 518              		.loc 1 316 3 is_stmt 1 view .LVU119
 519              	.L51:
 520              		.loc 1 316 9 view .LVU120
 521 0028 134B     		ldr	r3, .L61+4
 522 002a 5B68     		ldr	r3, [r3, #4]
 523 002c 13F4003F 		tst	r3, #131072
 524 0030 08D0     		beq	.L59
 317:Drivers/STM32F7xx_HAL_Driver/Src/stm32f7xx_hal_pwr_ex.c ****   {
 318:Drivers/STM32F7xx_HAL_Driver/Src/stm32f7xx_hal_pwr_ex.c ****     if((HAL_GetTick() - tickstart ) > PWR_OVERDRIVE_TIMEOUT_VALUE)
 525              		.loc 1 318 5 view .LVU121
 526              		.loc 1 318 9 is_stmt 0 view .LVU122
 527 0032 FFF7FEFF 		bl	HAL_GetTick
 528              	.LVL21:
 529              		.loc 1 318 23 view .LVU123
 530 0036 001B     		subs	r0, r0, r4
 531              		.loc 1 318 7 view .LVU124
 532 0038 B0F57A7F 		cmp	r0, #1000
 533 003c F4D9     		bls	.L51
 319:Drivers/STM32F7xx_HAL_Driver/Src/stm32f7xx_hal_pwr_ex.c ****     {
 320:Drivers/STM32F7xx_HAL_Driver/Src/stm32f7xx_hal_pwr_ex.c ****       return HAL_TIMEOUT;
 534              		.loc 1 320 14 view .LVU125
 535 003e 0320     		movs	r0, #3
 536              	.L52:
 321:Drivers/STM32F7xx_HAL_Driver/Src/stm32f7xx_hal_pwr_ex.c ****     }
 322:Drivers/STM32F7xx_HAL_Driver/Src/stm32f7xx_hal_pwr_ex.c ****   } 
 323:Drivers/STM32F7xx_HAL_Driver/Src/stm32f7xx_hal_pwr_ex.c ****   
 324:Drivers/STM32F7xx_HAL_Driver/Src/stm32f7xx_hal_pwr_ex.c ****   /* Disable the Over-drive */
 325:Drivers/STM32F7xx_HAL_Driver/Src/stm32f7xx_hal_pwr_ex.c ****   __HAL_PWR_OVERDRIVE_DISABLE();
ARM GAS  /tmp/ccumN2qI.s 			page 16


 326:Drivers/STM32F7xx_HAL_Driver/Src/stm32f7xx_hal_pwr_ex.c **** 
 327:Drivers/STM32F7xx_HAL_Driver/Src/stm32f7xx_hal_pwr_ex.c ****   /* Get tick */
 328:Drivers/STM32F7xx_HAL_Driver/Src/stm32f7xx_hal_pwr_ex.c ****   tickstart = HAL_GetTick();
 329:Drivers/STM32F7xx_HAL_Driver/Src/stm32f7xx_hal_pwr_ex.c **** 
 330:Drivers/STM32F7xx_HAL_Driver/Src/stm32f7xx_hal_pwr_ex.c ****   while(__HAL_PWR_GET_FLAG(PWR_FLAG_ODRDY))
 331:Drivers/STM32F7xx_HAL_Driver/Src/stm32f7xx_hal_pwr_ex.c ****   {
 332:Drivers/STM32F7xx_HAL_Driver/Src/stm32f7xx_hal_pwr_ex.c ****     if((HAL_GetTick() - tickstart ) > PWR_OVERDRIVE_TIMEOUT_VALUE)
 333:Drivers/STM32F7xx_HAL_Driver/Src/stm32f7xx_hal_pwr_ex.c ****     {
 334:Drivers/STM32F7xx_HAL_Driver/Src/stm32f7xx_hal_pwr_ex.c ****       return HAL_TIMEOUT;
 335:Drivers/STM32F7xx_HAL_Driver/Src/stm32f7xx_hal_pwr_ex.c ****     }
 336:Drivers/STM32F7xx_HAL_Driver/Src/stm32f7xx_hal_pwr_ex.c ****   }
 337:Drivers/STM32F7xx_HAL_Driver/Src/stm32f7xx_hal_pwr_ex.c ****   
 338:Drivers/STM32F7xx_HAL_Driver/Src/stm32f7xx_hal_pwr_ex.c ****   return HAL_OK;
 339:Drivers/STM32F7xx_HAL_Driver/Src/stm32f7xx_hal_pwr_ex.c **** }
 537              		.loc 1 339 1 view .LVU126
 538 0040 02B0     		add	sp, sp, #8
 539              		.cfi_remember_state
 540              		.cfi_def_cfa_offset 8
 541              		@ sp needed
 542 0042 10BD     		pop	{r4, pc}
 543              	.LVL22:
 544              	.L59:
 545              		.cfi_restore_state
 325:Drivers/STM32F7xx_HAL_Driver/Src/stm32f7xx_hal_pwr_ex.c **** 
 546              		.loc 1 325 3 is_stmt 1 view .LVU127
 547 0044 0C4A     		ldr	r2, .L61+4
 548 0046 1368     		ldr	r3, [r2]
 549 0048 23F48033 		bic	r3, r3, #65536
 550 004c 1360     		str	r3, [r2]
 328:Drivers/STM32F7xx_HAL_Driver/Src/stm32f7xx_hal_pwr_ex.c **** 
 551              		.loc 1 328 3 view .LVU128
 328:Drivers/STM32F7xx_HAL_Driver/Src/stm32f7xx_hal_pwr_ex.c **** 
 552              		.loc 1 328 15 is_stmt 0 view .LVU129
 553 004e FFF7FEFF 		bl	HAL_GetTick
 554              	.LVL23:
 555 0052 0446     		mov	r4, r0
 556              	.LVL24:
 330:Drivers/STM32F7xx_HAL_Driver/Src/stm32f7xx_hal_pwr_ex.c ****   {
 557              		.loc 1 330 3 is_stmt 1 view .LVU130
 558              	.L54:
 330:Drivers/STM32F7xx_HAL_Driver/Src/stm32f7xx_hal_pwr_ex.c ****   {
 559              		.loc 1 330 9 view .LVU131
 560 0054 084B     		ldr	r3, .L61+4
 561 0056 5B68     		ldr	r3, [r3, #4]
 562 0058 13F4803F 		tst	r3, #65536
 563 005c 07D0     		beq	.L60
 332:Drivers/STM32F7xx_HAL_Driver/Src/stm32f7xx_hal_pwr_ex.c ****     {
 564              		.loc 1 332 5 view .LVU132
 332:Drivers/STM32F7xx_HAL_Driver/Src/stm32f7xx_hal_pwr_ex.c ****     {
 565              		.loc 1 332 9 is_stmt 0 view .LVU133
 566 005e FFF7FEFF 		bl	HAL_GetTick
 567              	.LVL25:
 332:Drivers/STM32F7xx_HAL_Driver/Src/stm32f7xx_hal_pwr_ex.c ****     {
 568              		.loc 1 332 23 view .LVU134
 569 0062 001B     		subs	r0, r0, r4
 332:Drivers/STM32F7xx_HAL_Driver/Src/stm32f7xx_hal_pwr_ex.c ****     {
 570              		.loc 1 332 7 view .LVU135
ARM GAS  /tmp/ccumN2qI.s 			page 17


 571 0064 B0F57A7F 		cmp	r0, #1000
 572 0068 F4D9     		bls	.L54
 334:Drivers/STM32F7xx_HAL_Driver/Src/stm32f7xx_hal_pwr_ex.c ****     }
 573              		.loc 1 334 14 view .LVU136
 574 006a 0320     		movs	r0, #3
 575 006c E8E7     		b	.L52
 576              	.L60:
 338:Drivers/STM32F7xx_HAL_Driver/Src/stm32f7xx_hal_pwr_ex.c **** }
 577              		.loc 1 338 10 view .LVU137
 578 006e 0020     		movs	r0, #0
 579 0070 E6E7     		b	.L52
 580              	.L62:
 581 0072 00BF     		.align	2
 582              	.L61:
 583 0074 00380240 		.word	1073887232
 584 0078 00700040 		.word	1073770496
 585              		.cfi_endproc
 586              	.LFE150:
 588              		.section	.text.HAL_PWREx_EnterUnderDriveSTOPMode,"ax",%progbits
 589              		.align	1
 590              		.global	HAL_PWREx_EnterUnderDriveSTOPMode
 591              		.syntax unified
 592              		.thumb
 593              		.thumb_func
 595              	HAL_PWREx_EnterUnderDriveSTOPMode:
 596              	.LVL26:
 597              	.LFB151:
 340:Drivers/STM32F7xx_HAL_Driver/Src/stm32f7xx_hal_pwr_ex.c **** 
 341:Drivers/STM32F7xx_HAL_Driver/Src/stm32f7xx_hal_pwr_ex.c **** /**
 342:Drivers/STM32F7xx_HAL_Driver/Src/stm32f7xx_hal_pwr_ex.c ****   * @brief  Enters in Under-Drive STOP mode.
 343:Drivers/STM32F7xx_HAL_Driver/Src/stm32f7xx_hal_pwr_ex.c ****   * 
 344:Drivers/STM32F7xx_HAL_Driver/Src/stm32f7xx_hal_pwr_ex.c ****   * @note    This mode can be selected only when the Under-Drive is already active 
 345:Drivers/STM32F7xx_HAL_Driver/Src/stm32f7xx_hal_pwr_ex.c ****   *   
 346:Drivers/STM32F7xx_HAL_Driver/Src/stm32f7xx_hal_pwr_ex.c ****   * @note    This mode is enabled only with STOP low power mode.
 347:Drivers/STM32F7xx_HAL_Driver/Src/stm32f7xx_hal_pwr_ex.c ****   *          In this mode, the 1.2V domain is preserved in reduced leakage mode. This 
 348:Drivers/STM32F7xx_HAL_Driver/Src/stm32f7xx_hal_pwr_ex.c ****   *          mode is only available when the main regulator or the low power regulator 
 349:Drivers/STM32F7xx_HAL_Driver/Src/stm32f7xx_hal_pwr_ex.c ****   *          is in low voltage mode
 350:Drivers/STM32F7xx_HAL_Driver/Src/stm32f7xx_hal_pwr_ex.c ****   *        
 351:Drivers/STM32F7xx_HAL_Driver/Src/stm32f7xx_hal_pwr_ex.c ****   * @note   If the Under-drive mode was enabled, it is automatically disabled after 
 352:Drivers/STM32F7xx_HAL_Driver/Src/stm32f7xx_hal_pwr_ex.c ****   *         exiting Stop mode. 
 353:Drivers/STM32F7xx_HAL_Driver/Src/stm32f7xx_hal_pwr_ex.c ****   *         When the voltage regulator operates in Under-drive mode, an additional  
 354:Drivers/STM32F7xx_HAL_Driver/Src/stm32f7xx_hal_pwr_ex.c ****   *         startup delay is induced when waking up from Stop mode.
 355:Drivers/STM32F7xx_HAL_Driver/Src/stm32f7xx_hal_pwr_ex.c ****   *                    
 356:Drivers/STM32F7xx_HAL_Driver/Src/stm32f7xx_hal_pwr_ex.c ****   * @note   In Stop mode, all I/O pins keep the same state as in Run mode.
 357:Drivers/STM32F7xx_HAL_Driver/Src/stm32f7xx_hal_pwr_ex.c ****   *   
 358:Drivers/STM32F7xx_HAL_Driver/Src/stm32f7xx_hal_pwr_ex.c ****   * @note   When exiting Stop mode by issuing an interrupt or a wakeup event, 
 359:Drivers/STM32F7xx_HAL_Driver/Src/stm32f7xx_hal_pwr_ex.c ****   *         the HSI RC oscillator is selected as system clock.
 360:Drivers/STM32F7xx_HAL_Driver/Src/stm32f7xx_hal_pwr_ex.c ****   *           
 361:Drivers/STM32F7xx_HAL_Driver/Src/stm32f7xx_hal_pwr_ex.c ****   * @note   When the voltage regulator operates in low power mode, an additional 
 362:Drivers/STM32F7xx_HAL_Driver/Src/stm32f7xx_hal_pwr_ex.c ****   *         startup delay is incurred when waking up from Stop mode. 
 363:Drivers/STM32F7xx_HAL_Driver/Src/stm32f7xx_hal_pwr_ex.c ****   *         By keeping the internal regulator ON during Stop mode, the consumption 
 364:Drivers/STM32F7xx_HAL_Driver/Src/stm32f7xx_hal_pwr_ex.c ****   *         is higher although the startup time is reduced.
 365:Drivers/STM32F7xx_HAL_Driver/Src/stm32f7xx_hal_pwr_ex.c ****   *     
 366:Drivers/STM32F7xx_HAL_Driver/Src/stm32f7xx_hal_pwr_ex.c ****   * @param  Regulator specifies the regulator state in STOP mode.
 367:Drivers/STM32F7xx_HAL_Driver/Src/stm32f7xx_hal_pwr_ex.c ****   *          This parameter can be one of the following values:
 368:Drivers/STM32F7xx_HAL_Driver/Src/stm32f7xx_hal_pwr_ex.c ****   *            @arg PWR_MAINREGULATOR_UNDERDRIVE_ON:  Main Regulator in under-drive mode 
 369:Drivers/STM32F7xx_HAL_Driver/Src/stm32f7xx_hal_pwr_ex.c ****   *                 and Flash memory in power-down when the device is in Stop under-drive mode
ARM GAS  /tmp/ccumN2qI.s 			page 18


 370:Drivers/STM32F7xx_HAL_Driver/Src/stm32f7xx_hal_pwr_ex.c ****   *            @arg PWR_LOWPOWERREGULATOR_UNDERDRIVE_ON:  Low Power Regulator in under-drive mode 
 371:Drivers/STM32F7xx_HAL_Driver/Src/stm32f7xx_hal_pwr_ex.c ****   *                and Flash memory in power-down when the device is in Stop under-drive mode
 372:Drivers/STM32F7xx_HAL_Driver/Src/stm32f7xx_hal_pwr_ex.c ****   * @param  STOPEntry specifies if STOP mode in entered with WFI or WFE instruction.
 373:Drivers/STM32F7xx_HAL_Driver/Src/stm32f7xx_hal_pwr_ex.c ****   *          This parameter can be one of the following values:
 374:Drivers/STM32F7xx_HAL_Driver/Src/stm32f7xx_hal_pwr_ex.c ****   *            @arg PWR_SLEEPENTRY_WFI: enter STOP mode with WFI instruction
 375:Drivers/STM32F7xx_HAL_Driver/Src/stm32f7xx_hal_pwr_ex.c ****   *            @arg PWR_SLEEPENTRY_WFE: enter STOP mode with WFE instruction
 376:Drivers/STM32F7xx_HAL_Driver/Src/stm32f7xx_hal_pwr_ex.c ****   * @retval None
 377:Drivers/STM32F7xx_HAL_Driver/Src/stm32f7xx_hal_pwr_ex.c ****   */
 378:Drivers/STM32F7xx_HAL_Driver/Src/stm32f7xx_hal_pwr_ex.c **** HAL_StatusTypeDef HAL_PWREx_EnterUnderDriveSTOPMode(uint32_t Regulator, uint8_t STOPEntry)
 379:Drivers/STM32F7xx_HAL_Driver/Src/stm32f7xx_hal_pwr_ex.c **** {
 598              		.loc 1 379 1 is_stmt 1 view -0
 599              		.cfi_startproc
 600              		@ args = 0, pretend = 0, frame = 8
 601              		@ frame_needed = 0, uses_anonymous_args = 0
 602              		.loc 1 379 1 is_stmt 0 view .LVU139
 603 0000 70B5     		push	{r4, r5, r6, lr}
 604              		.cfi_def_cfa_offset 16
 605              		.cfi_offset 4, -16
 606              		.cfi_offset 5, -12
 607              		.cfi_offset 6, -8
 608              		.cfi_offset 14, -4
 609 0002 82B0     		sub	sp, sp, #8
 610              		.cfi_def_cfa_offset 24
 611 0004 0646     		mov	r6, r0
 612 0006 0D46     		mov	r5, r1
 380:Drivers/STM32F7xx_HAL_Driver/Src/stm32f7xx_hal_pwr_ex.c ****   uint32_t tempreg = 0;
 613              		.loc 1 380 3 is_stmt 1 view .LVU140
 614              	.LVL27:
 381:Drivers/STM32F7xx_HAL_Driver/Src/stm32f7xx_hal_pwr_ex.c ****   uint32_t tickstart = 0;
 615              		.loc 1 381 3 view .LVU141
 382:Drivers/STM32F7xx_HAL_Driver/Src/stm32f7xx_hal_pwr_ex.c ****   
 383:Drivers/STM32F7xx_HAL_Driver/Src/stm32f7xx_hal_pwr_ex.c ****   /* Check the parameters */
 384:Drivers/STM32F7xx_HAL_Driver/Src/stm32f7xx_hal_pwr_ex.c ****   assert_param(IS_PWR_REGULATOR_UNDERDRIVE(Regulator));
 616              		.loc 1 384 3 view .LVU142
 385:Drivers/STM32F7xx_HAL_Driver/Src/stm32f7xx_hal_pwr_ex.c ****   assert_param(IS_PWR_STOP_ENTRY(STOPEntry));
 617              		.loc 1 385 3 view .LVU143
 386:Drivers/STM32F7xx_HAL_Driver/Src/stm32f7xx_hal_pwr_ex.c ****   
 387:Drivers/STM32F7xx_HAL_Driver/Src/stm32f7xx_hal_pwr_ex.c ****   /* Enable Power ctrl clock */
 388:Drivers/STM32F7xx_HAL_Driver/Src/stm32f7xx_hal_pwr_ex.c ****   __HAL_RCC_PWR_CLK_ENABLE();
 618              		.loc 1 388 3 view .LVU144
 619              	.LBB4:
 620              		.loc 1 388 3 view .LVU145
 621              		.loc 1 388 3 view .LVU146
 622 0008 1E4B     		ldr	r3, .L73
 623 000a 1A6C     		ldr	r2, [r3, #64]
 624 000c 42F08052 		orr	r2, r2, #268435456
 625 0010 1A64     		str	r2, [r3, #64]
 626              		.loc 1 388 3 view .LVU147
 627 0012 1B6C     		ldr	r3, [r3, #64]
 628 0014 03F08053 		and	r3, r3, #268435456
 629 0018 0193     		str	r3, [sp, #4]
 630              		.loc 1 388 3 view .LVU148
 631 001a 019B     		ldr	r3, [sp, #4]
 632              	.LBE4:
 633              		.loc 1 388 3 view .LVU149
 389:Drivers/STM32F7xx_HAL_Driver/Src/stm32f7xx_hal_pwr_ex.c ****   /* Enable the Under-drive Mode ---------------------------------------------*/
 390:Drivers/STM32F7xx_HAL_Driver/Src/stm32f7xx_hal_pwr_ex.c ****   /* Clear Under-drive flag */
ARM GAS  /tmp/ccumN2qI.s 			page 19


 391:Drivers/STM32F7xx_HAL_Driver/Src/stm32f7xx_hal_pwr_ex.c ****   __HAL_PWR_CLEAR_ODRUDR_FLAG();
 634              		.loc 1 391 3 view .LVU150
 635 001c 1A4B     		ldr	r3, .L73+4
 636 001e 5968     		ldr	r1, [r3, #4]
 637              	.LVL28:
 638              		.loc 1 391 3 is_stmt 0 view .LVU151
 639 0020 1A4A     		ldr	r2, .L73+8
 640 0022 0A43     		orrs	r2, r2, r1
 641 0024 5A60     		str	r2, [r3, #4]
 392:Drivers/STM32F7xx_HAL_Driver/Src/stm32f7xx_hal_pwr_ex.c ****   
 393:Drivers/STM32F7xx_HAL_Driver/Src/stm32f7xx_hal_pwr_ex.c ****   /* Enable the Under-drive */ 
 394:Drivers/STM32F7xx_HAL_Driver/Src/stm32f7xx_hal_pwr_ex.c ****   __HAL_PWR_UNDERDRIVE_ENABLE();
 642              		.loc 1 394 3 is_stmt 1 view .LVU152
 643 0026 1A68     		ldr	r2, [r3]
 644 0028 42F44022 		orr	r2, r2, #786432
 645 002c 1A60     		str	r2, [r3]
 395:Drivers/STM32F7xx_HAL_Driver/Src/stm32f7xx_hal_pwr_ex.c **** 
 396:Drivers/STM32F7xx_HAL_Driver/Src/stm32f7xx_hal_pwr_ex.c ****   /* Get tick */
 397:Drivers/STM32F7xx_HAL_Driver/Src/stm32f7xx_hal_pwr_ex.c ****   tickstart = HAL_GetTick();
 646              		.loc 1 397 3 view .LVU153
 647              		.loc 1 397 15 is_stmt 0 view .LVU154
 648 002e FFF7FEFF 		bl	HAL_GetTick
 649              	.LVL29:
 650              		.loc 1 397 15 view .LVU155
 651 0032 0446     		mov	r4, r0
 652              	.LVL30:
 398:Drivers/STM32F7xx_HAL_Driver/Src/stm32f7xx_hal_pwr_ex.c **** 
 399:Drivers/STM32F7xx_HAL_Driver/Src/stm32f7xx_hal_pwr_ex.c ****   /* Wait for UnderDrive mode is ready */
 400:Drivers/STM32F7xx_HAL_Driver/Src/stm32f7xx_hal_pwr_ex.c ****   while(__HAL_PWR_GET_FLAG(PWR_FLAG_UDRDY))
 653              		.loc 1 400 3 is_stmt 1 view .LVU156
 654              	.L64:
 655              		.loc 1 400 9 view .LVU157
 656 0034 144B     		ldr	r3, .L73+4
 657 0036 5B68     		ldr	r3, [r3, #4]
 658 0038 03F44023 		and	r3, r3, #786432
 659 003c B3F5402F 		cmp	r3, #786432
 660 0040 07D1     		bne	.L71
 401:Drivers/STM32F7xx_HAL_Driver/Src/stm32f7xx_hal_pwr_ex.c ****   {
 402:Drivers/STM32F7xx_HAL_Driver/Src/stm32f7xx_hal_pwr_ex.c ****     if((HAL_GetTick() - tickstart ) > PWR_UDERDRIVE_TIMEOUT_VALUE)
 661              		.loc 1 402 5 view .LVU158
 662              		.loc 1 402 9 is_stmt 0 view .LVU159
 663 0042 FFF7FEFF 		bl	HAL_GetTick
 664              	.LVL31:
 665              		.loc 1 402 23 view .LVU160
 666 0046 001B     		subs	r0, r0, r4
 667              		.loc 1 402 7 view .LVU161
 668 0048 B0F57A7F 		cmp	r0, #1000
 669 004c F2D9     		bls	.L64
 403:Drivers/STM32F7xx_HAL_Driver/Src/stm32f7xx_hal_pwr_ex.c ****     {
 404:Drivers/STM32F7xx_HAL_Driver/Src/stm32f7xx_hal_pwr_ex.c ****       return HAL_TIMEOUT;
 670              		.loc 1 404 14 view .LVU162
 671 004e 0320     		movs	r0, #3
 672 0050 13E0     		b	.L65
 673              	.L71:
 405:Drivers/STM32F7xx_HAL_Driver/Src/stm32f7xx_hal_pwr_ex.c ****     }
 406:Drivers/STM32F7xx_HAL_Driver/Src/stm32f7xx_hal_pwr_ex.c ****   }
 407:Drivers/STM32F7xx_HAL_Driver/Src/stm32f7xx_hal_pwr_ex.c ****   
ARM GAS  /tmp/ccumN2qI.s 			page 20


 408:Drivers/STM32F7xx_HAL_Driver/Src/stm32f7xx_hal_pwr_ex.c ****   /* Select the regulator state in STOP mode ---------------------------------*/
 409:Drivers/STM32F7xx_HAL_Driver/Src/stm32f7xx_hal_pwr_ex.c ****   tempreg = PWR->CR1;
 674              		.loc 1 409 3 is_stmt 1 view .LVU163
 675              		.loc 1 409 11 is_stmt 0 view .LVU164
 676 0052 0D4A     		ldr	r2, .L73+4
 677 0054 1168     		ldr	r1, [r2]
 678              	.LVL32:
 410:Drivers/STM32F7xx_HAL_Driver/Src/stm32f7xx_hal_pwr_ex.c ****   /* Clear PDDS, LPDS, MRLUDS and LPLUDS bits */
 411:Drivers/STM32F7xx_HAL_Driver/Src/stm32f7xx_hal_pwr_ex.c ****   tempreg &= (uint32_t)~(PWR_CR1_PDDS | PWR_CR1_LPDS | PWR_CR1_LPUDS | PWR_CR1_MRUDS);
 679              		.loc 1 411 3 is_stmt 1 view .LVU165
 680              		.loc 1 411 11 is_stmt 0 view .LVU166
 681 0056 0E4B     		ldr	r3, .L73+12
 682 0058 0B40     		ands	r3, r3, r1
 683              	.LVL33:
 412:Drivers/STM32F7xx_HAL_Driver/Src/stm32f7xx_hal_pwr_ex.c ****   
 413:Drivers/STM32F7xx_HAL_Driver/Src/stm32f7xx_hal_pwr_ex.c ****   /* Set LPDS, MRLUDS and LPLUDS bits according to PWR_Regulator value */
 414:Drivers/STM32F7xx_HAL_Driver/Src/stm32f7xx_hal_pwr_ex.c ****   tempreg |= Regulator;
 684              		.loc 1 414 3 is_stmt 1 view .LVU167
 685              		.loc 1 414 11 is_stmt 0 view .LVU168
 686 005a 3343     		orrs	r3, r3, r6
 687              	.LVL34:
 415:Drivers/STM32F7xx_HAL_Driver/Src/stm32f7xx_hal_pwr_ex.c ****   
 416:Drivers/STM32F7xx_HAL_Driver/Src/stm32f7xx_hal_pwr_ex.c ****   /* Store the new value */
 417:Drivers/STM32F7xx_HAL_Driver/Src/stm32f7xx_hal_pwr_ex.c ****   PWR->CR1 = tempreg;
 688              		.loc 1 417 3 is_stmt 1 view .LVU169
 689              		.loc 1 417 12 is_stmt 0 view .LVU170
 690 005c 1360     		str	r3, [r2]
 418:Drivers/STM32F7xx_HAL_Driver/Src/stm32f7xx_hal_pwr_ex.c ****   
 419:Drivers/STM32F7xx_HAL_Driver/Src/stm32f7xx_hal_pwr_ex.c ****   /* Set SLEEPDEEP bit of Cortex System Control Register */
 420:Drivers/STM32F7xx_HAL_Driver/Src/stm32f7xx_hal_pwr_ex.c ****   SCB->SCR |= SCB_SCR_SLEEPDEEP_Msk;
 691              		.loc 1 420 3 is_stmt 1 view .LVU171
 692              		.loc 1 420 6 is_stmt 0 view .LVU172
 693 005e 0D4A     		ldr	r2, .L73+16
 694 0060 1369     		ldr	r3, [r2, #16]
 695              	.LVL35:
 696              		.loc 1 420 12 view .LVU173
 697 0062 43F00403 		orr	r3, r3, #4
 698 0066 1361     		str	r3, [r2, #16]
 699              	.LVL36:
 421:Drivers/STM32F7xx_HAL_Driver/Src/stm32f7xx_hal_pwr_ex.c ****   
 422:Drivers/STM32F7xx_HAL_Driver/Src/stm32f7xx_hal_pwr_ex.c ****   /* Select STOP mode entry --------------------------------------------------*/
 423:Drivers/STM32F7xx_HAL_Driver/Src/stm32f7xx_hal_pwr_ex.c ****   if(STOPEntry == PWR_SLEEPENTRY_WFI)
 700              		.loc 1 423 3 is_stmt 1 view .LVU174
 701              		.loc 1 423 5 is_stmt 0 view .LVU175
 702 0068 012D     		cmp	r5, #1
 703 006a 08D0     		beq	.L72
 424:Drivers/STM32F7xx_HAL_Driver/Src/stm32f7xx_hal_pwr_ex.c ****   {   
 425:Drivers/STM32F7xx_HAL_Driver/Src/stm32f7xx_hal_pwr_ex.c ****     /* Request Wait For Interrupt */
 426:Drivers/STM32F7xx_HAL_Driver/Src/stm32f7xx_hal_pwr_ex.c ****     __WFI();
 427:Drivers/STM32F7xx_HAL_Driver/Src/stm32f7xx_hal_pwr_ex.c ****   }
 428:Drivers/STM32F7xx_HAL_Driver/Src/stm32f7xx_hal_pwr_ex.c ****   else
 429:Drivers/STM32F7xx_HAL_Driver/Src/stm32f7xx_hal_pwr_ex.c ****   {
 430:Drivers/STM32F7xx_HAL_Driver/Src/stm32f7xx_hal_pwr_ex.c ****     /* Request Wait For Event */
 431:Drivers/STM32F7xx_HAL_Driver/Src/stm32f7xx_hal_pwr_ex.c ****     __WFE();
 704              		.loc 1 431 5 is_stmt 1 view .LVU176
 705              		.syntax unified
 706              	@ 431 "Drivers/STM32F7xx_HAL_Driver/Src/stm32f7xx_hal_pwr_ex.c" 1
ARM GAS  /tmp/ccumN2qI.s 			page 21


 707 006c 20BF     		wfe
 708              	@ 0 "" 2
 709              		.thumb
 710              		.syntax unified
 711              	.L68:
 432:Drivers/STM32F7xx_HAL_Driver/Src/stm32f7xx_hal_pwr_ex.c ****   }
 433:Drivers/STM32F7xx_HAL_Driver/Src/stm32f7xx_hal_pwr_ex.c ****   /* Reset SLEEPDEEP bit of Cortex System Control Register */
 434:Drivers/STM32F7xx_HAL_Driver/Src/stm32f7xx_hal_pwr_ex.c ****   SCB->SCR &= (uint32_t)~((uint32_t)SCB_SCR_SLEEPDEEP_Msk);
 712              		.loc 1 434 3 view .LVU177
 713              		.loc 1 434 6 is_stmt 0 view .LVU178
 714 006e 094A     		ldr	r2, .L73+16
 715 0070 1369     		ldr	r3, [r2, #16]
 716              		.loc 1 434 12 view .LVU179
 717 0072 23F00403 		bic	r3, r3, #4
 718 0076 1361     		str	r3, [r2, #16]
 435:Drivers/STM32F7xx_HAL_Driver/Src/stm32f7xx_hal_pwr_ex.c **** 
 436:Drivers/STM32F7xx_HAL_Driver/Src/stm32f7xx_hal_pwr_ex.c ****   return HAL_OK;  
 719              		.loc 1 436 3 is_stmt 1 view .LVU180
 720              		.loc 1 436 10 is_stmt 0 view .LVU181
 721 0078 0020     		movs	r0, #0
 722              	.LVL37:
 723              	.L65:
 437:Drivers/STM32F7xx_HAL_Driver/Src/stm32f7xx_hal_pwr_ex.c **** }
 724              		.loc 1 437 1 view .LVU182
 725 007a 02B0     		add	sp, sp, #8
 726              		.cfi_remember_state
 727              		.cfi_def_cfa_offset 16
 728              		@ sp needed
 729 007c 70BD     		pop	{r4, r5, r6, pc}
 730              	.LVL38:
 731              	.L72:
 732              		.cfi_restore_state
 426:Drivers/STM32F7xx_HAL_Driver/Src/stm32f7xx_hal_pwr_ex.c ****   }
 733              		.loc 1 426 5 is_stmt 1 view .LVU183
 734              		.syntax unified
 735              	@ 426 "Drivers/STM32F7xx_HAL_Driver/Src/stm32f7xx_hal_pwr_ex.c" 1
 736 007e 30BF     		wfi
 737              	@ 0 "" 2
 738              		.thumb
 739              		.syntax unified
 740 0080 F5E7     		b	.L68
 741              	.L74:
 742 0082 00BF     		.align	2
 743              	.L73:
 744 0084 00380240 		.word	1073887232
 745 0088 00700040 		.word	1073770496
 746 008c 00010C00 		.word	786688
 747 0090 FCF3FFFF 		.word	-3076
 748 0094 00ED00E0 		.word	-536810240
 749              		.cfi_endproc
 750              	.LFE151:
 752              		.section	.text.HAL_PWREx_GetVoltageRange,"ax",%progbits
 753              		.align	1
 754              		.global	HAL_PWREx_GetVoltageRange
 755              		.syntax unified
 756              		.thumb
 757              		.thumb_func
ARM GAS  /tmp/ccumN2qI.s 			page 22


 759              	HAL_PWREx_GetVoltageRange:
 760              	.LFB152:
 438:Drivers/STM32F7xx_HAL_Driver/Src/stm32f7xx_hal_pwr_ex.c **** 
 439:Drivers/STM32F7xx_HAL_Driver/Src/stm32f7xx_hal_pwr_ex.c **** /**
 440:Drivers/STM32F7xx_HAL_Driver/Src/stm32f7xx_hal_pwr_ex.c ****   * @brief Returns Voltage Scaling Range.
 441:Drivers/STM32F7xx_HAL_Driver/Src/stm32f7xx_hal_pwr_ex.c ****   * @retval VOS bit field (PWR_REGULATOR_VOLTAGE_SCALE1, PWR_REGULATOR_VOLTAGE_SCALE2 or 
 442:Drivers/STM32F7xx_HAL_Driver/Src/stm32f7xx_hal_pwr_ex.c ****   *            PWR_REGULATOR_VOLTAGE_SCALE3)PWR_REGULATOR_VOLTAGE_SCALE1
 443:Drivers/STM32F7xx_HAL_Driver/Src/stm32f7xx_hal_pwr_ex.c ****   */  
 444:Drivers/STM32F7xx_HAL_Driver/Src/stm32f7xx_hal_pwr_ex.c **** uint32_t HAL_PWREx_GetVoltageRange(void)
 445:Drivers/STM32F7xx_HAL_Driver/Src/stm32f7xx_hal_pwr_ex.c **** {
 761              		.loc 1 445 1 view -0
 762              		.cfi_startproc
 763              		@ args = 0, pretend = 0, frame = 0
 764              		@ frame_needed = 0, uses_anonymous_args = 0
 765              		@ link register save eliminated.
 446:Drivers/STM32F7xx_HAL_Driver/Src/stm32f7xx_hal_pwr_ex.c ****   return  (PWR->CR1 & PWR_CR1_VOS);
 766              		.loc 1 446 3 view .LVU185
 767              		.loc 1 446 15 is_stmt 0 view .LVU186
 768 0000 024B     		ldr	r3, .L76
 769 0002 1868     		ldr	r0, [r3]
 447:Drivers/STM32F7xx_HAL_Driver/Src/stm32f7xx_hal_pwr_ex.c **** }
 770              		.loc 1 447 1 view .LVU187
 771 0004 00F44040 		and	r0, r0, #49152
 772 0008 7047     		bx	lr
 773              	.L77:
 774 000a 00BF     		.align	2
 775              	.L76:
 776 000c 00700040 		.word	1073770496
 777              		.cfi_endproc
 778              	.LFE152:
 780              		.section	.text.HAL_PWREx_ControlVoltageScaling,"ax",%progbits
 781              		.align	1
 782              		.global	HAL_PWREx_ControlVoltageScaling
 783              		.syntax unified
 784              		.thumb
 785              		.thumb_func
 787              	HAL_PWREx_ControlVoltageScaling:
 788              	.LVL39:
 789              	.LFB153:
 448:Drivers/STM32F7xx_HAL_Driver/Src/stm32f7xx_hal_pwr_ex.c **** 
 449:Drivers/STM32F7xx_HAL_Driver/Src/stm32f7xx_hal_pwr_ex.c **** /**
 450:Drivers/STM32F7xx_HAL_Driver/Src/stm32f7xx_hal_pwr_ex.c ****   * @brief Configures the main internal regulator output voltage.
 451:Drivers/STM32F7xx_HAL_Driver/Src/stm32f7xx_hal_pwr_ex.c ****   * @param  VoltageScaling specifies the regulator output voltage to achieve
 452:Drivers/STM32F7xx_HAL_Driver/Src/stm32f7xx_hal_pwr_ex.c ****   *         a tradeoff between performance and power consumption.
 453:Drivers/STM32F7xx_HAL_Driver/Src/stm32f7xx_hal_pwr_ex.c ****   *          This parameter can be one of the following values:
 454:Drivers/STM32F7xx_HAL_Driver/Src/stm32f7xx_hal_pwr_ex.c ****   *            @arg PWR_REGULATOR_VOLTAGE_SCALE1: Regulator voltage output range 1 mode,
 455:Drivers/STM32F7xx_HAL_Driver/Src/stm32f7xx_hal_pwr_ex.c ****   *                                                typical output voltage at 1.4 V,  
 456:Drivers/STM32F7xx_HAL_Driver/Src/stm32f7xx_hal_pwr_ex.c ****   *                                                system frequency up to 216 MHz.
 457:Drivers/STM32F7xx_HAL_Driver/Src/stm32f7xx_hal_pwr_ex.c ****   *            @arg PWR_REGULATOR_VOLTAGE_SCALE2: Regulator voltage output range 2 mode,
 458:Drivers/STM32F7xx_HAL_Driver/Src/stm32f7xx_hal_pwr_ex.c ****   *                                                typical output voltage at 1.2 V,                
 459:Drivers/STM32F7xx_HAL_Driver/Src/stm32f7xx_hal_pwr_ex.c ****   *                                                system frequency up to 180 MHz.
 460:Drivers/STM32F7xx_HAL_Driver/Src/stm32f7xx_hal_pwr_ex.c ****   *            @arg PWR_REGULATOR_VOLTAGE_SCALE3: Regulator voltage output range 2 mode,
 461:Drivers/STM32F7xx_HAL_Driver/Src/stm32f7xx_hal_pwr_ex.c ****   *                                                typical output voltage at 1.00 V,               
 462:Drivers/STM32F7xx_HAL_Driver/Src/stm32f7xx_hal_pwr_ex.c ****   *                                                system frequency up to 151 MHz.
 463:Drivers/STM32F7xx_HAL_Driver/Src/stm32f7xx_hal_pwr_ex.c ****   * @note To update the system clock frequency(SYSCLK):
 464:Drivers/STM32F7xx_HAL_Driver/Src/stm32f7xx_hal_pwr_ex.c ****   *        - Set the HSI or HSE as system clock frequency using the HAL_RCC_ClockConfig().
 465:Drivers/STM32F7xx_HAL_Driver/Src/stm32f7xx_hal_pwr_ex.c ****   *        - Call the HAL_RCC_OscConfig() to configure the PLL.
ARM GAS  /tmp/ccumN2qI.s 			page 23


 466:Drivers/STM32F7xx_HAL_Driver/Src/stm32f7xx_hal_pwr_ex.c ****   *        - Call HAL_PWREx_ConfigVoltageScaling() API to adjust the voltage scale.
 467:Drivers/STM32F7xx_HAL_Driver/Src/stm32f7xx_hal_pwr_ex.c ****   *        - Set the new system clock frequency using the HAL_RCC_ClockConfig().
 468:Drivers/STM32F7xx_HAL_Driver/Src/stm32f7xx_hal_pwr_ex.c ****   * @note The scale can be modified only when the HSI or HSE clock source is selected 
 469:Drivers/STM32F7xx_HAL_Driver/Src/stm32f7xx_hal_pwr_ex.c ****   *        as system clock source, otherwise the API returns HAL_ERROR.  
 470:Drivers/STM32F7xx_HAL_Driver/Src/stm32f7xx_hal_pwr_ex.c ****   * @note When the PLL is OFF, the voltage scale 3 is automatically selected and the VOS bits
 471:Drivers/STM32F7xx_HAL_Driver/Src/stm32f7xx_hal_pwr_ex.c ****   *       value in the PWR_CR1 register are not taken in account.
 472:Drivers/STM32F7xx_HAL_Driver/Src/stm32f7xx_hal_pwr_ex.c ****   * @note This API forces the PLL state ON to allow the possibility to configure the voltage scale 
 473:Drivers/STM32F7xx_HAL_Driver/Src/stm32f7xx_hal_pwr_ex.c ****   * @note The new voltage scale is active only when the PLL is ON.  
 474:Drivers/STM32F7xx_HAL_Driver/Src/stm32f7xx_hal_pwr_ex.c ****   * @retval HAL Status
 475:Drivers/STM32F7xx_HAL_Driver/Src/stm32f7xx_hal_pwr_ex.c ****   */
 476:Drivers/STM32F7xx_HAL_Driver/Src/stm32f7xx_hal_pwr_ex.c **** HAL_StatusTypeDef HAL_PWREx_ControlVoltageScaling(uint32_t VoltageScaling)
 477:Drivers/STM32F7xx_HAL_Driver/Src/stm32f7xx_hal_pwr_ex.c **** {
 790              		.loc 1 477 1 is_stmt 1 view -0
 791              		.cfi_startproc
 792              		@ args = 0, pretend = 0, frame = 8
 793              		@ frame_needed = 0, uses_anonymous_args = 0
 794              		.loc 1 477 1 is_stmt 0 view .LVU189
 795 0000 30B5     		push	{r4, r5, lr}
 796              		.cfi_def_cfa_offset 12
 797              		.cfi_offset 4, -12
 798              		.cfi_offset 5, -8
 799              		.cfi_offset 14, -4
 800 0002 83B0     		sub	sp, sp, #12
 801              		.cfi_def_cfa_offset 24
 478:Drivers/STM32F7xx_HAL_Driver/Src/stm32f7xx_hal_pwr_ex.c ****   uint32_t tickstart = 0;
 802              		.loc 1 478 3 is_stmt 1 view .LVU190
 803              	.LVL40:
 479:Drivers/STM32F7xx_HAL_Driver/Src/stm32f7xx_hal_pwr_ex.c **** 
 480:Drivers/STM32F7xx_HAL_Driver/Src/stm32f7xx_hal_pwr_ex.c ****   assert_param(IS_PWR_REGULATOR_VOLTAGE(VoltageScaling));
 804              		.loc 1 480 3 view .LVU191
 481:Drivers/STM32F7xx_HAL_Driver/Src/stm32f7xx_hal_pwr_ex.c **** 
 482:Drivers/STM32F7xx_HAL_Driver/Src/stm32f7xx_hal_pwr_ex.c ****   /* Enable Power ctrl clock */
 483:Drivers/STM32F7xx_HAL_Driver/Src/stm32f7xx_hal_pwr_ex.c ****   __HAL_RCC_PWR_CLK_ENABLE();
 805              		.loc 1 483 3 view .LVU192
 806              	.LBB5:
 807              		.loc 1 483 3 view .LVU193
 808              		.loc 1 483 3 view .LVU194
 809 0004 2C4B     		ldr	r3, .L94
 810 0006 1A6C     		ldr	r2, [r3, #64]
 811 0008 42F08052 		orr	r2, r2, #268435456
 812 000c 1A64     		str	r2, [r3, #64]
 813              		.loc 1 483 3 view .LVU195
 814 000e 1A6C     		ldr	r2, [r3, #64]
 815 0010 02F08052 		and	r2, r2, #268435456
 816 0014 0092     		str	r2, [sp]
 817              		.loc 1 483 3 view .LVU196
 818 0016 009A     		ldr	r2, [sp]
 819              	.LBE5:
 820              		.loc 1 483 3 view .LVU197
 484:Drivers/STM32F7xx_HAL_Driver/Src/stm32f7xx_hal_pwr_ex.c **** 
 485:Drivers/STM32F7xx_HAL_Driver/Src/stm32f7xx_hal_pwr_ex.c ****   /* Check if the PLL is used as system clock or not */
 486:Drivers/STM32F7xx_HAL_Driver/Src/stm32f7xx_hal_pwr_ex.c ****   if(__HAL_RCC_GET_SYSCLK_SOURCE() != RCC_CFGR_SWS_PLL)
 821              		.loc 1 486 3 view .LVU198
 822              		.loc 1 486 6 is_stmt 0 view .LVU199
 823 0018 9B68     		ldr	r3, [r3, #8]
 824 001a 03F00C03 		and	r3, r3, #12
 825              		.loc 1 486 5 view .LVU200
ARM GAS  /tmp/ccumN2qI.s 			page 24


 826 001e 082B     		cmp	r3, #8
 827 0020 46D0     		beq	.L86
 828 0022 0546     		mov	r5, r0
 487:Drivers/STM32F7xx_HAL_Driver/Src/stm32f7xx_hal_pwr_ex.c ****   {
 488:Drivers/STM32F7xx_HAL_Driver/Src/stm32f7xx_hal_pwr_ex.c ****     /* Disable the main PLL */
 489:Drivers/STM32F7xx_HAL_Driver/Src/stm32f7xx_hal_pwr_ex.c ****     __HAL_RCC_PLL_DISABLE();
 829              		.loc 1 489 5 is_stmt 1 view .LVU201
 830 0024 244A     		ldr	r2, .L94
 831 0026 1368     		ldr	r3, [r2]
 832 0028 23F08073 		bic	r3, r3, #16777216
 833 002c 1360     		str	r3, [r2]
 490:Drivers/STM32F7xx_HAL_Driver/Src/stm32f7xx_hal_pwr_ex.c ****     
 491:Drivers/STM32F7xx_HAL_Driver/Src/stm32f7xx_hal_pwr_ex.c ****     /* Get Start Tick */
 492:Drivers/STM32F7xx_HAL_Driver/Src/stm32f7xx_hal_pwr_ex.c ****     tickstart = HAL_GetTick();    
 834              		.loc 1 492 5 view .LVU202
 835              		.loc 1 492 17 is_stmt 0 view .LVU203
 836 002e FFF7FEFF 		bl	HAL_GetTick
 837              	.LVL41:
 838              		.loc 1 492 17 view .LVU204
 839 0032 0446     		mov	r4, r0
 840              	.LVL42:
 493:Drivers/STM32F7xx_HAL_Driver/Src/stm32f7xx_hal_pwr_ex.c ****     /* Wait till PLL is disabled */  
 494:Drivers/STM32F7xx_HAL_Driver/Src/stm32f7xx_hal_pwr_ex.c ****     while(__HAL_RCC_GET_FLAG(RCC_FLAG_PLLRDY) != RESET)
 841              		.loc 1 494 5 is_stmt 1 view .LVU205
 842              	.L80:
 843              		.loc 1 494 47 view .LVU206
 844              		.loc 1 494 11 is_stmt 0 view .LVU207
 845 0034 204B     		ldr	r3, .L94
 846 0036 1B68     		ldr	r3, [r3]
 847              		.loc 1 494 47 view .LVU208
 848 0038 13F0007F 		tst	r3, #33554432
 849 003c 06D0     		beq	.L91
 495:Drivers/STM32F7xx_HAL_Driver/Src/stm32f7xx_hal_pwr_ex.c ****     {
 496:Drivers/STM32F7xx_HAL_Driver/Src/stm32f7xx_hal_pwr_ex.c ****       if((HAL_GetTick() - tickstart ) > PLL_TIMEOUT_VALUE)
 850              		.loc 1 496 7 is_stmt 1 view .LVU209
 851              		.loc 1 496 11 is_stmt 0 view .LVU210
 852 003e FFF7FEFF 		bl	HAL_GetTick
 853              	.LVL43:
 854              		.loc 1 496 25 view .LVU211
 855 0042 031B     		subs	r3, r0, r4
 856              		.loc 1 496 9 view .LVU212
 857 0044 022B     		cmp	r3, #2
 858 0046 F5D9     		bls	.L80
 497:Drivers/STM32F7xx_HAL_Driver/Src/stm32f7xx_hal_pwr_ex.c ****       {
 498:Drivers/STM32F7xx_HAL_Driver/Src/stm32f7xx_hal_pwr_ex.c ****         return HAL_TIMEOUT;
 859              		.loc 1 498 16 view .LVU213
 860 0048 0320     		movs	r0, #3
 861 004a 32E0     		b	.L79
 862              	.L91:
 499:Drivers/STM32F7xx_HAL_Driver/Src/stm32f7xx_hal_pwr_ex.c ****       }
 500:Drivers/STM32F7xx_HAL_Driver/Src/stm32f7xx_hal_pwr_ex.c ****     }
 501:Drivers/STM32F7xx_HAL_Driver/Src/stm32f7xx_hal_pwr_ex.c ****     
 502:Drivers/STM32F7xx_HAL_Driver/Src/stm32f7xx_hal_pwr_ex.c ****     /* Set Range */
 503:Drivers/STM32F7xx_HAL_Driver/Src/stm32f7xx_hal_pwr_ex.c ****     __HAL_PWR_VOLTAGESCALING_CONFIG(VoltageScaling);
 863              		.loc 1 503 5 is_stmt 1 view .LVU214
 864              	.LBB6:
 865              		.loc 1 503 5 view .LVU215
ARM GAS  /tmp/ccumN2qI.s 			page 25


 866              		.loc 1 503 5 view .LVU216
 867 004c 1B4A     		ldr	r2, .L94+4
 868 004e 1368     		ldr	r3, [r2]
 869 0050 23F44043 		bic	r3, r3, #49152
 870 0054 2B43     		orrs	r3, r3, r5
 871 0056 1360     		str	r3, [r2]
 872              		.loc 1 503 5 view .LVU217
 873 0058 1368     		ldr	r3, [r2]
 874 005a 03F44043 		and	r3, r3, #49152
 875 005e 0193     		str	r3, [sp, #4]
 876              		.loc 1 503 5 view .LVU218
 877 0060 019B     		ldr	r3, [sp, #4]
 878              	.LBE6:
 879              		.loc 1 503 5 view .LVU219
 504:Drivers/STM32F7xx_HAL_Driver/Src/stm32f7xx_hal_pwr_ex.c ****     
 505:Drivers/STM32F7xx_HAL_Driver/Src/stm32f7xx_hal_pwr_ex.c ****     /* Enable the main PLL */
 506:Drivers/STM32F7xx_HAL_Driver/Src/stm32f7xx_hal_pwr_ex.c ****     __HAL_RCC_PLL_ENABLE();
 880              		.loc 1 506 5 view .LVU220
 881 0062 02F5E432 		add	r2, r2, #116736
 882 0066 1368     		ldr	r3, [r2]
 883 0068 43F08073 		orr	r3, r3, #16777216
 884 006c 1360     		str	r3, [r2]
 507:Drivers/STM32F7xx_HAL_Driver/Src/stm32f7xx_hal_pwr_ex.c ****     
 508:Drivers/STM32F7xx_HAL_Driver/Src/stm32f7xx_hal_pwr_ex.c ****     /* Get Start Tick */
 509:Drivers/STM32F7xx_HAL_Driver/Src/stm32f7xx_hal_pwr_ex.c ****     tickstart = HAL_GetTick();
 885              		.loc 1 509 5 view .LVU221
 886              		.loc 1 509 17 is_stmt 0 view .LVU222
 887 006e FFF7FEFF 		bl	HAL_GetTick
 888              	.LVL44:
 889 0072 0446     		mov	r4, r0
 890              	.LVL45:
 510:Drivers/STM32F7xx_HAL_Driver/Src/stm32f7xx_hal_pwr_ex.c ****     /* Wait till PLL is ready */  
 511:Drivers/STM32F7xx_HAL_Driver/Src/stm32f7xx_hal_pwr_ex.c ****     while(__HAL_RCC_GET_FLAG(RCC_FLAG_PLLRDY) == RESET)
 891              		.loc 1 511 5 is_stmt 1 view .LVU223
 892              	.L82:
 893              		.loc 1 511 47 view .LVU224
 894              		.loc 1 511 11 is_stmt 0 view .LVU225
 895 0074 104B     		ldr	r3, .L94
 896 0076 1B68     		ldr	r3, [r3]
 897              		.loc 1 511 47 view .LVU226
 898 0078 13F0007F 		tst	r3, #33554432
 899 007c 06D1     		bne	.L92
 512:Drivers/STM32F7xx_HAL_Driver/Src/stm32f7xx_hal_pwr_ex.c ****     {
 513:Drivers/STM32F7xx_HAL_Driver/Src/stm32f7xx_hal_pwr_ex.c ****       if((HAL_GetTick() - tickstart ) > PLL_TIMEOUT_VALUE)
 900              		.loc 1 513 7 is_stmt 1 view .LVU227
 901              		.loc 1 513 11 is_stmt 0 view .LVU228
 902 007e FFF7FEFF 		bl	HAL_GetTick
 903              	.LVL46:
 904              		.loc 1 513 25 view .LVU229
 905 0082 001B     		subs	r0, r0, r4
 906              		.loc 1 513 9 view .LVU230
 907 0084 0228     		cmp	r0, #2
 908 0086 F5D9     		bls	.L82
 514:Drivers/STM32F7xx_HAL_Driver/Src/stm32f7xx_hal_pwr_ex.c ****       {
 515:Drivers/STM32F7xx_HAL_Driver/Src/stm32f7xx_hal_pwr_ex.c ****         return HAL_TIMEOUT;
 909              		.loc 1 515 16 view .LVU231
 910 0088 0320     		movs	r0, #3
ARM GAS  /tmp/ccumN2qI.s 			page 26


 911 008a 12E0     		b	.L79
 912              	.L92:
 516:Drivers/STM32F7xx_HAL_Driver/Src/stm32f7xx_hal_pwr_ex.c ****       } 
 517:Drivers/STM32F7xx_HAL_Driver/Src/stm32f7xx_hal_pwr_ex.c ****     }
 518:Drivers/STM32F7xx_HAL_Driver/Src/stm32f7xx_hal_pwr_ex.c ****     
 519:Drivers/STM32F7xx_HAL_Driver/Src/stm32f7xx_hal_pwr_ex.c ****     /* Get Start Tick */
 520:Drivers/STM32F7xx_HAL_Driver/Src/stm32f7xx_hal_pwr_ex.c ****     tickstart = HAL_GetTick();
 913              		.loc 1 520 5 is_stmt 1 view .LVU232
 914              		.loc 1 520 17 is_stmt 0 view .LVU233
 915 008c FFF7FEFF 		bl	HAL_GetTick
 916              	.LVL47:
 917 0090 0446     		mov	r4, r0
 918              	.LVL48:
 521:Drivers/STM32F7xx_HAL_Driver/Src/stm32f7xx_hal_pwr_ex.c ****     while((__HAL_PWR_GET_FLAG(PWR_FLAG_VOSRDY) == RESET))
 919              		.loc 1 521 5 is_stmt 1 view .LVU234
 920              	.L84:
 921              		.loc 1 521 48 view .LVU235
 922              		.loc 1 521 12 is_stmt 0 view .LVU236
 923 0092 0A4B     		ldr	r3, .L94+4
 924 0094 5B68     		ldr	r3, [r3, #4]
 925              		.loc 1 521 48 view .LVU237
 926 0096 13F4804F 		tst	r3, #16384
 927 009a 07D1     		bne	.L93
 522:Drivers/STM32F7xx_HAL_Driver/Src/stm32f7xx_hal_pwr_ex.c ****     {
 523:Drivers/STM32F7xx_HAL_Driver/Src/stm32f7xx_hal_pwr_ex.c ****       if((HAL_GetTick() - tickstart ) > PWR_VOSRDY_TIMEOUT_VALUE)
 928              		.loc 1 523 7 is_stmt 1 view .LVU238
 929              		.loc 1 523 11 is_stmt 0 view .LVU239
 930 009c FFF7FEFF 		bl	HAL_GetTick
 931              	.LVL49:
 932              		.loc 1 523 25 view .LVU240
 933 00a0 001B     		subs	r0, r0, r4
 934              		.loc 1 523 9 view .LVU241
 935 00a2 B0F57A7F 		cmp	r0, #1000
 936 00a6 F4D9     		bls	.L84
 524:Drivers/STM32F7xx_HAL_Driver/Src/stm32f7xx_hal_pwr_ex.c ****       {
 525:Drivers/STM32F7xx_HAL_Driver/Src/stm32f7xx_hal_pwr_ex.c ****         return HAL_TIMEOUT;
 937              		.loc 1 525 16 view .LVU242
 938 00a8 0320     		movs	r0, #3
 939 00aa 02E0     		b	.L79
 940              	.L93:
 526:Drivers/STM32F7xx_HAL_Driver/Src/stm32f7xx_hal_pwr_ex.c ****       } 
 527:Drivers/STM32F7xx_HAL_Driver/Src/stm32f7xx_hal_pwr_ex.c ****     }
 528:Drivers/STM32F7xx_HAL_Driver/Src/stm32f7xx_hal_pwr_ex.c ****   }
 529:Drivers/STM32F7xx_HAL_Driver/Src/stm32f7xx_hal_pwr_ex.c ****   else
 530:Drivers/STM32F7xx_HAL_Driver/Src/stm32f7xx_hal_pwr_ex.c ****   {
 531:Drivers/STM32F7xx_HAL_Driver/Src/stm32f7xx_hal_pwr_ex.c ****     return HAL_ERROR;
 532:Drivers/STM32F7xx_HAL_Driver/Src/stm32f7xx_hal_pwr_ex.c ****   }
 533:Drivers/STM32F7xx_HAL_Driver/Src/stm32f7xx_hal_pwr_ex.c ****   return HAL_OK;
 941              		.loc 1 533 10 view .LVU243
 942 00ac 0020     		movs	r0, #0
 943 00ae 00E0     		b	.L79
 944              	.LVL50:
 945              	.L86:
 531:Drivers/STM32F7xx_HAL_Driver/Src/stm32f7xx_hal_pwr_ex.c ****   }
 946              		.loc 1 531 12 view .LVU244
 947 00b0 0120     		movs	r0, #1
 948              	.LVL51:
ARM GAS  /tmp/ccumN2qI.s 			page 27


 949              	.L79:
 534:Drivers/STM32F7xx_HAL_Driver/Src/stm32f7xx_hal_pwr_ex.c **** }
 950              		.loc 1 534 1 view .LVU245
 951 00b2 03B0     		add	sp, sp, #12
 952              		.cfi_def_cfa_offset 12
 953              		@ sp needed
 954 00b4 30BD     		pop	{r4, r5, pc}
 955              	.L95:
 956 00b6 00BF     		.align	2
 957              	.L94:
 958 00b8 00380240 		.word	1073887232
 959 00bc 00700040 		.word	1073770496
 960              		.cfi_endproc
 961              	.LFE153:
 963              		.text
 964              	.Letext0:
 965              		.file 2 "/home/qrsnap/.config/Code/User/globalStorage/bmd.stm32-for-vscode/@xpack-dev-tools/arm-no
 966              		.file 3 "/home/qrsnap/.config/Code/User/globalStorage/bmd.stm32-for-vscode/@xpack-dev-tools/arm-no
 967              		.file 4 "Drivers/CMSIS/Include/core_cm7.h"
 968              		.file 5 "Drivers/CMSIS/Device/ST/STM32F7xx/Include/stm32f723xx.h"
 969              		.file 6 "Drivers/CMSIS/Device/ST/STM32F7xx/Include/stm32f7xx.h"
 970              		.file 7 "Drivers/STM32F7xx_HAL_Driver/Inc/stm32f7xx_hal_def.h"
 971              		.file 8 "Drivers/STM32F7xx_HAL_Driver/Inc/stm32f7xx_hal.h"
ARM GAS  /tmp/ccumN2qI.s 			page 28

