ARM GAS  /tmp/ccf9br4W.s 			page 1


   1              		.cpu cortex-m7
   2              		.arch armv7e-m
   3              		.fpu fpv5-sp-d16
   4              		.eabi_attribute 27, 1
   5              		.eabi_attribute 28, 1
   6              		.eabi_attribute 20, 1
   7              		.eabi_attribute 21, 1
   8              		.eabi_attribute 23, 3
   9              		.eabi_attribute 24, 1
  10              		.eabi_attribute 25, 1
  11              		.eabi_attribute 26, 1
  12              		.eabi_attribute 30, 1
  13              		.eabi_attribute 34, 1
  14              		.eabi_attribute 18, 4
  15              		.file	"stm32f7xx_hal_dma_ex.c"
  16              		.text
  17              	.Ltext0:
  18              		.cfi_sections	.debug_frame
  19              		.file 1 "Drivers/STM32F7xx_HAL_Driver/Src/stm32f7xx_hal_dma_ex.c"
  20              		.section	.text.DMA_MultiBufferSetConfig,"ax",%progbits
  21              		.align	1
  22              		.syntax unified
  23              		.thumb
  24              		.thumb_func
  26              	DMA_MultiBufferSetConfig:
  27              	.LVL0:
  28              	.LFB144:
   1:Drivers/STM32F7xx_HAL_Driver/Src/stm32f7xx_hal_dma_ex.c **** /**
   2:Drivers/STM32F7xx_HAL_Driver/Src/stm32f7xx_hal_dma_ex.c ****   ******************************************************************************
   3:Drivers/STM32F7xx_HAL_Driver/Src/stm32f7xx_hal_dma_ex.c ****   * @file    stm32f7xx_hal_dma_ex.c
   4:Drivers/STM32F7xx_HAL_Driver/Src/stm32f7xx_hal_dma_ex.c ****   * @author  MCD Application Team
   5:Drivers/STM32F7xx_HAL_Driver/Src/stm32f7xx_hal_dma_ex.c ****   * @brief   DMA Extension HAL module driver
   6:Drivers/STM32F7xx_HAL_Driver/Src/stm32f7xx_hal_dma_ex.c ****   *         This file provides firmware functions to manage the following 
   7:Drivers/STM32F7xx_HAL_Driver/Src/stm32f7xx_hal_dma_ex.c ****   *         functionalities of the DMA Extension peripheral:
   8:Drivers/STM32F7xx_HAL_Driver/Src/stm32f7xx_hal_dma_ex.c ****   *           + Extended features functions
   9:Drivers/STM32F7xx_HAL_Driver/Src/stm32f7xx_hal_dma_ex.c ****   *
  10:Drivers/STM32F7xx_HAL_Driver/Src/stm32f7xx_hal_dma_ex.c ****   @verbatim
  11:Drivers/STM32F7xx_HAL_Driver/Src/stm32f7xx_hal_dma_ex.c ****   ==============================================================================
  12:Drivers/STM32F7xx_HAL_Driver/Src/stm32f7xx_hal_dma_ex.c ****                         ##### How to use this driver #####
  13:Drivers/STM32F7xx_HAL_Driver/Src/stm32f7xx_hal_dma_ex.c ****   ==============================================================================
  14:Drivers/STM32F7xx_HAL_Driver/Src/stm32f7xx_hal_dma_ex.c ****   [..]
  15:Drivers/STM32F7xx_HAL_Driver/Src/stm32f7xx_hal_dma_ex.c ****   The DMA Extension HAL driver can be used as follows:
  16:Drivers/STM32F7xx_HAL_Driver/Src/stm32f7xx_hal_dma_ex.c ****    (+) Start a multi buffer transfer using the HAL_DMA_MultiBufferStart() function
  17:Drivers/STM32F7xx_HAL_Driver/Src/stm32f7xx_hal_dma_ex.c ****        for polling mode or HAL_DMA_MultiBufferStart_IT() for interrupt mode.
  18:Drivers/STM32F7xx_HAL_Driver/Src/stm32f7xx_hal_dma_ex.c **** 
  19:Drivers/STM32F7xx_HAL_Driver/Src/stm32f7xx_hal_dma_ex.c ****      -@-  In Memory-to-Memory transfer mode, Multi (Double) Buffer mode is not allowed.
  20:Drivers/STM32F7xx_HAL_Driver/Src/stm32f7xx_hal_dma_ex.c ****      -@-  When Multi (Double) Buffer mode is enabled, the transfer is circular by default.
  21:Drivers/STM32F7xx_HAL_Driver/Src/stm32f7xx_hal_dma_ex.c ****      -@-  In Multi (Double) buffer mode, it is possible to update the base address for 
  22:Drivers/STM32F7xx_HAL_Driver/Src/stm32f7xx_hal_dma_ex.c ****           the AHB memory port on the fly (DMA_SxM0AR or DMA_SxM1AR) when the stream is enabled.
  23:Drivers/STM32F7xx_HAL_Driver/Src/stm32f7xx_hal_dma_ex.c ****   
  24:Drivers/STM32F7xx_HAL_Driver/Src/stm32f7xx_hal_dma_ex.c ****   @endverbatim
  25:Drivers/STM32F7xx_HAL_Driver/Src/stm32f7xx_hal_dma_ex.c ****   ******************************************************************************
  26:Drivers/STM32F7xx_HAL_Driver/Src/stm32f7xx_hal_dma_ex.c ****   * @attention
  27:Drivers/STM32F7xx_HAL_Driver/Src/stm32f7xx_hal_dma_ex.c ****   *
  28:Drivers/STM32F7xx_HAL_Driver/Src/stm32f7xx_hal_dma_ex.c ****   * Copyright (c) 2017 STMicroelectronics.
  29:Drivers/STM32F7xx_HAL_Driver/Src/stm32f7xx_hal_dma_ex.c ****   * All rights reserved.
  30:Drivers/STM32F7xx_HAL_Driver/Src/stm32f7xx_hal_dma_ex.c ****   *
ARM GAS  /tmp/ccf9br4W.s 			page 2


  31:Drivers/STM32F7xx_HAL_Driver/Src/stm32f7xx_hal_dma_ex.c ****   * This software is licensed under terms that can be found in the LICENSE file in
  32:Drivers/STM32F7xx_HAL_Driver/Src/stm32f7xx_hal_dma_ex.c ****   * the root directory of this software component.
  33:Drivers/STM32F7xx_HAL_Driver/Src/stm32f7xx_hal_dma_ex.c ****   * If no LICENSE file comes with this software, it is provided AS-IS.
  34:Drivers/STM32F7xx_HAL_Driver/Src/stm32f7xx_hal_dma_ex.c ****   *
  35:Drivers/STM32F7xx_HAL_Driver/Src/stm32f7xx_hal_dma_ex.c ****   ******************************************************************************
  36:Drivers/STM32F7xx_HAL_Driver/Src/stm32f7xx_hal_dma_ex.c ****   */
  37:Drivers/STM32F7xx_HAL_Driver/Src/stm32f7xx_hal_dma_ex.c **** 
  38:Drivers/STM32F7xx_HAL_Driver/Src/stm32f7xx_hal_dma_ex.c **** /* Includes ------------------------------------------------------------------*/
  39:Drivers/STM32F7xx_HAL_Driver/Src/stm32f7xx_hal_dma_ex.c **** #include "stm32f7xx_hal.h"
  40:Drivers/STM32F7xx_HAL_Driver/Src/stm32f7xx_hal_dma_ex.c **** 
  41:Drivers/STM32F7xx_HAL_Driver/Src/stm32f7xx_hal_dma_ex.c **** /** @addtogroup STM32F7xx_HAL_Driver
  42:Drivers/STM32F7xx_HAL_Driver/Src/stm32f7xx_hal_dma_ex.c ****   * @{
  43:Drivers/STM32F7xx_HAL_Driver/Src/stm32f7xx_hal_dma_ex.c ****   */
  44:Drivers/STM32F7xx_HAL_Driver/Src/stm32f7xx_hal_dma_ex.c **** 
  45:Drivers/STM32F7xx_HAL_Driver/Src/stm32f7xx_hal_dma_ex.c **** /** @defgroup DMAEx DMAEx
  46:Drivers/STM32F7xx_HAL_Driver/Src/stm32f7xx_hal_dma_ex.c ****   * @brief DMA Extended HAL module driver
  47:Drivers/STM32F7xx_HAL_Driver/Src/stm32f7xx_hal_dma_ex.c ****   * @{
  48:Drivers/STM32F7xx_HAL_Driver/Src/stm32f7xx_hal_dma_ex.c ****   */
  49:Drivers/STM32F7xx_HAL_Driver/Src/stm32f7xx_hal_dma_ex.c **** 
  50:Drivers/STM32F7xx_HAL_Driver/Src/stm32f7xx_hal_dma_ex.c **** #ifdef HAL_DMA_MODULE_ENABLED
  51:Drivers/STM32F7xx_HAL_Driver/Src/stm32f7xx_hal_dma_ex.c **** 
  52:Drivers/STM32F7xx_HAL_Driver/Src/stm32f7xx_hal_dma_ex.c **** /* Private types -------------------------------------------------------------*/
  53:Drivers/STM32F7xx_HAL_Driver/Src/stm32f7xx_hal_dma_ex.c **** /* Private variables ---------------------------------------------------------*/
  54:Drivers/STM32F7xx_HAL_Driver/Src/stm32f7xx_hal_dma_ex.c **** /* Private Constants ---------------------------------------------------------*/
  55:Drivers/STM32F7xx_HAL_Driver/Src/stm32f7xx_hal_dma_ex.c **** /* Private macros ------------------------------------------------------------*/
  56:Drivers/STM32F7xx_HAL_Driver/Src/stm32f7xx_hal_dma_ex.c **** /* Private functions ---------------------------------------------------------*/
  57:Drivers/STM32F7xx_HAL_Driver/Src/stm32f7xx_hal_dma_ex.c **** /** @addtogroup DMAEx_Private_Functions
  58:Drivers/STM32F7xx_HAL_Driver/Src/stm32f7xx_hal_dma_ex.c ****   * @{
  59:Drivers/STM32F7xx_HAL_Driver/Src/stm32f7xx_hal_dma_ex.c ****   */
  60:Drivers/STM32F7xx_HAL_Driver/Src/stm32f7xx_hal_dma_ex.c **** 
  61:Drivers/STM32F7xx_HAL_Driver/Src/stm32f7xx_hal_dma_ex.c **** static void DMA_MultiBufferSetConfig(DMA_HandleTypeDef *hdma, uint32_t SrcAddress, uint32_t DstAddr
  62:Drivers/STM32F7xx_HAL_Driver/Src/stm32f7xx_hal_dma_ex.c **** 
  63:Drivers/STM32F7xx_HAL_Driver/Src/stm32f7xx_hal_dma_ex.c **** /**
  64:Drivers/STM32F7xx_HAL_Driver/Src/stm32f7xx_hal_dma_ex.c ****   * @}
  65:Drivers/STM32F7xx_HAL_Driver/Src/stm32f7xx_hal_dma_ex.c ****   */
  66:Drivers/STM32F7xx_HAL_Driver/Src/stm32f7xx_hal_dma_ex.c **** 
  67:Drivers/STM32F7xx_HAL_Driver/Src/stm32f7xx_hal_dma_ex.c **** /* Exported functions ---------------------------------------------------------*/
  68:Drivers/STM32F7xx_HAL_Driver/Src/stm32f7xx_hal_dma_ex.c **** 
  69:Drivers/STM32F7xx_HAL_Driver/Src/stm32f7xx_hal_dma_ex.c **** /** @addtogroup DMAEx_Exported_Functions
  70:Drivers/STM32F7xx_HAL_Driver/Src/stm32f7xx_hal_dma_ex.c ****   * @{
  71:Drivers/STM32F7xx_HAL_Driver/Src/stm32f7xx_hal_dma_ex.c ****   */
  72:Drivers/STM32F7xx_HAL_Driver/Src/stm32f7xx_hal_dma_ex.c **** 
  73:Drivers/STM32F7xx_HAL_Driver/Src/stm32f7xx_hal_dma_ex.c **** 
  74:Drivers/STM32F7xx_HAL_Driver/Src/stm32f7xx_hal_dma_ex.c **** /** @addtogroup DMAEx_Exported_Functions_Group1
  75:Drivers/STM32F7xx_HAL_Driver/Src/stm32f7xx_hal_dma_ex.c ****   *
  76:Drivers/STM32F7xx_HAL_Driver/Src/stm32f7xx_hal_dma_ex.c **** @verbatim
  77:Drivers/STM32F7xx_HAL_Driver/Src/stm32f7xx_hal_dma_ex.c ****  ===============================================================================
  78:Drivers/STM32F7xx_HAL_Driver/Src/stm32f7xx_hal_dma_ex.c ****                 #####  Extended features functions  #####
  79:Drivers/STM32F7xx_HAL_Driver/Src/stm32f7xx_hal_dma_ex.c ****  ===============================================================================  
  80:Drivers/STM32F7xx_HAL_Driver/Src/stm32f7xx_hal_dma_ex.c ****     [..]  This section provides functions allowing to:
  81:Drivers/STM32F7xx_HAL_Driver/Src/stm32f7xx_hal_dma_ex.c ****       (+) Configure the source, destination address and data length and 
  82:Drivers/STM32F7xx_HAL_Driver/Src/stm32f7xx_hal_dma_ex.c ****           Start MultiBuffer DMA transfer
  83:Drivers/STM32F7xx_HAL_Driver/Src/stm32f7xx_hal_dma_ex.c ****       (+) Configure the source, destination address and data length and 
  84:Drivers/STM32F7xx_HAL_Driver/Src/stm32f7xx_hal_dma_ex.c ****           Start MultiBuffer DMA transfer with interrupt
  85:Drivers/STM32F7xx_HAL_Driver/Src/stm32f7xx_hal_dma_ex.c ****       (+) Change on the fly the memory0 or memory1 address.
  86:Drivers/STM32F7xx_HAL_Driver/Src/stm32f7xx_hal_dma_ex.c ****       
  87:Drivers/STM32F7xx_HAL_Driver/Src/stm32f7xx_hal_dma_ex.c **** @endverbatim
ARM GAS  /tmp/ccf9br4W.s 			page 3


  88:Drivers/STM32F7xx_HAL_Driver/Src/stm32f7xx_hal_dma_ex.c ****   * @{
  89:Drivers/STM32F7xx_HAL_Driver/Src/stm32f7xx_hal_dma_ex.c ****   */
  90:Drivers/STM32F7xx_HAL_Driver/Src/stm32f7xx_hal_dma_ex.c **** 
  91:Drivers/STM32F7xx_HAL_Driver/Src/stm32f7xx_hal_dma_ex.c **** 
  92:Drivers/STM32F7xx_HAL_Driver/Src/stm32f7xx_hal_dma_ex.c **** /**
  93:Drivers/STM32F7xx_HAL_Driver/Src/stm32f7xx_hal_dma_ex.c ****   * @brief  Starts the multi_buffer DMA Transfer.
  94:Drivers/STM32F7xx_HAL_Driver/Src/stm32f7xx_hal_dma_ex.c ****   * @param  hdma       pointer to a DMA_HandleTypeDef structure that contains
  95:Drivers/STM32F7xx_HAL_Driver/Src/stm32f7xx_hal_dma_ex.c ****   *                     the configuration information for the specified DMA Stream.  
  96:Drivers/STM32F7xx_HAL_Driver/Src/stm32f7xx_hal_dma_ex.c ****   * @param  SrcAddress The source memory Buffer address
  97:Drivers/STM32F7xx_HAL_Driver/Src/stm32f7xx_hal_dma_ex.c ****   * @param  DstAddress The destination memory Buffer address
  98:Drivers/STM32F7xx_HAL_Driver/Src/stm32f7xx_hal_dma_ex.c ****   * @param  SecondMemAddress The second memory Buffer address in case of multi buffer Transfer  
  99:Drivers/STM32F7xx_HAL_Driver/Src/stm32f7xx_hal_dma_ex.c ****   * @param  DataLength The length of data to be transferred from source to destination
 100:Drivers/STM32F7xx_HAL_Driver/Src/stm32f7xx_hal_dma_ex.c ****   * @retval HAL status
 101:Drivers/STM32F7xx_HAL_Driver/Src/stm32f7xx_hal_dma_ex.c ****   */
 102:Drivers/STM32F7xx_HAL_Driver/Src/stm32f7xx_hal_dma_ex.c **** HAL_StatusTypeDef HAL_DMAEx_MultiBufferStart(DMA_HandleTypeDef *hdma, uint32_t SrcAddress, uint32_t
 103:Drivers/STM32F7xx_HAL_Driver/Src/stm32f7xx_hal_dma_ex.c **** {
 104:Drivers/STM32F7xx_HAL_Driver/Src/stm32f7xx_hal_dma_ex.c ****   HAL_StatusTypeDef status = HAL_OK;
 105:Drivers/STM32F7xx_HAL_Driver/Src/stm32f7xx_hal_dma_ex.c ****   
 106:Drivers/STM32F7xx_HAL_Driver/Src/stm32f7xx_hal_dma_ex.c ****   /* Check the parameters */
 107:Drivers/STM32F7xx_HAL_Driver/Src/stm32f7xx_hal_dma_ex.c ****   assert_param(IS_DMA_BUFFER_SIZE(DataLength));
 108:Drivers/STM32F7xx_HAL_Driver/Src/stm32f7xx_hal_dma_ex.c ****   
 109:Drivers/STM32F7xx_HAL_Driver/Src/stm32f7xx_hal_dma_ex.c ****   /* Memory-to-memory transfer not supported in double buffering mode */
 110:Drivers/STM32F7xx_HAL_Driver/Src/stm32f7xx_hal_dma_ex.c ****   if (hdma->Init.Direction == DMA_MEMORY_TO_MEMORY)
 111:Drivers/STM32F7xx_HAL_Driver/Src/stm32f7xx_hal_dma_ex.c ****   {
 112:Drivers/STM32F7xx_HAL_Driver/Src/stm32f7xx_hal_dma_ex.c ****     hdma->ErrorCode = HAL_DMA_ERROR_NOT_SUPPORTED;
 113:Drivers/STM32F7xx_HAL_Driver/Src/stm32f7xx_hal_dma_ex.c ****     status = HAL_ERROR;
 114:Drivers/STM32F7xx_HAL_Driver/Src/stm32f7xx_hal_dma_ex.c ****   }
 115:Drivers/STM32F7xx_HAL_Driver/Src/stm32f7xx_hal_dma_ex.c ****   else
 116:Drivers/STM32F7xx_HAL_Driver/Src/stm32f7xx_hal_dma_ex.c ****   {
 117:Drivers/STM32F7xx_HAL_Driver/Src/stm32f7xx_hal_dma_ex.c ****     /* Process Locked */
 118:Drivers/STM32F7xx_HAL_Driver/Src/stm32f7xx_hal_dma_ex.c ****     __HAL_LOCK(hdma);
 119:Drivers/STM32F7xx_HAL_Driver/Src/stm32f7xx_hal_dma_ex.c ****     
 120:Drivers/STM32F7xx_HAL_Driver/Src/stm32f7xx_hal_dma_ex.c ****     if(HAL_DMA_STATE_READY == hdma->State)
 121:Drivers/STM32F7xx_HAL_Driver/Src/stm32f7xx_hal_dma_ex.c ****     {
 122:Drivers/STM32F7xx_HAL_Driver/Src/stm32f7xx_hal_dma_ex.c ****       /* Change DMA peripheral state */
 123:Drivers/STM32F7xx_HAL_Driver/Src/stm32f7xx_hal_dma_ex.c ****       hdma->State = HAL_DMA_STATE_BUSY; 
 124:Drivers/STM32F7xx_HAL_Driver/Src/stm32f7xx_hal_dma_ex.c ****       
 125:Drivers/STM32F7xx_HAL_Driver/Src/stm32f7xx_hal_dma_ex.c ****       /* Enable the double buffer mode */
 126:Drivers/STM32F7xx_HAL_Driver/Src/stm32f7xx_hal_dma_ex.c ****       hdma->Instance->CR |= (uint32_t)DMA_SxCR_DBM;
 127:Drivers/STM32F7xx_HAL_Driver/Src/stm32f7xx_hal_dma_ex.c ****       
 128:Drivers/STM32F7xx_HAL_Driver/Src/stm32f7xx_hal_dma_ex.c ****       /* Configure DMA Stream destination address */
 129:Drivers/STM32F7xx_HAL_Driver/Src/stm32f7xx_hal_dma_ex.c ****       hdma->Instance->M1AR = SecondMemAddress;
 130:Drivers/STM32F7xx_HAL_Driver/Src/stm32f7xx_hal_dma_ex.c ****       
 131:Drivers/STM32F7xx_HAL_Driver/Src/stm32f7xx_hal_dma_ex.c ****       /* Configure the source, destination address and the data length */
 132:Drivers/STM32F7xx_HAL_Driver/Src/stm32f7xx_hal_dma_ex.c ****       DMA_MultiBufferSetConfig(hdma, SrcAddress, DstAddress, DataLength);
 133:Drivers/STM32F7xx_HAL_Driver/Src/stm32f7xx_hal_dma_ex.c ****       
 134:Drivers/STM32F7xx_HAL_Driver/Src/stm32f7xx_hal_dma_ex.c ****       /* Enable the peripheral */
 135:Drivers/STM32F7xx_HAL_Driver/Src/stm32f7xx_hal_dma_ex.c ****       __HAL_DMA_ENABLE(hdma);
 136:Drivers/STM32F7xx_HAL_Driver/Src/stm32f7xx_hal_dma_ex.c ****     }
 137:Drivers/STM32F7xx_HAL_Driver/Src/stm32f7xx_hal_dma_ex.c ****     else
 138:Drivers/STM32F7xx_HAL_Driver/Src/stm32f7xx_hal_dma_ex.c ****     {
 139:Drivers/STM32F7xx_HAL_Driver/Src/stm32f7xx_hal_dma_ex.c ****       /* Return error status */
 140:Drivers/STM32F7xx_HAL_Driver/Src/stm32f7xx_hal_dma_ex.c ****       status = HAL_BUSY;
 141:Drivers/STM32F7xx_HAL_Driver/Src/stm32f7xx_hal_dma_ex.c ****     }
 142:Drivers/STM32F7xx_HAL_Driver/Src/stm32f7xx_hal_dma_ex.c ****   }
 143:Drivers/STM32F7xx_HAL_Driver/Src/stm32f7xx_hal_dma_ex.c ****   return status;
 144:Drivers/STM32F7xx_HAL_Driver/Src/stm32f7xx_hal_dma_ex.c **** }
ARM GAS  /tmp/ccf9br4W.s 			page 4


 145:Drivers/STM32F7xx_HAL_Driver/Src/stm32f7xx_hal_dma_ex.c **** 
 146:Drivers/STM32F7xx_HAL_Driver/Src/stm32f7xx_hal_dma_ex.c **** /**
 147:Drivers/STM32F7xx_HAL_Driver/Src/stm32f7xx_hal_dma_ex.c ****   * @brief  Starts the multi_buffer DMA Transfer with interrupt enabled.
 148:Drivers/STM32F7xx_HAL_Driver/Src/stm32f7xx_hal_dma_ex.c ****   * @param  hdma       pointer to a DMA_HandleTypeDef structure that contains
 149:Drivers/STM32F7xx_HAL_Driver/Src/stm32f7xx_hal_dma_ex.c ****   *                     the configuration information for the specified DMA Stream.  
 150:Drivers/STM32F7xx_HAL_Driver/Src/stm32f7xx_hal_dma_ex.c ****   * @param  SrcAddress The source memory Buffer address
 151:Drivers/STM32F7xx_HAL_Driver/Src/stm32f7xx_hal_dma_ex.c ****   * @param  DstAddress The destination memory Buffer address
 152:Drivers/STM32F7xx_HAL_Driver/Src/stm32f7xx_hal_dma_ex.c ****   * @param  SecondMemAddress The second memory Buffer address in case of multi buffer Transfer  
 153:Drivers/STM32F7xx_HAL_Driver/Src/stm32f7xx_hal_dma_ex.c ****   * @param  DataLength The length of data to be transferred from source to destination
 154:Drivers/STM32F7xx_HAL_Driver/Src/stm32f7xx_hal_dma_ex.c ****   * @retval HAL status
 155:Drivers/STM32F7xx_HAL_Driver/Src/stm32f7xx_hal_dma_ex.c ****   */
 156:Drivers/STM32F7xx_HAL_Driver/Src/stm32f7xx_hal_dma_ex.c **** HAL_StatusTypeDef HAL_DMAEx_MultiBufferStart_IT(DMA_HandleTypeDef *hdma, uint32_t SrcAddress, uint3
 157:Drivers/STM32F7xx_HAL_Driver/Src/stm32f7xx_hal_dma_ex.c **** {
 158:Drivers/STM32F7xx_HAL_Driver/Src/stm32f7xx_hal_dma_ex.c ****   HAL_StatusTypeDef status = HAL_OK;
 159:Drivers/STM32F7xx_HAL_Driver/Src/stm32f7xx_hal_dma_ex.c ****   
 160:Drivers/STM32F7xx_HAL_Driver/Src/stm32f7xx_hal_dma_ex.c ****   /* Check the parameters */
 161:Drivers/STM32F7xx_HAL_Driver/Src/stm32f7xx_hal_dma_ex.c ****   assert_param(IS_DMA_BUFFER_SIZE(DataLength));
 162:Drivers/STM32F7xx_HAL_Driver/Src/stm32f7xx_hal_dma_ex.c ****   
 163:Drivers/STM32F7xx_HAL_Driver/Src/stm32f7xx_hal_dma_ex.c ****   /* Memory-to-memory transfer not supported in double buffering mode */
 164:Drivers/STM32F7xx_HAL_Driver/Src/stm32f7xx_hal_dma_ex.c ****   if (hdma->Init.Direction == DMA_MEMORY_TO_MEMORY)
 165:Drivers/STM32F7xx_HAL_Driver/Src/stm32f7xx_hal_dma_ex.c ****   {
 166:Drivers/STM32F7xx_HAL_Driver/Src/stm32f7xx_hal_dma_ex.c ****     hdma->ErrorCode = HAL_DMA_ERROR_NOT_SUPPORTED;
 167:Drivers/STM32F7xx_HAL_Driver/Src/stm32f7xx_hal_dma_ex.c ****     return HAL_ERROR;
 168:Drivers/STM32F7xx_HAL_Driver/Src/stm32f7xx_hal_dma_ex.c ****   }
 169:Drivers/STM32F7xx_HAL_Driver/Src/stm32f7xx_hal_dma_ex.c ****   
 170:Drivers/STM32F7xx_HAL_Driver/Src/stm32f7xx_hal_dma_ex.c ****   /* Process locked */
 171:Drivers/STM32F7xx_HAL_Driver/Src/stm32f7xx_hal_dma_ex.c ****   __HAL_LOCK(hdma);
 172:Drivers/STM32F7xx_HAL_Driver/Src/stm32f7xx_hal_dma_ex.c ****   
 173:Drivers/STM32F7xx_HAL_Driver/Src/stm32f7xx_hal_dma_ex.c ****   if(HAL_DMA_STATE_READY == hdma->State)
 174:Drivers/STM32F7xx_HAL_Driver/Src/stm32f7xx_hal_dma_ex.c ****   {
 175:Drivers/STM32F7xx_HAL_Driver/Src/stm32f7xx_hal_dma_ex.c ****     /* Change DMA peripheral state */
 176:Drivers/STM32F7xx_HAL_Driver/Src/stm32f7xx_hal_dma_ex.c ****     hdma->State = HAL_DMA_STATE_BUSY;
 177:Drivers/STM32F7xx_HAL_Driver/Src/stm32f7xx_hal_dma_ex.c ****     
 178:Drivers/STM32F7xx_HAL_Driver/Src/stm32f7xx_hal_dma_ex.c ****     /* Initialize the error code */
 179:Drivers/STM32F7xx_HAL_Driver/Src/stm32f7xx_hal_dma_ex.c ****     hdma->ErrorCode = HAL_DMA_ERROR_NONE;
 180:Drivers/STM32F7xx_HAL_Driver/Src/stm32f7xx_hal_dma_ex.c ****     
 181:Drivers/STM32F7xx_HAL_Driver/Src/stm32f7xx_hal_dma_ex.c ****     /* Enable the Double buffer mode */
 182:Drivers/STM32F7xx_HAL_Driver/Src/stm32f7xx_hal_dma_ex.c ****     hdma->Instance->CR |= (uint32_t)DMA_SxCR_DBM;
 183:Drivers/STM32F7xx_HAL_Driver/Src/stm32f7xx_hal_dma_ex.c ****     
 184:Drivers/STM32F7xx_HAL_Driver/Src/stm32f7xx_hal_dma_ex.c ****     /* Configure DMA Stream destination address */
 185:Drivers/STM32F7xx_HAL_Driver/Src/stm32f7xx_hal_dma_ex.c ****     hdma->Instance->M1AR = SecondMemAddress;
 186:Drivers/STM32F7xx_HAL_Driver/Src/stm32f7xx_hal_dma_ex.c ****     
 187:Drivers/STM32F7xx_HAL_Driver/Src/stm32f7xx_hal_dma_ex.c ****     /* Configure the source, destination address and the data length */
 188:Drivers/STM32F7xx_HAL_Driver/Src/stm32f7xx_hal_dma_ex.c ****     DMA_MultiBufferSetConfig(hdma, SrcAddress, DstAddress, DataLength); 
 189:Drivers/STM32F7xx_HAL_Driver/Src/stm32f7xx_hal_dma_ex.c ****     
 190:Drivers/STM32F7xx_HAL_Driver/Src/stm32f7xx_hal_dma_ex.c ****     /* Clear all flags */
 191:Drivers/STM32F7xx_HAL_Driver/Src/stm32f7xx_hal_dma_ex.c ****     __HAL_DMA_CLEAR_FLAG (hdma, __HAL_DMA_GET_TC_FLAG_INDEX(hdma));
 192:Drivers/STM32F7xx_HAL_Driver/Src/stm32f7xx_hal_dma_ex.c ****     __HAL_DMA_CLEAR_FLAG (hdma, __HAL_DMA_GET_HT_FLAG_INDEX(hdma));
 193:Drivers/STM32F7xx_HAL_Driver/Src/stm32f7xx_hal_dma_ex.c ****     __HAL_DMA_CLEAR_FLAG (hdma, __HAL_DMA_GET_TE_FLAG_INDEX(hdma));
 194:Drivers/STM32F7xx_HAL_Driver/Src/stm32f7xx_hal_dma_ex.c ****     __HAL_DMA_CLEAR_FLAG (hdma, __HAL_DMA_GET_DME_FLAG_INDEX(hdma));
 195:Drivers/STM32F7xx_HAL_Driver/Src/stm32f7xx_hal_dma_ex.c ****     __HAL_DMA_CLEAR_FLAG (hdma, __HAL_DMA_GET_FE_FLAG_INDEX(hdma));
 196:Drivers/STM32F7xx_HAL_Driver/Src/stm32f7xx_hal_dma_ex.c ****     
 197:Drivers/STM32F7xx_HAL_Driver/Src/stm32f7xx_hal_dma_ex.c ****     /* Enable Common interrupts*/
 198:Drivers/STM32F7xx_HAL_Driver/Src/stm32f7xx_hal_dma_ex.c ****     hdma->Instance->CR  |= DMA_IT_TC | DMA_IT_TE | DMA_IT_DME;
 199:Drivers/STM32F7xx_HAL_Driver/Src/stm32f7xx_hal_dma_ex.c ****     hdma->Instance->FCR |= DMA_IT_FE;
 200:Drivers/STM32F7xx_HAL_Driver/Src/stm32f7xx_hal_dma_ex.c ****     
 201:Drivers/STM32F7xx_HAL_Driver/Src/stm32f7xx_hal_dma_ex.c ****     if((hdma->XferHalfCpltCallback != NULL) || (hdma->XferM1HalfCpltCallback != NULL))
ARM GAS  /tmp/ccf9br4W.s 			page 5


 202:Drivers/STM32F7xx_HAL_Driver/Src/stm32f7xx_hal_dma_ex.c ****     {
 203:Drivers/STM32F7xx_HAL_Driver/Src/stm32f7xx_hal_dma_ex.c ****       hdma->Instance->CR  |= DMA_IT_HT;
 204:Drivers/STM32F7xx_HAL_Driver/Src/stm32f7xx_hal_dma_ex.c ****     }
 205:Drivers/STM32F7xx_HAL_Driver/Src/stm32f7xx_hal_dma_ex.c ****     
 206:Drivers/STM32F7xx_HAL_Driver/Src/stm32f7xx_hal_dma_ex.c ****     /* Enable the peripheral */
 207:Drivers/STM32F7xx_HAL_Driver/Src/stm32f7xx_hal_dma_ex.c ****     __HAL_DMA_ENABLE(hdma); 
 208:Drivers/STM32F7xx_HAL_Driver/Src/stm32f7xx_hal_dma_ex.c ****   }
 209:Drivers/STM32F7xx_HAL_Driver/Src/stm32f7xx_hal_dma_ex.c ****   else
 210:Drivers/STM32F7xx_HAL_Driver/Src/stm32f7xx_hal_dma_ex.c ****   {     
 211:Drivers/STM32F7xx_HAL_Driver/Src/stm32f7xx_hal_dma_ex.c ****     /* Process unlocked */
 212:Drivers/STM32F7xx_HAL_Driver/Src/stm32f7xx_hal_dma_ex.c ****     __HAL_UNLOCK(hdma);	  
 213:Drivers/STM32F7xx_HAL_Driver/Src/stm32f7xx_hal_dma_ex.c ****     
 214:Drivers/STM32F7xx_HAL_Driver/Src/stm32f7xx_hal_dma_ex.c ****     /* Return error status */
 215:Drivers/STM32F7xx_HAL_Driver/Src/stm32f7xx_hal_dma_ex.c ****     status = HAL_BUSY;
 216:Drivers/STM32F7xx_HAL_Driver/Src/stm32f7xx_hal_dma_ex.c ****   }  
 217:Drivers/STM32F7xx_HAL_Driver/Src/stm32f7xx_hal_dma_ex.c ****   return status; 
 218:Drivers/STM32F7xx_HAL_Driver/Src/stm32f7xx_hal_dma_ex.c **** }
 219:Drivers/STM32F7xx_HAL_Driver/Src/stm32f7xx_hal_dma_ex.c **** 
 220:Drivers/STM32F7xx_HAL_Driver/Src/stm32f7xx_hal_dma_ex.c **** /**
 221:Drivers/STM32F7xx_HAL_Driver/Src/stm32f7xx_hal_dma_ex.c ****   * @brief  Change the memory0 or memory1 address on the fly.
 222:Drivers/STM32F7xx_HAL_Driver/Src/stm32f7xx_hal_dma_ex.c ****   * @param  hdma       pointer to a DMA_HandleTypeDef structure that contains
 223:Drivers/STM32F7xx_HAL_Driver/Src/stm32f7xx_hal_dma_ex.c ****   *                     the configuration information for the specified DMA Stream.  
 224:Drivers/STM32F7xx_HAL_Driver/Src/stm32f7xx_hal_dma_ex.c ****   * @param  Address    The new address
 225:Drivers/STM32F7xx_HAL_Driver/Src/stm32f7xx_hal_dma_ex.c ****   * @param  memory     the memory to be changed, This parameter can be one of 
 226:Drivers/STM32F7xx_HAL_Driver/Src/stm32f7xx_hal_dma_ex.c ****   *                     the following values:
 227:Drivers/STM32F7xx_HAL_Driver/Src/stm32f7xx_hal_dma_ex.c ****   *                      MEMORY0 /
 228:Drivers/STM32F7xx_HAL_Driver/Src/stm32f7xx_hal_dma_ex.c ****   *                      MEMORY1
 229:Drivers/STM32F7xx_HAL_Driver/Src/stm32f7xx_hal_dma_ex.c ****   * @note   The MEMORY0 address can be changed only when the current transfer use
 230:Drivers/STM32F7xx_HAL_Driver/Src/stm32f7xx_hal_dma_ex.c ****   *         MEMORY1 and the MEMORY1 address can be changed only when the current 
 231:Drivers/STM32F7xx_HAL_Driver/Src/stm32f7xx_hal_dma_ex.c ****   *         transfer use MEMORY0.
 232:Drivers/STM32F7xx_HAL_Driver/Src/stm32f7xx_hal_dma_ex.c ****   * @retval HAL status
 233:Drivers/STM32F7xx_HAL_Driver/Src/stm32f7xx_hal_dma_ex.c ****   */
 234:Drivers/STM32F7xx_HAL_Driver/Src/stm32f7xx_hal_dma_ex.c **** HAL_StatusTypeDef HAL_DMAEx_ChangeMemory(DMA_HandleTypeDef *hdma, uint32_t Address, HAL_DMA_MemoryT
 235:Drivers/STM32F7xx_HAL_Driver/Src/stm32f7xx_hal_dma_ex.c **** {
 236:Drivers/STM32F7xx_HAL_Driver/Src/stm32f7xx_hal_dma_ex.c ****   if(memory == MEMORY0)
 237:Drivers/STM32F7xx_HAL_Driver/Src/stm32f7xx_hal_dma_ex.c ****   {
 238:Drivers/STM32F7xx_HAL_Driver/Src/stm32f7xx_hal_dma_ex.c ****     /* change the memory0 address */
 239:Drivers/STM32F7xx_HAL_Driver/Src/stm32f7xx_hal_dma_ex.c ****     hdma->Instance->M0AR = Address;
 240:Drivers/STM32F7xx_HAL_Driver/Src/stm32f7xx_hal_dma_ex.c ****   }
 241:Drivers/STM32F7xx_HAL_Driver/Src/stm32f7xx_hal_dma_ex.c ****   else
 242:Drivers/STM32F7xx_HAL_Driver/Src/stm32f7xx_hal_dma_ex.c ****   {
 243:Drivers/STM32F7xx_HAL_Driver/Src/stm32f7xx_hal_dma_ex.c ****     /* change the memory1 address */
 244:Drivers/STM32F7xx_HAL_Driver/Src/stm32f7xx_hal_dma_ex.c ****     hdma->Instance->M1AR = Address;
 245:Drivers/STM32F7xx_HAL_Driver/Src/stm32f7xx_hal_dma_ex.c ****   }
 246:Drivers/STM32F7xx_HAL_Driver/Src/stm32f7xx_hal_dma_ex.c ****   
 247:Drivers/STM32F7xx_HAL_Driver/Src/stm32f7xx_hal_dma_ex.c ****   return HAL_OK;
 248:Drivers/STM32F7xx_HAL_Driver/Src/stm32f7xx_hal_dma_ex.c **** }
 249:Drivers/STM32F7xx_HAL_Driver/Src/stm32f7xx_hal_dma_ex.c **** 
 250:Drivers/STM32F7xx_HAL_Driver/Src/stm32f7xx_hal_dma_ex.c **** /**
 251:Drivers/STM32F7xx_HAL_Driver/Src/stm32f7xx_hal_dma_ex.c ****   * @}
 252:Drivers/STM32F7xx_HAL_Driver/Src/stm32f7xx_hal_dma_ex.c ****   */
 253:Drivers/STM32F7xx_HAL_Driver/Src/stm32f7xx_hal_dma_ex.c **** 
 254:Drivers/STM32F7xx_HAL_Driver/Src/stm32f7xx_hal_dma_ex.c **** /**
 255:Drivers/STM32F7xx_HAL_Driver/Src/stm32f7xx_hal_dma_ex.c ****   * @}
 256:Drivers/STM32F7xx_HAL_Driver/Src/stm32f7xx_hal_dma_ex.c ****   */
 257:Drivers/STM32F7xx_HAL_Driver/Src/stm32f7xx_hal_dma_ex.c **** 
 258:Drivers/STM32F7xx_HAL_Driver/Src/stm32f7xx_hal_dma_ex.c **** /** @addtogroup DMAEx_Private_Functions
ARM GAS  /tmp/ccf9br4W.s 			page 6


 259:Drivers/STM32F7xx_HAL_Driver/Src/stm32f7xx_hal_dma_ex.c ****   * @{
 260:Drivers/STM32F7xx_HAL_Driver/Src/stm32f7xx_hal_dma_ex.c ****   */
 261:Drivers/STM32F7xx_HAL_Driver/Src/stm32f7xx_hal_dma_ex.c **** 
 262:Drivers/STM32F7xx_HAL_Driver/Src/stm32f7xx_hal_dma_ex.c **** /**
 263:Drivers/STM32F7xx_HAL_Driver/Src/stm32f7xx_hal_dma_ex.c ****   * @brief  Set the DMA Transfer parameter.
 264:Drivers/STM32F7xx_HAL_Driver/Src/stm32f7xx_hal_dma_ex.c ****   * @param  hdma       pointer to a DMA_HandleTypeDef structure that contains
 265:Drivers/STM32F7xx_HAL_Driver/Src/stm32f7xx_hal_dma_ex.c ****   *                     the configuration information for the specified DMA Stream.  
 266:Drivers/STM32F7xx_HAL_Driver/Src/stm32f7xx_hal_dma_ex.c ****   * @param  SrcAddress The source memory Buffer address
 267:Drivers/STM32F7xx_HAL_Driver/Src/stm32f7xx_hal_dma_ex.c ****   * @param  DstAddress The destination memory Buffer address
 268:Drivers/STM32F7xx_HAL_Driver/Src/stm32f7xx_hal_dma_ex.c ****   * @param  DataLength The length of data to be transferred from source to destination
 269:Drivers/STM32F7xx_HAL_Driver/Src/stm32f7xx_hal_dma_ex.c ****   * @retval HAL status
 270:Drivers/STM32F7xx_HAL_Driver/Src/stm32f7xx_hal_dma_ex.c ****   */
 271:Drivers/STM32F7xx_HAL_Driver/Src/stm32f7xx_hal_dma_ex.c **** static void DMA_MultiBufferSetConfig(DMA_HandleTypeDef *hdma, uint32_t SrcAddress, uint32_t DstAddr
 272:Drivers/STM32F7xx_HAL_Driver/Src/stm32f7xx_hal_dma_ex.c **** {
  29              		.loc 1 272 1 view -0
  30              		.cfi_startproc
  31              		@ args = 0, pretend = 0, frame = 0
  32              		@ frame_needed = 0, uses_anonymous_args = 0
  33              		@ link register save eliminated.
  34              		.loc 1 272 1 is_stmt 0 view .LVU1
  35 0000 10B4     		push	{r4}
  36              		.cfi_def_cfa_offset 4
  37              		.cfi_offset 4, -4
 273:Drivers/STM32F7xx_HAL_Driver/Src/stm32f7xx_hal_dma_ex.c ****   /* Configure DMA Stream data length */
 274:Drivers/STM32F7xx_HAL_Driver/Src/stm32f7xx_hal_dma_ex.c ****   hdma->Instance->NDTR = DataLength;
  38              		.loc 1 274 3 is_stmt 1 view .LVU2
  39              		.loc 1 274 24 is_stmt 0 view .LVU3
  40 0002 0468     		ldr	r4, [r0]
  41 0004 6360     		str	r3, [r4, #4]
 275:Drivers/STM32F7xx_HAL_Driver/Src/stm32f7xx_hal_dma_ex.c ****   
 276:Drivers/STM32F7xx_HAL_Driver/Src/stm32f7xx_hal_dma_ex.c ****   /* Peripheral to Memory */
 277:Drivers/STM32F7xx_HAL_Driver/Src/stm32f7xx_hal_dma_ex.c ****   if((hdma->Init.Direction) == DMA_MEMORY_TO_PERIPH)
  42              		.loc 1 277 3 is_stmt 1 view .LVU4
  43              		.loc 1 277 17 is_stmt 0 view .LVU5
  44 0006 8368     		ldr	r3, [r0, #8]
  45              	.LVL1:
  46              		.loc 1 277 5 view .LVU6
  47 0008 402B     		cmp	r3, #64
  48 000a 06D0     		beq	.L5
 278:Drivers/STM32F7xx_HAL_Driver/Src/stm32f7xx_hal_dma_ex.c ****   {
 279:Drivers/STM32F7xx_HAL_Driver/Src/stm32f7xx_hal_dma_ex.c ****     /* Configure DMA Stream destination address */
 280:Drivers/STM32F7xx_HAL_Driver/Src/stm32f7xx_hal_dma_ex.c ****     hdma->Instance->PAR = DstAddress;
 281:Drivers/STM32F7xx_HAL_Driver/Src/stm32f7xx_hal_dma_ex.c ****     
 282:Drivers/STM32F7xx_HAL_Driver/Src/stm32f7xx_hal_dma_ex.c ****     /* Configure DMA Stream source address */
 283:Drivers/STM32F7xx_HAL_Driver/Src/stm32f7xx_hal_dma_ex.c ****     hdma->Instance->M0AR = SrcAddress;
 284:Drivers/STM32F7xx_HAL_Driver/Src/stm32f7xx_hal_dma_ex.c ****   }
 285:Drivers/STM32F7xx_HAL_Driver/Src/stm32f7xx_hal_dma_ex.c ****   /* Memory to Peripheral */
 286:Drivers/STM32F7xx_HAL_Driver/Src/stm32f7xx_hal_dma_ex.c ****   else
 287:Drivers/STM32F7xx_HAL_Driver/Src/stm32f7xx_hal_dma_ex.c ****   {
 288:Drivers/STM32F7xx_HAL_Driver/Src/stm32f7xx_hal_dma_ex.c ****     /* Configure DMA Stream source address */
 289:Drivers/STM32F7xx_HAL_Driver/Src/stm32f7xx_hal_dma_ex.c ****     hdma->Instance->PAR = SrcAddress;
  49              		.loc 1 289 5 is_stmt 1 view .LVU7
  50              		.loc 1 289 9 is_stmt 0 view .LVU8
  51 000c 0368     		ldr	r3, [r0]
  52              		.loc 1 289 25 view .LVU9
  53 000e 9960     		str	r1, [r3, #8]
  54              	.LVL2:
ARM GAS  /tmp/ccf9br4W.s 			page 7


 290:Drivers/STM32F7xx_HAL_Driver/Src/stm32f7xx_hal_dma_ex.c ****     
 291:Drivers/STM32F7xx_HAL_Driver/Src/stm32f7xx_hal_dma_ex.c ****     /* Configure DMA Stream destination address */
 292:Drivers/STM32F7xx_HAL_Driver/Src/stm32f7xx_hal_dma_ex.c ****     hdma->Instance->M0AR = DstAddress;
  55              		.loc 1 292 5 is_stmt 1 view .LVU10
  56              		.loc 1 292 9 is_stmt 0 view .LVU11
  57 0010 0368     		ldr	r3, [r0]
  58              		.loc 1 292 26 view .LVU12
  59 0012 DA60     		str	r2, [r3, #12]
  60              	.L1:
 293:Drivers/STM32F7xx_HAL_Driver/Src/stm32f7xx_hal_dma_ex.c ****   }
 294:Drivers/STM32F7xx_HAL_Driver/Src/stm32f7xx_hal_dma_ex.c **** }
  61              		.loc 1 294 1 view .LVU13
  62 0014 5DF8044B 		ldr	r4, [sp], #4
  63              		.cfi_remember_state
  64              		.cfi_restore 4
  65              		.cfi_def_cfa_offset 0
  66 0018 7047     		bx	lr
  67              	.LVL3:
  68              	.L5:
  69              		.cfi_restore_state
 280:Drivers/STM32F7xx_HAL_Driver/Src/stm32f7xx_hal_dma_ex.c ****     
  70              		.loc 1 280 5 is_stmt 1 view .LVU14
 280:Drivers/STM32F7xx_HAL_Driver/Src/stm32f7xx_hal_dma_ex.c ****     
  71              		.loc 1 280 9 is_stmt 0 view .LVU15
  72 001a 0368     		ldr	r3, [r0]
 280:Drivers/STM32F7xx_HAL_Driver/Src/stm32f7xx_hal_dma_ex.c ****     
  73              		.loc 1 280 25 view .LVU16
  74 001c 9A60     		str	r2, [r3, #8]
  75              	.LVL4:
 283:Drivers/STM32F7xx_HAL_Driver/Src/stm32f7xx_hal_dma_ex.c ****   }
  76              		.loc 1 283 5 is_stmt 1 view .LVU17
 283:Drivers/STM32F7xx_HAL_Driver/Src/stm32f7xx_hal_dma_ex.c ****   }
  77              		.loc 1 283 9 is_stmt 0 view .LVU18
  78 001e 0368     		ldr	r3, [r0]
 283:Drivers/STM32F7xx_HAL_Driver/Src/stm32f7xx_hal_dma_ex.c ****   }
  79              		.loc 1 283 26 view .LVU19
  80 0020 D960     		str	r1, [r3, #12]
  81 0022 F7E7     		b	.L1
  82              		.cfi_endproc
  83              	.LFE144:
  85              		.section	.text.HAL_DMAEx_MultiBufferStart,"ax",%progbits
  86              		.align	1
  87              		.global	HAL_DMAEx_MultiBufferStart
  88              		.syntax unified
  89              		.thumb
  90              		.thumb_func
  92              	HAL_DMAEx_MultiBufferStart:
  93              	.LVL5:
  94              	.LFB141:
 103:Drivers/STM32F7xx_HAL_Driver/Src/stm32f7xx_hal_dma_ex.c ****   HAL_StatusTypeDef status = HAL_OK;
  95              		.loc 1 103 1 is_stmt 1 view -0
  96              		.cfi_startproc
  97              		@ args = 4, pretend = 0, frame = 0
  98              		@ frame_needed = 0, uses_anonymous_args = 0
 103:Drivers/STM32F7xx_HAL_Driver/Src/stm32f7xx_hal_dma_ex.c ****   HAL_StatusTypeDef status = HAL_OK;
  99              		.loc 1 103 1 is_stmt 0 view .LVU21
 100 0000 38B5     		push	{r3, r4, r5, lr}
ARM GAS  /tmp/ccf9br4W.s 			page 8


 101              		.cfi_def_cfa_offset 16
 102              		.cfi_offset 3, -16
 103              		.cfi_offset 4, -12
 104              		.cfi_offset 5, -8
 105              		.cfi_offset 14, -4
 106 0002 0446     		mov	r4, r0
 104:Drivers/STM32F7xx_HAL_Driver/Src/stm32f7xx_hal_dma_ex.c ****   
 107              		.loc 1 104 3 is_stmt 1 view .LVU22
 108              	.LVL6:
 107:Drivers/STM32F7xx_HAL_Driver/Src/stm32f7xx_hal_dma_ex.c ****   
 109              		.loc 1 107 3 view .LVU23
 110:Drivers/STM32F7xx_HAL_Driver/Src/stm32f7xx_hal_dma_ex.c ****   {
 110              		.loc 1 110 3 view .LVU24
 110:Drivers/STM32F7xx_HAL_Driver/Src/stm32f7xx_hal_dma_ex.c ****   {
 111              		.loc 1 110 17 is_stmt 0 view .LVU25
 112 0004 8068     		ldr	r0, [r0, #8]
 113              	.LVL7:
 110:Drivers/STM32F7xx_HAL_Driver/Src/stm32f7xx_hal_dma_ex.c ****   {
 114              		.loc 1 110 6 view .LVU26
 115 0006 8028     		cmp	r0, #128
 116 0008 0DD0     		beq	.L12
 118:Drivers/STM32F7xx_HAL_Driver/Src/stm32f7xx_hal_dma_ex.c ****     
 117              		.loc 1 118 5 is_stmt 1 view .LVU27
 118:Drivers/STM32F7xx_HAL_Driver/Src/stm32f7xx_hal_dma_ex.c ****     
 118              		.loc 1 118 5 view .LVU28
 119 000a 94F83400 		ldrb	r0, [r4, #52]	@ zero_extendqisi2
 120 000e 0128     		cmp	r0, #1
 121 0010 23D0     		beq	.L9
 118:Drivers/STM32F7xx_HAL_Driver/Src/stm32f7xx_hal_dma_ex.c ****     
 122              		.loc 1 118 5 discriminator 2 view .LVU29
 123 0012 0120     		movs	r0, #1
 124 0014 84F83400 		strb	r0, [r4, #52]
 118:Drivers/STM32F7xx_HAL_Driver/Src/stm32f7xx_hal_dma_ex.c ****     
 125              		.loc 1 118 5 discriminator 2 view .LVU30
 120:Drivers/STM32F7xx_HAL_Driver/Src/stm32f7xx_hal_dma_ex.c ****     {
 126              		.loc 1 120 5 discriminator 2 view .LVU31
 120:Drivers/STM32F7xx_HAL_Driver/Src/stm32f7xx_hal_dma_ex.c ****     {
 127              		.loc 1 120 35 is_stmt 0 discriminator 2 view .LVU32
 128 0018 94F83500 		ldrb	r0, [r4, #53]	@ zero_extendqisi2
 129 001c C0B2     		uxtb	r0, r0
 120:Drivers/STM32F7xx_HAL_Driver/Src/stm32f7xx_hal_dma_ex.c ****     {
 130              		.loc 1 120 7 discriminator 2 view .LVU33
 131 001e 0128     		cmp	r0, #1
 132 0020 06D0     		beq	.L13
 140:Drivers/STM32F7xx_HAL_Driver/Src/stm32f7xx_hal_dma_ex.c ****     }
 133              		.loc 1 140 14 view .LVU34
 134 0022 0220     		movs	r0, #2
 135              	.LVL8:
 136              	.L8:
 144:Drivers/STM32F7xx_HAL_Driver/Src/stm32f7xx_hal_dma_ex.c **** 
 137              		.loc 1 144 1 view .LVU35
 138 0024 38BD     		pop	{r3, r4, r5, pc}
 139              	.LVL9:
 140              	.L12:
 112:Drivers/STM32F7xx_HAL_Driver/Src/stm32f7xx_hal_dma_ex.c ****     status = HAL_ERROR;
 141              		.loc 1 112 5 is_stmt 1 view .LVU36
 112:Drivers/STM32F7xx_HAL_Driver/Src/stm32f7xx_hal_dma_ex.c ****     status = HAL_ERROR;
ARM GAS  /tmp/ccf9br4W.s 			page 9


 142              		.loc 1 112 21 is_stmt 0 view .LVU37
 143 0026 4FF48073 		mov	r3, #256
 144              	.LVL10:
 112:Drivers/STM32F7xx_HAL_Driver/Src/stm32f7xx_hal_dma_ex.c ****     status = HAL_ERROR;
 145              		.loc 1 112 21 view .LVU38
 146 002a 6365     		str	r3, [r4, #84]
 113:Drivers/STM32F7xx_HAL_Driver/Src/stm32f7xx_hal_dma_ex.c ****   }
 147              		.loc 1 113 5 is_stmt 1 view .LVU39
 148              	.LVL11:
 113:Drivers/STM32F7xx_HAL_Driver/Src/stm32f7xx_hal_dma_ex.c ****   }
 149              		.loc 1 113 12 is_stmt 0 view .LVU40
 150 002c 0120     		movs	r0, #1
 151 002e F9E7     		b	.L8
 152              	.LVL12:
 153              	.L13:
 123:Drivers/STM32F7xx_HAL_Driver/Src/stm32f7xx_hal_dma_ex.c ****       
 154              		.loc 1 123 7 is_stmt 1 view .LVU41
 123:Drivers/STM32F7xx_HAL_Driver/Src/stm32f7xx_hal_dma_ex.c ****       
 155              		.loc 1 123 19 is_stmt 0 view .LVU42
 156 0030 0220     		movs	r0, #2
 157 0032 84F83500 		strb	r0, [r4, #53]
 126:Drivers/STM32F7xx_HAL_Driver/Src/stm32f7xx_hal_dma_ex.c ****       
 158              		.loc 1 126 7 is_stmt 1 view .LVU43
 126:Drivers/STM32F7xx_HAL_Driver/Src/stm32f7xx_hal_dma_ex.c ****       
 159              		.loc 1 126 11 is_stmt 0 view .LVU44
 160 0036 2568     		ldr	r5, [r4]
 126:Drivers/STM32F7xx_HAL_Driver/Src/stm32f7xx_hal_dma_ex.c ****       
 161              		.loc 1 126 21 view .LVU45
 162 0038 2868     		ldr	r0, [r5]
 126:Drivers/STM32F7xx_HAL_Driver/Src/stm32f7xx_hal_dma_ex.c ****       
 163              		.loc 1 126 26 view .LVU46
 164 003a 40F48020 		orr	r0, r0, #262144
 165 003e 2860     		str	r0, [r5]
 129:Drivers/STM32F7xx_HAL_Driver/Src/stm32f7xx_hal_dma_ex.c ****       
 166              		.loc 1 129 7 is_stmt 1 view .LVU47
 129:Drivers/STM32F7xx_HAL_Driver/Src/stm32f7xx_hal_dma_ex.c ****       
 167              		.loc 1 129 11 is_stmt 0 view .LVU48
 168 0040 2068     		ldr	r0, [r4]
 129:Drivers/STM32F7xx_HAL_Driver/Src/stm32f7xx_hal_dma_ex.c ****       
 169              		.loc 1 129 28 view .LVU49
 170 0042 0361     		str	r3, [r0, #16]
 132:Drivers/STM32F7xx_HAL_Driver/Src/stm32f7xx_hal_dma_ex.c ****       
 171              		.loc 1 132 7 is_stmt 1 view .LVU50
 172 0044 049B     		ldr	r3, [sp, #16]
 173              	.LVL13:
 132:Drivers/STM32F7xx_HAL_Driver/Src/stm32f7xx_hal_dma_ex.c ****       
 174              		.loc 1 132 7 is_stmt 0 view .LVU51
 175 0046 2046     		mov	r0, r4
 176              	.LVL14:
 132:Drivers/STM32F7xx_HAL_Driver/Src/stm32f7xx_hal_dma_ex.c ****       
 177              		.loc 1 132 7 view .LVU52
 178 0048 FFF7FEFF 		bl	DMA_MultiBufferSetConfig
 179              	.LVL15:
 135:Drivers/STM32F7xx_HAL_Driver/Src/stm32f7xx_hal_dma_ex.c ****     }
 180              		.loc 1 135 7 is_stmt 1 view .LVU53
 181 004c 2268     		ldr	r2, [r4]
 182 004e 1368     		ldr	r3, [r2]
ARM GAS  /tmp/ccf9br4W.s 			page 10


 183 0050 43F00103 		orr	r3, r3, #1
 184 0054 1360     		str	r3, [r2]
 104:Drivers/STM32F7xx_HAL_Driver/Src/stm32f7xx_hal_dma_ex.c ****   
 185              		.loc 1 104 21 is_stmt 0 view .LVU54
 186 0056 0020     		movs	r0, #0
 187 0058 E4E7     		b	.L8
 188              	.LVL16:
 189              	.L9:
 118:Drivers/STM32F7xx_HAL_Driver/Src/stm32f7xx_hal_dma_ex.c ****     
 190              		.loc 1 118 5 view .LVU55
 191 005a 0220     		movs	r0, #2
 192 005c E2E7     		b	.L8
 193              		.cfi_endproc
 194              	.LFE141:
 196              		.section	.text.HAL_DMAEx_MultiBufferStart_IT,"ax",%progbits
 197              		.align	1
 198              		.global	HAL_DMAEx_MultiBufferStart_IT
 199              		.syntax unified
 200              		.thumb
 201              		.thumb_func
 203              	HAL_DMAEx_MultiBufferStart_IT:
 204              	.LVL17:
 205              	.LFB142:
 157:Drivers/STM32F7xx_HAL_Driver/Src/stm32f7xx_hal_dma_ex.c ****   HAL_StatusTypeDef status = HAL_OK;
 206              		.loc 1 157 1 is_stmt 1 view -0
 207              		.cfi_startproc
 208              		@ args = 4, pretend = 0, frame = 0
 209              		@ frame_needed = 0, uses_anonymous_args = 0
 157:Drivers/STM32F7xx_HAL_Driver/Src/stm32f7xx_hal_dma_ex.c ****   HAL_StatusTypeDef status = HAL_OK;
 210              		.loc 1 157 1 is_stmt 0 view .LVU57
 211 0000 38B5     		push	{r3, r4, r5, lr}
 212              		.cfi_def_cfa_offset 16
 213              		.cfi_offset 3, -16
 214              		.cfi_offset 4, -12
 215              		.cfi_offset 5, -8
 216              		.cfi_offset 14, -4
 217 0002 0446     		mov	r4, r0
 158:Drivers/STM32F7xx_HAL_Driver/Src/stm32f7xx_hal_dma_ex.c ****   
 218              		.loc 1 158 3 is_stmt 1 view .LVU58
 219              	.LVL18:
 161:Drivers/STM32F7xx_HAL_Driver/Src/stm32f7xx_hal_dma_ex.c ****   
 220              		.loc 1 161 3 view .LVU59
 164:Drivers/STM32F7xx_HAL_Driver/Src/stm32f7xx_hal_dma_ex.c ****   {
 221              		.loc 1 164 3 view .LVU60
 164:Drivers/STM32F7xx_HAL_Driver/Src/stm32f7xx_hal_dma_ex.c ****   {
 222              		.loc 1 164 17 is_stmt 0 view .LVU61
 223 0004 8068     		ldr	r0, [r0, #8]
 224              	.LVL19:
 164:Drivers/STM32F7xx_HAL_Driver/Src/stm32f7xx_hal_dma_ex.c ****   {
 225              		.loc 1 164 6 view .LVU62
 226 0006 8028     		cmp	r0, #128
 227 0008 11D0     		beq	.L302
 171:Drivers/STM32F7xx_HAL_Driver/Src/stm32f7xx_hal_dma_ex.c ****   
 228              		.loc 1 171 3 is_stmt 1 view .LVU63
 171:Drivers/STM32F7xx_HAL_Driver/Src/stm32f7xx_hal_dma_ex.c ****   
 229              		.loc 1 171 3 view .LVU64
 230 000a 94F83400 		ldrb	r0, [r4, #52]	@ zero_extendqisi2
ARM GAS  /tmp/ccf9br4W.s 			page 11


 231 000e 0128     		cmp	r0, #1
 232 0010 00F06587 		beq	.L60
 171:Drivers/STM32F7xx_HAL_Driver/Src/stm32f7xx_hal_dma_ex.c ****   
 233              		.loc 1 171 3 discriminator 2 view .LVU65
 234 0014 0120     		movs	r0, #1
 235 0016 84F83400 		strb	r0, [r4, #52]
 171:Drivers/STM32F7xx_HAL_Driver/Src/stm32f7xx_hal_dma_ex.c ****   
 236              		.loc 1 171 3 discriminator 2 view .LVU66
 173:Drivers/STM32F7xx_HAL_Driver/Src/stm32f7xx_hal_dma_ex.c ****   {
 237              		.loc 1 173 3 discriminator 2 view .LVU67
 173:Drivers/STM32F7xx_HAL_Driver/Src/stm32f7xx_hal_dma_ex.c ****   {
 238              		.loc 1 173 33 is_stmt 0 discriminator 2 view .LVU68
 239 001a 94F83500 		ldrb	r0, [r4, #53]	@ zero_extendqisi2
 240 001e C0B2     		uxtb	r0, r0
 173:Drivers/STM32F7xx_HAL_Driver/Src/stm32f7xx_hal_dma_ex.c ****   {
 241              		.loc 1 173 5 discriminator 2 view .LVU69
 242 0020 0128     		cmp	r0, #1
 243 0022 09D0     		beq	.L303
 212:Drivers/STM32F7xx_HAL_Driver/Src/stm32f7xx_hal_dma_ex.c ****     
 244              		.loc 1 212 5 is_stmt 1 view .LVU70
 212:Drivers/STM32F7xx_HAL_Driver/Src/stm32f7xx_hal_dma_ex.c ****     
 245              		.loc 1 212 5 view .LVU71
 246 0024 0023     		movs	r3, #0
 247              	.LVL20:
 212:Drivers/STM32F7xx_HAL_Driver/Src/stm32f7xx_hal_dma_ex.c ****     
 248              		.loc 1 212 5 is_stmt 0 view .LVU72
 249 0026 84F83430 		strb	r3, [r4, #52]
 212:Drivers/STM32F7xx_HAL_Driver/Src/stm32f7xx_hal_dma_ex.c ****     
 250              		.loc 1 212 5 is_stmt 1 view .LVU73
 215:Drivers/STM32F7xx_HAL_Driver/Src/stm32f7xx_hal_dma_ex.c ****   }  
 251              		.loc 1 215 5 view .LVU74
 252              	.LVL21:
 215:Drivers/STM32F7xx_HAL_Driver/Src/stm32f7xx_hal_dma_ex.c ****   }  
 253              		.loc 1 215 12 is_stmt 0 view .LVU75
 254 002a 0220     		movs	r0, #2
 255              	.LVL22:
 256              	.L16:
 218:Drivers/STM32F7xx_HAL_Driver/Src/stm32f7xx_hal_dma_ex.c **** 
 257              		.loc 1 218 1 view .LVU76
 258 002c 38BD     		pop	{r3, r4, r5, pc}
 259              	.LVL23:
 260              	.L302:
 166:Drivers/STM32F7xx_HAL_Driver/Src/stm32f7xx_hal_dma_ex.c ****     return HAL_ERROR;
 261              		.loc 1 166 5 is_stmt 1 view .LVU77
 166:Drivers/STM32F7xx_HAL_Driver/Src/stm32f7xx_hal_dma_ex.c ****     return HAL_ERROR;
 262              		.loc 1 166 21 is_stmt 0 view .LVU78
 263 002e 4FF48073 		mov	r3, #256
 264              	.LVL24:
 166:Drivers/STM32F7xx_HAL_Driver/Src/stm32f7xx_hal_dma_ex.c ****     return HAL_ERROR;
 265              		.loc 1 166 21 view .LVU79
 266 0032 6365     		str	r3, [r4, #84]
 167:Drivers/STM32F7xx_HAL_Driver/Src/stm32f7xx_hal_dma_ex.c ****   }
 267              		.loc 1 167 5 is_stmt 1 view .LVU80
 167:Drivers/STM32F7xx_HAL_Driver/Src/stm32f7xx_hal_dma_ex.c ****   }
 268              		.loc 1 167 12 is_stmt 0 view .LVU81
 269 0034 0120     		movs	r0, #1
 270 0036 F9E7     		b	.L16
ARM GAS  /tmp/ccf9br4W.s 			page 12


 271              	.LVL25:
 272              	.L303:
 176:Drivers/STM32F7xx_HAL_Driver/Src/stm32f7xx_hal_dma_ex.c ****     
 273              		.loc 1 176 5 is_stmt 1 view .LVU82
 176:Drivers/STM32F7xx_HAL_Driver/Src/stm32f7xx_hal_dma_ex.c ****     
 274              		.loc 1 176 17 is_stmt 0 view .LVU83
 275 0038 0220     		movs	r0, #2
 276 003a 84F83500 		strb	r0, [r4, #53]
 179:Drivers/STM32F7xx_HAL_Driver/Src/stm32f7xx_hal_dma_ex.c ****     
 277              		.loc 1 179 5 is_stmt 1 view .LVU84
 179:Drivers/STM32F7xx_HAL_Driver/Src/stm32f7xx_hal_dma_ex.c ****     
 278              		.loc 1 179 21 is_stmt 0 view .LVU85
 279 003e 0020     		movs	r0, #0
 280 0040 6065     		str	r0, [r4, #84]
 182:Drivers/STM32F7xx_HAL_Driver/Src/stm32f7xx_hal_dma_ex.c ****     
 281              		.loc 1 182 5 is_stmt 1 view .LVU86
 182:Drivers/STM32F7xx_HAL_Driver/Src/stm32f7xx_hal_dma_ex.c ****     
 282              		.loc 1 182 9 is_stmt 0 view .LVU87
 283 0042 2568     		ldr	r5, [r4]
 182:Drivers/STM32F7xx_HAL_Driver/Src/stm32f7xx_hal_dma_ex.c ****     
 284              		.loc 1 182 19 view .LVU88
 285 0044 2868     		ldr	r0, [r5]
 182:Drivers/STM32F7xx_HAL_Driver/Src/stm32f7xx_hal_dma_ex.c ****     
 286              		.loc 1 182 24 view .LVU89
 287 0046 40F48020 		orr	r0, r0, #262144
 288 004a 2860     		str	r0, [r5]
 185:Drivers/STM32F7xx_HAL_Driver/Src/stm32f7xx_hal_dma_ex.c ****     
 289              		.loc 1 185 5 is_stmt 1 view .LVU90
 185:Drivers/STM32F7xx_HAL_Driver/Src/stm32f7xx_hal_dma_ex.c ****     
 290              		.loc 1 185 9 is_stmt 0 view .LVU91
 291 004c 2068     		ldr	r0, [r4]
 185:Drivers/STM32F7xx_HAL_Driver/Src/stm32f7xx_hal_dma_ex.c ****     
 292              		.loc 1 185 26 view .LVU92
 293 004e 0361     		str	r3, [r0, #16]
 188:Drivers/STM32F7xx_HAL_Driver/Src/stm32f7xx_hal_dma_ex.c ****     
 294              		.loc 1 188 5 is_stmt 1 view .LVU93
 295 0050 049B     		ldr	r3, [sp, #16]
 296              	.LVL26:
 188:Drivers/STM32F7xx_HAL_Driver/Src/stm32f7xx_hal_dma_ex.c ****     
 297              		.loc 1 188 5 is_stmt 0 view .LVU94
 298 0052 2046     		mov	r0, r4
 299              	.LVL27:
 188:Drivers/STM32F7xx_HAL_Driver/Src/stm32f7xx_hal_dma_ex.c ****     
 300              		.loc 1 188 5 view .LVU95
 301 0054 FFF7FEFF 		bl	DMA_MultiBufferSetConfig
 302              	.LVL28:
 191:Drivers/STM32F7xx_HAL_Driver/Src/stm32f7xx_hal_dma_ex.c ****     __HAL_DMA_CLEAR_FLAG (hdma, __HAL_DMA_GET_HT_FLAG_INDEX(hdma));
 303              		.loc 1 191 5 is_stmt 1 view .LVU96
 304 0058 2368     		ldr	r3, [r4]
 305 005a A54A     		ldr	r2, .L325
 306 005c 9342     		cmp	r3, r2
 307 005e 40F29880 		bls	.L18
 191:Drivers/STM32F7xx_HAL_Driver/Src/stm32f7xx_hal_dma_ex.c ****     __HAL_DMA_CLEAR_FLAG (hdma, __HAL_DMA_GET_HT_FLAG_INDEX(hdma));
 308              		.loc 1 191 5 is_stmt 0 discriminator 1 view .LVU97
 309 0062 A2F58962 		sub	r2, r2, #1096
 310 0066 9342     		cmp	r3, r2
 311 0068 31D0     		beq	.L61
ARM GAS  /tmp/ccf9br4W.s 			page 13


 191:Drivers/STM32F7xx_HAL_Driver/Src/stm32f7xx_hal_dma_ex.c ****     __HAL_DMA_CLEAR_FLAG (hdma, __HAL_DMA_GET_HT_FLAG_INDEX(hdma));
 312              		.loc 1 191 5 discriminator 3 view .LVU98
 313 006a 02F58062 		add	r2, r2, #1024
 314 006e 9342     		cmp	r3, r2
 315 0070 74D0     		beq	.L62
 191:Drivers/STM32F7xx_HAL_Driver/Src/stm32f7xx_hal_dma_ex.c ****     __HAL_DMA_CLEAR_FLAG (hdma, __HAL_DMA_GET_HT_FLAG_INDEX(hdma));
 316              		.loc 1 191 5 discriminator 5 view .LVU99
 317 0072 A2F56872 		sub	r2, r2, #928
 318 0076 9342     		cmp	r3, r2
 319 0078 72D0     		beq	.L63
 191:Drivers/STM32F7xx_HAL_Driver/Src/stm32f7xx_hal_dma_ex.c ****     __HAL_DMA_CLEAR_FLAG (hdma, __HAL_DMA_GET_HT_FLAG_INDEX(hdma));
 320              		.loc 1 191 5 discriminator 7 view .LVU100
 321 007a 02F58062 		add	r2, r2, #1024
 322 007e 9342     		cmp	r3, r2
 323 0080 70D0     		beq	.L64
 191:Drivers/STM32F7xx_HAL_Driver/Src/stm32f7xx_hal_dma_ex.c ****     __HAL_DMA_CLEAR_FLAG (hdma, __HAL_DMA_GET_HT_FLAG_INDEX(hdma));
 324              		.loc 1 191 5 discriminator 9 view .LVU101
 325 0082 A2F58962 		sub	r2, r2, #1096
 326 0086 9342     		cmp	r3, r2
 327 0088 6ED0     		beq	.L65
 191:Drivers/STM32F7xx_HAL_Driver/Src/stm32f7xx_hal_dma_ex.c ****     __HAL_DMA_CLEAR_FLAG (hdma, __HAL_DMA_GET_HT_FLAG_INDEX(hdma));
 328              		.loc 1 191 5 discriminator 11 view .LVU102
 329 008a 02F58062 		add	r2, r2, #1024
 330 008e 9342     		cmp	r3, r2
 331 0090 6DD0     		beq	.L66
 191:Drivers/STM32F7xx_HAL_Driver/Src/stm32f7xx_hal_dma_ex.c ****     __HAL_DMA_CLEAR_FLAG (hdma, __HAL_DMA_GET_HT_FLAG_INDEX(hdma));
 332              		.loc 1 191 5 discriminator 13 view .LVU103
 333 0092 A2F56872 		sub	r2, r2, #928
 334 0096 9342     		cmp	r3, r2
 335 0098 6CD0     		beq	.L67
 191:Drivers/STM32F7xx_HAL_Driver/Src/stm32f7xx_hal_dma_ex.c ****     __HAL_DMA_CLEAR_FLAG (hdma, __HAL_DMA_GET_HT_FLAG_INDEX(hdma));
 336              		.loc 1 191 5 discriminator 15 view .LVU104
 337 009a 02F58062 		add	r2, r2, #1024
 338 009e 9342     		cmp	r3, r2
 339 00a0 6BD0     		beq	.L68
 191:Drivers/STM32F7xx_HAL_Driver/Src/stm32f7xx_hal_dma_ex.c ****     __HAL_DMA_CLEAR_FLAG (hdma, __HAL_DMA_GET_HT_FLAG_INDEX(hdma));
 340              		.loc 1 191 5 discriminator 17 view .LVU105
 341 00a2 A2F58962 		sub	r2, r2, #1096
 342 00a6 9342     		cmp	r3, r2
 343 00a8 6AD0     		beq	.L69
 191:Drivers/STM32F7xx_HAL_Driver/Src/stm32f7xx_hal_dma_ex.c ****     __HAL_DMA_CLEAR_FLAG (hdma, __HAL_DMA_GET_HT_FLAG_INDEX(hdma));
 344              		.loc 1 191 5 discriminator 19 view .LVU106
 345 00aa 02F58062 		add	r2, r2, #1024
 346 00ae 9342     		cmp	r3, r2
 347 00b0 69D0     		beq	.L70
 191:Drivers/STM32F7xx_HAL_Driver/Src/stm32f7xx_hal_dma_ex.c ****     __HAL_DMA_CLEAR_FLAG (hdma, __HAL_DMA_GET_HT_FLAG_INDEX(hdma));
 348              		.loc 1 191 5 discriminator 21 view .LVU107
 349 00b2 A2F56872 		sub	r2, r2, #928
 350 00b6 9342     		cmp	r3, r2
 351 00b8 68D0     		beq	.L71
 191:Drivers/STM32F7xx_HAL_Driver/Src/stm32f7xx_hal_dma_ex.c ****     __HAL_DMA_CLEAR_FLAG (hdma, __HAL_DMA_GET_HT_FLAG_INDEX(hdma));
 352              		.loc 1 191 5 discriminator 23 view .LVU108
 353 00ba 02F58062 		add	r2, r2, #1024
 354 00be 9342     		cmp	r3, r2
 355 00c0 02D0     		beq	.L304
 191:Drivers/STM32F7xx_HAL_Driver/Src/stm32f7xx_hal_dma_ex.c ****     __HAL_DMA_CLEAR_FLAG (hdma, __HAL_DMA_GET_HT_FLAG_INDEX(hdma));
 356              		.loc 1 191 5 view .LVU109
ARM GAS  /tmp/ccf9br4W.s 			page 14


 357 00c2 4FF00062 		mov	r2, #134217728
 358 00c6 03E0     		b	.L19
 359              	.L304:
 360 00c8 4FF40012 		mov	r2, #2097152
 361 00cc 00E0     		b	.L19
 362              	.L61:
 363 00ce 2022     		movs	r2, #32
 364              	.L19:
 191:Drivers/STM32F7xx_HAL_Driver/Src/stm32f7xx_hal_dma_ex.c ****     __HAL_DMA_CLEAR_FLAG (hdma, __HAL_DMA_GET_HT_FLAG_INDEX(hdma));
 365              		.loc 1 191 5 discriminator 50 view .LVU110
 366 00d0 884B     		ldr	r3, .L325+4
 367 00d2 DA60     		str	r2, [r3, #12]
 368              	.LVL29:
 369              	.L20:
 192:Drivers/STM32F7xx_HAL_Driver/Src/stm32f7xx_hal_dma_ex.c ****     __HAL_DMA_CLEAR_FLAG (hdma, __HAL_DMA_GET_TE_FLAG_INDEX(hdma));
 370              		.loc 1 192 5 is_stmt 1 view .LVU111
 371 00d4 2368     		ldr	r3, [r4]
 372 00d6 864A     		ldr	r2, .L325
 373 00d8 9342     		cmp	r3, r2
 374 00da 40F2CC81 		bls	.L26
 192:Drivers/STM32F7xx_HAL_Driver/Src/stm32f7xx_hal_dma_ex.c ****     __HAL_DMA_CLEAR_FLAG (hdma, __HAL_DMA_GET_TE_FLAG_INDEX(hdma));
 375              		.loc 1 192 5 is_stmt 0 discriminator 1 view .LVU112
 376 00de A2F58962 		sub	r2, r2, #1096
 377 00e2 9342     		cmp	r3, r2
 378 00e4 00F06581 		beq	.L109
 192:Drivers/STM32F7xx_HAL_Driver/Src/stm32f7xx_hal_dma_ex.c ****     __HAL_DMA_CLEAR_FLAG (hdma, __HAL_DMA_GET_TE_FLAG_INDEX(hdma));
 379              		.loc 1 192 5 discriminator 3 view .LVU113
 380 00e8 02F58062 		add	r2, r2, #1024
 381 00ec 9342     		cmp	r3, r2
 382 00ee 00F0A781 		beq	.L110
 192:Drivers/STM32F7xx_HAL_Driver/Src/stm32f7xx_hal_dma_ex.c ****     __HAL_DMA_CLEAR_FLAG (hdma, __HAL_DMA_GET_TE_FLAG_INDEX(hdma));
 383              		.loc 1 192 5 discriminator 5 view .LVU114
 384 00f2 A2F56872 		sub	r2, r2, #928
 385 00f6 9342     		cmp	r3, r2
 386 00f8 00F0A481 		beq	.L111
 192:Drivers/STM32F7xx_HAL_Driver/Src/stm32f7xx_hal_dma_ex.c ****     __HAL_DMA_CLEAR_FLAG (hdma, __HAL_DMA_GET_TE_FLAG_INDEX(hdma));
 387              		.loc 1 192 5 discriminator 7 view .LVU115
 388 00fc 02F58062 		add	r2, r2, #1024
 389 0100 9342     		cmp	r3, r2
 390 0102 00F0A181 		beq	.L112
 192:Drivers/STM32F7xx_HAL_Driver/Src/stm32f7xx_hal_dma_ex.c ****     __HAL_DMA_CLEAR_FLAG (hdma, __HAL_DMA_GET_TE_FLAG_INDEX(hdma));
 391              		.loc 1 192 5 discriminator 9 view .LVU116
 392 0106 A2F58962 		sub	r2, r2, #1096
 393 010a 9342     		cmp	r3, r2
 394 010c 00F09E81 		beq	.L113
 192:Drivers/STM32F7xx_HAL_Driver/Src/stm32f7xx_hal_dma_ex.c ****     __HAL_DMA_CLEAR_FLAG (hdma, __HAL_DMA_GET_TE_FLAG_INDEX(hdma));
 395              		.loc 1 192 5 discriminator 11 view .LVU117
 396 0110 02F58062 		add	r2, r2, #1024
 397 0114 9342     		cmp	r3, r2
 398 0116 00F09C81 		beq	.L114
 192:Drivers/STM32F7xx_HAL_Driver/Src/stm32f7xx_hal_dma_ex.c ****     __HAL_DMA_CLEAR_FLAG (hdma, __HAL_DMA_GET_TE_FLAG_INDEX(hdma));
 399              		.loc 1 192 5 discriminator 13 view .LVU118
 400 011a A2F56872 		sub	r2, r2, #928
 401 011e 9342     		cmp	r3, r2
 402 0120 00F09A81 		beq	.L115
 192:Drivers/STM32F7xx_HAL_Driver/Src/stm32f7xx_hal_dma_ex.c ****     __HAL_DMA_CLEAR_FLAG (hdma, __HAL_DMA_GET_TE_FLAG_INDEX(hdma));
 403              		.loc 1 192 5 discriminator 15 view .LVU119
ARM GAS  /tmp/ccf9br4W.s 			page 15


 404 0124 02F58062 		add	r2, r2, #1024
 405 0128 9342     		cmp	r3, r2
 406 012a 00F09881 		beq	.L116
 192:Drivers/STM32F7xx_HAL_Driver/Src/stm32f7xx_hal_dma_ex.c ****     __HAL_DMA_CLEAR_FLAG (hdma, __HAL_DMA_GET_TE_FLAG_INDEX(hdma));
 407              		.loc 1 192 5 discriminator 17 view .LVU120
 408 012e A2F58962 		sub	r2, r2, #1096
 409 0132 9342     		cmp	r3, r2
 410 0134 00F09681 		beq	.L117
 192:Drivers/STM32F7xx_HAL_Driver/Src/stm32f7xx_hal_dma_ex.c ****     __HAL_DMA_CLEAR_FLAG (hdma, __HAL_DMA_GET_TE_FLAG_INDEX(hdma));
 411              		.loc 1 192 5 discriminator 19 view .LVU121
 412 0138 02F58062 		add	r2, r2, #1024
 413 013c 9342     		cmp	r3, r2
 414 013e 00F09481 		beq	.L118
 192:Drivers/STM32F7xx_HAL_Driver/Src/stm32f7xx_hal_dma_ex.c ****     __HAL_DMA_CLEAR_FLAG (hdma, __HAL_DMA_GET_TE_FLAG_INDEX(hdma));
 415              		.loc 1 192 5 discriminator 21 view .LVU122
 416 0142 A2F56872 		sub	r2, r2, #928
 417 0146 9342     		cmp	r3, r2
 418 0148 00F09281 		beq	.L119
 192:Drivers/STM32F7xx_HAL_Driver/Src/stm32f7xx_hal_dma_ex.c ****     __HAL_DMA_CLEAR_FLAG (hdma, __HAL_DMA_GET_TE_FLAG_INDEX(hdma));
 419              		.loc 1 192 5 discriminator 23 view .LVU123
 420 014c 02F58062 		add	r2, r2, #1024
 421 0150 9342     		cmp	r3, r2
 422 0152 00F02B81 		beq	.L305
 192:Drivers/STM32F7xx_HAL_Driver/Src/stm32f7xx_hal_dma_ex.c ****     __HAL_DMA_CLEAR_FLAG (hdma, __HAL_DMA_GET_TE_FLAG_INDEX(hdma));
 423              		.loc 1 192 5 view .LVU124
 424 0156 4FF08062 		mov	r2, #67108864
 425 015a 2BE1     		b	.L27
 426              	.LVL30:
 427              	.L62:
 191:Drivers/STM32F7xx_HAL_Driver/Src/stm32f7xx_hal_dma_ex.c ****     __HAL_DMA_CLEAR_FLAG (hdma, __HAL_DMA_GET_HT_FLAG_INDEX(hdma));
 428              		.loc 1 191 5 view .LVU125
 429 015c 2022     		movs	r2, #32
 430 015e B7E7     		b	.L19
 431              	.L63:
 432 0160 2022     		movs	r2, #32
 433 0162 B5E7     		b	.L19
 434              	.L64:
 435 0164 2022     		movs	r2, #32
 436 0166 B3E7     		b	.L19
 437              	.L65:
 438 0168 4FF40062 		mov	r2, #2048
 439 016c B0E7     		b	.L19
 440              	.L66:
 441 016e 4FF40062 		mov	r2, #2048
 442 0172 ADE7     		b	.L19
 443              	.L67:
 444 0174 4FF40062 		mov	r2, #2048
 445 0178 AAE7     		b	.L19
 446              	.L68:
 447 017a 4FF40062 		mov	r2, #2048
 448 017e A7E7     		b	.L19
 449              	.L69:
 450 0180 4FF40012 		mov	r2, #2097152
 451 0184 A4E7     		b	.L19
 452              	.L70:
 453 0186 4FF40012 		mov	r2, #2097152
 454 018a A1E7     		b	.L19
ARM GAS  /tmp/ccf9br4W.s 			page 16


 455              	.L71:
 456 018c 4FF40012 		mov	r2, #2097152
 457 0190 9EE7     		b	.L19
 458              	.L18:
 191:Drivers/STM32F7xx_HAL_Driver/Src/stm32f7xx_hal_dma_ex.c ****     __HAL_DMA_CLEAR_FLAG (hdma, __HAL_DMA_GET_HT_FLAG_INDEX(hdma));
 459              		.loc 1 191 5 discriminator 2 view .LVU126
 460 0192 594A     		ldr	r2, .L325+8
 461 0194 9342     		cmp	r3, r2
 462 0196 53D9     		bls	.L21
 191:Drivers/STM32F7xx_HAL_Driver/Src/stm32f7xx_hal_dma_ex.c ****     __HAL_DMA_CLEAR_FLAG (hdma, __HAL_DMA_GET_HT_FLAG_INDEX(hdma));
 463              		.loc 1 191 5 discriminator 51 view .LVU127
 464 0198 A83A     		subs	r2, r2, #168
 465 019a 9342     		cmp	r3, r2
 466 019c 31D0     		beq	.L73
 191:Drivers/STM32F7xx_HAL_Driver/Src/stm32f7xx_hal_dma_ex.c ****     __HAL_DMA_CLEAR_FLAG (hdma, __HAL_DMA_GET_HT_FLAG_INDEX(hdma));
 467              		.loc 1 191 5 discriminator 53 view .LVU128
 468 019e 02F58062 		add	r2, r2, #1024
 469 01a2 9342     		cmp	r3, r2
 470 01a4 31D0     		beq	.L74
 191:Drivers/STM32F7xx_HAL_Driver/Src/stm32f7xx_hal_dma_ex.c ****     __HAL_DMA_CLEAR_FLAG (hdma, __HAL_DMA_GET_HT_FLAG_INDEX(hdma));
 471              		.loc 1 191 5 discriminator 55 view .LVU129
 472 01a6 A2F56872 		sub	r2, r2, #928
 473 01aa 9342     		cmp	r3, r2
 474 01ac 2FD0     		beq	.L75
 191:Drivers/STM32F7xx_HAL_Driver/Src/stm32f7xx_hal_dma_ex.c ****     __HAL_DMA_CLEAR_FLAG (hdma, __HAL_DMA_GET_HT_FLAG_INDEX(hdma));
 475              		.loc 1 191 5 discriminator 57 view .LVU130
 476 01ae 02F58062 		add	r2, r2, #1024
 477 01b2 9342     		cmp	r3, r2
 478 01b4 2DD0     		beq	.L76
 191:Drivers/STM32F7xx_HAL_Driver/Src/stm32f7xx_hal_dma_ex.c ****     __HAL_DMA_CLEAR_FLAG (hdma, __HAL_DMA_GET_HT_FLAG_INDEX(hdma));
 479              		.loc 1 191 5 discriminator 59 view .LVU131
 480 01b6 A2F58962 		sub	r2, r2, #1096
 481 01ba 9342     		cmp	r3, r2
 482 01bc 2BD0     		beq	.L77
 191:Drivers/STM32F7xx_HAL_Driver/Src/stm32f7xx_hal_dma_ex.c ****     __HAL_DMA_CLEAR_FLAG (hdma, __HAL_DMA_GET_HT_FLAG_INDEX(hdma));
 483              		.loc 1 191 5 discriminator 61 view .LVU132
 484 01be 02F58062 		add	r2, r2, #1024
 485 01c2 9342     		cmp	r3, r2
 486 01c4 2AD0     		beq	.L78
 191:Drivers/STM32F7xx_HAL_Driver/Src/stm32f7xx_hal_dma_ex.c ****     __HAL_DMA_CLEAR_FLAG (hdma, __HAL_DMA_GET_HT_FLAG_INDEX(hdma));
 487              		.loc 1 191 5 discriminator 63 view .LVU133
 488 01c6 A2F56872 		sub	r2, r2, #928
 489 01ca 9342     		cmp	r3, r2
 490 01cc 29D0     		beq	.L79
 191:Drivers/STM32F7xx_HAL_Driver/Src/stm32f7xx_hal_dma_ex.c ****     __HAL_DMA_CLEAR_FLAG (hdma, __HAL_DMA_GET_HT_FLAG_INDEX(hdma));
 491              		.loc 1 191 5 discriminator 65 view .LVU134
 492 01ce 02F58062 		add	r2, r2, #1024
 493 01d2 9342     		cmp	r3, r2
 494 01d4 28D0     		beq	.L80
 191:Drivers/STM32F7xx_HAL_Driver/Src/stm32f7xx_hal_dma_ex.c ****     __HAL_DMA_CLEAR_FLAG (hdma, __HAL_DMA_GET_HT_FLAG_INDEX(hdma));
 495              		.loc 1 191 5 discriminator 67 view .LVU135
 496 01d6 A2F58962 		sub	r2, r2, #1096
 497 01da 9342     		cmp	r3, r2
 498 01dc 27D0     		beq	.L81
 191:Drivers/STM32F7xx_HAL_Driver/Src/stm32f7xx_hal_dma_ex.c ****     __HAL_DMA_CLEAR_FLAG (hdma, __HAL_DMA_GET_HT_FLAG_INDEX(hdma));
 499              		.loc 1 191 5 discriminator 69 view .LVU136
 500 01de 02F58062 		add	r2, r2, #1024
ARM GAS  /tmp/ccf9br4W.s 			page 17


 501 01e2 9342     		cmp	r3, r2
 502 01e4 26D0     		beq	.L82
 191:Drivers/STM32F7xx_HAL_Driver/Src/stm32f7xx_hal_dma_ex.c ****     __HAL_DMA_CLEAR_FLAG (hdma, __HAL_DMA_GET_HT_FLAG_INDEX(hdma));
 503              		.loc 1 191 5 discriminator 71 view .LVU137
 504 01e6 A2F56872 		sub	r2, r2, #928
 505 01ea 9342     		cmp	r3, r2
 506 01ec 25D0     		beq	.L83
 191:Drivers/STM32F7xx_HAL_Driver/Src/stm32f7xx_hal_dma_ex.c ****     __HAL_DMA_CLEAR_FLAG (hdma, __HAL_DMA_GET_HT_FLAG_INDEX(hdma));
 507              		.loc 1 191 5 discriminator 73 view .LVU138
 508 01ee 02F58062 		add	r2, r2, #1024
 509 01f2 9342     		cmp	r3, r2
 510 01f4 02D0     		beq	.L306
 191:Drivers/STM32F7xx_HAL_Driver/Src/stm32f7xx_hal_dma_ex.c ****     __HAL_DMA_CLEAR_FLAG (hdma, __HAL_DMA_GET_HT_FLAG_INDEX(hdma));
 511              		.loc 1 191 5 view .LVU139
 512 01f6 4FF00062 		mov	r2, #134217728
 513 01fa 03E0     		b	.L22
 514              	.L306:
 515 01fc 4FF40012 		mov	r2, #2097152
 516 0200 00E0     		b	.L22
 517              	.L73:
 518 0202 2022     		movs	r2, #32
 519              	.L22:
 191:Drivers/STM32F7xx_HAL_Driver/Src/stm32f7xx_hal_dma_ex.c ****     __HAL_DMA_CLEAR_FLAG (hdma, __HAL_DMA_GET_HT_FLAG_INDEX(hdma));
 520              		.loc 1 191 5 discriminator 100 view .LVU140
 521 0204 3B4B     		ldr	r3, .L325+4
 522 0206 9A60     		str	r2, [r3, #8]
 523              	.LVL31:
 191:Drivers/STM32F7xx_HAL_Driver/Src/stm32f7xx_hal_dma_ex.c ****     __HAL_DMA_CLEAR_FLAG (hdma, __HAL_DMA_GET_HT_FLAG_INDEX(hdma));
 524              		.loc 1 191 5 discriminator 100 view .LVU141
 525 0208 64E7     		b	.L20
 526              	.LVL32:
 527              	.L74:
 191:Drivers/STM32F7xx_HAL_Driver/Src/stm32f7xx_hal_dma_ex.c ****     __HAL_DMA_CLEAR_FLAG (hdma, __HAL_DMA_GET_HT_FLAG_INDEX(hdma));
 528              		.loc 1 191 5 view .LVU142
 529 020a 2022     		movs	r2, #32
 530 020c FAE7     		b	.L22
 531              	.L75:
 532 020e 2022     		movs	r2, #32
 533 0210 F8E7     		b	.L22
 534              	.L76:
 535 0212 2022     		movs	r2, #32
 536 0214 F6E7     		b	.L22
 537              	.L77:
 538 0216 4FF40062 		mov	r2, #2048
 539 021a F3E7     		b	.L22
 540              	.L78:
 541 021c 4FF40062 		mov	r2, #2048
 542 0220 F0E7     		b	.L22
 543              	.L79:
 544 0222 4FF40062 		mov	r2, #2048
 545 0226 EDE7     		b	.L22
 546              	.L80:
 547 0228 4FF40062 		mov	r2, #2048
 548 022c EAE7     		b	.L22
 549              	.L81:
 550 022e 4FF40012 		mov	r2, #2097152
 551 0232 E7E7     		b	.L22
ARM GAS  /tmp/ccf9br4W.s 			page 18


 552              	.L82:
 553 0234 4FF40012 		mov	r2, #2097152
 554 0238 E4E7     		b	.L22
 555              	.L83:
 556 023a 4FF40012 		mov	r2, #2097152
 557 023e E1E7     		b	.L22
 558              	.L21:
 191:Drivers/STM32F7xx_HAL_Driver/Src/stm32f7xx_hal_dma_ex.c ****     __HAL_DMA_CLEAR_FLAG (hdma, __HAL_DMA_GET_HT_FLAG_INDEX(hdma));
 559              		.loc 1 191 5 discriminator 52 view .LVU143
 560 0240 2E4A     		ldr	r2, .L325+12
 561 0242 9342     		cmp	r3, r2
 562 0244 5ED9     		bls	.L23
 191:Drivers/STM32F7xx_HAL_Driver/Src/stm32f7xx_hal_dma_ex.c ****     __HAL_DMA_CLEAR_FLAG (hdma, __HAL_DMA_GET_HT_FLAG_INDEX(hdma));
 563              		.loc 1 191 5 discriminator 102 view .LVU144
 564 0246 483A     		subs	r2, r2, #72
 565 0248 9342     		cmp	r3, r2
 566 024a 31D0     		beq	.L85
 191:Drivers/STM32F7xx_HAL_Driver/Src/stm32f7xx_hal_dma_ex.c ****     __HAL_DMA_CLEAR_FLAG (hdma, __HAL_DMA_GET_HT_FLAG_INDEX(hdma));
 567              		.loc 1 191 5 discriminator 104 view .LVU145
 568 024c 02F58062 		add	r2, r2, #1024
 569 0250 9342     		cmp	r3, r2
 570 0252 31D0     		beq	.L86
 191:Drivers/STM32F7xx_HAL_Driver/Src/stm32f7xx_hal_dma_ex.c ****     __HAL_DMA_CLEAR_FLAG (hdma, __HAL_DMA_GET_HT_FLAG_INDEX(hdma));
 571              		.loc 1 191 5 discriminator 106 view .LVU146
 572 0254 A2F56872 		sub	r2, r2, #928
 573 0258 9342     		cmp	r3, r2
 574 025a 2FD0     		beq	.L87
 191:Drivers/STM32F7xx_HAL_Driver/Src/stm32f7xx_hal_dma_ex.c ****     __HAL_DMA_CLEAR_FLAG (hdma, __HAL_DMA_GET_HT_FLAG_INDEX(hdma));
 575              		.loc 1 191 5 discriminator 108 view .LVU147
 576 025c 02F58062 		add	r2, r2, #1024
 577 0260 9342     		cmp	r3, r2
 578 0262 2DD0     		beq	.L88
 191:Drivers/STM32F7xx_HAL_Driver/Src/stm32f7xx_hal_dma_ex.c ****     __HAL_DMA_CLEAR_FLAG (hdma, __HAL_DMA_GET_HT_FLAG_INDEX(hdma));
 579              		.loc 1 191 5 discriminator 110 view .LVU148
 580 0264 A2F58962 		sub	r2, r2, #1096
 581 0268 9342     		cmp	r3, r2
 582 026a 2BD0     		beq	.L89
 191:Drivers/STM32F7xx_HAL_Driver/Src/stm32f7xx_hal_dma_ex.c ****     __HAL_DMA_CLEAR_FLAG (hdma, __HAL_DMA_GET_HT_FLAG_INDEX(hdma));
 583              		.loc 1 191 5 discriminator 112 view .LVU149
 584 026c 02F58062 		add	r2, r2, #1024
 585 0270 9342     		cmp	r3, r2
 586 0272 2AD0     		beq	.L90
 191:Drivers/STM32F7xx_HAL_Driver/Src/stm32f7xx_hal_dma_ex.c ****     __HAL_DMA_CLEAR_FLAG (hdma, __HAL_DMA_GET_HT_FLAG_INDEX(hdma));
 587              		.loc 1 191 5 discriminator 114 view .LVU150
 588 0274 A2F56872 		sub	r2, r2, #928
 589 0278 9342     		cmp	r3, r2
 590 027a 29D0     		beq	.L91
 191:Drivers/STM32F7xx_HAL_Driver/Src/stm32f7xx_hal_dma_ex.c ****     __HAL_DMA_CLEAR_FLAG (hdma, __HAL_DMA_GET_HT_FLAG_INDEX(hdma));
 591              		.loc 1 191 5 discriminator 116 view .LVU151
 592 027c 02F58062 		add	r2, r2, #1024
 593 0280 9342     		cmp	r3, r2
 594 0282 28D0     		beq	.L92
 191:Drivers/STM32F7xx_HAL_Driver/Src/stm32f7xx_hal_dma_ex.c ****     __HAL_DMA_CLEAR_FLAG (hdma, __HAL_DMA_GET_HT_FLAG_INDEX(hdma));
 595              		.loc 1 191 5 discriminator 118 view .LVU152
 596 0284 A2F58962 		sub	r2, r2, #1096
 597 0288 9342     		cmp	r3, r2
 598 028a 27D0     		beq	.L93
ARM GAS  /tmp/ccf9br4W.s 			page 19


 191:Drivers/STM32F7xx_HAL_Driver/Src/stm32f7xx_hal_dma_ex.c ****     __HAL_DMA_CLEAR_FLAG (hdma, __HAL_DMA_GET_HT_FLAG_INDEX(hdma));
 599              		.loc 1 191 5 discriminator 120 view .LVU153
 600 028c 02F58062 		add	r2, r2, #1024
 601 0290 9342     		cmp	r3, r2
 602 0292 26D0     		beq	.L94
 191:Drivers/STM32F7xx_HAL_Driver/Src/stm32f7xx_hal_dma_ex.c ****     __HAL_DMA_CLEAR_FLAG (hdma, __HAL_DMA_GET_HT_FLAG_INDEX(hdma));
 603              		.loc 1 191 5 discriminator 122 view .LVU154
 604 0294 A2F56872 		sub	r2, r2, #928
 605 0298 9342     		cmp	r3, r2
 606 029a 25D0     		beq	.L95
 191:Drivers/STM32F7xx_HAL_Driver/Src/stm32f7xx_hal_dma_ex.c ****     __HAL_DMA_CLEAR_FLAG (hdma, __HAL_DMA_GET_HT_FLAG_INDEX(hdma));
 607              		.loc 1 191 5 discriminator 124 view .LVU155
 608 029c 02F58062 		add	r2, r2, #1024
 609 02a0 9342     		cmp	r3, r2
 610 02a2 02D0     		beq	.L307
 191:Drivers/STM32F7xx_HAL_Driver/Src/stm32f7xx_hal_dma_ex.c ****     __HAL_DMA_CLEAR_FLAG (hdma, __HAL_DMA_GET_HT_FLAG_INDEX(hdma));
 611              		.loc 1 191 5 view .LVU156
 612 02a4 4FF00063 		mov	r3, #134217728
 613 02a8 03E0     		b	.L24
 614              	.L307:
 615 02aa 4FF40013 		mov	r3, #2097152
 616 02ae 00E0     		b	.L24
 617              	.L85:
 618 02b0 2023     		movs	r3, #32
 619              	.L24:
 191:Drivers/STM32F7xx_HAL_Driver/Src/stm32f7xx_hal_dma_ex.c ****     __HAL_DMA_CLEAR_FLAG (hdma, __HAL_DMA_GET_HT_FLAG_INDEX(hdma));
 620              		.loc 1 191 5 discriminator 151 view .LVU157
 621 02b2 134A     		ldr	r2, .L325+16
 622 02b4 D360     		str	r3, [r2, #12]
 623              	.LVL33:
 191:Drivers/STM32F7xx_HAL_Driver/Src/stm32f7xx_hal_dma_ex.c ****     __HAL_DMA_CLEAR_FLAG (hdma, __HAL_DMA_GET_HT_FLAG_INDEX(hdma));
 624              		.loc 1 191 5 discriminator 151 view .LVU158
 625 02b6 0DE7     		b	.L20
 626              	.LVL34:
 627              	.L86:
 191:Drivers/STM32F7xx_HAL_Driver/Src/stm32f7xx_hal_dma_ex.c ****     __HAL_DMA_CLEAR_FLAG (hdma, __HAL_DMA_GET_HT_FLAG_INDEX(hdma));
 628              		.loc 1 191 5 view .LVU159
 629 02b8 2023     		movs	r3, #32
 630 02ba FAE7     		b	.L24
 631              	.L87:
 632 02bc 2023     		movs	r3, #32
 633 02be F8E7     		b	.L24
 634              	.L88:
 635 02c0 2023     		movs	r3, #32
 636 02c2 F6E7     		b	.L24
 637              	.L89:
 638 02c4 4FF40063 		mov	r3, #2048
 639 02c8 F3E7     		b	.L24
 640              	.L90:
 641 02ca 4FF40063 		mov	r3, #2048
 642 02ce F0E7     		b	.L24
 643              	.L91:
 644 02d0 4FF40063 		mov	r3, #2048
 645 02d4 EDE7     		b	.L24
 646              	.L92:
 647 02d6 4FF40063 		mov	r3, #2048
 648 02da EAE7     		b	.L24
ARM GAS  /tmp/ccf9br4W.s 			page 20


 649              	.L93:
 650 02dc 4FF40013 		mov	r3, #2097152
 651 02e0 E7E7     		b	.L24
 652              	.L94:
 653 02e2 4FF40013 		mov	r3, #2097152
 654 02e6 E4E7     		b	.L24
 655              	.L95:
 656 02e8 4FF40013 		mov	r3, #2097152
 657 02ec E1E7     		b	.L24
 658              	.L326:
 659 02ee 00BF     		.align	2
 660              	.L325:
 661 02f0 58640240 		.word	1073898584
 662 02f4 00640240 		.word	1073898496
 663 02f8 B8600240 		.word	1073897656
 664 02fc 58600240 		.word	1073897560
 665 0300 00600240 		.word	1073897472
 666              	.L23:
 191:Drivers/STM32F7xx_HAL_Driver/Src/stm32f7xx_hal_dma_ex.c ****     __HAL_DMA_CLEAR_FLAG (hdma, __HAL_DMA_GET_HT_FLAG_INDEX(hdma));
 667              		.loc 1 191 5 discriminator 103 view .LVU160
 668 0304 B14A     		ldr	r2, .L327
 669 0306 9342     		cmp	r3, r2
 670 0308 31D0     		beq	.L97
 191:Drivers/STM32F7xx_HAL_Driver/Src/stm32f7xx_hal_dma_ex.c ****     __HAL_DMA_CLEAR_FLAG (hdma, __HAL_DMA_GET_HT_FLAG_INDEX(hdma));
 671              		.loc 1 191 5 discriminator 153 view .LVU161
 672 030a 02F58062 		add	r2, r2, #1024
 673 030e 9342     		cmp	r3, r2
 674 0310 31D0     		beq	.L98
 191:Drivers/STM32F7xx_HAL_Driver/Src/stm32f7xx_hal_dma_ex.c ****     __HAL_DMA_CLEAR_FLAG (hdma, __HAL_DMA_GET_HT_FLAG_INDEX(hdma));
 675              		.loc 1 191 5 discriminator 155 view .LVU162
 676 0312 A2F56872 		sub	r2, r2, #928
 677 0316 9342     		cmp	r3, r2
 678 0318 2FD0     		beq	.L99
 191:Drivers/STM32F7xx_HAL_Driver/Src/stm32f7xx_hal_dma_ex.c ****     __HAL_DMA_CLEAR_FLAG (hdma, __HAL_DMA_GET_HT_FLAG_INDEX(hdma));
 679              		.loc 1 191 5 discriminator 157 view .LVU163
 680 031a 02F58062 		add	r2, r2, #1024
 681 031e 9342     		cmp	r3, r2
 682 0320 2DD0     		beq	.L100
 191:Drivers/STM32F7xx_HAL_Driver/Src/stm32f7xx_hal_dma_ex.c ****     __HAL_DMA_CLEAR_FLAG (hdma, __HAL_DMA_GET_HT_FLAG_INDEX(hdma));
 683              		.loc 1 191 5 discriminator 159 view .LVU164
 684 0322 A2F58962 		sub	r2, r2, #1096
 685 0326 9342     		cmp	r3, r2
 686 0328 2BD0     		beq	.L101
 191:Drivers/STM32F7xx_HAL_Driver/Src/stm32f7xx_hal_dma_ex.c ****     __HAL_DMA_CLEAR_FLAG (hdma, __HAL_DMA_GET_HT_FLAG_INDEX(hdma));
 687              		.loc 1 191 5 discriminator 161 view .LVU165
 688 032a 02F58062 		add	r2, r2, #1024
 689 032e 9342     		cmp	r3, r2
 690 0330 2AD0     		beq	.L102
 191:Drivers/STM32F7xx_HAL_Driver/Src/stm32f7xx_hal_dma_ex.c ****     __HAL_DMA_CLEAR_FLAG (hdma, __HAL_DMA_GET_HT_FLAG_INDEX(hdma));
 691              		.loc 1 191 5 discriminator 163 view .LVU166
 692 0332 A2F56872 		sub	r2, r2, #928
 693 0336 9342     		cmp	r3, r2
 694 0338 29D0     		beq	.L103
 191:Drivers/STM32F7xx_HAL_Driver/Src/stm32f7xx_hal_dma_ex.c ****     __HAL_DMA_CLEAR_FLAG (hdma, __HAL_DMA_GET_HT_FLAG_INDEX(hdma));
 695              		.loc 1 191 5 discriminator 165 view .LVU167
 696 033a 02F58062 		add	r2, r2, #1024
 697 033e 9342     		cmp	r3, r2
ARM GAS  /tmp/ccf9br4W.s 			page 21


 698 0340 28D0     		beq	.L104
 191:Drivers/STM32F7xx_HAL_Driver/Src/stm32f7xx_hal_dma_ex.c ****     __HAL_DMA_CLEAR_FLAG (hdma, __HAL_DMA_GET_HT_FLAG_INDEX(hdma));
 699              		.loc 1 191 5 discriminator 167 view .LVU168
 700 0342 A2F58962 		sub	r2, r2, #1096
 701 0346 9342     		cmp	r3, r2
 702 0348 27D0     		beq	.L105
 191:Drivers/STM32F7xx_HAL_Driver/Src/stm32f7xx_hal_dma_ex.c ****     __HAL_DMA_CLEAR_FLAG (hdma, __HAL_DMA_GET_HT_FLAG_INDEX(hdma));
 703              		.loc 1 191 5 discriminator 169 view .LVU169
 704 034a 02F58062 		add	r2, r2, #1024
 705 034e 9342     		cmp	r3, r2
 706 0350 26D0     		beq	.L106
 191:Drivers/STM32F7xx_HAL_Driver/Src/stm32f7xx_hal_dma_ex.c ****     __HAL_DMA_CLEAR_FLAG (hdma, __HAL_DMA_GET_HT_FLAG_INDEX(hdma));
 707              		.loc 1 191 5 discriminator 171 view .LVU170
 708 0352 A2F56872 		sub	r2, r2, #928
 709 0356 9342     		cmp	r3, r2
 710 0358 25D0     		beq	.L107
 191:Drivers/STM32F7xx_HAL_Driver/Src/stm32f7xx_hal_dma_ex.c ****     __HAL_DMA_CLEAR_FLAG (hdma, __HAL_DMA_GET_HT_FLAG_INDEX(hdma));
 711              		.loc 1 191 5 discriminator 173 view .LVU171
 712 035a 02F58062 		add	r2, r2, #1024
 713 035e 9342     		cmp	r3, r2
 714 0360 02D0     		beq	.L308
 191:Drivers/STM32F7xx_HAL_Driver/Src/stm32f7xx_hal_dma_ex.c ****     __HAL_DMA_CLEAR_FLAG (hdma, __HAL_DMA_GET_HT_FLAG_INDEX(hdma));
 715              		.loc 1 191 5 view .LVU172
 716 0362 4FF00063 		mov	r3, #134217728
 717 0366 03E0     		b	.L25
 718              	.L308:
 719 0368 4FF40013 		mov	r3, #2097152
 720 036c 00E0     		b	.L25
 721              	.L97:
 722 036e 2023     		movs	r3, #32
 723              	.L25:
 191:Drivers/STM32F7xx_HAL_Driver/Src/stm32f7xx_hal_dma_ex.c ****     __HAL_DMA_CLEAR_FLAG (hdma, __HAL_DMA_GET_HT_FLAG_INDEX(hdma));
 724              		.loc 1 191 5 discriminator 200 view .LVU173
 725 0370 974A     		ldr	r2, .L327+4
 726 0372 9360     		str	r3, [r2, #8]
 727              	.LVL35:
 191:Drivers/STM32F7xx_HAL_Driver/Src/stm32f7xx_hal_dma_ex.c ****     __HAL_DMA_CLEAR_FLAG (hdma, __HAL_DMA_GET_HT_FLAG_INDEX(hdma));
 728              		.loc 1 191 5 discriminator 200 view .LVU174
 729 0374 AEE6     		b	.L20
 730              	.LVL36:
 731              	.L98:
 191:Drivers/STM32F7xx_HAL_Driver/Src/stm32f7xx_hal_dma_ex.c ****     __HAL_DMA_CLEAR_FLAG (hdma, __HAL_DMA_GET_HT_FLAG_INDEX(hdma));
 732              		.loc 1 191 5 view .LVU175
 733 0376 2023     		movs	r3, #32
 734 0378 FAE7     		b	.L25
 735              	.L99:
 736 037a 2023     		movs	r3, #32
 737 037c F8E7     		b	.L25
 738              	.L100:
 739 037e 2023     		movs	r3, #32
 740 0380 F6E7     		b	.L25
 741              	.L101:
 742 0382 4FF40063 		mov	r3, #2048
 743 0386 F3E7     		b	.L25
 744              	.L102:
 745 0388 4FF40063 		mov	r3, #2048
 746 038c F0E7     		b	.L25
ARM GAS  /tmp/ccf9br4W.s 			page 22


 747              	.L103:
 748 038e 4FF40063 		mov	r3, #2048
 749 0392 EDE7     		b	.L25
 750              	.L104:
 751 0394 4FF40063 		mov	r3, #2048
 752 0398 EAE7     		b	.L25
 753              	.L105:
 754 039a 4FF40013 		mov	r3, #2097152
 755 039e E7E7     		b	.L25
 756              	.L106:
 757 03a0 4FF40013 		mov	r3, #2097152
 758 03a4 E4E7     		b	.L25
 759              	.L107:
 760 03a6 4FF40013 		mov	r3, #2097152
 761 03aa E1E7     		b	.L25
 762              	.LVL37:
 763              	.L305:
 192:Drivers/STM32F7xx_HAL_Driver/Src/stm32f7xx_hal_dma_ex.c ****     __HAL_DMA_CLEAR_FLAG (hdma, __HAL_DMA_GET_TE_FLAG_INDEX(hdma));
 764              		.loc 1 192 5 view .LVU176
 765 03ac 4FF48012 		mov	r2, #1048576
 766 03b0 00E0     		b	.L27
 767              	.L109:
 768 03b2 1022     		movs	r2, #16
 769              	.L27:
 192:Drivers/STM32F7xx_HAL_Driver/Src/stm32f7xx_hal_dma_ex.c ****     __HAL_DMA_CLEAR_FLAG (hdma, __HAL_DMA_GET_TE_FLAG_INDEX(hdma));
 770              		.loc 1 192 5 discriminator 50 view .LVU177
 771 03b4 874B     		ldr	r3, .L327+8
 772 03b6 DA60     		str	r2, [r3, #12]
 773              	.L28:
 193:Drivers/STM32F7xx_HAL_Driver/Src/stm32f7xx_hal_dma_ex.c ****     __HAL_DMA_CLEAR_FLAG (hdma, __HAL_DMA_GET_DME_FLAG_INDEX(hdma));
 774              		.loc 1 193 5 is_stmt 1 view .LVU178
 775 03b8 2368     		ldr	r3, [r4]
 776 03ba 874A     		ldr	r2, .L327+12
 777 03bc 9342     		cmp	r3, r2
 778 03be 40F2CD81 		bls	.L34
 193:Drivers/STM32F7xx_HAL_Driver/Src/stm32f7xx_hal_dma_ex.c ****     __HAL_DMA_CLEAR_FLAG (hdma, __HAL_DMA_GET_DME_FLAG_INDEX(hdma));
 779              		.loc 1 193 5 is_stmt 0 discriminator 1 view .LVU179
 780 03c2 A2F58962 		sub	r2, r2, #1096
 781 03c6 9342     		cmp	r3, r2
 782 03c8 00F06681 		beq	.L157
 193:Drivers/STM32F7xx_HAL_Driver/Src/stm32f7xx_hal_dma_ex.c ****     __HAL_DMA_CLEAR_FLAG (hdma, __HAL_DMA_GET_DME_FLAG_INDEX(hdma));
 783              		.loc 1 193 5 discriminator 3 view .LVU180
 784 03cc 02F58062 		add	r2, r2, #1024
 785 03d0 9342     		cmp	r3, r2
 786 03d2 00F0A881 		beq	.L158
 193:Drivers/STM32F7xx_HAL_Driver/Src/stm32f7xx_hal_dma_ex.c ****     __HAL_DMA_CLEAR_FLAG (hdma, __HAL_DMA_GET_DME_FLAG_INDEX(hdma));
 787              		.loc 1 193 5 discriminator 5 view .LVU181
 788 03d6 A2F56872 		sub	r2, r2, #928
 789 03da 9342     		cmp	r3, r2
 790 03dc 00F0A581 		beq	.L159
 193:Drivers/STM32F7xx_HAL_Driver/Src/stm32f7xx_hal_dma_ex.c ****     __HAL_DMA_CLEAR_FLAG (hdma, __HAL_DMA_GET_DME_FLAG_INDEX(hdma));
 791              		.loc 1 193 5 discriminator 7 view .LVU182
 792 03e0 02F58062 		add	r2, r2, #1024
 793 03e4 9342     		cmp	r3, r2
 794 03e6 00F0A281 		beq	.L160
 193:Drivers/STM32F7xx_HAL_Driver/Src/stm32f7xx_hal_dma_ex.c ****     __HAL_DMA_CLEAR_FLAG (hdma, __HAL_DMA_GET_DME_FLAG_INDEX(hdma));
 795              		.loc 1 193 5 discriminator 9 view .LVU183
ARM GAS  /tmp/ccf9br4W.s 			page 23


 796 03ea A2F58962 		sub	r2, r2, #1096
 797 03ee 9342     		cmp	r3, r2
 798 03f0 00F09F81 		beq	.L161
 193:Drivers/STM32F7xx_HAL_Driver/Src/stm32f7xx_hal_dma_ex.c ****     __HAL_DMA_CLEAR_FLAG (hdma, __HAL_DMA_GET_DME_FLAG_INDEX(hdma));
 799              		.loc 1 193 5 discriminator 11 view .LVU184
 800 03f4 02F58062 		add	r2, r2, #1024
 801 03f8 9342     		cmp	r3, r2
 802 03fa 00F09D81 		beq	.L162
 193:Drivers/STM32F7xx_HAL_Driver/Src/stm32f7xx_hal_dma_ex.c ****     __HAL_DMA_CLEAR_FLAG (hdma, __HAL_DMA_GET_DME_FLAG_INDEX(hdma));
 803              		.loc 1 193 5 discriminator 13 view .LVU185
 804 03fe A2F56872 		sub	r2, r2, #928
 805 0402 9342     		cmp	r3, r2
 806 0404 00F09B81 		beq	.L163
 193:Drivers/STM32F7xx_HAL_Driver/Src/stm32f7xx_hal_dma_ex.c ****     __HAL_DMA_CLEAR_FLAG (hdma, __HAL_DMA_GET_DME_FLAG_INDEX(hdma));
 807              		.loc 1 193 5 discriminator 15 view .LVU186
 808 0408 02F58062 		add	r2, r2, #1024
 809 040c 9342     		cmp	r3, r2
 810 040e 00F09981 		beq	.L164
 193:Drivers/STM32F7xx_HAL_Driver/Src/stm32f7xx_hal_dma_ex.c ****     __HAL_DMA_CLEAR_FLAG (hdma, __HAL_DMA_GET_DME_FLAG_INDEX(hdma));
 811              		.loc 1 193 5 discriminator 17 view .LVU187
 812 0412 A2F58962 		sub	r2, r2, #1096
 813 0416 9342     		cmp	r3, r2
 814 0418 00F09781 		beq	.L165
 193:Drivers/STM32F7xx_HAL_Driver/Src/stm32f7xx_hal_dma_ex.c ****     __HAL_DMA_CLEAR_FLAG (hdma, __HAL_DMA_GET_DME_FLAG_INDEX(hdma));
 815              		.loc 1 193 5 discriminator 19 view .LVU188
 816 041c 02F58062 		add	r2, r2, #1024
 817 0420 9342     		cmp	r3, r2
 818 0422 00F09581 		beq	.L166
 193:Drivers/STM32F7xx_HAL_Driver/Src/stm32f7xx_hal_dma_ex.c ****     __HAL_DMA_CLEAR_FLAG (hdma, __HAL_DMA_GET_DME_FLAG_INDEX(hdma));
 819              		.loc 1 193 5 discriminator 21 view .LVU189
 820 0426 A2F56872 		sub	r2, r2, #928
 821 042a 9342     		cmp	r3, r2
 822 042c 00F09381 		beq	.L167
 193:Drivers/STM32F7xx_HAL_Driver/Src/stm32f7xx_hal_dma_ex.c ****     __HAL_DMA_CLEAR_FLAG (hdma, __HAL_DMA_GET_DME_FLAG_INDEX(hdma));
 823              		.loc 1 193 5 discriminator 23 view .LVU190
 824 0430 02F58062 		add	r2, r2, #1024
 825 0434 9342     		cmp	r3, r2
 826 0436 00F02C81 		beq	.L309
 193:Drivers/STM32F7xx_HAL_Driver/Src/stm32f7xx_hal_dma_ex.c ****     __HAL_DMA_CLEAR_FLAG (hdma, __HAL_DMA_GET_DME_FLAG_INDEX(hdma));
 827              		.loc 1 193 5 view .LVU191
 828 043a 4FF00072 		mov	r2, #33554432
 829 043e 2CE1     		b	.L35
 830              	.L110:
 192:Drivers/STM32F7xx_HAL_Driver/Src/stm32f7xx_hal_dma_ex.c ****     __HAL_DMA_CLEAR_FLAG (hdma, __HAL_DMA_GET_TE_FLAG_INDEX(hdma));
 831              		.loc 1 192 5 view .LVU192
 832 0440 1022     		movs	r2, #16
 833 0442 B7E7     		b	.L27
 834              	.L111:
 835 0444 1022     		movs	r2, #16
 836 0446 B5E7     		b	.L27
 837              	.L112:
 838 0448 1022     		movs	r2, #16
 839 044a B3E7     		b	.L27
 840              	.L113:
 841 044c 4FF48062 		mov	r2, #1024
 842 0450 B0E7     		b	.L27
 843              	.L114:
ARM GAS  /tmp/ccf9br4W.s 			page 24


 844 0452 4FF48062 		mov	r2, #1024
 845 0456 ADE7     		b	.L27
 846              	.L115:
 847 0458 4FF48062 		mov	r2, #1024
 848 045c AAE7     		b	.L27
 849              	.L116:
 850 045e 4FF48062 		mov	r2, #1024
 851 0462 A7E7     		b	.L27
 852              	.L117:
 853 0464 4FF48012 		mov	r2, #1048576
 854 0468 A4E7     		b	.L27
 855              	.L118:
 856 046a 4FF48012 		mov	r2, #1048576
 857 046e A1E7     		b	.L27
 858              	.L119:
 859 0470 4FF48012 		mov	r2, #1048576
 860 0474 9EE7     		b	.L27
 861              	.L26:
 192:Drivers/STM32F7xx_HAL_Driver/Src/stm32f7xx_hal_dma_ex.c ****     __HAL_DMA_CLEAR_FLAG (hdma, __HAL_DMA_GET_TE_FLAG_INDEX(hdma));
 862              		.loc 1 192 5 discriminator 2 view .LVU193
 863 0476 594A     		ldr	r2, .L327+16
 864 0478 9342     		cmp	r3, r2
 865 047a 53D9     		bls	.L29
 192:Drivers/STM32F7xx_HAL_Driver/Src/stm32f7xx_hal_dma_ex.c ****     __HAL_DMA_CLEAR_FLAG (hdma, __HAL_DMA_GET_TE_FLAG_INDEX(hdma));
 866              		.loc 1 192 5 discriminator 51 view .LVU194
 867 047c A83A     		subs	r2, r2, #168
 868 047e 9342     		cmp	r3, r2
 869 0480 31D0     		beq	.L121
 192:Drivers/STM32F7xx_HAL_Driver/Src/stm32f7xx_hal_dma_ex.c ****     __HAL_DMA_CLEAR_FLAG (hdma, __HAL_DMA_GET_TE_FLAG_INDEX(hdma));
 870              		.loc 1 192 5 discriminator 53 view .LVU195
 871 0482 02F58062 		add	r2, r2, #1024
 872 0486 9342     		cmp	r3, r2
 873 0488 31D0     		beq	.L122
 192:Drivers/STM32F7xx_HAL_Driver/Src/stm32f7xx_hal_dma_ex.c ****     __HAL_DMA_CLEAR_FLAG (hdma, __HAL_DMA_GET_TE_FLAG_INDEX(hdma));
 874              		.loc 1 192 5 discriminator 55 view .LVU196
 875 048a A2F56872 		sub	r2, r2, #928
 876 048e 9342     		cmp	r3, r2
 877 0490 2FD0     		beq	.L123
 192:Drivers/STM32F7xx_HAL_Driver/Src/stm32f7xx_hal_dma_ex.c ****     __HAL_DMA_CLEAR_FLAG (hdma, __HAL_DMA_GET_TE_FLAG_INDEX(hdma));
 878              		.loc 1 192 5 discriminator 57 view .LVU197
 879 0492 02F58062 		add	r2, r2, #1024
 880 0496 9342     		cmp	r3, r2
 881 0498 2DD0     		beq	.L124
 192:Drivers/STM32F7xx_HAL_Driver/Src/stm32f7xx_hal_dma_ex.c ****     __HAL_DMA_CLEAR_FLAG (hdma, __HAL_DMA_GET_TE_FLAG_INDEX(hdma));
 882              		.loc 1 192 5 discriminator 59 view .LVU198
 883 049a A2F58962 		sub	r2, r2, #1096
 884 049e 9342     		cmp	r3, r2
 885 04a0 2BD0     		beq	.L125
 192:Drivers/STM32F7xx_HAL_Driver/Src/stm32f7xx_hal_dma_ex.c ****     __HAL_DMA_CLEAR_FLAG (hdma, __HAL_DMA_GET_TE_FLAG_INDEX(hdma));
 886              		.loc 1 192 5 discriminator 61 view .LVU199
 887 04a2 02F58062 		add	r2, r2, #1024
 888 04a6 9342     		cmp	r3, r2
 889 04a8 2AD0     		beq	.L126
 192:Drivers/STM32F7xx_HAL_Driver/Src/stm32f7xx_hal_dma_ex.c ****     __HAL_DMA_CLEAR_FLAG (hdma, __HAL_DMA_GET_TE_FLAG_INDEX(hdma));
 890              		.loc 1 192 5 discriminator 63 view .LVU200
 891 04aa A2F56872 		sub	r2, r2, #928
 892 04ae 9342     		cmp	r3, r2
ARM GAS  /tmp/ccf9br4W.s 			page 25


 893 04b0 29D0     		beq	.L127
 192:Drivers/STM32F7xx_HAL_Driver/Src/stm32f7xx_hal_dma_ex.c ****     __HAL_DMA_CLEAR_FLAG (hdma, __HAL_DMA_GET_TE_FLAG_INDEX(hdma));
 894              		.loc 1 192 5 discriminator 65 view .LVU201
 895 04b2 02F58062 		add	r2, r2, #1024
 896 04b6 9342     		cmp	r3, r2
 897 04b8 28D0     		beq	.L128
 192:Drivers/STM32F7xx_HAL_Driver/Src/stm32f7xx_hal_dma_ex.c ****     __HAL_DMA_CLEAR_FLAG (hdma, __HAL_DMA_GET_TE_FLAG_INDEX(hdma));
 898              		.loc 1 192 5 discriminator 67 view .LVU202
 899 04ba A2F58962 		sub	r2, r2, #1096
 900 04be 9342     		cmp	r3, r2
 901 04c0 27D0     		beq	.L129
 192:Drivers/STM32F7xx_HAL_Driver/Src/stm32f7xx_hal_dma_ex.c ****     __HAL_DMA_CLEAR_FLAG (hdma, __HAL_DMA_GET_TE_FLAG_INDEX(hdma));
 902              		.loc 1 192 5 discriminator 69 view .LVU203
 903 04c2 02F58062 		add	r2, r2, #1024
 904 04c6 9342     		cmp	r3, r2
 905 04c8 26D0     		beq	.L130
 192:Drivers/STM32F7xx_HAL_Driver/Src/stm32f7xx_hal_dma_ex.c ****     __HAL_DMA_CLEAR_FLAG (hdma, __HAL_DMA_GET_TE_FLAG_INDEX(hdma));
 906              		.loc 1 192 5 discriminator 71 view .LVU204
 907 04ca A2F56872 		sub	r2, r2, #928
 908 04ce 9342     		cmp	r3, r2
 909 04d0 25D0     		beq	.L131
 192:Drivers/STM32F7xx_HAL_Driver/Src/stm32f7xx_hal_dma_ex.c ****     __HAL_DMA_CLEAR_FLAG (hdma, __HAL_DMA_GET_TE_FLAG_INDEX(hdma));
 910              		.loc 1 192 5 discriminator 73 view .LVU205
 911 04d2 02F58062 		add	r2, r2, #1024
 912 04d6 9342     		cmp	r3, r2
 913 04d8 02D0     		beq	.L310
 192:Drivers/STM32F7xx_HAL_Driver/Src/stm32f7xx_hal_dma_ex.c ****     __HAL_DMA_CLEAR_FLAG (hdma, __HAL_DMA_GET_TE_FLAG_INDEX(hdma));
 914              		.loc 1 192 5 view .LVU206
 915 04da 4FF08062 		mov	r2, #67108864
 916 04de 03E0     		b	.L30
 917              	.L310:
 918 04e0 4FF48012 		mov	r2, #1048576
 919 04e4 00E0     		b	.L30
 920              	.L121:
 921 04e6 1022     		movs	r2, #16
 922              	.L30:
 192:Drivers/STM32F7xx_HAL_Driver/Src/stm32f7xx_hal_dma_ex.c ****     __HAL_DMA_CLEAR_FLAG (hdma, __HAL_DMA_GET_TE_FLAG_INDEX(hdma));
 923              		.loc 1 192 5 discriminator 100 view .LVU207
 924 04e8 3A4B     		ldr	r3, .L327+8
 925 04ea 9A60     		str	r2, [r3, #8]
 926 04ec 64E7     		b	.L28
 927              	.L122:
 192:Drivers/STM32F7xx_HAL_Driver/Src/stm32f7xx_hal_dma_ex.c ****     __HAL_DMA_CLEAR_FLAG (hdma, __HAL_DMA_GET_TE_FLAG_INDEX(hdma));
 928              		.loc 1 192 5 view .LVU208
 929 04ee 1022     		movs	r2, #16
 930 04f0 FAE7     		b	.L30
 931              	.L123:
 932 04f2 1022     		movs	r2, #16
 933 04f4 F8E7     		b	.L30
 934              	.L124:
 935 04f6 1022     		movs	r2, #16
 936 04f8 F6E7     		b	.L30
 937              	.L125:
 938 04fa 4FF48062 		mov	r2, #1024
 939 04fe F3E7     		b	.L30
 940              	.L126:
 941 0500 4FF48062 		mov	r2, #1024
ARM GAS  /tmp/ccf9br4W.s 			page 26


 942 0504 F0E7     		b	.L30
 943              	.L127:
 944 0506 4FF48062 		mov	r2, #1024
 945 050a EDE7     		b	.L30
 946              	.L128:
 947 050c 4FF48062 		mov	r2, #1024
 948 0510 EAE7     		b	.L30
 949              	.L129:
 950 0512 4FF48012 		mov	r2, #1048576
 951 0516 E7E7     		b	.L30
 952              	.L130:
 953 0518 4FF48012 		mov	r2, #1048576
 954 051c E4E7     		b	.L30
 955              	.L131:
 956 051e 4FF48012 		mov	r2, #1048576
 957 0522 E1E7     		b	.L30
 958              	.L29:
 192:Drivers/STM32F7xx_HAL_Driver/Src/stm32f7xx_hal_dma_ex.c ****     __HAL_DMA_CLEAR_FLAG (hdma, __HAL_DMA_GET_TE_FLAG_INDEX(hdma));
 959              		.loc 1 192 5 discriminator 52 view .LVU209
 960 0524 2E4A     		ldr	r2, .L327+20
 961 0526 9342     		cmp	r3, r2
 962 0528 5FD9     		bls	.L31
 192:Drivers/STM32F7xx_HAL_Driver/Src/stm32f7xx_hal_dma_ex.c ****     __HAL_DMA_CLEAR_FLAG (hdma, __HAL_DMA_GET_TE_FLAG_INDEX(hdma));
 963              		.loc 1 192 5 discriminator 102 view .LVU210
 964 052a 483A     		subs	r2, r2, #72
 965 052c 9342     		cmp	r3, r2
 966 052e 31D0     		beq	.L133
 192:Drivers/STM32F7xx_HAL_Driver/Src/stm32f7xx_hal_dma_ex.c ****     __HAL_DMA_CLEAR_FLAG (hdma, __HAL_DMA_GET_TE_FLAG_INDEX(hdma));
 967              		.loc 1 192 5 discriminator 104 view .LVU211
 968 0530 02F58062 		add	r2, r2, #1024
 969 0534 9342     		cmp	r3, r2
 970 0536 31D0     		beq	.L134
 192:Drivers/STM32F7xx_HAL_Driver/Src/stm32f7xx_hal_dma_ex.c ****     __HAL_DMA_CLEAR_FLAG (hdma, __HAL_DMA_GET_TE_FLAG_INDEX(hdma));
 971              		.loc 1 192 5 discriminator 106 view .LVU212
 972 0538 A2F56872 		sub	r2, r2, #928
 973 053c 9342     		cmp	r3, r2
 974 053e 2FD0     		beq	.L135
 192:Drivers/STM32F7xx_HAL_Driver/Src/stm32f7xx_hal_dma_ex.c ****     __HAL_DMA_CLEAR_FLAG (hdma, __HAL_DMA_GET_TE_FLAG_INDEX(hdma));
 975              		.loc 1 192 5 discriminator 108 view .LVU213
 976 0540 02F58062 		add	r2, r2, #1024
 977 0544 9342     		cmp	r3, r2
 978 0546 2DD0     		beq	.L136
 192:Drivers/STM32F7xx_HAL_Driver/Src/stm32f7xx_hal_dma_ex.c ****     __HAL_DMA_CLEAR_FLAG (hdma, __HAL_DMA_GET_TE_FLAG_INDEX(hdma));
 979              		.loc 1 192 5 discriminator 110 view .LVU214
 980 0548 A2F58962 		sub	r2, r2, #1096
 981 054c 9342     		cmp	r3, r2
 982 054e 2BD0     		beq	.L137
 192:Drivers/STM32F7xx_HAL_Driver/Src/stm32f7xx_hal_dma_ex.c ****     __HAL_DMA_CLEAR_FLAG (hdma, __HAL_DMA_GET_TE_FLAG_INDEX(hdma));
 983              		.loc 1 192 5 discriminator 112 view .LVU215
 984 0550 02F58062 		add	r2, r2, #1024
 985 0554 9342     		cmp	r3, r2
 986 0556 2AD0     		beq	.L138
 192:Drivers/STM32F7xx_HAL_Driver/Src/stm32f7xx_hal_dma_ex.c ****     __HAL_DMA_CLEAR_FLAG (hdma, __HAL_DMA_GET_TE_FLAG_INDEX(hdma));
 987              		.loc 1 192 5 discriminator 114 view .LVU216
 988 0558 A2F56872 		sub	r2, r2, #928
 989 055c 9342     		cmp	r3, r2
 990 055e 29D0     		beq	.L139
ARM GAS  /tmp/ccf9br4W.s 			page 27


 192:Drivers/STM32F7xx_HAL_Driver/Src/stm32f7xx_hal_dma_ex.c ****     __HAL_DMA_CLEAR_FLAG (hdma, __HAL_DMA_GET_TE_FLAG_INDEX(hdma));
 991              		.loc 1 192 5 discriminator 116 view .LVU217
 992 0560 02F58062 		add	r2, r2, #1024
 993 0564 9342     		cmp	r3, r2
 994 0566 28D0     		beq	.L140
 192:Drivers/STM32F7xx_HAL_Driver/Src/stm32f7xx_hal_dma_ex.c ****     __HAL_DMA_CLEAR_FLAG (hdma, __HAL_DMA_GET_TE_FLAG_INDEX(hdma));
 995              		.loc 1 192 5 discriminator 118 view .LVU218
 996 0568 A2F58962 		sub	r2, r2, #1096
 997 056c 9342     		cmp	r3, r2
 998 056e 27D0     		beq	.L141
 192:Drivers/STM32F7xx_HAL_Driver/Src/stm32f7xx_hal_dma_ex.c ****     __HAL_DMA_CLEAR_FLAG (hdma, __HAL_DMA_GET_TE_FLAG_INDEX(hdma));
 999              		.loc 1 192 5 discriminator 120 view .LVU219
 1000 0570 02F58062 		add	r2, r2, #1024
 1001 0574 9342     		cmp	r3, r2
 1002 0576 26D0     		beq	.L142
 192:Drivers/STM32F7xx_HAL_Driver/Src/stm32f7xx_hal_dma_ex.c ****     __HAL_DMA_CLEAR_FLAG (hdma, __HAL_DMA_GET_TE_FLAG_INDEX(hdma));
 1003              		.loc 1 192 5 discriminator 122 view .LVU220
 1004 0578 A2F56872 		sub	r2, r2, #928
 1005 057c 9342     		cmp	r3, r2
 1006 057e 31D0     		beq	.L143
 192:Drivers/STM32F7xx_HAL_Driver/Src/stm32f7xx_hal_dma_ex.c ****     __HAL_DMA_CLEAR_FLAG (hdma, __HAL_DMA_GET_TE_FLAG_INDEX(hdma));
 1007              		.loc 1 192 5 discriminator 124 view .LVU221
 1008 0580 02F58062 		add	r2, r2, #1024
 1009 0584 9342     		cmp	r3, r2
 1010 0586 02D0     		beq	.L311
 192:Drivers/STM32F7xx_HAL_Driver/Src/stm32f7xx_hal_dma_ex.c ****     __HAL_DMA_CLEAR_FLAG (hdma, __HAL_DMA_GET_TE_FLAG_INDEX(hdma));
 1011              		.loc 1 192 5 view .LVU222
 1012 0588 4FF08063 		mov	r3, #67108864
 1013 058c 03E0     		b	.L32
 1014              	.L311:
 1015 058e 4FF48013 		mov	r3, #1048576
 1016 0592 00E0     		b	.L32
 1017              	.L133:
 1018 0594 1023     		movs	r3, #16
 1019              	.L32:
 192:Drivers/STM32F7xx_HAL_Driver/Src/stm32f7xx_hal_dma_ex.c ****     __HAL_DMA_CLEAR_FLAG (hdma, __HAL_DMA_GET_TE_FLAG_INDEX(hdma));
 1020              		.loc 1 192 5 discriminator 151 view .LVU223
 1021 0596 0E4A     		ldr	r2, .L327+4
 1022 0598 D360     		str	r3, [r2, #12]
 1023 059a 0DE7     		b	.L28
 1024              	.L134:
 192:Drivers/STM32F7xx_HAL_Driver/Src/stm32f7xx_hal_dma_ex.c ****     __HAL_DMA_CLEAR_FLAG (hdma, __HAL_DMA_GET_TE_FLAG_INDEX(hdma));
 1025              		.loc 1 192 5 view .LVU224
 1026 059c 1023     		movs	r3, #16
 1027 059e FAE7     		b	.L32
 1028              	.L135:
 1029 05a0 1023     		movs	r3, #16
 1030 05a2 F8E7     		b	.L32
 1031              	.L136:
 1032 05a4 1023     		movs	r3, #16
 1033 05a6 F6E7     		b	.L32
 1034              	.L137:
 1035 05a8 4FF48063 		mov	r3, #1024
 1036 05ac F3E7     		b	.L32
 1037              	.L138:
 1038 05ae 4FF48063 		mov	r3, #1024
 1039 05b2 F0E7     		b	.L32
ARM GAS  /tmp/ccf9br4W.s 			page 28


 1040              	.L139:
 1041 05b4 4FF48063 		mov	r3, #1024
 1042 05b8 EDE7     		b	.L32
 1043              	.L140:
 1044 05ba 4FF48063 		mov	r3, #1024
 1045 05be EAE7     		b	.L32
 1046              	.L141:
 1047 05c0 4FF48013 		mov	r3, #1048576
 1048 05c4 E7E7     		b	.L32
 1049              	.L142:
 1050 05c6 4FF48013 		mov	r3, #1048576
 1051 05ca E4E7     		b	.L32
 1052              	.L328:
 1053              		.align	2
 1054              	.L327:
 1055 05cc 10600240 		.word	1073897488
 1056 05d0 00600240 		.word	1073897472
 1057 05d4 00640240 		.word	1073898496
 1058 05d8 58640240 		.word	1073898584
 1059 05dc B8600240 		.word	1073897656
 1060 05e0 58600240 		.word	1073897560
 1061              	.L143:
 1062 05e4 4FF48013 		mov	r3, #1048576
 1063 05e8 D5E7     		b	.L32
 1064              	.L31:
 192:Drivers/STM32F7xx_HAL_Driver/Src/stm32f7xx_hal_dma_ex.c ****     __HAL_DMA_CLEAR_FLAG (hdma, __HAL_DMA_GET_TE_FLAG_INDEX(hdma));
 1065              		.loc 1 192 5 discriminator 103 view .LVU225
 1066 05ea B24A     		ldr	r2, .L329
 1067 05ec 9342     		cmp	r3, r2
 1068 05ee 31D0     		beq	.L145
 192:Drivers/STM32F7xx_HAL_Driver/Src/stm32f7xx_hal_dma_ex.c ****     __HAL_DMA_CLEAR_FLAG (hdma, __HAL_DMA_GET_TE_FLAG_INDEX(hdma));
 1069              		.loc 1 192 5 discriminator 153 view .LVU226
 1070 05f0 02F58062 		add	r2, r2, #1024
 1071 05f4 9342     		cmp	r3, r2
 1072 05f6 31D0     		beq	.L146
 192:Drivers/STM32F7xx_HAL_Driver/Src/stm32f7xx_hal_dma_ex.c ****     __HAL_DMA_CLEAR_FLAG (hdma, __HAL_DMA_GET_TE_FLAG_INDEX(hdma));
 1073              		.loc 1 192 5 discriminator 155 view .LVU227
 1074 05f8 A2F56872 		sub	r2, r2, #928
 1075 05fc 9342     		cmp	r3, r2
 1076 05fe 2FD0     		beq	.L147
 192:Drivers/STM32F7xx_HAL_Driver/Src/stm32f7xx_hal_dma_ex.c ****     __HAL_DMA_CLEAR_FLAG (hdma, __HAL_DMA_GET_TE_FLAG_INDEX(hdma));
 1077              		.loc 1 192 5 discriminator 157 view .LVU228
 1078 0600 02F58062 		add	r2, r2, #1024
 1079 0604 9342     		cmp	r3, r2
 1080 0606 2DD0     		beq	.L148
 192:Drivers/STM32F7xx_HAL_Driver/Src/stm32f7xx_hal_dma_ex.c ****     __HAL_DMA_CLEAR_FLAG (hdma, __HAL_DMA_GET_TE_FLAG_INDEX(hdma));
 1081              		.loc 1 192 5 discriminator 159 view .LVU229
 1082 0608 A2F58962 		sub	r2, r2, #1096
 1083 060c 9342     		cmp	r3, r2
 1084 060e 2BD0     		beq	.L149
 192:Drivers/STM32F7xx_HAL_Driver/Src/stm32f7xx_hal_dma_ex.c ****     __HAL_DMA_CLEAR_FLAG (hdma, __HAL_DMA_GET_TE_FLAG_INDEX(hdma));
 1085              		.loc 1 192 5 discriminator 161 view .LVU230
 1086 0610 02F58062 		add	r2, r2, #1024
 1087 0614 9342     		cmp	r3, r2
 1088 0616 2AD0     		beq	.L150
 192:Drivers/STM32F7xx_HAL_Driver/Src/stm32f7xx_hal_dma_ex.c ****     __HAL_DMA_CLEAR_FLAG (hdma, __HAL_DMA_GET_TE_FLAG_INDEX(hdma));
 1089              		.loc 1 192 5 discriminator 163 view .LVU231
ARM GAS  /tmp/ccf9br4W.s 			page 29


 1090 0618 A2F56872 		sub	r2, r2, #928
 1091 061c 9342     		cmp	r3, r2
 1092 061e 29D0     		beq	.L151
 192:Drivers/STM32F7xx_HAL_Driver/Src/stm32f7xx_hal_dma_ex.c ****     __HAL_DMA_CLEAR_FLAG (hdma, __HAL_DMA_GET_TE_FLAG_INDEX(hdma));
 1093              		.loc 1 192 5 discriminator 165 view .LVU232
 1094 0620 02F58062 		add	r2, r2, #1024
 1095 0624 9342     		cmp	r3, r2
 1096 0626 28D0     		beq	.L152
 192:Drivers/STM32F7xx_HAL_Driver/Src/stm32f7xx_hal_dma_ex.c ****     __HAL_DMA_CLEAR_FLAG (hdma, __HAL_DMA_GET_TE_FLAG_INDEX(hdma));
 1097              		.loc 1 192 5 discriminator 167 view .LVU233
 1098 0628 A2F58962 		sub	r2, r2, #1096
 1099 062c 9342     		cmp	r3, r2
 1100 062e 27D0     		beq	.L153
 192:Drivers/STM32F7xx_HAL_Driver/Src/stm32f7xx_hal_dma_ex.c ****     __HAL_DMA_CLEAR_FLAG (hdma, __HAL_DMA_GET_TE_FLAG_INDEX(hdma));
 1101              		.loc 1 192 5 discriminator 169 view .LVU234
 1102 0630 02F58062 		add	r2, r2, #1024
 1103 0634 9342     		cmp	r3, r2
 1104 0636 26D0     		beq	.L154
 192:Drivers/STM32F7xx_HAL_Driver/Src/stm32f7xx_hal_dma_ex.c ****     __HAL_DMA_CLEAR_FLAG (hdma, __HAL_DMA_GET_TE_FLAG_INDEX(hdma));
 1105              		.loc 1 192 5 discriminator 171 view .LVU235
 1106 0638 A2F56872 		sub	r2, r2, #928
 1107 063c 9342     		cmp	r3, r2
 1108 063e 25D0     		beq	.L155
 192:Drivers/STM32F7xx_HAL_Driver/Src/stm32f7xx_hal_dma_ex.c ****     __HAL_DMA_CLEAR_FLAG (hdma, __HAL_DMA_GET_TE_FLAG_INDEX(hdma));
 1109              		.loc 1 192 5 discriminator 173 view .LVU236
 1110 0640 02F58062 		add	r2, r2, #1024
 1111 0644 9342     		cmp	r3, r2
 1112 0646 02D0     		beq	.L312
 192:Drivers/STM32F7xx_HAL_Driver/Src/stm32f7xx_hal_dma_ex.c ****     __HAL_DMA_CLEAR_FLAG (hdma, __HAL_DMA_GET_TE_FLAG_INDEX(hdma));
 1113              		.loc 1 192 5 view .LVU237
 1114 0648 4FF08063 		mov	r3, #67108864
 1115 064c 03E0     		b	.L33
 1116              	.L312:
 1117 064e 4FF48013 		mov	r3, #1048576
 1118 0652 00E0     		b	.L33
 1119              	.L145:
 1120 0654 1023     		movs	r3, #16
 1121              	.L33:
 192:Drivers/STM32F7xx_HAL_Driver/Src/stm32f7xx_hal_dma_ex.c ****     __HAL_DMA_CLEAR_FLAG (hdma, __HAL_DMA_GET_TE_FLAG_INDEX(hdma));
 1122              		.loc 1 192 5 discriminator 200 view .LVU238
 1123 0656 984A     		ldr	r2, .L329+4
 1124 0658 9360     		str	r3, [r2, #8]
 1125 065a ADE6     		b	.L28
 1126              	.L146:
 192:Drivers/STM32F7xx_HAL_Driver/Src/stm32f7xx_hal_dma_ex.c ****     __HAL_DMA_CLEAR_FLAG (hdma, __HAL_DMA_GET_TE_FLAG_INDEX(hdma));
 1127              		.loc 1 192 5 view .LVU239
 1128 065c 1023     		movs	r3, #16
 1129 065e FAE7     		b	.L33
 1130              	.L147:
 1131 0660 1023     		movs	r3, #16
 1132 0662 F8E7     		b	.L33
 1133              	.L148:
 1134 0664 1023     		movs	r3, #16
 1135 0666 F6E7     		b	.L33
 1136              	.L149:
 1137 0668 4FF48063 		mov	r3, #1024
 1138 066c F3E7     		b	.L33
ARM GAS  /tmp/ccf9br4W.s 			page 30


 1139              	.L150:
 1140 066e 4FF48063 		mov	r3, #1024
 1141 0672 F0E7     		b	.L33
 1142              	.L151:
 1143 0674 4FF48063 		mov	r3, #1024
 1144 0678 EDE7     		b	.L33
 1145              	.L152:
 1146 067a 4FF48063 		mov	r3, #1024
 1147 067e EAE7     		b	.L33
 1148              	.L153:
 1149 0680 4FF48013 		mov	r3, #1048576
 1150 0684 E7E7     		b	.L33
 1151              	.L154:
 1152 0686 4FF48013 		mov	r3, #1048576
 1153 068a E4E7     		b	.L33
 1154              	.L155:
 1155 068c 4FF48013 		mov	r3, #1048576
 1156 0690 E1E7     		b	.L33
 1157              	.L309:
 193:Drivers/STM32F7xx_HAL_Driver/Src/stm32f7xx_hal_dma_ex.c ****     __HAL_DMA_CLEAR_FLAG (hdma, __HAL_DMA_GET_DME_FLAG_INDEX(hdma));
 1158              		.loc 1 193 5 view .LVU240
 1159 0692 4FF40022 		mov	r2, #524288
 1160 0696 00E0     		b	.L35
 1161              	.L157:
 1162 0698 0822     		movs	r2, #8
 1163              	.L35:
 193:Drivers/STM32F7xx_HAL_Driver/Src/stm32f7xx_hal_dma_ex.c ****     __HAL_DMA_CLEAR_FLAG (hdma, __HAL_DMA_GET_DME_FLAG_INDEX(hdma));
 1164              		.loc 1 193 5 discriminator 50 view .LVU241
 1165 069a 884B     		ldr	r3, .L329+8
 1166 069c DA60     		str	r2, [r3, #12]
 1167              	.L36:
 194:Drivers/STM32F7xx_HAL_Driver/Src/stm32f7xx_hal_dma_ex.c ****     __HAL_DMA_CLEAR_FLAG (hdma, __HAL_DMA_GET_FE_FLAG_INDEX(hdma));
 1168              		.loc 1 194 5 is_stmt 1 view .LVU242
 1169 069e 2368     		ldr	r3, [r4]
 1170 06a0 874A     		ldr	r2, .L329+12
 1171 06a2 9342     		cmp	r3, r2
 1172 06a4 40F2CE81 		bls	.L42
 194:Drivers/STM32F7xx_HAL_Driver/Src/stm32f7xx_hal_dma_ex.c ****     __HAL_DMA_CLEAR_FLAG (hdma, __HAL_DMA_GET_FE_FLAG_INDEX(hdma));
 1173              		.loc 1 194 5 is_stmt 0 discriminator 1 view .LVU243
 1174 06a8 A2F58962 		sub	r2, r2, #1096
 1175 06ac 9342     		cmp	r3, r2
 1176 06ae 00F06781 		beq	.L205
 194:Drivers/STM32F7xx_HAL_Driver/Src/stm32f7xx_hal_dma_ex.c ****     __HAL_DMA_CLEAR_FLAG (hdma, __HAL_DMA_GET_FE_FLAG_INDEX(hdma));
 1177              		.loc 1 194 5 discriminator 3 view .LVU244
 1178 06b2 02F58062 		add	r2, r2, #1024
 1179 06b6 9342     		cmp	r3, r2
 1180 06b8 00F0A981 		beq	.L206
 194:Drivers/STM32F7xx_HAL_Driver/Src/stm32f7xx_hal_dma_ex.c ****     __HAL_DMA_CLEAR_FLAG (hdma, __HAL_DMA_GET_FE_FLAG_INDEX(hdma));
 1181              		.loc 1 194 5 discriminator 5 view .LVU245
 1182 06bc A2F56872 		sub	r2, r2, #928
 1183 06c0 9342     		cmp	r3, r2
 1184 06c2 00F0A681 		beq	.L207
 194:Drivers/STM32F7xx_HAL_Driver/Src/stm32f7xx_hal_dma_ex.c ****     __HAL_DMA_CLEAR_FLAG (hdma, __HAL_DMA_GET_FE_FLAG_INDEX(hdma));
 1185              		.loc 1 194 5 discriminator 7 view .LVU246
 1186 06c6 02F58062 		add	r2, r2, #1024
 1187 06ca 9342     		cmp	r3, r2
 1188 06cc 00F0A381 		beq	.L208
ARM GAS  /tmp/ccf9br4W.s 			page 31


 194:Drivers/STM32F7xx_HAL_Driver/Src/stm32f7xx_hal_dma_ex.c ****     __HAL_DMA_CLEAR_FLAG (hdma, __HAL_DMA_GET_FE_FLAG_INDEX(hdma));
 1189              		.loc 1 194 5 discriminator 9 view .LVU247
 1190 06d0 A2F58962 		sub	r2, r2, #1096
 1191 06d4 9342     		cmp	r3, r2
 1192 06d6 00F0A081 		beq	.L209
 194:Drivers/STM32F7xx_HAL_Driver/Src/stm32f7xx_hal_dma_ex.c ****     __HAL_DMA_CLEAR_FLAG (hdma, __HAL_DMA_GET_FE_FLAG_INDEX(hdma));
 1193              		.loc 1 194 5 discriminator 11 view .LVU248
 1194 06da 02F58062 		add	r2, r2, #1024
 1195 06de 9342     		cmp	r3, r2
 1196 06e0 00F09E81 		beq	.L210
 194:Drivers/STM32F7xx_HAL_Driver/Src/stm32f7xx_hal_dma_ex.c ****     __HAL_DMA_CLEAR_FLAG (hdma, __HAL_DMA_GET_FE_FLAG_INDEX(hdma));
 1197              		.loc 1 194 5 discriminator 13 view .LVU249
 1198 06e4 A2F56872 		sub	r2, r2, #928
 1199 06e8 9342     		cmp	r3, r2
 1200 06ea 00F09C81 		beq	.L211
 194:Drivers/STM32F7xx_HAL_Driver/Src/stm32f7xx_hal_dma_ex.c ****     __HAL_DMA_CLEAR_FLAG (hdma, __HAL_DMA_GET_FE_FLAG_INDEX(hdma));
 1201              		.loc 1 194 5 discriminator 15 view .LVU250
 1202 06ee 02F58062 		add	r2, r2, #1024
 1203 06f2 9342     		cmp	r3, r2
 1204 06f4 00F09A81 		beq	.L212
 194:Drivers/STM32F7xx_HAL_Driver/Src/stm32f7xx_hal_dma_ex.c ****     __HAL_DMA_CLEAR_FLAG (hdma, __HAL_DMA_GET_FE_FLAG_INDEX(hdma));
 1205              		.loc 1 194 5 discriminator 17 view .LVU251
 1206 06f8 A2F58962 		sub	r2, r2, #1096
 1207 06fc 9342     		cmp	r3, r2
 1208 06fe 00F09881 		beq	.L213
 194:Drivers/STM32F7xx_HAL_Driver/Src/stm32f7xx_hal_dma_ex.c ****     __HAL_DMA_CLEAR_FLAG (hdma, __HAL_DMA_GET_FE_FLAG_INDEX(hdma));
 1209              		.loc 1 194 5 discriminator 19 view .LVU252
 1210 0702 02F58062 		add	r2, r2, #1024
 1211 0706 9342     		cmp	r3, r2
 1212 0708 00F09681 		beq	.L214
 194:Drivers/STM32F7xx_HAL_Driver/Src/stm32f7xx_hal_dma_ex.c ****     __HAL_DMA_CLEAR_FLAG (hdma, __HAL_DMA_GET_FE_FLAG_INDEX(hdma));
 1213              		.loc 1 194 5 discriminator 21 view .LVU253
 1214 070c A2F56872 		sub	r2, r2, #928
 1215 0710 9342     		cmp	r3, r2
 1216 0712 00F09481 		beq	.L215
 194:Drivers/STM32F7xx_HAL_Driver/Src/stm32f7xx_hal_dma_ex.c ****     __HAL_DMA_CLEAR_FLAG (hdma, __HAL_DMA_GET_FE_FLAG_INDEX(hdma));
 1217              		.loc 1 194 5 discriminator 23 view .LVU254
 1218 0716 02F58062 		add	r2, r2, #1024
 1219 071a 9342     		cmp	r3, r2
 1220 071c 00F02D81 		beq	.L313
 194:Drivers/STM32F7xx_HAL_Driver/Src/stm32f7xx_hal_dma_ex.c ****     __HAL_DMA_CLEAR_FLAG (hdma, __HAL_DMA_GET_FE_FLAG_INDEX(hdma));
 1221              		.loc 1 194 5 view .LVU255
 1222 0720 4FF08072 		mov	r2, #16777216
 1223 0724 2DE1     		b	.L43
 1224              	.L158:
 193:Drivers/STM32F7xx_HAL_Driver/Src/stm32f7xx_hal_dma_ex.c ****     __HAL_DMA_CLEAR_FLAG (hdma, __HAL_DMA_GET_DME_FLAG_INDEX(hdma));
 1225              		.loc 1 193 5 view .LVU256
 1226 0726 0822     		movs	r2, #8
 1227 0728 B7E7     		b	.L35
 1228              	.L159:
 1229 072a 0822     		movs	r2, #8
 1230 072c B5E7     		b	.L35
 1231              	.L160:
 1232 072e 0822     		movs	r2, #8
 1233 0730 B3E7     		b	.L35
 1234              	.L161:
 1235 0732 4FF40072 		mov	r2, #512
ARM GAS  /tmp/ccf9br4W.s 			page 32


 1236 0736 B0E7     		b	.L35
 1237              	.L162:
 1238 0738 4FF40072 		mov	r2, #512
 1239 073c ADE7     		b	.L35
 1240              	.L163:
 1241 073e 4FF40072 		mov	r2, #512
 1242 0742 AAE7     		b	.L35
 1243              	.L164:
 1244 0744 4FF40072 		mov	r2, #512
 1245 0748 A7E7     		b	.L35
 1246              	.L165:
 1247 074a 4FF40022 		mov	r2, #524288
 1248 074e A4E7     		b	.L35
 1249              	.L166:
 1250 0750 4FF40022 		mov	r2, #524288
 1251 0754 A1E7     		b	.L35
 1252              	.L167:
 1253 0756 4FF40022 		mov	r2, #524288
 1254 075a 9EE7     		b	.L35
 1255              	.L34:
 193:Drivers/STM32F7xx_HAL_Driver/Src/stm32f7xx_hal_dma_ex.c ****     __HAL_DMA_CLEAR_FLAG (hdma, __HAL_DMA_GET_DME_FLAG_INDEX(hdma));
 1256              		.loc 1 193 5 discriminator 2 view .LVU257
 1257 075c 594A     		ldr	r2, .L329+16
 1258 075e 9342     		cmp	r3, r2
 1259 0760 53D9     		bls	.L37
 193:Drivers/STM32F7xx_HAL_Driver/Src/stm32f7xx_hal_dma_ex.c ****     __HAL_DMA_CLEAR_FLAG (hdma, __HAL_DMA_GET_DME_FLAG_INDEX(hdma));
 1260              		.loc 1 193 5 discriminator 51 view .LVU258
 1261 0762 A83A     		subs	r2, r2, #168
 1262 0764 9342     		cmp	r3, r2
 1263 0766 31D0     		beq	.L169
 193:Drivers/STM32F7xx_HAL_Driver/Src/stm32f7xx_hal_dma_ex.c ****     __HAL_DMA_CLEAR_FLAG (hdma, __HAL_DMA_GET_DME_FLAG_INDEX(hdma));
 1264              		.loc 1 193 5 discriminator 53 view .LVU259
 1265 0768 02F58062 		add	r2, r2, #1024
 1266 076c 9342     		cmp	r3, r2
 1267 076e 31D0     		beq	.L170
 193:Drivers/STM32F7xx_HAL_Driver/Src/stm32f7xx_hal_dma_ex.c ****     __HAL_DMA_CLEAR_FLAG (hdma, __HAL_DMA_GET_DME_FLAG_INDEX(hdma));
 1268              		.loc 1 193 5 discriminator 55 view .LVU260
 1269 0770 A2F56872 		sub	r2, r2, #928
 1270 0774 9342     		cmp	r3, r2
 1271 0776 2FD0     		beq	.L171
 193:Drivers/STM32F7xx_HAL_Driver/Src/stm32f7xx_hal_dma_ex.c ****     __HAL_DMA_CLEAR_FLAG (hdma, __HAL_DMA_GET_DME_FLAG_INDEX(hdma));
 1272              		.loc 1 193 5 discriminator 57 view .LVU261
 1273 0778 02F58062 		add	r2, r2, #1024
 1274 077c 9342     		cmp	r3, r2
 1275 077e 2DD0     		beq	.L172
 193:Drivers/STM32F7xx_HAL_Driver/Src/stm32f7xx_hal_dma_ex.c ****     __HAL_DMA_CLEAR_FLAG (hdma, __HAL_DMA_GET_DME_FLAG_INDEX(hdma));
 1276              		.loc 1 193 5 discriminator 59 view .LVU262
 1277 0780 A2F58962 		sub	r2, r2, #1096
 1278 0784 9342     		cmp	r3, r2
 1279 0786 2BD0     		beq	.L173
 193:Drivers/STM32F7xx_HAL_Driver/Src/stm32f7xx_hal_dma_ex.c ****     __HAL_DMA_CLEAR_FLAG (hdma, __HAL_DMA_GET_DME_FLAG_INDEX(hdma));
 1280              		.loc 1 193 5 discriminator 61 view .LVU263
 1281 0788 02F58062 		add	r2, r2, #1024
 1282 078c 9342     		cmp	r3, r2
 1283 078e 2AD0     		beq	.L174
 193:Drivers/STM32F7xx_HAL_Driver/Src/stm32f7xx_hal_dma_ex.c ****     __HAL_DMA_CLEAR_FLAG (hdma, __HAL_DMA_GET_DME_FLAG_INDEX(hdma));
 1284              		.loc 1 193 5 discriminator 63 view .LVU264
ARM GAS  /tmp/ccf9br4W.s 			page 33


 1285 0790 A2F56872 		sub	r2, r2, #928
 1286 0794 9342     		cmp	r3, r2
 1287 0796 29D0     		beq	.L175
 193:Drivers/STM32F7xx_HAL_Driver/Src/stm32f7xx_hal_dma_ex.c ****     __HAL_DMA_CLEAR_FLAG (hdma, __HAL_DMA_GET_DME_FLAG_INDEX(hdma));
 1288              		.loc 1 193 5 discriminator 65 view .LVU265
 1289 0798 02F58062 		add	r2, r2, #1024
 1290 079c 9342     		cmp	r3, r2
 1291 079e 28D0     		beq	.L176
 193:Drivers/STM32F7xx_HAL_Driver/Src/stm32f7xx_hal_dma_ex.c ****     __HAL_DMA_CLEAR_FLAG (hdma, __HAL_DMA_GET_DME_FLAG_INDEX(hdma));
 1292              		.loc 1 193 5 discriminator 67 view .LVU266
 1293 07a0 A2F58962 		sub	r2, r2, #1096
 1294 07a4 9342     		cmp	r3, r2
 1295 07a6 27D0     		beq	.L177
 193:Drivers/STM32F7xx_HAL_Driver/Src/stm32f7xx_hal_dma_ex.c ****     __HAL_DMA_CLEAR_FLAG (hdma, __HAL_DMA_GET_DME_FLAG_INDEX(hdma));
 1296              		.loc 1 193 5 discriminator 69 view .LVU267
 1297 07a8 02F58062 		add	r2, r2, #1024
 1298 07ac 9342     		cmp	r3, r2
 1299 07ae 26D0     		beq	.L178
 193:Drivers/STM32F7xx_HAL_Driver/Src/stm32f7xx_hal_dma_ex.c ****     __HAL_DMA_CLEAR_FLAG (hdma, __HAL_DMA_GET_DME_FLAG_INDEX(hdma));
 1300              		.loc 1 193 5 discriminator 71 view .LVU268
 1301 07b0 A2F56872 		sub	r2, r2, #928
 1302 07b4 9342     		cmp	r3, r2
 1303 07b6 25D0     		beq	.L179
 193:Drivers/STM32F7xx_HAL_Driver/Src/stm32f7xx_hal_dma_ex.c ****     __HAL_DMA_CLEAR_FLAG (hdma, __HAL_DMA_GET_DME_FLAG_INDEX(hdma));
 1304              		.loc 1 193 5 discriminator 73 view .LVU269
 1305 07b8 02F58062 		add	r2, r2, #1024
 1306 07bc 9342     		cmp	r3, r2
 1307 07be 02D0     		beq	.L314
 193:Drivers/STM32F7xx_HAL_Driver/Src/stm32f7xx_hal_dma_ex.c ****     __HAL_DMA_CLEAR_FLAG (hdma, __HAL_DMA_GET_DME_FLAG_INDEX(hdma));
 1308              		.loc 1 193 5 view .LVU270
 1309 07c0 4FF00072 		mov	r2, #33554432
 1310 07c4 03E0     		b	.L38
 1311              	.L314:
 1312 07c6 4FF40022 		mov	r2, #524288
 1313 07ca 00E0     		b	.L38
 1314              	.L169:
 1315 07cc 0822     		movs	r2, #8
 1316              	.L38:
 193:Drivers/STM32F7xx_HAL_Driver/Src/stm32f7xx_hal_dma_ex.c ****     __HAL_DMA_CLEAR_FLAG (hdma, __HAL_DMA_GET_DME_FLAG_INDEX(hdma));
 1317              		.loc 1 193 5 discriminator 100 view .LVU271
 1318 07ce 3B4B     		ldr	r3, .L329+8
 1319 07d0 9A60     		str	r2, [r3, #8]
 1320 07d2 64E7     		b	.L36
 1321              	.L170:
 193:Drivers/STM32F7xx_HAL_Driver/Src/stm32f7xx_hal_dma_ex.c ****     __HAL_DMA_CLEAR_FLAG (hdma, __HAL_DMA_GET_DME_FLAG_INDEX(hdma));
 1322              		.loc 1 193 5 view .LVU272
 1323 07d4 0822     		movs	r2, #8
 1324 07d6 FAE7     		b	.L38
 1325              	.L171:
 1326 07d8 0822     		movs	r2, #8
 1327 07da F8E7     		b	.L38
 1328              	.L172:
 1329 07dc 0822     		movs	r2, #8
 1330 07de F6E7     		b	.L38
 1331              	.L173:
 1332 07e0 4FF40072 		mov	r2, #512
 1333 07e4 F3E7     		b	.L38
ARM GAS  /tmp/ccf9br4W.s 			page 34


 1334              	.L174:
 1335 07e6 4FF40072 		mov	r2, #512
 1336 07ea F0E7     		b	.L38
 1337              	.L175:
 1338 07ec 4FF40072 		mov	r2, #512
 1339 07f0 EDE7     		b	.L38
 1340              	.L176:
 1341 07f2 4FF40072 		mov	r2, #512
 1342 07f6 EAE7     		b	.L38
 1343              	.L177:
 1344 07f8 4FF40022 		mov	r2, #524288
 1345 07fc E7E7     		b	.L38
 1346              	.L178:
 1347 07fe 4FF40022 		mov	r2, #524288
 1348 0802 E4E7     		b	.L38
 1349              	.L179:
 1350 0804 4FF40022 		mov	r2, #524288
 1351 0808 E1E7     		b	.L38
 1352              	.L37:
 193:Drivers/STM32F7xx_HAL_Driver/Src/stm32f7xx_hal_dma_ex.c ****     __HAL_DMA_CLEAR_FLAG (hdma, __HAL_DMA_GET_DME_FLAG_INDEX(hdma));
 1353              		.loc 1 193 5 discriminator 52 view .LVU273
 1354 080a 2F4A     		ldr	r2, .L329+20
 1355 080c 9342     		cmp	r3, r2
 1356 080e 60D9     		bls	.L39
 193:Drivers/STM32F7xx_HAL_Driver/Src/stm32f7xx_hal_dma_ex.c ****     __HAL_DMA_CLEAR_FLAG (hdma, __HAL_DMA_GET_DME_FLAG_INDEX(hdma));
 1357              		.loc 1 193 5 discriminator 102 view .LVU274
 1358 0810 483A     		subs	r2, r2, #72
 1359 0812 9342     		cmp	r3, r2
 1360 0814 31D0     		beq	.L181
 193:Drivers/STM32F7xx_HAL_Driver/Src/stm32f7xx_hal_dma_ex.c ****     __HAL_DMA_CLEAR_FLAG (hdma, __HAL_DMA_GET_DME_FLAG_INDEX(hdma));
 1361              		.loc 1 193 5 discriminator 104 view .LVU275
 1362 0816 02F58062 		add	r2, r2, #1024
 1363 081a 9342     		cmp	r3, r2
 1364 081c 31D0     		beq	.L182
 193:Drivers/STM32F7xx_HAL_Driver/Src/stm32f7xx_hal_dma_ex.c ****     __HAL_DMA_CLEAR_FLAG (hdma, __HAL_DMA_GET_DME_FLAG_INDEX(hdma));
 1365              		.loc 1 193 5 discriminator 106 view .LVU276
 1366 081e A2F56872 		sub	r2, r2, #928
 1367 0822 9342     		cmp	r3, r2
 1368 0824 2FD0     		beq	.L183
 193:Drivers/STM32F7xx_HAL_Driver/Src/stm32f7xx_hal_dma_ex.c ****     __HAL_DMA_CLEAR_FLAG (hdma, __HAL_DMA_GET_DME_FLAG_INDEX(hdma));
 1369              		.loc 1 193 5 discriminator 108 view .LVU277
 1370 0826 02F58062 		add	r2, r2, #1024
 1371 082a 9342     		cmp	r3, r2
 1372 082c 2DD0     		beq	.L184
 193:Drivers/STM32F7xx_HAL_Driver/Src/stm32f7xx_hal_dma_ex.c ****     __HAL_DMA_CLEAR_FLAG (hdma, __HAL_DMA_GET_DME_FLAG_INDEX(hdma));
 1373              		.loc 1 193 5 discriminator 110 view .LVU278
 1374 082e A2F58962 		sub	r2, r2, #1096
 1375 0832 9342     		cmp	r3, r2
 1376 0834 2BD0     		beq	.L185
 193:Drivers/STM32F7xx_HAL_Driver/Src/stm32f7xx_hal_dma_ex.c ****     __HAL_DMA_CLEAR_FLAG (hdma, __HAL_DMA_GET_DME_FLAG_INDEX(hdma));
 1377              		.loc 1 193 5 discriminator 112 view .LVU279
 1378 0836 02F58062 		add	r2, r2, #1024
 1379 083a 9342     		cmp	r3, r2
 1380 083c 2AD0     		beq	.L186
 193:Drivers/STM32F7xx_HAL_Driver/Src/stm32f7xx_hal_dma_ex.c ****     __HAL_DMA_CLEAR_FLAG (hdma, __HAL_DMA_GET_DME_FLAG_INDEX(hdma));
 1381              		.loc 1 193 5 discriminator 114 view .LVU280
 1382 083e A2F56872 		sub	r2, r2, #928
ARM GAS  /tmp/ccf9br4W.s 			page 35


 1383 0842 9342     		cmp	r3, r2
 1384 0844 29D0     		beq	.L187
 193:Drivers/STM32F7xx_HAL_Driver/Src/stm32f7xx_hal_dma_ex.c ****     __HAL_DMA_CLEAR_FLAG (hdma, __HAL_DMA_GET_DME_FLAG_INDEX(hdma));
 1385              		.loc 1 193 5 discriminator 116 view .LVU281
 1386 0846 02F58062 		add	r2, r2, #1024
 1387 084a 9342     		cmp	r3, r2
 1388 084c 28D0     		beq	.L188
 193:Drivers/STM32F7xx_HAL_Driver/Src/stm32f7xx_hal_dma_ex.c ****     __HAL_DMA_CLEAR_FLAG (hdma, __HAL_DMA_GET_DME_FLAG_INDEX(hdma));
 1389              		.loc 1 193 5 discriminator 118 view .LVU282
 1390 084e A2F58962 		sub	r2, r2, #1096
 1391 0852 9342     		cmp	r3, r2
 1392 0854 27D0     		beq	.L189
 193:Drivers/STM32F7xx_HAL_Driver/Src/stm32f7xx_hal_dma_ex.c ****     __HAL_DMA_CLEAR_FLAG (hdma, __HAL_DMA_GET_DME_FLAG_INDEX(hdma));
 1393              		.loc 1 193 5 discriminator 120 view .LVU283
 1394 0856 02F58062 		add	r2, r2, #1024
 1395 085a 9342     		cmp	r3, r2
 1396 085c 26D0     		beq	.L190
 193:Drivers/STM32F7xx_HAL_Driver/Src/stm32f7xx_hal_dma_ex.c ****     __HAL_DMA_CLEAR_FLAG (hdma, __HAL_DMA_GET_DME_FLAG_INDEX(hdma));
 1397              		.loc 1 193 5 discriminator 122 view .LVU284
 1398 085e A2F56872 		sub	r2, r2, #928
 1399 0862 9342     		cmp	r3, r2
 1400 0864 32D0     		beq	.L191
 193:Drivers/STM32F7xx_HAL_Driver/Src/stm32f7xx_hal_dma_ex.c ****     __HAL_DMA_CLEAR_FLAG (hdma, __HAL_DMA_GET_DME_FLAG_INDEX(hdma));
 1401              		.loc 1 193 5 discriminator 124 view .LVU285
 1402 0866 02F58062 		add	r2, r2, #1024
 1403 086a 9342     		cmp	r3, r2
 1404 086c 02D0     		beq	.L315
 193:Drivers/STM32F7xx_HAL_Driver/Src/stm32f7xx_hal_dma_ex.c ****     __HAL_DMA_CLEAR_FLAG (hdma, __HAL_DMA_GET_DME_FLAG_INDEX(hdma));
 1405              		.loc 1 193 5 view .LVU286
 1406 086e 4FF00073 		mov	r3, #33554432
 1407 0872 03E0     		b	.L40
 1408              	.L315:
 1409 0874 4FF40023 		mov	r3, #524288
 1410 0878 00E0     		b	.L40
 1411              	.L181:
 1412 087a 0823     		movs	r3, #8
 1413              	.L40:
 193:Drivers/STM32F7xx_HAL_Driver/Src/stm32f7xx_hal_dma_ex.c ****     __HAL_DMA_CLEAR_FLAG (hdma, __HAL_DMA_GET_DME_FLAG_INDEX(hdma));
 1414              		.loc 1 193 5 discriminator 151 view .LVU287
 1415 087c 0E4A     		ldr	r2, .L329+4
 1416 087e D360     		str	r3, [r2, #12]
 1417 0880 0DE7     		b	.L36
 1418              	.L182:
 193:Drivers/STM32F7xx_HAL_Driver/Src/stm32f7xx_hal_dma_ex.c ****     __HAL_DMA_CLEAR_FLAG (hdma, __HAL_DMA_GET_DME_FLAG_INDEX(hdma));
 1419              		.loc 1 193 5 view .LVU288
 1420 0882 0823     		movs	r3, #8
 1421 0884 FAE7     		b	.L40
 1422              	.L183:
 1423 0886 0823     		movs	r3, #8
 1424 0888 F8E7     		b	.L40
 1425              	.L184:
 1426 088a 0823     		movs	r3, #8
 1427 088c F6E7     		b	.L40
 1428              	.L185:
 1429 088e 4FF40073 		mov	r3, #512
 1430 0892 F3E7     		b	.L40
 1431              	.L186:
ARM GAS  /tmp/ccf9br4W.s 			page 36


 1432 0894 4FF40073 		mov	r3, #512
 1433 0898 F0E7     		b	.L40
 1434              	.L187:
 1435 089a 4FF40073 		mov	r3, #512
 1436 089e EDE7     		b	.L40
 1437              	.L188:
 1438 08a0 4FF40073 		mov	r3, #512
 1439 08a4 EAE7     		b	.L40
 1440              	.L189:
 1441 08a6 4FF40023 		mov	r3, #524288
 1442 08aa E7E7     		b	.L40
 1443              	.L190:
 1444 08ac 4FF40023 		mov	r3, #524288
 1445 08b0 E4E7     		b	.L40
 1446              	.L330:
 1447 08b2 00BF     		.align	2
 1448              	.L329:
 1449 08b4 10600240 		.word	1073897488
 1450 08b8 00600240 		.word	1073897472
 1451 08bc 00640240 		.word	1073898496
 1452 08c0 58640240 		.word	1073898584
 1453 08c4 B8600240 		.word	1073897656
 1454 08c8 58600240 		.word	1073897560
 1455              	.L191:
 1456 08cc 4FF40023 		mov	r3, #524288
 1457 08d0 D4E7     		b	.L40
 1458              	.L39:
 193:Drivers/STM32F7xx_HAL_Driver/Src/stm32f7xx_hal_dma_ex.c ****     __HAL_DMA_CLEAR_FLAG (hdma, __HAL_DMA_GET_DME_FLAG_INDEX(hdma));
 1459              		.loc 1 193 5 discriminator 103 view .LVU289
 1460 08d2 B24A     		ldr	r2, .L331
 1461 08d4 9342     		cmp	r3, r2
 1462 08d6 31D0     		beq	.L193
 193:Drivers/STM32F7xx_HAL_Driver/Src/stm32f7xx_hal_dma_ex.c ****     __HAL_DMA_CLEAR_FLAG (hdma, __HAL_DMA_GET_DME_FLAG_INDEX(hdma));
 1463              		.loc 1 193 5 discriminator 153 view .LVU290
 1464 08d8 02F58062 		add	r2, r2, #1024
 1465 08dc 9342     		cmp	r3, r2
 1466 08de 31D0     		beq	.L194
 193:Drivers/STM32F7xx_HAL_Driver/Src/stm32f7xx_hal_dma_ex.c ****     __HAL_DMA_CLEAR_FLAG (hdma, __HAL_DMA_GET_DME_FLAG_INDEX(hdma));
 1467              		.loc 1 193 5 discriminator 155 view .LVU291
 1468 08e0 A2F56872 		sub	r2, r2, #928
 1469 08e4 9342     		cmp	r3, r2
 1470 08e6 2FD0     		beq	.L195
 193:Drivers/STM32F7xx_HAL_Driver/Src/stm32f7xx_hal_dma_ex.c ****     __HAL_DMA_CLEAR_FLAG (hdma, __HAL_DMA_GET_DME_FLAG_INDEX(hdma));
 1471              		.loc 1 193 5 discriminator 157 view .LVU292
 1472 08e8 02F58062 		add	r2, r2, #1024
 1473 08ec 9342     		cmp	r3, r2
 1474 08ee 2DD0     		beq	.L196
 193:Drivers/STM32F7xx_HAL_Driver/Src/stm32f7xx_hal_dma_ex.c ****     __HAL_DMA_CLEAR_FLAG (hdma, __HAL_DMA_GET_DME_FLAG_INDEX(hdma));
 1475              		.loc 1 193 5 discriminator 159 view .LVU293
 1476 08f0 A2F58962 		sub	r2, r2, #1096
 1477 08f4 9342     		cmp	r3, r2
 1478 08f6 2BD0     		beq	.L197
 193:Drivers/STM32F7xx_HAL_Driver/Src/stm32f7xx_hal_dma_ex.c ****     __HAL_DMA_CLEAR_FLAG (hdma, __HAL_DMA_GET_DME_FLAG_INDEX(hdma));
 1479              		.loc 1 193 5 discriminator 161 view .LVU294
 1480 08f8 02F58062 		add	r2, r2, #1024
 1481 08fc 9342     		cmp	r3, r2
 1482 08fe 2AD0     		beq	.L198
ARM GAS  /tmp/ccf9br4W.s 			page 37


 193:Drivers/STM32F7xx_HAL_Driver/Src/stm32f7xx_hal_dma_ex.c ****     __HAL_DMA_CLEAR_FLAG (hdma, __HAL_DMA_GET_DME_FLAG_INDEX(hdma));
 1483              		.loc 1 193 5 discriminator 163 view .LVU295
 1484 0900 A2F56872 		sub	r2, r2, #928
 1485 0904 9342     		cmp	r3, r2
 1486 0906 29D0     		beq	.L199
 193:Drivers/STM32F7xx_HAL_Driver/Src/stm32f7xx_hal_dma_ex.c ****     __HAL_DMA_CLEAR_FLAG (hdma, __HAL_DMA_GET_DME_FLAG_INDEX(hdma));
 1487              		.loc 1 193 5 discriminator 165 view .LVU296
 1488 0908 02F58062 		add	r2, r2, #1024
 1489 090c 9342     		cmp	r3, r2
 1490 090e 28D0     		beq	.L200
 193:Drivers/STM32F7xx_HAL_Driver/Src/stm32f7xx_hal_dma_ex.c ****     __HAL_DMA_CLEAR_FLAG (hdma, __HAL_DMA_GET_DME_FLAG_INDEX(hdma));
 1491              		.loc 1 193 5 discriminator 167 view .LVU297
 1492 0910 A2F58962 		sub	r2, r2, #1096
 1493 0914 9342     		cmp	r3, r2
 1494 0916 27D0     		beq	.L201
 193:Drivers/STM32F7xx_HAL_Driver/Src/stm32f7xx_hal_dma_ex.c ****     __HAL_DMA_CLEAR_FLAG (hdma, __HAL_DMA_GET_DME_FLAG_INDEX(hdma));
 1495              		.loc 1 193 5 discriminator 169 view .LVU298
 1496 0918 02F58062 		add	r2, r2, #1024
 1497 091c 9342     		cmp	r3, r2
 1498 091e 26D0     		beq	.L202
 193:Drivers/STM32F7xx_HAL_Driver/Src/stm32f7xx_hal_dma_ex.c ****     __HAL_DMA_CLEAR_FLAG (hdma, __HAL_DMA_GET_DME_FLAG_INDEX(hdma));
 1499              		.loc 1 193 5 discriminator 171 view .LVU299
 1500 0920 A2F56872 		sub	r2, r2, #928
 1501 0924 9342     		cmp	r3, r2
 1502 0926 25D0     		beq	.L203
 193:Drivers/STM32F7xx_HAL_Driver/Src/stm32f7xx_hal_dma_ex.c ****     __HAL_DMA_CLEAR_FLAG (hdma, __HAL_DMA_GET_DME_FLAG_INDEX(hdma));
 1503              		.loc 1 193 5 discriminator 173 view .LVU300
 1504 0928 02F58062 		add	r2, r2, #1024
 1505 092c 9342     		cmp	r3, r2
 1506 092e 02D0     		beq	.L316
 193:Drivers/STM32F7xx_HAL_Driver/Src/stm32f7xx_hal_dma_ex.c ****     __HAL_DMA_CLEAR_FLAG (hdma, __HAL_DMA_GET_DME_FLAG_INDEX(hdma));
 1507              		.loc 1 193 5 view .LVU301
 1508 0930 4FF00073 		mov	r3, #33554432
 1509 0934 03E0     		b	.L41
 1510              	.L316:
 1511 0936 4FF40023 		mov	r3, #524288
 1512 093a 00E0     		b	.L41
 1513              	.L193:
 1514 093c 0823     		movs	r3, #8
 1515              	.L41:
 193:Drivers/STM32F7xx_HAL_Driver/Src/stm32f7xx_hal_dma_ex.c ****     __HAL_DMA_CLEAR_FLAG (hdma, __HAL_DMA_GET_DME_FLAG_INDEX(hdma));
 1516              		.loc 1 193 5 discriminator 200 view .LVU302
 1517 093e 984A     		ldr	r2, .L331+4
 1518 0940 9360     		str	r3, [r2, #8]
 1519 0942 ACE6     		b	.L36
 1520              	.L194:
 193:Drivers/STM32F7xx_HAL_Driver/Src/stm32f7xx_hal_dma_ex.c ****     __HAL_DMA_CLEAR_FLAG (hdma, __HAL_DMA_GET_DME_FLAG_INDEX(hdma));
 1521              		.loc 1 193 5 view .LVU303
 1522 0944 0823     		movs	r3, #8
 1523 0946 FAE7     		b	.L41
 1524              	.L195:
 1525 0948 0823     		movs	r3, #8
 1526 094a F8E7     		b	.L41
 1527              	.L196:
 1528 094c 0823     		movs	r3, #8
 1529 094e F6E7     		b	.L41
 1530              	.L197:
ARM GAS  /tmp/ccf9br4W.s 			page 38


 1531 0950 4FF40073 		mov	r3, #512
 1532 0954 F3E7     		b	.L41
 1533              	.L198:
 1534 0956 4FF40073 		mov	r3, #512
 1535 095a F0E7     		b	.L41
 1536              	.L199:
 1537 095c 4FF40073 		mov	r3, #512
 1538 0960 EDE7     		b	.L41
 1539              	.L200:
 1540 0962 4FF40073 		mov	r3, #512
 1541 0966 EAE7     		b	.L41
 1542              	.L201:
 1543 0968 4FF40023 		mov	r3, #524288
 1544 096c E7E7     		b	.L41
 1545              	.L202:
 1546 096e 4FF40023 		mov	r3, #524288
 1547 0972 E4E7     		b	.L41
 1548              	.L203:
 1549 0974 4FF40023 		mov	r3, #524288
 1550 0978 E1E7     		b	.L41
 1551              	.L313:
 194:Drivers/STM32F7xx_HAL_Driver/Src/stm32f7xx_hal_dma_ex.c ****     __HAL_DMA_CLEAR_FLAG (hdma, __HAL_DMA_GET_FE_FLAG_INDEX(hdma));
 1552              		.loc 1 194 5 view .LVU304
 1553 097a 4FF48022 		mov	r2, #262144
 1554 097e 00E0     		b	.L43
 1555              	.L205:
 1556 0980 0422     		movs	r2, #4
 1557              	.L43:
 194:Drivers/STM32F7xx_HAL_Driver/Src/stm32f7xx_hal_dma_ex.c ****     __HAL_DMA_CLEAR_FLAG (hdma, __HAL_DMA_GET_FE_FLAG_INDEX(hdma));
 1558              		.loc 1 194 5 discriminator 50 view .LVU305
 1559 0982 884B     		ldr	r3, .L331+8
 1560 0984 DA60     		str	r2, [r3, #12]
 1561              	.L44:
 195:Drivers/STM32F7xx_HAL_Driver/Src/stm32f7xx_hal_dma_ex.c ****     
 1562              		.loc 1 195 5 is_stmt 1 view .LVU306
 1563 0986 2368     		ldr	r3, [r4]
 1564 0988 874A     		ldr	r2, .L331+12
 1565 098a 9342     		cmp	r3, r2
 1566 098c 40F2A181 		bls	.L50
 195:Drivers/STM32F7xx_HAL_Driver/Src/stm32f7xx_hal_dma_ex.c ****     
 1567              		.loc 1 195 5 is_stmt 0 discriminator 1 view .LVU307
 1568 0990 A2F58962 		sub	r2, r2, #1096
 1569 0994 9342     		cmp	r3, r2
 1570 0996 00F06781 		beq	.L253
 195:Drivers/STM32F7xx_HAL_Driver/Src/stm32f7xx_hal_dma_ex.c ****     
 1571              		.loc 1 195 5 discriminator 3 view .LVU308
 1572 099a 02F58062 		add	r2, r2, #1024
 1573 099e 9342     		cmp	r3, r2
 1574 09a0 00F08081 		beq	.L254
 195:Drivers/STM32F7xx_HAL_Driver/Src/stm32f7xx_hal_dma_ex.c ****     
 1575              		.loc 1 195 5 discriminator 5 view .LVU309
 1576 09a4 A2F56872 		sub	r2, r2, #928
 1577 09a8 9342     		cmp	r3, r2
 1578 09aa 00F07D81 		beq	.L255
 195:Drivers/STM32F7xx_HAL_Driver/Src/stm32f7xx_hal_dma_ex.c ****     
 1579              		.loc 1 195 5 discriminator 7 view .LVU310
 1580 09ae 02F58062 		add	r2, r2, #1024
ARM GAS  /tmp/ccf9br4W.s 			page 39


 1581 09b2 9342     		cmp	r3, r2
 1582 09b4 00F07A81 		beq	.L256
 195:Drivers/STM32F7xx_HAL_Driver/Src/stm32f7xx_hal_dma_ex.c ****     
 1583              		.loc 1 195 5 discriminator 9 view .LVU311
 1584 09b8 A2F58962 		sub	r2, r2, #1096
 1585 09bc 9342     		cmp	r3, r2
 1586 09be 00F07781 		beq	.L257
 195:Drivers/STM32F7xx_HAL_Driver/Src/stm32f7xx_hal_dma_ex.c ****     
 1587              		.loc 1 195 5 discriminator 11 view .LVU312
 1588 09c2 02F58062 		add	r2, r2, #1024
 1589 09c6 9342     		cmp	r3, r2
 1590 09c8 00F07481 		beq	.L258
 195:Drivers/STM32F7xx_HAL_Driver/Src/stm32f7xx_hal_dma_ex.c ****     
 1591              		.loc 1 195 5 discriminator 13 view .LVU313
 1592 09cc A2F56872 		sub	r2, r2, #928
 1593 09d0 9342     		cmp	r3, r2
 1594 09d2 00F07181 		beq	.L259
 195:Drivers/STM32F7xx_HAL_Driver/Src/stm32f7xx_hal_dma_ex.c ****     
 1595              		.loc 1 195 5 discriminator 15 view .LVU314
 1596 09d6 02F58062 		add	r2, r2, #1024
 1597 09da 9342     		cmp	r3, r2
 1598 09dc 00F06E81 		beq	.L260
 195:Drivers/STM32F7xx_HAL_Driver/Src/stm32f7xx_hal_dma_ex.c ****     
 1599              		.loc 1 195 5 discriminator 17 view .LVU315
 1600 09e0 A2F58962 		sub	r2, r2, #1096
 1601 09e4 9342     		cmp	r3, r2
 1602 09e6 00F06B81 		beq	.L261
 195:Drivers/STM32F7xx_HAL_Driver/Src/stm32f7xx_hal_dma_ex.c ****     
 1603              		.loc 1 195 5 discriminator 19 view .LVU316
 1604 09ea 02F58062 		add	r2, r2, #1024
 1605 09ee 9342     		cmp	r3, r2
 1606 09f0 00F06981 		beq	.L262
 195:Drivers/STM32F7xx_HAL_Driver/Src/stm32f7xx_hal_dma_ex.c ****     
 1607              		.loc 1 195 5 discriminator 21 view .LVU317
 1608 09f4 A2F56872 		sub	r2, r2, #928
 1609 09f8 9342     		cmp	r3, r2
 1610 09fa 00F06781 		beq	.L263
 195:Drivers/STM32F7xx_HAL_Driver/Src/stm32f7xx_hal_dma_ex.c ****     
 1611              		.loc 1 195 5 discriminator 23 view .LVU318
 1612 09fe 02F58062 		add	r2, r2, #1024
 1613 0a02 9342     		cmp	r3, r2
 1614 0a04 00F02D81 		beq	.L317
 195:Drivers/STM32F7xx_HAL_Driver/Src/stm32f7xx_hal_dma_ex.c ****     
 1615              		.loc 1 195 5 view .LVU319
 1616 0a08 4FF48002 		mov	r2, #4194304
 1617 0a0c 2DE1     		b	.L51
 1618              	.L206:
 194:Drivers/STM32F7xx_HAL_Driver/Src/stm32f7xx_hal_dma_ex.c ****     __HAL_DMA_CLEAR_FLAG (hdma, __HAL_DMA_GET_FE_FLAG_INDEX(hdma));
 1619              		.loc 1 194 5 view .LVU320
 1620 0a0e 0422     		movs	r2, #4
 1621 0a10 B7E7     		b	.L43
 1622              	.L207:
 1623 0a12 0422     		movs	r2, #4
 1624 0a14 B5E7     		b	.L43
 1625              	.L208:
 1626 0a16 0422     		movs	r2, #4
 1627 0a18 B3E7     		b	.L43
ARM GAS  /tmp/ccf9br4W.s 			page 40


 1628              	.L209:
 1629 0a1a 4FF48072 		mov	r2, #256
 1630 0a1e B0E7     		b	.L43
 1631              	.L210:
 1632 0a20 4FF48072 		mov	r2, #256
 1633 0a24 ADE7     		b	.L43
 1634              	.L211:
 1635 0a26 4FF48072 		mov	r2, #256
 1636 0a2a AAE7     		b	.L43
 1637              	.L212:
 1638 0a2c 4FF48072 		mov	r2, #256
 1639 0a30 A7E7     		b	.L43
 1640              	.L213:
 1641 0a32 4FF48022 		mov	r2, #262144
 1642 0a36 A4E7     		b	.L43
 1643              	.L214:
 1644 0a38 4FF48022 		mov	r2, #262144
 1645 0a3c A1E7     		b	.L43
 1646              	.L215:
 1647 0a3e 4FF48022 		mov	r2, #262144
 1648 0a42 9EE7     		b	.L43
 1649              	.L42:
 194:Drivers/STM32F7xx_HAL_Driver/Src/stm32f7xx_hal_dma_ex.c ****     __HAL_DMA_CLEAR_FLAG (hdma, __HAL_DMA_GET_FE_FLAG_INDEX(hdma));
 1650              		.loc 1 194 5 discriminator 2 view .LVU321
 1651 0a44 594A     		ldr	r2, .L331+16
 1652 0a46 9342     		cmp	r3, r2
 1653 0a48 53D9     		bls	.L45
 194:Drivers/STM32F7xx_HAL_Driver/Src/stm32f7xx_hal_dma_ex.c ****     __HAL_DMA_CLEAR_FLAG (hdma, __HAL_DMA_GET_FE_FLAG_INDEX(hdma));
 1654              		.loc 1 194 5 discriminator 51 view .LVU322
 1655 0a4a A83A     		subs	r2, r2, #168
 1656 0a4c 9342     		cmp	r3, r2
 1657 0a4e 31D0     		beq	.L217
 194:Drivers/STM32F7xx_HAL_Driver/Src/stm32f7xx_hal_dma_ex.c ****     __HAL_DMA_CLEAR_FLAG (hdma, __HAL_DMA_GET_FE_FLAG_INDEX(hdma));
 1658              		.loc 1 194 5 discriminator 53 view .LVU323
 1659 0a50 02F58062 		add	r2, r2, #1024
 1660 0a54 9342     		cmp	r3, r2
 1661 0a56 31D0     		beq	.L218
 194:Drivers/STM32F7xx_HAL_Driver/Src/stm32f7xx_hal_dma_ex.c ****     __HAL_DMA_CLEAR_FLAG (hdma, __HAL_DMA_GET_FE_FLAG_INDEX(hdma));
 1662              		.loc 1 194 5 discriminator 55 view .LVU324
 1663 0a58 A2F56872 		sub	r2, r2, #928
 1664 0a5c 9342     		cmp	r3, r2
 1665 0a5e 2FD0     		beq	.L219
 194:Drivers/STM32F7xx_HAL_Driver/Src/stm32f7xx_hal_dma_ex.c ****     __HAL_DMA_CLEAR_FLAG (hdma, __HAL_DMA_GET_FE_FLAG_INDEX(hdma));
 1666              		.loc 1 194 5 discriminator 57 view .LVU325
 1667 0a60 02F58062 		add	r2, r2, #1024
 1668 0a64 9342     		cmp	r3, r2
 1669 0a66 2DD0     		beq	.L220
 194:Drivers/STM32F7xx_HAL_Driver/Src/stm32f7xx_hal_dma_ex.c ****     __HAL_DMA_CLEAR_FLAG (hdma, __HAL_DMA_GET_FE_FLAG_INDEX(hdma));
 1670              		.loc 1 194 5 discriminator 59 view .LVU326
 1671 0a68 A2F58962 		sub	r2, r2, #1096
 1672 0a6c 9342     		cmp	r3, r2
 1673 0a6e 2BD0     		beq	.L221
 194:Drivers/STM32F7xx_HAL_Driver/Src/stm32f7xx_hal_dma_ex.c ****     __HAL_DMA_CLEAR_FLAG (hdma, __HAL_DMA_GET_FE_FLAG_INDEX(hdma));
 1674              		.loc 1 194 5 discriminator 61 view .LVU327
 1675 0a70 02F58062 		add	r2, r2, #1024
 1676 0a74 9342     		cmp	r3, r2
 1677 0a76 2AD0     		beq	.L222
ARM GAS  /tmp/ccf9br4W.s 			page 41


 194:Drivers/STM32F7xx_HAL_Driver/Src/stm32f7xx_hal_dma_ex.c ****     __HAL_DMA_CLEAR_FLAG (hdma, __HAL_DMA_GET_FE_FLAG_INDEX(hdma));
 1678              		.loc 1 194 5 discriminator 63 view .LVU328
 1679 0a78 A2F56872 		sub	r2, r2, #928
 1680 0a7c 9342     		cmp	r3, r2
 1681 0a7e 29D0     		beq	.L223
 194:Drivers/STM32F7xx_HAL_Driver/Src/stm32f7xx_hal_dma_ex.c ****     __HAL_DMA_CLEAR_FLAG (hdma, __HAL_DMA_GET_FE_FLAG_INDEX(hdma));
 1682              		.loc 1 194 5 discriminator 65 view .LVU329
 1683 0a80 02F58062 		add	r2, r2, #1024
 1684 0a84 9342     		cmp	r3, r2
 1685 0a86 28D0     		beq	.L224
 194:Drivers/STM32F7xx_HAL_Driver/Src/stm32f7xx_hal_dma_ex.c ****     __HAL_DMA_CLEAR_FLAG (hdma, __HAL_DMA_GET_FE_FLAG_INDEX(hdma));
 1686              		.loc 1 194 5 discriminator 67 view .LVU330
 1687 0a88 A2F58962 		sub	r2, r2, #1096
 1688 0a8c 9342     		cmp	r3, r2
 1689 0a8e 27D0     		beq	.L225
 194:Drivers/STM32F7xx_HAL_Driver/Src/stm32f7xx_hal_dma_ex.c ****     __HAL_DMA_CLEAR_FLAG (hdma, __HAL_DMA_GET_FE_FLAG_INDEX(hdma));
 1690              		.loc 1 194 5 discriminator 69 view .LVU331
 1691 0a90 02F58062 		add	r2, r2, #1024
 1692 0a94 9342     		cmp	r3, r2
 1693 0a96 26D0     		beq	.L226
 194:Drivers/STM32F7xx_HAL_Driver/Src/stm32f7xx_hal_dma_ex.c ****     __HAL_DMA_CLEAR_FLAG (hdma, __HAL_DMA_GET_FE_FLAG_INDEX(hdma));
 1694              		.loc 1 194 5 discriminator 71 view .LVU332
 1695 0a98 A2F56872 		sub	r2, r2, #928
 1696 0a9c 9342     		cmp	r3, r2
 1697 0a9e 25D0     		beq	.L227
 194:Drivers/STM32F7xx_HAL_Driver/Src/stm32f7xx_hal_dma_ex.c ****     __HAL_DMA_CLEAR_FLAG (hdma, __HAL_DMA_GET_FE_FLAG_INDEX(hdma));
 1698              		.loc 1 194 5 discriminator 73 view .LVU333
 1699 0aa0 02F58062 		add	r2, r2, #1024
 1700 0aa4 9342     		cmp	r3, r2
 1701 0aa6 02D0     		beq	.L318
 194:Drivers/STM32F7xx_HAL_Driver/Src/stm32f7xx_hal_dma_ex.c ****     __HAL_DMA_CLEAR_FLAG (hdma, __HAL_DMA_GET_FE_FLAG_INDEX(hdma));
 1702              		.loc 1 194 5 view .LVU334
 1703 0aa8 4FF08072 		mov	r2, #16777216
 1704 0aac 03E0     		b	.L46
 1705              	.L318:
 1706 0aae 4FF48022 		mov	r2, #262144
 1707 0ab2 00E0     		b	.L46
 1708              	.L217:
 1709 0ab4 0422     		movs	r2, #4
 1710              	.L46:
 194:Drivers/STM32F7xx_HAL_Driver/Src/stm32f7xx_hal_dma_ex.c ****     __HAL_DMA_CLEAR_FLAG (hdma, __HAL_DMA_GET_FE_FLAG_INDEX(hdma));
 1711              		.loc 1 194 5 discriminator 100 view .LVU335
 1712 0ab6 3B4B     		ldr	r3, .L331+8
 1713 0ab8 9A60     		str	r2, [r3, #8]
 1714 0aba 64E7     		b	.L44
 1715              	.L218:
 194:Drivers/STM32F7xx_HAL_Driver/Src/stm32f7xx_hal_dma_ex.c ****     __HAL_DMA_CLEAR_FLAG (hdma, __HAL_DMA_GET_FE_FLAG_INDEX(hdma));
 1716              		.loc 1 194 5 view .LVU336
 1717 0abc 0422     		movs	r2, #4
 1718 0abe FAE7     		b	.L46
 1719              	.L219:
 1720 0ac0 0422     		movs	r2, #4
 1721 0ac2 F8E7     		b	.L46
 1722              	.L220:
 1723 0ac4 0422     		movs	r2, #4
 1724 0ac6 F6E7     		b	.L46
 1725              	.L221:
ARM GAS  /tmp/ccf9br4W.s 			page 42


 1726 0ac8 4FF48072 		mov	r2, #256
 1727 0acc F3E7     		b	.L46
 1728              	.L222:
 1729 0ace 4FF48072 		mov	r2, #256
 1730 0ad2 F0E7     		b	.L46
 1731              	.L223:
 1732 0ad4 4FF48072 		mov	r2, #256
 1733 0ad8 EDE7     		b	.L46
 1734              	.L224:
 1735 0ada 4FF48072 		mov	r2, #256
 1736 0ade EAE7     		b	.L46
 1737              	.L225:
 1738 0ae0 4FF48022 		mov	r2, #262144
 1739 0ae4 E7E7     		b	.L46
 1740              	.L226:
 1741 0ae6 4FF48022 		mov	r2, #262144
 1742 0aea E4E7     		b	.L46
 1743              	.L227:
 1744 0aec 4FF48022 		mov	r2, #262144
 1745 0af0 E1E7     		b	.L46
 1746              	.L45:
 194:Drivers/STM32F7xx_HAL_Driver/Src/stm32f7xx_hal_dma_ex.c ****     __HAL_DMA_CLEAR_FLAG (hdma, __HAL_DMA_GET_FE_FLAG_INDEX(hdma));
 1747              		.loc 1 194 5 discriminator 52 view .LVU337
 1748 0af2 2F4A     		ldr	r2, .L331+20
 1749 0af4 9342     		cmp	r3, r2
 1750 0af6 60D9     		bls	.L47
 194:Drivers/STM32F7xx_HAL_Driver/Src/stm32f7xx_hal_dma_ex.c ****     __HAL_DMA_CLEAR_FLAG (hdma, __HAL_DMA_GET_FE_FLAG_INDEX(hdma));
 1751              		.loc 1 194 5 discriminator 102 view .LVU338
 1752 0af8 483A     		subs	r2, r2, #72
 1753 0afa 9342     		cmp	r3, r2
 1754 0afc 31D0     		beq	.L229
 194:Drivers/STM32F7xx_HAL_Driver/Src/stm32f7xx_hal_dma_ex.c ****     __HAL_DMA_CLEAR_FLAG (hdma, __HAL_DMA_GET_FE_FLAG_INDEX(hdma));
 1755              		.loc 1 194 5 discriminator 104 view .LVU339
 1756 0afe 02F58062 		add	r2, r2, #1024
 1757 0b02 9342     		cmp	r3, r2
 1758 0b04 31D0     		beq	.L230
 194:Drivers/STM32F7xx_HAL_Driver/Src/stm32f7xx_hal_dma_ex.c ****     __HAL_DMA_CLEAR_FLAG (hdma, __HAL_DMA_GET_FE_FLAG_INDEX(hdma));
 1759              		.loc 1 194 5 discriminator 106 view .LVU340
 1760 0b06 A2F56872 		sub	r2, r2, #928
 1761 0b0a 9342     		cmp	r3, r2
 1762 0b0c 2FD0     		beq	.L231
 194:Drivers/STM32F7xx_HAL_Driver/Src/stm32f7xx_hal_dma_ex.c ****     __HAL_DMA_CLEAR_FLAG (hdma, __HAL_DMA_GET_FE_FLAG_INDEX(hdma));
 1763              		.loc 1 194 5 discriminator 108 view .LVU341
 1764 0b0e 02F58062 		add	r2, r2, #1024
 1765 0b12 9342     		cmp	r3, r2
 1766 0b14 2DD0     		beq	.L232
 194:Drivers/STM32F7xx_HAL_Driver/Src/stm32f7xx_hal_dma_ex.c ****     __HAL_DMA_CLEAR_FLAG (hdma, __HAL_DMA_GET_FE_FLAG_INDEX(hdma));
 1767              		.loc 1 194 5 discriminator 110 view .LVU342
 1768 0b16 A2F58962 		sub	r2, r2, #1096
 1769 0b1a 9342     		cmp	r3, r2
 1770 0b1c 2BD0     		beq	.L233
 194:Drivers/STM32F7xx_HAL_Driver/Src/stm32f7xx_hal_dma_ex.c ****     __HAL_DMA_CLEAR_FLAG (hdma, __HAL_DMA_GET_FE_FLAG_INDEX(hdma));
 1771              		.loc 1 194 5 discriminator 112 view .LVU343
 1772 0b1e 02F58062 		add	r2, r2, #1024
 1773 0b22 9342     		cmp	r3, r2
 1774 0b24 2AD0     		beq	.L234
 194:Drivers/STM32F7xx_HAL_Driver/Src/stm32f7xx_hal_dma_ex.c ****     __HAL_DMA_CLEAR_FLAG (hdma, __HAL_DMA_GET_FE_FLAG_INDEX(hdma));
ARM GAS  /tmp/ccf9br4W.s 			page 43


 1775              		.loc 1 194 5 discriminator 114 view .LVU344
 1776 0b26 A2F56872 		sub	r2, r2, #928
 1777 0b2a 9342     		cmp	r3, r2
 1778 0b2c 29D0     		beq	.L235
 194:Drivers/STM32F7xx_HAL_Driver/Src/stm32f7xx_hal_dma_ex.c ****     __HAL_DMA_CLEAR_FLAG (hdma, __HAL_DMA_GET_FE_FLAG_INDEX(hdma));
 1779              		.loc 1 194 5 discriminator 116 view .LVU345
 1780 0b2e 02F58062 		add	r2, r2, #1024
 1781 0b32 9342     		cmp	r3, r2
 1782 0b34 28D0     		beq	.L236
 194:Drivers/STM32F7xx_HAL_Driver/Src/stm32f7xx_hal_dma_ex.c ****     __HAL_DMA_CLEAR_FLAG (hdma, __HAL_DMA_GET_FE_FLAG_INDEX(hdma));
 1783              		.loc 1 194 5 discriminator 118 view .LVU346
 1784 0b36 A2F58962 		sub	r2, r2, #1096
 1785 0b3a 9342     		cmp	r3, r2
 1786 0b3c 27D0     		beq	.L237
 194:Drivers/STM32F7xx_HAL_Driver/Src/stm32f7xx_hal_dma_ex.c ****     __HAL_DMA_CLEAR_FLAG (hdma, __HAL_DMA_GET_FE_FLAG_INDEX(hdma));
 1787              		.loc 1 194 5 discriminator 120 view .LVU347
 1788 0b3e 02F58062 		add	r2, r2, #1024
 1789 0b42 9342     		cmp	r3, r2
 1790 0b44 26D0     		beq	.L238
 194:Drivers/STM32F7xx_HAL_Driver/Src/stm32f7xx_hal_dma_ex.c ****     __HAL_DMA_CLEAR_FLAG (hdma, __HAL_DMA_GET_FE_FLAG_INDEX(hdma));
 1791              		.loc 1 194 5 discriminator 122 view .LVU348
 1792 0b46 A2F56872 		sub	r2, r2, #928
 1793 0b4a 9342     		cmp	r3, r2
 1794 0b4c 32D0     		beq	.L239
 194:Drivers/STM32F7xx_HAL_Driver/Src/stm32f7xx_hal_dma_ex.c ****     __HAL_DMA_CLEAR_FLAG (hdma, __HAL_DMA_GET_FE_FLAG_INDEX(hdma));
 1795              		.loc 1 194 5 discriminator 124 view .LVU349
 1796 0b4e 02F58062 		add	r2, r2, #1024
 1797 0b52 9342     		cmp	r3, r2
 1798 0b54 02D0     		beq	.L319
 194:Drivers/STM32F7xx_HAL_Driver/Src/stm32f7xx_hal_dma_ex.c ****     __HAL_DMA_CLEAR_FLAG (hdma, __HAL_DMA_GET_FE_FLAG_INDEX(hdma));
 1799              		.loc 1 194 5 view .LVU350
 1800 0b56 4FF08073 		mov	r3, #16777216
 1801 0b5a 03E0     		b	.L48
 1802              	.L319:
 1803 0b5c 4FF48023 		mov	r3, #262144
 1804 0b60 00E0     		b	.L48
 1805              	.L229:
 1806 0b62 0423     		movs	r3, #4
 1807              	.L48:
 194:Drivers/STM32F7xx_HAL_Driver/Src/stm32f7xx_hal_dma_ex.c ****     __HAL_DMA_CLEAR_FLAG (hdma, __HAL_DMA_GET_FE_FLAG_INDEX(hdma));
 1808              		.loc 1 194 5 discriminator 151 view .LVU351
 1809 0b64 0E4A     		ldr	r2, .L331+4
 1810 0b66 D360     		str	r3, [r2, #12]
 1811 0b68 0DE7     		b	.L44
 1812              	.L230:
 194:Drivers/STM32F7xx_HAL_Driver/Src/stm32f7xx_hal_dma_ex.c ****     __HAL_DMA_CLEAR_FLAG (hdma, __HAL_DMA_GET_FE_FLAG_INDEX(hdma));
 1813              		.loc 1 194 5 view .LVU352
 1814 0b6a 0423     		movs	r3, #4
 1815 0b6c FAE7     		b	.L48
 1816              	.L231:
 1817 0b6e 0423     		movs	r3, #4
 1818 0b70 F8E7     		b	.L48
 1819              	.L232:
 1820 0b72 0423     		movs	r3, #4
 1821 0b74 F6E7     		b	.L48
 1822              	.L233:
 1823 0b76 4FF48073 		mov	r3, #256
ARM GAS  /tmp/ccf9br4W.s 			page 44


 1824 0b7a F3E7     		b	.L48
 1825              	.L234:
 1826 0b7c 4FF48073 		mov	r3, #256
 1827 0b80 F0E7     		b	.L48
 1828              	.L235:
 1829 0b82 4FF48073 		mov	r3, #256
 1830 0b86 EDE7     		b	.L48
 1831              	.L236:
 1832 0b88 4FF48073 		mov	r3, #256
 1833 0b8c EAE7     		b	.L48
 1834              	.L237:
 1835 0b8e 4FF48023 		mov	r3, #262144
 1836 0b92 E7E7     		b	.L48
 1837              	.L238:
 1838 0b94 4FF48023 		mov	r3, #262144
 1839 0b98 E4E7     		b	.L48
 1840              	.L332:
 1841 0b9a 00BF     		.align	2
 1842              	.L331:
 1843 0b9c 10600240 		.word	1073897488
 1844 0ba0 00600240 		.word	1073897472
 1845 0ba4 00640240 		.word	1073898496
 1846 0ba8 58640240 		.word	1073898584
 1847 0bac B8600240 		.word	1073897656
 1848 0bb0 58600240 		.word	1073897560
 1849              	.L239:
 1850 0bb4 4FF48023 		mov	r3, #262144
 1851 0bb8 D4E7     		b	.L48
 1852              	.L47:
 194:Drivers/STM32F7xx_HAL_Driver/Src/stm32f7xx_hal_dma_ex.c ****     __HAL_DMA_CLEAR_FLAG (hdma, __HAL_DMA_GET_FE_FLAG_INDEX(hdma));
 1853              		.loc 1 194 5 discriminator 103 view .LVU353
 1854 0bba 994A     		ldr	r2, .L333
 1855 0bbc 9342     		cmp	r3, r2
 1856 0bbe 31D0     		beq	.L241
 194:Drivers/STM32F7xx_HAL_Driver/Src/stm32f7xx_hal_dma_ex.c ****     __HAL_DMA_CLEAR_FLAG (hdma, __HAL_DMA_GET_FE_FLAG_INDEX(hdma));
 1857              		.loc 1 194 5 discriminator 153 view .LVU354
 1858 0bc0 02F58062 		add	r2, r2, #1024
 1859 0bc4 9342     		cmp	r3, r2
 1860 0bc6 31D0     		beq	.L242
 194:Drivers/STM32F7xx_HAL_Driver/Src/stm32f7xx_hal_dma_ex.c ****     __HAL_DMA_CLEAR_FLAG (hdma, __HAL_DMA_GET_FE_FLAG_INDEX(hdma));
 1861              		.loc 1 194 5 discriminator 155 view .LVU355
 1862 0bc8 A2F56872 		sub	r2, r2, #928
 1863 0bcc 9342     		cmp	r3, r2
 1864 0bce 2FD0     		beq	.L243
 194:Drivers/STM32F7xx_HAL_Driver/Src/stm32f7xx_hal_dma_ex.c ****     __HAL_DMA_CLEAR_FLAG (hdma, __HAL_DMA_GET_FE_FLAG_INDEX(hdma));
 1865              		.loc 1 194 5 discriminator 157 view .LVU356
 1866 0bd0 02F58062 		add	r2, r2, #1024
 1867 0bd4 9342     		cmp	r3, r2
 1868 0bd6 2DD0     		beq	.L244
 194:Drivers/STM32F7xx_HAL_Driver/Src/stm32f7xx_hal_dma_ex.c ****     __HAL_DMA_CLEAR_FLAG (hdma, __HAL_DMA_GET_FE_FLAG_INDEX(hdma));
 1869              		.loc 1 194 5 discriminator 159 view .LVU357
 1870 0bd8 A2F58962 		sub	r2, r2, #1096
 1871 0bdc 9342     		cmp	r3, r2
 1872 0bde 2BD0     		beq	.L245
 194:Drivers/STM32F7xx_HAL_Driver/Src/stm32f7xx_hal_dma_ex.c ****     __HAL_DMA_CLEAR_FLAG (hdma, __HAL_DMA_GET_FE_FLAG_INDEX(hdma));
 1873              		.loc 1 194 5 discriminator 161 view .LVU358
 1874 0be0 02F58062 		add	r2, r2, #1024
ARM GAS  /tmp/ccf9br4W.s 			page 45


 1875 0be4 9342     		cmp	r3, r2
 1876 0be6 2AD0     		beq	.L246
 194:Drivers/STM32F7xx_HAL_Driver/Src/stm32f7xx_hal_dma_ex.c ****     __HAL_DMA_CLEAR_FLAG (hdma, __HAL_DMA_GET_FE_FLAG_INDEX(hdma));
 1877              		.loc 1 194 5 discriminator 163 view .LVU359
 1878 0be8 A2F56872 		sub	r2, r2, #928
 1879 0bec 9342     		cmp	r3, r2
 1880 0bee 29D0     		beq	.L247
 194:Drivers/STM32F7xx_HAL_Driver/Src/stm32f7xx_hal_dma_ex.c ****     __HAL_DMA_CLEAR_FLAG (hdma, __HAL_DMA_GET_FE_FLAG_INDEX(hdma));
 1881              		.loc 1 194 5 discriminator 165 view .LVU360
 1882 0bf0 02F58062 		add	r2, r2, #1024
 1883 0bf4 9342     		cmp	r3, r2
 1884 0bf6 28D0     		beq	.L248
 194:Drivers/STM32F7xx_HAL_Driver/Src/stm32f7xx_hal_dma_ex.c ****     __HAL_DMA_CLEAR_FLAG (hdma, __HAL_DMA_GET_FE_FLAG_INDEX(hdma));
 1885              		.loc 1 194 5 discriminator 167 view .LVU361
 1886 0bf8 A2F58962 		sub	r2, r2, #1096
 1887 0bfc 9342     		cmp	r3, r2
 1888 0bfe 27D0     		beq	.L249
 194:Drivers/STM32F7xx_HAL_Driver/Src/stm32f7xx_hal_dma_ex.c ****     __HAL_DMA_CLEAR_FLAG (hdma, __HAL_DMA_GET_FE_FLAG_INDEX(hdma));
 1889              		.loc 1 194 5 discriminator 169 view .LVU362
 1890 0c00 02F58062 		add	r2, r2, #1024
 1891 0c04 9342     		cmp	r3, r2
 1892 0c06 26D0     		beq	.L250
 194:Drivers/STM32F7xx_HAL_Driver/Src/stm32f7xx_hal_dma_ex.c ****     __HAL_DMA_CLEAR_FLAG (hdma, __HAL_DMA_GET_FE_FLAG_INDEX(hdma));
 1893              		.loc 1 194 5 discriminator 171 view .LVU363
 1894 0c08 A2F56872 		sub	r2, r2, #928
 1895 0c0c 9342     		cmp	r3, r2
 1896 0c0e 25D0     		beq	.L251
 194:Drivers/STM32F7xx_HAL_Driver/Src/stm32f7xx_hal_dma_ex.c ****     __HAL_DMA_CLEAR_FLAG (hdma, __HAL_DMA_GET_FE_FLAG_INDEX(hdma));
 1897              		.loc 1 194 5 discriminator 173 view .LVU364
 1898 0c10 02F58062 		add	r2, r2, #1024
 1899 0c14 9342     		cmp	r3, r2
 1900 0c16 02D0     		beq	.L320
 194:Drivers/STM32F7xx_HAL_Driver/Src/stm32f7xx_hal_dma_ex.c ****     __HAL_DMA_CLEAR_FLAG (hdma, __HAL_DMA_GET_FE_FLAG_INDEX(hdma));
 1901              		.loc 1 194 5 view .LVU365
 1902 0c18 4FF08073 		mov	r3, #16777216
 1903 0c1c 03E0     		b	.L49
 1904              	.L320:
 1905 0c1e 4FF48023 		mov	r3, #262144
 1906 0c22 00E0     		b	.L49
 1907              	.L241:
 1908 0c24 0423     		movs	r3, #4
 1909              	.L49:
 194:Drivers/STM32F7xx_HAL_Driver/Src/stm32f7xx_hal_dma_ex.c ****     __HAL_DMA_CLEAR_FLAG (hdma, __HAL_DMA_GET_FE_FLAG_INDEX(hdma));
 1910              		.loc 1 194 5 discriminator 200 view .LVU366
 1911 0c26 7F4A     		ldr	r2, .L333+4
 1912 0c28 9360     		str	r3, [r2, #8]
 1913 0c2a ACE6     		b	.L44
 1914              	.L242:
 194:Drivers/STM32F7xx_HAL_Driver/Src/stm32f7xx_hal_dma_ex.c ****     __HAL_DMA_CLEAR_FLAG (hdma, __HAL_DMA_GET_FE_FLAG_INDEX(hdma));
 1915              		.loc 1 194 5 view .LVU367
 1916 0c2c 0423     		movs	r3, #4
 1917 0c2e FAE7     		b	.L49
 1918              	.L243:
 1919 0c30 0423     		movs	r3, #4
 1920 0c32 F8E7     		b	.L49
 1921              	.L244:
 1922 0c34 0423     		movs	r3, #4
ARM GAS  /tmp/ccf9br4W.s 			page 46


 1923 0c36 F6E7     		b	.L49
 1924              	.L245:
 1925 0c38 4FF48073 		mov	r3, #256
 1926 0c3c F3E7     		b	.L49
 1927              	.L246:
 1928 0c3e 4FF48073 		mov	r3, #256
 1929 0c42 F0E7     		b	.L49
 1930              	.L247:
 1931 0c44 4FF48073 		mov	r3, #256
 1932 0c48 EDE7     		b	.L49
 1933              	.L248:
 1934 0c4a 4FF48073 		mov	r3, #256
 1935 0c4e EAE7     		b	.L49
 1936              	.L249:
 1937 0c50 4FF48023 		mov	r3, #262144
 1938 0c54 E7E7     		b	.L49
 1939              	.L250:
 1940 0c56 4FF48023 		mov	r3, #262144
 1941 0c5a E4E7     		b	.L49
 1942              	.L251:
 1943 0c5c 4FF48023 		mov	r3, #262144
 1944 0c60 E1E7     		b	.L49
 1945              	.L317:
 195:Drivers/STM32F7xx_HAL_Driver/Src/stm32f7xx_hal_dma_ex.c ****     
 1946              		.loc 1 195 5 view .LVU368
 1947 0c62 4FF48032 		mov	r2, #65536
 1948 0c66 00E0     		b	.L51
 1949              	.L253:
 1950 0c68 0122     		movs	r2, #1
 1951              	.L51:
 195:Drivers/STM32F7xx_HAL_Driver/Src/stm32f7xx_hal_dma_ex.c ****     
 1952              		.loc 1 195 5 discriminator 50 view .LVU369
 1953 0c6a 6F4B     		ldr	r3, .L333+8
 1954 0c6c DA60     		str	r2, [r3, #12]
 1955              	.L52:
 198:Drivers/STM32F7xx_HAL_Driver/Src/stm32f7xx_hal_dma_ex.c ****     hdma->Instance->FCR |= DMA_IT_FE;
 1956              		.loc 1 198 5 is_stmt 1 view .LVU370
 198:Drivers/STM32F7xx_HAL_Driver/Src/stm32f7xx_hal_dma_ex.c ****     hdma->Instance->FCR |= DMA_IT_FE;
 1957              		.loc 1 198 9 is_stmt 0 view .LVU371
 1958 0c6e 2268     		ldr	r2, [r4]
 198:Drivers/STM32F7xx_HAL_Driver/Src/stm32f7xx_hal_dma_ex.c ****     hdma->Instance->FCR |= DMA_IT_FE;
 1959              		.loc 1 198 19 view .LVU372
 1960 0c70 1368     		ldr	r3, [r2]
 198:Drivers/STM32F7xx_HAL_Driver/Src/stm32f7xx_hal_dma_ex.c ****     hdma->Instance->FCR |= DMA_IT_FE;
 1961              		.loc 1 198 25 view .LVU373
 1962 0c72 43F01603 		orr	r3, r3, #22
 1963 0c76 1360     		str	r3, [r2]
 199:Drivers/STM32F7xx_HAL_Driver/Src/stm32f7xx_hal_dma_ex.c ****     
 1964              		.loc 1 199 5 is_stmt 1 view .LVU374
 199:Drivers/STM32F7xx_HAL_Driver/Src/stm32f7xx_hal_dma_ex.c ****     
 1965              		.loc 1 199 9 is_stmt 0 view .LVU375
 1966 0c78 2268     		ldr	r2, [r4]
 199:Drivers/STM32F7xx_HAL_Driver/Src/stm32f7xx_hal_dma_ex.c ****     
 1967              		.loc 1 199 19 view .LVU376
 1968 0c7a 5369     		ldr	r3, [r2, #20]
 199:Drivers/STM32F7xx_HAL_Driver/Src/stm32f7xx_hal_dma_ex.c ****     
 1969              		.loc 1 199 25 view .LVU377
ARM GAS  /tmp/ccf9br4W.s 			page 47


 1970 0c7c 43F08003 		orr	r3, r3, #128
 1971 0c80 5361     		str	r3, [r2, #20]
 201:Drivers/STM32F7xx_HAL_Driver/Src/stm32f7xx_hal_dma_ex.c ****     {
 1972              		.loc 1 201 5 is_stmt 1 view .LVU378
 201:Drivers/STM32F7xx_HAL_Driver/Src/stm32f7xx_hal_dma_ex.c ****     {
 1973              		.loc 1 201 13 is_stmt 0 view .LVU379
 1974 0c82 236C     		ldr	r3, [r4, #64]
 201:Drivers/STM32F7xx_HAL_Driver/Src/stm32f7xx_hal_dma_ex.c ****     {
 1975              		.loc 1 201 7 view .LVU380
 1976 0c84 002B     		cmp	r3, #0
 1977 0c86 00F02581 		beq	.L321
 1978              	.L58:
 203:Drivers/STM32F7xx_HAL_Driver/Src/stm32f7xx_hal_dma_ex.c ****     }
 1979              		.loc 1 203 7 is_stmt 1 view .LVU381
 203:Drivers/STM32F7xx_HAL_Driver/Src/stm32f7xx_hal_dma_ex.c ****     }
 1980              		.loc 1 203 11 is_stmt 0 view .LVU382
 1981 0c8a 2268     		ldr	r2, [r4]
 203:Drivers/STM32F7xx_HAL_Driver/Src/stm32f7xx_hal_dma_ex.c ****     }
 1982              		.loc 1 203 21 view .LVU383
 1983 0c8c 1368     		ldr	r3, [r2]
 203:Drivers/STM32F7xx_HAL_Driver/Src/stm32f7xx_hal_dma_ex.c ****     }
 1984              		.loc 1 203 27 view .LVU384
 1985 0c8e 43F00803 		orr	r3, r3, #8
 1986 0c92 1360     		str	r3, [r2]
 1987              	.L59:
 207:Drivers/STM32F7xx_HAL_Driver/Src/stm32f7xx_hal_dma_ex.c ****   }
 1988              		.loc 1 207 5 is_stmt 1 view .LVU385
 1989 0c94 2268     		ldr	r2, [r4]
 1990 0c96 1368     		ldr	r3, [r2]
 1991 0c98 43F00103 		orr	r3, r3, #1
 1992 0c9c 1360     		str	r3, [r2]
 158:Drivers/STM32F7xx_HAL_Driver/Src/stm32f7xx_hal_dma_ex.c ****   
 1993              		.loc 1 158 21 is_stmt 0 view .LVU386
 1994 0c9e 0020     		movs	r0, #0
 1995 0ca0 FFF7C4B9 		b	.L16
 1996              	.L254:
 195:Drivers/STM32F7xx_HAL_Driver/Src/stm32f7xx_hal_dma_ex.c ****     
 1997              		.loc 1 195 5 view .LVU387
 1998 0ca4 0122     		movs	r2, #1
 1999 0ca6 E0E7     		b	.L51
 2000              	.L255:
 2001 0ca8 0122     		movs	r2, #1
 2002 0caa DEE7     		b	.L51
 2003              	.L256:
 2004 0cac 0122     		movs	r2, #1
 2005 0cae DCE7     		b	.L51
 2006              	.L257:
 2007 0cb0 4022     		movs	r2, #64
 2008 0cb2 DAE7     		b	.L51
 2009              	.L258:
 2010 0cb4 4022     		movs	r2, #64
 2011 0cb6 D8E7     		b	.L51
 2012              	.L259:
 2013 0cb8 4022     		movs	r2, #64
 2014 0cba D6E7     		b	.L51
 2015              	.L260:
 2016 0cbc 4022     		movs	r2, #64
ARM GAS  /tmp/ccf9br4W.s 			page 48


 2017 0cbe D4E7     		b	.L51
 2018              	.L261:
 2019 0cc0 4FF48032 		mov	r2, #65536
 2020 0cc4 D1E7     		b	.L51
 2021              	.L262:
 2022 0cc6 4FF48032 		mov	r2, #65536
 2023 0cca CEE7     		b	.L51
 2024              	.L263:
 2025 0ccc 4FF48032 		mov	r2, #65536
 2026 0cd0 CBE7     		b	.L51
 2027              	.L50:
 195:Drivers/STM32F7xx_HAL_Driver/Src/stm32f7xx_hal_dma_ex.c ****     
 2028              		.loc 1 195 5 discriminator 2 view .LVU388
 2029 0cd2 564A     		ldr	r2, .L333+12
 2030 0cd4 9342     		cmp	r3, r2
 2031 0cd6 4FD9     		bls	.L53
 195:Drivers/STM32F7xx_HAL_Driver/Src/stm32f7xx_hal_dma_ex.c ****     
 2032              		.loc 1 195 5 discriminator 51 view .LVU389
 2033 0cd8 A83A     		subs	r2, r2, #168
 2034 0cda 9342     		cmp	r3, r2
 2035 0cdc 31D0     		beq	.L265
 195:Drivers/STM32F7xx_HAL_Driver/Src/stm32f7xx_hal_dma_ex.c ****     
 2036              		.loc 1 195 5 discriminator 53 view .LVU390
 2037 0cde 02F58062 		add	r2, r2, #1024
 2038 0ce2 9342     		cmp	r3, r2
 2039 0ce4 31D0     		beq	.L266
 195:Drivers/STM32F7xx_HAL_Driver/Src/stm32f7xx_hal_dma_ex.c ****     
 2040              		.loc 1 195 5 discriminator 55 view .LVU391
 2041 0ce6 A2F56872 		sub	r2, r2, #928
 2042 0cea 9342     		cmp	r3, r2
 2043 0cec 2FD0     		beq	.L267
 195:Drivers/STM32F7xx_HAL_Driver/Src/stm32f7xx_hal_dma_ex.c ****     
 2044              		.loc 1 195 5 discriminator 57 view .LVU392
 2045 0cee 02F58062 		add	r2, r2, #1024
 2046 0cf2 9342     		cmp	r3, r2
 2047 0cf4 2DD0     		beq	.L268
 195:Drivers/STM32F7xx_HAL_Driver/Src/stm32f7xx_hal_dma_ex.c ****     
 2048              		.loc 1 195 5 discriminator 59 view .LVU393
 2049 0cf6 A2F58962 		sub	r2, r2, #1096
 2050 0cfa 9342     		cmp	r3, r2
 2051 0cfc 2BD0     		beq	.L269
 195:Drivers/STM32F7xx_HAL_Driver/Src/stm32f7xx_hal_dma_ex.c ****     
 2052              		.loc 1 195 5 discriminator 61 view .LVU394
 2053 0cfe 02F58062 		add	r2, r2, #1024
 2054 0d02 9342     		cmp	r3, r2
 2055 0d04 29D0     		beq	.L270
 195:Drivers/STM32F7xx_HAL_Driver/Src/stm32f7xx_hal_dma_ex.c ****     
 2056              		.loc 1 195 5 discriminator 63 view .LVU395
 2057 0d06 A2F56872 		sub	r2, r2, #928
 2058 0d0a 9342     		cmp	r3, r2
 2059 0d0c 27D0     		beq	.L271
 195:Drivers/STM32F7xx_HAL_Driver/Src/stm32f7xx_hal_dma_ex.c ****     
 2060              		.loc 1 195 5 discriminator 65 view .LVU396
 2061 0d0e 02F58062 		add	r2, r2, #1024
 2062 0d12 9342     		cmp	r3, r2
 2063 0d14 25D0     		beq	.L272
 195:Drivers/STM32F7xx_HAL_Driver/Src/stm32f7xx_hal_dma_ex.c ****     
ARM GAS  /tmp/ccf9br4W.s 			page 49


 2064              		.loc 1 195 5 discriminator 67 view .LVU397
 2065 0d16 A2F58962 		sub	r2, r2, #1096
 2066 0d1a 9342     		cmp	r3, r2
 2067 0d1c 23D0     		beq	.L273
 195:Drivers/STM32F7xx_HAL_Driver/Src/stm32f7xx_hal_dma_ex.c ****     
 2068              		.loc 1 195 5 discriminator 69 view .LVU398
 2069 0d1e 02F58062 		add	r2, r2, #1024
 2070 0d22 9342     		cmp	r3, r2
 2071 0d24 22D0     		beq	.L274
 195:Drivers/STM32F7xx_HAL_Driver/Src/stm32f7xx_hal_dma_ex.c ****     
 2072              		.loc 1 195 5 discriminator 71 view .LVU399
 2073 0d26 A2F56872 		sub	r2, r2, #928
 2074 0d2a 9342     		cmp	r3, r2
 2075 0d2c 21D0     		beq	.L275
 195:Drivers/STM32F7xx_HAL_Driver/Src/stm32f7xx_hal_dma_ex.c ****     
 2076              		.loc 1 195 5 discriminator 73 view .LVU400
 2077 0d2e 02F58062 		add	r2, r2, #1024
 2078 0d32 9342     		cmp	r3, r2
 2079 0d34 02D0     		beq	.L322
 195:Drivers/STM32F7xx_HAL_Driver/Src/stm32f7xx_hal_dma_ex.c ****     
 2080              		.loc 1 195 5 view .LVU401
 2081 0d36 4FF48002 		mov	r2, #4194304
 2082 0d3a 03E0     		b	.L54
 2083              	.L322:
 2084 0d3c 4FF48032 		mov	r2, #65536
 2085 0d40 00E0     		b	.L54
 2086              	.L265:
 2087 0d42 0122     		movs	r2, #1
 2088              	.L54:
 195:Drivers/STM32F7xx_HAL_Driver/Src/stm32f7xx_hal_dma_ex.c ****     
 2089              		.loc 1 195 5 discriminator 100 view .LVU402
 2090 0d44 384B     		ldr	r3, .L333+8
 2091 0d46 9A60     		str	r2, [r3, #8]
 2092 0d48 91E7     		b	.L52
 2093              	.L266:
 195:Drivers/STM32F7xx_HAL_Driver/Src/stm32f7xx_hal_dma_ex.c ****     
 2094              		.loc 1 195 5 view .LVU403
 2095 0d4a 0122     		movs	r2, #1
 2096 0d4c FAE7     		b	.L54
 2097              	.L267:
 2098 0d4e 0122     		movs	r2, #1
 2099 0d50 F8E7     		b	.L54
 2100              	.L268:
 2101 0d52 0122     		movs	r2, #1
 2102 0d54 F6E7     		b	.L54
 2103              	.L269:
 2104 0d56 4022     		movs	r2, #64
 2105 0d58 F4E7     		b	.L54
 2106              	.L270:
 2107 0d5a 4022     		movs	r2, #64
 2108 0d5c F2E7     		b	.L54
 2109              	.L271:
 2110 0d5e 4022     		movs	r2, #64
 2111 0d60 F0E7     		b	.L54
 2112              	.L272:
 2113 0d62 4022     		movs	r2, #64
 2114 0d64 EEE7     		b	.L54
ARM GAS  /tmp/ccf9br4W.s 			page 50


 2115              	.L273:
 2116 0d66 4FF48032 		mov	r2, #65536
 2117 0d6a EBE7     		b	.L54
 2118              	.L274:
 2119 0d6c 4FF48032 		mov	r2, #65536
 2120 0d70 E8E7     		b	.L54
 2121              	.L275:
 2122 0d72 4FF48032 		mov	r2, #65536
 2123 0d76 E5E7     		b	.L54
 2124              	.L53:
 195:Drivers/STM32F7xx_HAL_Driver/Src/stm32f7xx_hal_dma_ex.c ****     
 2125              		.loc 1 195 5 discriminator 52 view .LVU404
 2126 0d78 2D4A     		ldr	r2, .L333+16
 2127 0d7a 9342     		cmp	r3, r2
 2128 0d7c 5AD9     		bls	.L55
 195:Drivers/STM32F7xx_HAL_Driver/Src/stm32f7xx_hal_dma_ex.c ****     
 2129              		.loc 1 195 5 discriminator 102 view .LVU405
 2130 0d7e 483A     		subs	r2, r2, #72
 2131 0d80 9342     		cmp	r3, r2
 2132 0d82 31D0     		beq	.L277
 195:Drivers/STM32F7xx_HAL_Driver/Src/stm32f7xx_hal_dma_ex.c ****     
 2133              		.loc 1 195 5 discriminator 104 view .LVU406
 2134 0d84 02F58062 		add	r2, r2, #1024
 2135 0d88 9342     		cmp	r3, r2
 2136 0d8a 31D0     		beq	.L278
 195:Drivers/STM32F7xx_HAL_Driver/Src/stm32f7xx_hal_dma_ex.c ****     
 2137              		.loc 1 195 5 discriminator 106 view .LVU407
 2138 0d8c A2F56872 		sub	r2, r2, #928
 2139 0d90 9342     		cmp	r3, r2
 2140 0d92 2FD0     		beq	.L279
 195:Drivers/STM32F7xx_HAL_Driver/Src/stm32f7xx_hal_dma_ex.c ****     
 2141              		.loc 1 195 5 discriminator 108 view .LVU408
 2142 0d94 02F58062 		add	r2, r2, #1024
 2143 0d98 9342     		cmp	r3, r2
 2144 0d9a 2DD0     		beq	.L280
 195:Drivers/STM32F7xx_HAL_Driver/Src/stm32f7xx_hal_dma_ex.c ****     
 2145              		.loc 1 195 5 discriminator 110 view .LVU409
 2146 0d9c A2F58962 		sub	r2, r2, #1096
 2147 0da0 9342     		cmp	r3, r2
 2148 0da2 2BD0     		beq	.L281
 195:Drivers/STM32F7xx_HAL_Driver/Src/stm32f7xx_hal_dma_ex.c ****     
 2149              		.loc 1 195 5 discriminator 112 view .LVU410
 2150 0da4 02F58062 		add	r2, r2, #1024
 2151 0da8 9342     		cmp	r3, r2
 2152 0daa 29D0     		beq	.L282
 195:Drivers/STM32F7xx_HAL_Driver/Src/stm32f7xx_hal_dma_ex.c ****     
 2153              		.loc 1 195 5 discriminator 114 view .LVU411
 2154 0dac A2F56872 		sub	r2, r2, #928
 2155 0db0 9342     		cmp	r3, r2
 2156 0db2 27D0     		beq	.L283
 195:Drivers/STM32F7xx_HAL_Driver/Src/stm32f7xx_hal_dma_ex.c ****     
 2157              		.loc 1 195 5 discriminator 116 view .LVU412
 2158 0db4 02F58062 		add	r2, r2, #1024
 2159 0db8 9342     		cmp	r3, r2
 2160 0dba 25D0     		beq	.L284
 195:Drivers/STM32F7xx_HAL_Driver/Src/stm32f7xx_hal_dma_ex.c ****     
 2161              		.loc 1 195 5 discriminator 118 view .LVU413
ARM GAS  /tmp/ccf9br4W.s 			page 51


 2162 0dbc A2F58962 		sub	r2, r2, #1096
 2163 0dc0 9342     		cmp	r3, r2
 2164 0dc2 23D0     		beq	.L285
 195:Drivers/STM32F7xx_HAL_Driver/Src/stm32f7xx_hal_dma_ex.c ****     
 2165              		.loc 1 195 5 discriminator 120 view .LVU414
 2166 0dc4 02F58062 		add	r2, r2, #1024
 2167 0dc8 9342     		cmp	r3, r2
 2168 0dca 22D0     		beq	.L286
 195:Drivers/STM32F7xx_HAL_Driver/Src/stm32f7xx_hal_dma_ex.c ****     
 2169              		.loc 1 195 5 discriminator 122 view .LVU415
 2170 0dcc A2F56872 		sub	r2, r2, #928
 2171 0dd0 9342     		cmp	r3, r2
 2172 0dd2 21D0     		beq	.L287
 195:Drivers/STM32F7xx_HAL_Driver/Src/stm32f7xx_hal_dma_ex.c ****     
 2173              		.loc 1 195 5 discriminator 124 view .LVU416
 2174 0dd4 02F58062 		add	r2, r2, #1024
 2175 0dd8 9342     		cmp	r3, r2
 2176 0dda 02D0     		beq	.L323
 195:Drivers/STM32F7xx_HAL_Driver/Src/stm32f7xx_hal_dma_ex.c ****     
 2177              		.loc 1 195 5 view .LVU417
 2178 0ddc 4FF48003 		mov	r3, #4194304
 2179 0de0 03E0     		b	.L56
 2180              	.L323:
 2181 0de2 4FF48033 		mov	r3, #65536
 2182 0de6 00E0     		b	.L56
 2183              	.L277:
 2184 0de8 0123     		movs	r3, #1
 2185              	.L56:
 195:Drivers/STM32F7xx_HAL_Driver/Src/stm32f7xx_hal_dma_ex.c ****     
 2186              		.loc 1 195 5 discriminator 151 view .LVU418
 2187 0dea 0E4A     		ldr	r2, .L333+4
 2188 0dec D360     		str	r3, [r2, #12]
 2189 0dee 3EE7     		b	.L52
 2190              	.L278:
 195:Drivers/STM32F7xx_HAL_Driver/Src/stm32f7xx_hal_dma_ex.c ****     
 2191              		.loc 1 195 5 view .LVU419
 2192 0df0 0123     		movs	r3, #1
 2193 0df2 FAE7     		b	.L56
 2194              	.L279:
 2195 0df4 0123     		movs	r3, #1
 2196 0df6 F8E7     		b	.L56
 2197              	.L280:
 2198 0df8 0123     		movs	r3, #1
 2199 0dfa F6E7     		b	.L56
 2200              	.L281:
 2201 0dfc 4023     		movs	r3, #64
 2202 0dfe F4E7     		b	.L56
 2203              	.L282:
 2204 0e00 4023     		movs	r3, #64
 2205 0e02 F2E7     		b	.L56
 2206              	.L283:
 2207 0e04 4023     		movs	r3, #64
 2208 0e06 F0E7     		b	.L56
 2209              	.L284:
 2210 0e08 4023     		movs	r3, #64
 2211 0e0a EEE7     		b	.L56
 2212              	.L285:
ARM GAS  /tmp/ccf9br4W.s 			page 52


 2213 0e0c 4FF48033 		mov	r3, #65536
 2214 0e10 EBE7     		b	.L56
 2215              	.L286:
 2216 0e12 4FF48033 		mov	r3, #65536
 2217 0e16 E8E7     		b	.L56
 2218              	.L287:
 2219 0e18 4FF48033 		mov	r3, #65536
 2220 0e1c E5E7     		b	.L56
 2221              	.L334:
 2222 0e1e 00BF     		.align	2
 2223              	.L333:
 2224 0e20 10600240 		.word	1073897488
 2225 0e24 00600240 		.word	1073897472
 2226 0e28 00640240 		.word	1073898496
 2227 0e2c B8600240 		.word	1073897656
 2228 0e30 58600240 		.word	1073897560
 2229              	.L55:
 195:Drivers/STM32F7xx_HAL_Driver/Src/stm32f7xx_hal_dma_ex.c ****     
 2230              		.loc 1 195 5 discriminator 103 view .LVU420
 2231 0e34 2B4A     		ldr	r2, .L335
 2232 0e36 9342     		cmp	r3, r2
 2233 0e38 31D0     		beq	.L289
 195:Drivers/STM32F7xx_HAL_Driver/Src/stm32f7xx_hal_dma_ex.c ****     
 2234              		.loc 1 195 5 discriminator 153 view .LVU421
 2235 0e3a 02F58062 		add	r2, r2, #1024
 2236 0e3e 9342     		cmp	r3, r2
 2237 0e40 31D0     		beq	.L290
 195:Drivers/STM32F7xx_HAL_Driver/Src/stm32f7xx_hal_dma_ex.c ****     
 2238              		.loc 1 195 5 discriminator 155 view .LVU422
 2239 0e42 A2F56872 		sub	r2, r2, #928
 2240 0e46 9342     		cmp	r3, r2
 2241 0e48 2FD0     		beq	.L291
 195:Drivers/STM32F7xx_HAL_Driver/Src/stm32f7xx_hal_dma_ex.c ****     
 2242              		.loc 1 195 5 discriminator 157 view .LVU423
 2243 0e4a 02F58062 		add	r2, r2, #1024
 2244 0e4e 9342     		cmp	r3, r2
 2245 0e50 2DD0     		beq	.L292
 195:Drivers/STM32F7xx_HAL_Driver/Src/stm32f7xx_hal_dma_ex.c ****     
 2246              		.loc 1 195 5 discriminator 159 view .LVU424
 2247 0e52 A2F58962 		sub	r2, r2, #1096
 2248 0e56 9342     		cmp	r3, r2
 2249 0e58 2BD0     		beq	.L293
 195:Drivers/STM32F7xx_HAL_Driver/Src/stm32f7xx_hal_dma_ex.c ****     
 2250              		.loc 1 195 5 discriminator 161 view .LVU425
 2251 0e5a 02F58062 		add	r2, r2, #1024
 2252 0e5e 9342     		cmp	r3, r2
 2253 0e60 29D0     		beq	.L294
 195:Drivers/STM32F7xx_HAL_Driver/Src/stm32f7xx_hal_dma_ex.c ****     
 2254              		.loc 1 195 5 discriminator 163 view .LVU426
 2255 0e62 A2F56872 		sub	r2, r2, #928
 2256 0e66 9342     		cmp	r3, r2
 2257 0e68 27D0     		beq	.L295
 195:Drivers/STM32F7xx_HAL_Driver/Src/stm32f7xx_hal_dma_ex.c ****     
 2258              		.loc 1 195 5 discriminator 165 view .LVU427
 2259 0e6a 02F58062 		add	r2, r2, #1024
 2260 0e6e 9342     		cmp	r3, r2
 2261 0e70 25D0     		beq	.L296
ARM GAS  /tmp/ccf9br4W.s 			page 53


 195:Drivers/STM32F7xx_HAL_Driver/Src/stm32f7xx_hal_dma_ex.c ****     
 2262              		.loc 1 195 5 discriminator 167 view .LVU428
 2263 0e72 A2F58962 		sub	r2, r2, #1096
 2264 0e76 9342     		cmp	r3, r2
 2265 0e78 23D0     		beq	.L297
 195:Drivers/STM32F7xx_HAL_Driver/Src/stm32f7xx_hal_dma_ex.c ****     
 2266              		.loc 1 195 5 discriminator 169 view .LVU429
 2267 0e7a 02F58062 		add	r2, r2, #1024
 2268 0e7e 9342     		cmp	r3, r2
 2269 0e80 22D0     		beq	.L298
 195:Drivers/STM32F7xx_HAL_Driver/Src/stm32f7xx_hal_dma_ex.c ****     
 2270              		.loc 1 195 5 discriminator 171 view .LVU430
 2271 0e82 A2F56872 		sub	r2, r2, #928
 2272 0e86 9342     		cmp	r3, r2
 2273 0e88 21D0     		beq	.L299
 195:Drivers/STM32F7xx_HAL_Driver/Src/stm32f7xx_hal_dma_ex.c ****     
 2274              		.loc 1 195 5 discriminator 173 view .LVU431
 2275 0e8a 02F58062 		add	r2, r2, #1024
 2276 0e8e 9342     		cmp	r3, r2
 2277 0e90 02D0     		beq	.L324
 195:Drivers/STM32F7xx_HAL_Driver/Src/stm32f7xx_hal_dma_ex.c ****     
 2278              		.loc 1 195 5 view .LVU432
 2279 0e92 4FF48003 		mov	r3, #4194304
 2280 0e96 03E0     		b	.L57
 2281              	.L324:
 2282 0e98 4FF48033 		mov	r3, #65536
 2283 0e9c 00E0     		b	.L57
 2284              	.L289:
 2285 0e9e 0123     		movs	r3, #1
 2286              	.L57:
 195:Drivers/STM32F7xx_HAL_Driver/Src/stm32f7xx_hal_dma_ex.c ****     
 2287              		.loc 1 195 5 discriminator 200 view .LVU433
 2288 0ea0 114A     		ldr	r2, .L335+4
 2289 0ea2 9360     		str	r3, [r2, #8]
 2290 0ea4 E3E6     		b	.L52
 2291              	.L290:
 195:Drivers/STM32F7xx_HAL_Driver/Src/stm32f7xx_hal_dma_ex.c ****     
 2292              		.loc 1 195 5 view .LVU434
 2293 0ea6 0123     		movs	r3, #1
 2294 0ea8 FAE7     		b	.L57
 2295              	.L291:
 2296 0eaa 0123     		movs	r3, #1
 2297 0eac F8E7     		b	.L57
 2298              	.L292:
 2299 0eae 0123     		movs	r3, #1
 2300 0eb0 F6E7     		b	.L57
 2301              	.L293:
 2302 0eb2 4023     		movs	r3, #64
 2303 0eb4 F4E7     		b	.L57
 2304              	.L294:
 2305 0eb6 4023     		movs	r3, #64
 2306 0eb8 F2E7     		b	.L57
 2307              	.L295:
 2308 0eba 4023     		movs	r3, #64
 2309 0ebc F0E7     		b	.L57
 2310              	.L296:
 2311 0ebe 4023     		movs	r3, #64
ARM GAS  /tmp/ccf9br4W.s 			page 54


 2312 0ec0 EEE7     		b	.L57
 2313              	.L297:
 2314 0ec2 4FF48033 		mov	r3, #65536
 2315 0ec6 EBE7     		b	.L57
 2316              	.L298:
 2317 0ec8 4FF48033 		mov	r3, #65536
 2318 0ecc E8E7     		b	.L57
 2319              	.L299:
 2320 0ece 4FF48033 		mov	r3, #65536
 2321 0ed2 E5E7     		b	.L57
 2322              	.L321:
 201:Drivers/STM32F7xx_HAL_Driver/Src/stm32f7xx_hal_dma_ex.c ****     {
 2323              		.loc 1 201 53 discriminator 1 view .LVU435
 2324 0ed4 A36C     		ldr	r3, [r4, #72]
 201:Drivers/STM32F7xx_HAL_Driver/Src/stm32f7xx_hal_dma_ex.c ****     {
 2325              		.loc 1 201 45 discriminator 1 view .LVU436
 2326 0ed6 002B     		cmp	r3, #0
 2327 0ed8 7FF4D7AE 		bne	.L58
 2328 0edc DAE6     		b	.L59
 2329              	.LVL38:
 2330              	.L60:
 171:Drivers/STM32F7xx_HAL_Driver/Src/stm32f7xx_hal_dma_ex.c ****   
 2331              		.loc 1 171 3 view .LVU437
 2332 0ede 0220     		movs	r0, #2
 2333 0ee0 FFF7A4B8 		b	.L16
 2334              	.L336:
 2335              		.align	2
 2336              	.L335:
 2337 0ee4 10600240 		.word	1073897488
 2338 0ee8 00600240 		.word	1073897472
 2339              		.cfi_endproc
 2340              	.LFE142:
 2342              		.section	.text.HAL_DMAEx_ChangeMemory,"ax",%progbits
 2343              		.align	1
 2344              		.global	HAL_DMAEx_ChangeMemory
 2345              		.syntax unified
 2346              		.thumb
 2347              		.thumb_func
 2349              	HAL_DMAEx_ChangeMemory:
 2350              	.LVL39:
 2351              	.LFB143:
 235:Drivers/STM32F7xx_HAL_Driver/Src/stm32f7xx_hal_dma_ex.c ****   if(memory == MEMORY0)
 2352              		.loc 1 235 1 is_stmt 1 view -0
 2353              		.cfi_startproc
 2354              		@ args = 0, pretend = 0, frame = 0
 2355              		@ frame_needed = 0, uses_anonymous_args = 0
 2356              		@ link register save eliminated.
 236:Drivers/STM32F7xx_HAL_Driver/Src/stm32f7xx_hal_dma_ex.c ****   {
 2357              		.loc 1 236 3 view .LVU439
 236:Drivers/STM32F7xx_HAL_Driver/Src/stm32f7xx_hal_dma_ex.c ****   {
 2358              		.loc 1 236 5 is_stmt 0 view .LVU440
 2359 0000 1AB9     		cbnz	r2, .L338
 239:Drivers/STM32F7xx_HAL_Driver/Src/stm32f7xx_hal_dma_ex.c ****   }
 2360              		.loc 1 239 5 is_stmt 1 view .LVU441
 239:Drivers/STM32F7xx_HAL_Driver/Src/stm32f7xx_hal_dma_ex.c ****   }
 2361              		.loc 1 239 9 is_stmt 0 view .LVU442
 2362 0002 0368     		ldr	r3, [r0]
ARM GAS  /tmp/ccf9br4W.s 			page 55


 239:Drivers/STM32F7xx_HAL_Driver/Src/stm32f7xx_hal_dma_ex.c ****   }
 2363              		.loc 1 239 26 view .LVU443
 2364 0004 D960     		str	r1, [r3, #12]
 2365              	.L339:
 247:Drivers/STM32F7xx_HAL_Driver/Src/stm32f7xx_hal_dma_ex.c **** }
 2366              		.loc 1 247 3 is_stmt 1 view .LVU444
 248:Drivers/STM32F7xx_HAL_Driver/Src/stm32f7xx_hal_dma_ex.c **** 
 2367              		.loc 1 248 1 is_stmt 0 view .LVU445
 2368 0006 0020     		movs	r0, #0
 2369              	.LVL40:
 248:Drivers/STM32F7xx_HAL_Driver/Src/stm32f7xx_hal_dma_ex.c **** 
 2370              		.loc 1 248 1 view .LVU446
 2371 0008 7047     		bx	lr
 2372              	.LVL41:
 2373              	.L338:
 244:Drivers/STM32F7xx_HAL_Driver/Src/stm32f7xx_hal_dma_ex.c ****   }
 2374              		.loc 1 244 5 is_stmt 1 view .LVU447
 244:Drivers/STM32F7xx_HAL_Driver/Src/stm32f7xx_hal_dma_ex.c ****   }
 2375              		.loc 1 244 9 is_stmt 0 view .LVU448
 2376 000a 0368     		ldr	r3, [r0]
 244:Drivers/STM32F7xx_HAL_Driver/Src/stm32f7xx_hal_dma_ex.c ****   }
 2377              		.loc 1 244 26 view .LVU449
 2378 000c 1961     		str	r1, [r3, #16]
 2379 000e FAE7     		b	.L339
 2380              		.cfi_endproc
 2381              	.LFE143:
 2383              		.text
 2384              	.Letext0:
 2385              		.file 2 "/home/qrsnap/.config/Code/User/globalStorage/bmd.stm32-for-vscode/@xpack-dev-tools/arm-no
 2386              		.file 3 "/home/qrsnap/.config/Code/User/globalStorage/bmd.stm32-for-vscode/@xpack-dev-tools/arm-no
 2387              		.file 4 "Drivers/CMSIS/Device/ST/STM32F7xx/Include/stm32f723xx.h"
 2388              		.file 5 "Drivers/STM32F7xx_HAL_Driver/Inc/stm32f7xx_hal_def.h"
 2389              		.file 6 "Drivers/STM32F7xx_HAL_Driver/Inc/stm32f7xx_hal_dma.h"
 2390              		.file 7 "Drivers/STM32F7xx_HAL_Driver/Inc/stm32f7xx_hal_dma_ex.h"
ARM GAS  /tmp/ccf9br4W.s 			page 56

