ARM GAS  /tmp/cccq9npH.s 			page 1


   1              		.cpu cortex-m7
   2              		.arch armv7e-m
   3              		.fpu fpv5-sp-d16
   4              		.eabi_attribute 27, 1
   5              		.eabi_attribute 28, 1
   6              		.eabi_attribute 20, 1
   7              		.eabi_attribute 21, 1
   8              		.eabi_attribute 23, 3
   9              		.eabi_attribute 24, 1
  10              		.eabi_attribute 25, 1
  11              		.eabi_attribute 26, 1
  12              		.eabi_attribute 30, 1
  13              		.eabi_attribute 34, 1
  14              		.eabi_attribute 18, 4
  15              		.file	"usb_otg.c"
  16              		.text
  17              	.Ltext0:
  18              		.cfi_sections	.debug_frame
  19              		.file 1 "Core/Src/usb_otg.c"
  20              		.section	.text.MX_USB_OTG_HS_PCD_Init,"ax",%progbits
  21              		.align	1
  22              		.global	MX_USB_OTG_HS_PCD_Init
  23              		.syntax unified
  24              		.thumb
  25              		.thumb_func
  27              	MX_USB_OTG_HS_PCD_Init:
  28              	.LFB141:
   1:Core/Src/usb_otg.c **** /* USER CODE BEGIN Header */
   2:Core/Src/usb_otg.c **** /**
   3:Core/Src/usb_otg.c ****   ******************************************************************************
   4:Core/Src/usb_otg.c ****   * @file    usb_otg.c
   5:Core/Src/usb_otg.c ****   * @brief   This file provides code for the configuration
   6:Core/Src/usb_otg.c ****   *          of the USB_OTG instances.
   7:Core/Src/usb_otg.c ****   ******************************************************************************
   8:Core/Src/usb_otg.c ****   * @attention
   9:Core/Src/usb_otg.c ****   *
  10:Core/Src/usb_otg.c ****   * Copyright (c) 2023 STMicroelectronics.
  11:Core/Src/usb_otg.c ****   * All rights reserved.
  12:Core/Src/usb_otg.c ****   *
  13:Core/Src/usb_otg.c ****   * This software is licensed under terms that can be found in the LICENSE file
  14:Core/Src/usb_otg.c ****   * in the root directory of this software component.
  15:Core/Src/usb_otg.c ****   * If no LICENSE file comes with this software, it is provided AS-IS.
  16:Core/Src/usb_otg.c ****   *
  17:Core/Src/usb_otg.c ****   ******************************************************************************
  18:Core/Src/usb_otg.c ****   */
  19:Core/Src/usb_otg.c **** /* USER CODE END Header */
  20:Core/Src/usb_otg.c **** /* Includes ------------------------------------------------------------------*/
  21:Core/Src/usb_otg.c **** #include "usb_otg.h"
  22:Core/Src/usb_otg.c **** 
  23:Core/Src/usb_otg.c **** /* USER CODE BEGIN 0 */
  24:Core/Src/usb_otg.c **** 
  25:Core/Src/usb_otg.c **** /* USER CODE END 0 */
  26:Core/Src/usb_otg.c **** 
  27:Core/Src/usb_otg.c **** PCD_HandleTypeDef hpcd_USB_OTG_HS;
  28:Core/Src/usb_otg.c **** 
  29:Core/Src/usb_otg.c **** /* USB_OTG_HS init function */
  30:Core/Src/usb_otg.c **** 
ARM GAS  /tmp/cccq9npH.s 			page 2


  31:Core/Src/usb_otg.c **** void MX_USB_OTG_HS_PCD_Init(void)
  32:Core/Src/usb_otg.c **** {
  29              		.loc 1 32 1 view -0
  30              		.cfi_startproc
  31              		@ args = 0, pretend = 0, frame = 0
  32              		@ frame_needed = 0, uses_anonymous_args = 0
  33 0000 08B5     		push	{r3, lr}
  34              		.cfi_def_cfa_offset 8
  35              		.cfi_offset 3, -8
  36              		.cfi_offset 14, -4
  33:Core/Src/usb_otg.c **** 
  34:Core/Src/usb_otg.c ****   /* USER CODE BEGIN USB_OTG_HS_Init 0 */
  35:Core/Src/usb_otg.c **** 
  36:Core/Src/usb_otg.c ****   /* USER CODE END USB_OTG_HS_Init 0 */
  37:Core/Src/usb_otg.c **** 
  38:Core/Src/usb_otg.c ****   /* USER CODE BEGIN USB_OTG_HS_Init 1 */
  39:Core/Src/usb_otg.c **** 
  40:Core/Src/usb_otg.c ****   /* USER CODE END USB_OTG_HS_Init 1 */
  41:Core/Src/usb_otg.c ****   hpcd_USB_OTG_HS.Instance = USB_OTG_HS;
  37              		.loc 1 41 3 view .LVU1
  38              		.loc 1 41 28 is_stmt 0 view .LVU2
  39 0002 0B48     		ldr	r0, .L5
  40 0004 0B4B     		ldr	r3, .L5+4
  41 0006 0360     		str	r3, [r0]
  42:Core/Src/usb_otg.c ****   hpcd_USB_OTG_HS.Init.dev_endpoints = 9;
  42              		.loc 1 42 3 is_stmt 1 view .LVU3
  43              		.loc 1 42 38 is_stmt 0 view .LVU4
  44 0008 0923     		movs	r3, #9
  45 000a 4360     		str	r3, [r0, #4]
  43:Core/Src/usb_otg.c ****   hpcd_USB_OTG_HS.Init.dma_enable = DISABLE;
  46              		.loc 1 43 3 is_stmt 1 view .LVU5
  47              		.loc 1 43 35 is_stmt 0 view .LVU6
  48 000c 0023     		movs	r3, #0
  49 000e 0361     		str	r3, [r0, #16]
  44:Core/Src/usb_otg.c ****   hpcd_USB_OTG_HS.Init.phy_itface = USB_OTG_HS_EMBEDDED_PHY;
  50              		.loc 1 44 3 is_stmt 1 view .LVU7
  51              		.loc 1 44 35 is_stmt 0 view .LVU8
  52 0010 0322     		movs	r2, #3
  53 0012 8261     		str	r2, [r0, #24]
  45:Core/Src/usb_otg.c ****   hpcd_USB_OTG_HS.Init.Sof_enable = ENABLE;
  54              		.loc 1 45 3 is_stmt 1 view .LVU9
  55              		.loc 1 45 35 is_stmt 0 view .LVU10
  56 0014 0122     		movs	r2, #1
  57 0016 C261     		str	r2, [r0, #28]
  46:Core/Src/usb_otg.c ****   hpcd_USB_OTG_HS.Init.low_power_enable = DISABLE;
  58              		.loc 1 46 3 is_stmt 1 view .LVU11
  59              		.loc 1 46 41 is_stmt 0 view .LVU12
  60 0018 0362     		str	r3, [r0, #32]
  47:Core/Src/usb_otg.c ****   hpcd_USB_OTG_HS.Init.lpm_enable = DISABLE;
  61              		.loc 1 47 3 is_stmt 1 view .LVU13
  62              		.loc 1 47 35 is_stmt 0 view .LVU14
  63 001a 4362     		str	r3, [r0, #36]
  48:Core/Src/usb_otg.c ****   hpcd_USB_OTG_HS.Init.vbus_sensing_enable = DISABLE;
  64              		.loc 1 48 3 is_stmt 1 view .LVU15
  65              		.loc 1 48 44 is_stmt 0 view .LVU16
  66 001c C362     		str	r3, [r0, #44]
  49:Core/Src/usb_otg.c ****   hpcd_USB_OTG_HS.Init.use_dedicated_ep1 = DISABLE;
ARM GAS  /tmp/cccq9npH.s 			page 3


  67              		.loc 1 49 3 is_stmt 1 view .LVU17
  68              		.loc 1 49 42 is_stmt 0 view .LVU18
  69 001e 0363     		str	r3, [r0, #48]
  50:Core/Src/usb_otg.c ****   hpcd_USB_OTG_HS.Init.use_external_vbus = DISABLE;
  70              		.loc 1 50 3 is_stmt 1 view .LVU19
  71              		.loc 1 50 42 is_stmt 0 view .LVU20
  72 0020 4363     		str	r3, [r0, #52]
  51:Core/Src/usb_otg.c ****   if (HAL_PCD_Init(&hpcd_USB_OTG_HS) != HAL_OK)
  73              		.loc 1 51 3 is_stmt 1 view .LVU21
  74              		.loc 1 51 7 is_stmt 0 view .LVU22
  75 0022 FFF7FEFF 		bl	HAL_PCD_Init
  76              	.LVL0:
  77              		.loc 1 51 6 view .LVU23
  78 0026 00B9     		cbnz	r0, .L4
  79              	.L1:
  52:Core/Src/usb_otg.c ****   {
  53:Core/Src/usb_otg.c ****     Error_Handler();
  54:Core/Src/usb_otg.c ****   }
  55:Core/Src/usb_otg.c ****   /* USER CODE BEGIN USB_OTG_HS_Init 2 */
  56:Core/Src/usb_otg.c **** 
  57:Core/Src/usb_otg.c ****   /* USER CODE END USB_OTG_HS_Init 2 */
  58:Core/Src/usb_otg.c **** 
  59:Core/Src/usb_otg.c **** }
  80              		.loc 1 59 1 view .LVU24
  81 0028 08BD     		pop	{r3, pc}
  82              	.L4:
  53:Core/Src/usb_otg.c ****   }
  83              		.loc 1 53 5 is_stmt 1 view .LVU25
  84 002a FFF7FEFF 		bl	Error_Handler
  85              	.LVL1:
  86              		.loc 1 59 1 is_stmt 0 view .LVU26
  87 002e FBE7     		b	.L1
  88              	.L6:
  89              		.align	2
  90              	.L5:
  91 0030 00000000 		.word	hpcd_USB_OTG_HS
  92 0034 00000440 		.word	1074003968
  93              		.cfi_endproc
  94              	.LFE141:
  96              		.section	.text.HAL_PCD_MspInit,"ax",%progbits
  97              		.align	1
  98              		.global	HAL_PCD_MspInit
  99              		.syntax unified
 100              		.thumb
 101              		.thumb_func
 103              	HAL_PCD_MspInit:
 104              	.LVL2:
 105              	.LFB142:
  60:Core/Src/usb_otg.c **** 
  61:Core/Src/usb_otg.c **** void HAL_PCD_MspInit(PCD_HandleTypeDef* pcdHandle)
  62:Core/Src/usb_otg.c **** {
 106              		.loc 1 62 1 is_stmt 1 view -0
 107              		.cfi_startproc
 108              		@ args = 0, pretend = 0, frame = 168
 109              		@ frame_needed = 0, uses_anonymous_args = 0
 110              		.loc 1 62 1 is_stmt 0 view .LVU28
 111 0000 30B5     		push	{r4, r5, lr}
ARM GAS  /tmp/cccq9npH.s 			page 4


 112              		.cfi_def_cfa_offset 12
 113              		.cfi_offset 4, -12
 114              		.cfi_offset 5, -8
 115              		.cfi_offset 14, -4
 116 0002 ABB0     		sub	sp, sp, #172
 117              		.cfi_def_cfa_offset 184
 118 0004 0446     		mov	r4, r0
  63:Core/Src/usb_otg.c **** 
  64:Core/Src/usb_otg.c ****   GPIO_InitTypeDef GPIO_InitStruct = {0};
 119              		.loc 1 64 3 is_stmt 1 view .LVU29
 120              		.loc 1 64 20 is_stmt 0 view .LVU30
 121 0006 0021     		movs	r1, #0
 122 0008 2591     		str	r1, [sp, #148]
 123 000a 2691     		str	r1, [sp, #152]
 124 000c 2791     		str	r1, [sp, #156]
 125 000e 2891     		str	r1, [sp, #160]
 126 0010 2991     		str	r1, [sp, #164]
  65:Core/Src/usb_otg.c ****   RCC_PeriphCLKInitTypeDef PeriphClkInitStruct = {0};
 127              		.loc 1 65 3 is_stmt 1 view .LVU31
 128              		.loc 1 65 28 is_stmt 0 view .LVU32
 129 0012 8022     		movs	r2, #128
 130 0014 05A8     		add	r0, sp, #20
 131              	.LVL3:
 132              		.loc 1 65 28 view .LVU33
 133 0016 FFF7FEFF 		bl	memset
 134              	.LVL4:
  66:Core/Src/usb_otg.c ****   if(pcdHandle->Instance==USB_OTG_HS)
 135              		.loc 1 66 3 is_stmt 1 view .LVU34
 136              		.loc 1 66 15 is_stmt 0 view .LVU35
 137 001a 2268     		ldr	r2, [r4]
 138              		.loc 1 66 5 view .LVU36
 139 001c 264B     		ldr	r3, .L13
 140 001e 9A42     		cmp	r2, r3
 141 0020 01D0     		beq	.L11
 142              	.LVL5:
 143              	.L7:
  67:Core/Src/usb_otg.c ****   {
  68:Core/Src/usb_otg.c ****   /* USER CODE BEGIN USB_OTG_HS_MspInit 0 */
  69:Core/Src/usb_otg.c **** 
  70:Core/Src/usb_otg.c ****   /* USER CODE END USB_OTG_HS_MspInit 0 */
  71:Core/Src/usb_otg.c **** 
  72:Core/Src/usb_otg.c ****   /** Initializes the peripherals clock
  73:Core/Src/usb_otg.c ****   */
  74:Core/Src/usb_otg.c ****     PeriphClkInitStruct.PeriphClockSelection = RCC_PERIPHCLK_CLK48;
  75:Core/Src/usb_otg.c ****     PeriphClkInitStruct.Clk48ClockSelection = RCC_CLK48SOURCE_PLL;
  76:Core/Src/usb_otg.c ****     if (HAL_RCCEx_PeriphCLKConfig(&PeriphClkInitStruct) != HAL_OK)
  77:Core/Src/usb_otg.c ****     {
  78:Core/Src/usb_otg.c ****       Error_Handler();
  79:Core/Src/usb_otg.c ****     }
  80:Core/Src/usb_otg.c **** 
  81:Core/Src/usb_otg.c ****     __HAL_RCC_GPIOB_CLK_ENABLE();
  82:Core/Src/usb_otg.c ****     /**USB_OTG_HS GPIO Configuration
  83:Core/Src/usb_otg.c ****     PB14     ------> USB_OTG_HS_DM
  84:Core/Src/usb_otg.c ****     PB15     ------> USB_OTG_HS_DP
  85:Core/Src/usb_otg.c ****     */
  86:Core/Src/usb_otg.c ****     GPIO_InitStruct.Pin = GPIO_PIN_14|GPIO_PIN_15;
  87:Core/Src/usb_otg.c ****     GPIO_InitStruct.Mode = GPIO_MODE_AF_PP;
ARM GAS  /tmp/cccq9npH.s 			page 5


  88:Core/Src/usb_otg.c ****     GPIO_InitStruct.Pull = GPIO_NOPULL;
  89:Core/Src/usb_otg.c ****     GPIO_InitStruct.Speed = GPIO_SPEED_FREQ_VERY_HIGH;
  90:Core/Src/usb_otg.c ****     GPIO_InitStruct.Alternate = GPIO_AF12_OTG_HS_FS;
  91:Core/Src/usb_otg.c ****     HAL_GPIO_Init(GPIOB, &GPIO_InitStruct);
  92:Core/Src/usb_otg.c **** 
  93:Core/Src/usb_otg.c ****     /* USB_OTG_HS clock enable */
  94:Core/Src/usb_otg.c ****     __HAL_RCC_OTGPHYC_CLK_ENABLE();
  95:Core/Src/usb_otg.c ****     __HAL_RCC_USB_OTG_HS_CLK_ENABLE();
  96:Core/Src/usb_otg.c ****     __HAL_RCC_USB_OTG_HS_ULPI_CLK_ENABLE();
  97:Core/Src/usb_otg.c **** 
  98:Core/Src/usb_otg.c ****     /* USB_OTG_HS interrupt Init */
  99:Core/Src/usb_otg.c ****     HAL_NVIC_SetPriority(OTG_HS_IRQn, 0, 0);
 100:Core/Src/usb_otg.c ****     HAL_NVIC_EnableIRQ(OTG_HS_IRQn);
 101:Core/Src/usb_otg.c ****   /* USER CODE BEGIN USB_OTG_HS_MspInit 1 */
 102:Core/Src/usb_otg.c **** 
 103:Core/Src/usb_otg.c ****   /* USER CODE END USB_OTG_HS_MspInit 1 */
 104:Core/Src/usb_otg.c ****   }
 105:Core/Src/usb_otg.c **** }
 144              		.loc 1 105 1 view .LVU37
 145 0022 2BB0     		add	sp, sp, #172
 146              		.cfi_remember_state
 147              		.cfi_def_cfa_offset 12
 148              		@ sp needed
 149 0024 30BD     		pop	{r4, r5, pc}
 150              	.LVL6:
 151              	.L11:
 152              		.cfi_restore_state
  74:Core/Src/usb_otg.c ****     PeriphClkInitStruct.Clk48ClockSelection = RCC_CLK48SOURCE_PLL;
 153              		.loc 1 74 5 is_stmt 1 view .LVU38
  74:Core/Src/usb_otg.c ****     PeriphClkInitStruct.Clk48ClockSelection = RCC_CLK48SOURCE_PLL;
 154              		.loc 1 74 46 is_stmt 0 view .LVU39
 155 0026 4FF40013 		mov	r3, #2097152
 156 002a 0593     		str	r3, [sp, #20]
  75:Core/Src/usb_otg.c ****     if (HAL_RCCEx_PeriphCLKConfig(&PeriphClkInitStruct) != HAL_OK)
 157              		.loc 1 75 5 is_stmt 1 view .LVU40
  76:Core/Src/usb_otg.c ****     {
 158              		.loc 1 76 5 view .LVU41
  76:Core/Src/usb_otg.c ****     {
 159              		.loc 1 76 9 is_stmt 0 view .LVU42
 160 002c 05A8     		add	r0, sp, #20
 161 002e FFF7FEFF 		bl	HAL_RCCEx_PeriphCLKConfig
 162              	.LVL7:
  76:Core/Src/usb_otg.c ****     {
 163              		.loc 1 76 8 view .LVU43
 164 0032 0028     		cmp	r0, #0
 165 0034 3CD1     		bne	.L12
 166              	.L9:
  81:Core/Src/usb_otg.c ****     /**USB_OTG_HS GPIO Configuration
 167              		.loc 1 81 5 is_stmt 1 view .LVU44
 168              	.LBB2:
  81:Core/Src/usb_otg.c ****     /**USB_OTG_HS GPIO Configuration
 169              		.loc 1 81 5 view .LVU45
  81:Core/Src/usb_otg.c ****     /**USB_OTG_HS GPIO Configuration
 170              		.loc 1 81 5 view .LVU46
 171 0036 214C     		ldr	r4, .L13+4
 172              	.LVL8:
  81:Core/Src/usb_otg.c ****     /**USB_OTG_HS GPIO Configuration
ARM GAS  /tmp/cccq9npH.s 			page 6


 173              		.loc 1 81 5 is_stmt 0 view .LVU47
 174 0038 236B     		ldr	r3, [r4, #48]
 175 003a 43F00203 		orr	r3, r3, #2
 176 003e 2363     		str	r3, [r4, #48]
  81:Core/Src/usb_otg.c ****     /**USB_OTG_HS GPIO Configuration
 177              		.loc 1 81 5 is_stmt 1 view .LVU48
 178 0040 236B     		ldr	r3, [r4, #48]
 179 0042 03F00203 		and	r3, r3, #2
 180 0046 0193     		str	r3, [sp, #4]
  81:Core/Src/usb_otg.c ****     /**USB_OTG_HS GPIO Configuration
 181              		.loc 1 81 5 view .LVU49
 182 0048 019B     		ldr	r3, [sp, #4]
 183              	.LBE2:
  81:Core/Src/usb_otg.c ****     /**USB_OTG_HS GPIO Configuration
 184              		.loc 1 81 5 view .LVU50
  86:Core/Src/usb_otg.c ****     GPIO_InitStruct.Mode = GPIO_MODE_AF_PP;
 185              		.loc 1 86 5 view .LVU51
  86:Core/Src/usb_otg.c ****     GPIO_InitStruct.Mode = GPIO_MODE_AF_PP;
 186              		.loc 1 86 25 is_stmt 0 view .LVU52
 187 004a 4FF44043 		mov	r3, #49152
 188 004e 2593     		str	r3, [sp, #148]
  87:Core/Src/usb_otg.c ****     GPIO_InitStruct.Pull = GPIO_NOPULL;
 189              		.loc 1 87 5 is_stmt 1 view .LVU53
  87:Core/Src/usb_otg.c ****     GPIO_InitStruct.Pull = GPIO_NOPULL;
 190              		.loc 1 87 26 is_stmt 0 view .LVU54
 191 0050 0223     		movs	r3, #2
 192 0052 2693     		str	r3, [sp, #152]
  88:Core/Src/usb_otg.c ****     GPIO_InitStruct.Speed = GPIO_SPEED_FREQ_VERY_HIGH;
 193              		.loc 1 88 5 is_stmt 1 view .LVU55
  88:Core/Src/usb_otg.c ****     GPIO_InitStruct.Speed = GPIO_SPEED_FREQ_VERY_HIGH;
 194              		.loc 1 88 26 is_stmt 0 view .LVU56
 195 0054 0025     		movs	r5, #0
 196 0056 2795     		str	r5, [sp, #156]
  89:Core/Src/usb_otg.c ****     GPIO_InitStruct.Alternate = GPIO_AF12_OTG_HS_FS;
 197              		.loc 1 89 5 is_stmt 1 view .LVU57
  89:Core/Src/usb_otg.c ****     GPIO_InitStruct.Alternate = GPIO_AF12_OTG_HS_FS;
 198              		.loc 1 89 27 is_stmt 0 view .LVU58
 199 0058 0323     		movs	r3, #3
 200 005a 2893     		str	r3, [sp, #160]
  90:Core/Src/usb_otg.c ****     HAL_GPIO_Init(GPIOB, &GPIO_InitStruct);
 201              		.loc 1 90 5 is_stmt 1 view .LVU59
  90:Core/Src/usb_otg.c ****     HAL_GPIO_Init(GPIOB, &GPIO_InitStruct);
 202              		.loc 1 90 31 is_stmt 0 view .LVU60
 203 005c 0C23     		movs	r3, #12
 204 005e 2993     		str	r3, [sp, #164]
  91:Core/Src/usb_otg.c **** 
 205              		.loc 1 91 5 is_stmt 1 view .LVU61
 206 0060 25A9     		add	r1, sp, #148
 207 0062 1748     		ldr	r0, .L13+8
 208 0064 FFF7FEFF 		bl	HAL_GPIO_Init
 209              	.LVL9:
  94:Core/Src/usb_otg.c ****     __HAL_RCC_USB_OTG_HS_CLK_ENABLE();
 210              		.loc 1 94 5 view .LVU62
 211              	.LBB3:
  94:Core/Src/usb_otg.c ****     __HAL_RCC_USB_OTG_HS_CLK_ENABLE();
 212              		.loc 1 94 5 view .LVU63
  94:Core/Src/usb_otg.c ****     __HAL_RCC_USB_OTG_HS_CLK_ENABLE();
ARM GAS  /tmp/cccq9npH.s 			page 7


 213              		.loc 1 94 5 view .LVU64
 214 0068 636C     		ldr	r3, [r4, #68]
 215 006a 43F00043 		orr	r3, r3, #-2147483648
 216 006e 6364     		str	r3, [r4, #68]
  94:Core/Src/usb_otg.c ****     __HAL_RCC_USB_OTG_HS_CLK_ENABLE();
 217              		.loc 1 94 5 view .LVU65
 218 0070 636C     		ldr	r3, [r4, #68]
 219 0072 03F00043 		and	r3, r3, #-2147483648
 220 0076 0293     		str	r3, [sp, #8]
  94:Core/Src/usb_otg.c ****     __HAL_RCC_USB_OTG_HS_CLK_ENABLE();
 221              		.loc 1 94 5 view .LVU66
 222 0078 029B     		ldr	r3, [sp, #8]
 223              	.LBE3:
  94:Core/Src/usb_otg.c ****     __HAL_RCC_USB_OTG_HS_CLK_ENABLE();
 224              		.loc 1 94 5 view .LVU67
  95:Core/Src/usb_otg.c ****     __HAL_RCC_USB_OTG_HS_ULPI_CLK_ENABLE();
 225              		.loc 1 95 5 view .LVU68
 226              	.LBB4:
  95:Core/Src/usb_otg.c ****     __HAL_RCC_USB_OTG_HS_ULPI_CLK_ENABLE();
 227              		.loc 1 95 5 view .LVU69
  95:Core/Src/usb_otg.c ****     __HAL_RCC_USB_OTG_HS_ULPI_CLK_ENABLE();
 228              		.loc 1 95 5 view .LVU70
 229 007a 236B     		ldr	r3, [r4, #48]
 230 007c 43F00053 		orr	r3, r3, #536870912
 231 0080 2363     		str	r3, [r4, #48]
  95:Core/Src/usb_otg.c ****     __HAL_RCC_USB_OTG_HS_ULPI_CLK_ENABLE();
 232              		.loc 1 95 5 view .LVU71
 233 0082 236B     		ldr	r3, [r4, #48]
 234 0084 03F00053 		and	r3, r3, #536870912
 235 0088 0393     		str	r3, [sp, #12]
  95:Core/Src/usb_otg.c ****     __HAL_RCC_USB_OTG_HS_ULPI_CLK_ENABLE();
 236              		.loc 1 95 5 view .LVU72
 237 008a 039B     		ldr	r3, [sp, #12]
 238              	.LBE4:
  95:Core/Src/usb_otg.c ****     __HAL_RCC_USB_OTG_HS_ULPI_CLK_ENABLE();
 239              		.loc 1 95 5 view .LVU73
  96:Core/Src/usb_otg.c **** 
 240              		.loc 1 96 5 view .LVU74
 241              	.LBB5:
  96:Core/Src/usb_otg.c **** 
 242              		.loc 1 96 5 view .LVU75
  96:Core/Src/usb_otg.c **** 
 243              		.loc 1 96 5 view .LVU76
 244 008c 236B     		ldr	r3, [r4, #48]
 245 008e 43F08043 		orr	r3, r3, #1073741824
 246 0092 2363     		str	r3, [r4, #48]
  96:Core/Src/usb_otg.c **** 
 247              		.loc 1 96 5 view .LVU77
 248 0094 236B     		ldr	r3, [r4, #48]
 249 0096 03F08043 		and	r3, r3, #1073741824
 250 009a 0493     		str	r3, [sp, #16]
  96:Core/Src/usb_otg.c **** 
 251              		.loc 1 96 5 view .LVU78
 252 009c 049B     		ldr	r3, [sp, #16]
 253              	.LBE5:
  96:Core/Src/usb_otg.c **** 
 254              		.loc 1 96 5 view .LVU79
ARM GAS  /tmp/cccq9npH.s 			page 8


  99:Core/Src/usb_otg.c ****     HAL_NVIC_EnableIRQ(OTG_HS_IRQn);
 255              		.loc 1 99 5 view .LVU80
 256 009e 2A46     		mov	r2, r5
 257 00a0 2946     		mov	r1, r5
 258 00a2 4D20     		movs	r0, #77
 259 00a4 FFF7FEFF 		bl	HAL_NVIC_SetPriority
 260              	.LVL10:
 100:Core/Src/usb_otg.c ****   /* USER CODE BEGIN USB_OTG_HS_MspInit 1 */
 261              		.loc 1 100 5 view .LVU81
 262 00a8 4D20     		movs	r0, #77
 263 00aa FFF7FEFF 		bl	HAL_NVIC_EnableIRQ
 264              	.LVL11:
 265              		.loc 1 105 1 is_stmt 0 view .LVU82
 266 00ae B8E7     		b	.L7
 267              	.LVL12:
 268              	.L12:
  78:Core/Src/usb_otg.c ****     }
 269              		.loc 1 78 7 is_stmt 1 view .LVU83
 270 00b0 FFF7FEFF 		bl	Error_Handler
 271              	.LVL13:
 272 00b4 BFE7     		b	.L9
 273              	.L14:
 274 00b6 00BF     		.align	2
 275              	.L13:
 276 00b8 00000440 		.word	1074003968
 277 00bc 00380240 		.word	1073887232
 278 00c0 00040240 		.word	1073873920
 279              		.cfi_endproc
 280              	.LFE142:
 282              		.section	.text.HAL_PCD_MspDeInit,"ax",%progbits
 283              		.align	1
 284              		.global	HAL_PCD_MspDeInit
 285              		.syntax unified
 286              		.thumb
 287              		.thumb_func
 289              	HAL_PCD_MspDeInit:
 290              	.LVL14:
 291              	.LFB143:
 106:Core/Src/usb_otg.c **** 
 107:Core/Src/usb_otg.c **** void HAL_PCD_MspDeInit(PCD_HandleTypeDef* pcdHandle)
 108:Core/Src/usb_otg.c **** {
 292              		.loc 1 108 1 view -0
 293              		.cfi_startproc
 294              		@ args = 0, pretend = 0, frame = 0
 295              		@ frame_needed = 0, uses_anonymous_args = 0
 296              		.loc 1 108 1 is_stmt 0 view .LVU85
 297 0000 08B5     		push	{r3, lr}
 298              		.cfi_def_cfa_offset 8
 299              		.cfi_offset 3, -8
 300              		.cfi_offset 14, -4
 109:Core/Src/usb_otg.c **** 
 110:Core/Src/usb_otg.c ****   if(pcdHandle->Instance==USB_OTG_HS)
 301              		.loc 1 110 3 is_stmt 1 view .LVU86
 302              		.loc 1 110 15 is_stmt 0 view .LVU87
 303 0002 0268     		ldr	r2, [r0]
 304              		.loc 1 110 5 view .LVU88
 305 0004 0D4B     		ldr	r3, .L19
ARM GAS  /tmp/cccq9npH.s 			page 9


 306 0006 9A42     		cmp	r2, r3
 307 0008 00D0     		beq	.L18
 308              	.LVL15:
 309              	.L15:
 111:Core/Src/usb_otg.c ****   {
 112:Core/Src/usb_otg.c ****   /* USER CODE BEGIN USB_OTG_HS_MspDeInit 0 */
 113:Core/Src/usb_otg.c **** 
 114:Core/Src/usb_otg.c ****   /* USER CODE END USB_OTG_HS_MspDeInit 0 */
 115:Core/Src/usb_otg.c ****     /* Peripheral clock disable */
 116:Core/Src/usb_otg.c ****     __HAL_RCC_OTGPHYC_CLK_DISABLE();
 117:Core/Src/usb_otg.c ****     __HAL_RCC_USB_OTG_HS_CLK_DISABLE();
 118:Core/Src/usb_otg.c ****     __HAL_RCC_USB_OTG_HS_ULPI_CLK_DISABLE();
 119:Core/Src/usb_otg.c **** 
 120:Core/Src/usb_otg.c ****     /**USB_OTG_HS GPIO Configuration
 121:Core/Src/usb_otg.c ****     PB14     ------> USB_OTG_HS_DM
 122:Core/Src/usb_otg.c ****     PB15     ------> USB_OTG_HS_DP
 123:Core/Src/usb_otg.c ****     */
 124:Core/Src/usb_otg.c ****     HAL_GPIO_DeInit(GPIOB, GPIO_PIN_14|GPIO_PIN_15);
 125:Core/Src/usb_otg.c **** 
 126:Core/Src/usb_otg.c ****     /* USB_OTG_HS interrupt Deinit */
 127:Core/Src/usb_otg.c ****     HAL_NVIC_DisableIRQ(OTG_HS_IRQn);
 128:Core/Src/usb_otg.c ****   /* USER CODE BEGIN USB_OTG_HS_MspDeInit 1 */
 129:Core/Src/usb_otg.c **** 
 130:Core/Src/usb_otg.c ****   /* USER CODE END USB_OTG_HS_MspDeInit 1 */
 131:Core/Src/usb_otg.c ****   }
 132:Core/Src/usb_otg.c **** }
 310              		.loc 1 132 1 view .LVU89
 311 000a 08BD     		pop	{r3, pc}
 312              	.LVL16:
 313              	.L18:
 116:Core/Src/usb_otg.c ****     __HAL_RCC_USB_OTG_HS_CLK_DISABLE();
 314              		.loc 1 116 5 is_stmt 1 view .LVU90
 315 000c A3F5E433 		sub	r3, r3, #116736
 316 0010 5A6C     		ldr	r2, [r3, #68]
 317 0012 22F00042 		bic	r2, r2, #-2147483648
 318 0016 5A64     		str	r2, [r3, #68]
 117:Core/Src/usb_otg.c ****     __HAL_RCC_USB_OTG_HS_ULPI_CLK_DISABLE();
 319              		.loc 1 117 5 view .LVU91
 320 0018 1A6B     		ldr	r2, [r3, #48]
 321 001a 22F00052 		bic	r2, r2, #536870912
 322 001e 1A63     		str	r2, [r3, #48]
 118:Core/Src/usb_otg.c **** 
 323              		.loc 1 118 5 view .LVU92
 324 0020 1A6B     		ldr	r2, [r3, #48]
 325 0022 22F08042 		bic	r2, r2, #1073741824
 326 0026 1A63     		str	r2, [r3, #48]
 124:Core/Src/usb_otg.c **** 
 327              		.loc 1 124 5 view .LVU93
 328 0028 4FF44041 		mov	r1, #49152
 329 002c 0448     		ldr	r0, .L19+4
 330              	.LVL17:
 124:Core/Src/usb_otg.c **** 
 331              		.loc 1 124 5 is_stmt 0 view .LVU94
 332 002e FFF7FEFF 		bl	HAL_GPIO_DeInit
 333              	.LVL18:
 127:Core/Src/usb_otg.c ****   /* USER CODE BEGIN USB_OTG_HS_MspDeInit 1 */
 334              		.loc 1 127 5 is_stmt 1 view .LVU95
ARM GAS  /tmp/cccq9npH.s 			page 10


 335 0032 4D20     		movs	r0, #77
 336 0034 FFF7FEFF 		bl	HAL_NVIC_DisableIRQ
 337              	.LVL19:
 338              		.loc 1 132 1 is_stmt 0 view .LVU96
 339 0038 E7E7     		b	.L15
 340              	.L20:
 341 003a 00BF     		.align	2
 342              	.L19:
 343 003c 00000440 		.word	1074003968
 344 0040 00040240 		.word	1073873920
 345              		.cfi_endproc
 346              	.LFE143:
 348              		.global	hpcd_USB_OTG_HS
 349              		.section	.bss.hpcd_USB_OTG_HS,"aw",%nobits
 350              		.align	2
 353              	hpcd_USB_OTG_HS:
 354 0000 00000000 		.space	1288
 354      00000000 
 354      00000000 
 354      00000000 
 354      00000000 
 355              		.text
 356              	.Letext0:
 357              		.file 2 "Drivers/CMSIS/Device/ST/STM32F7xx/Include/stm32f723xx.h"
 358              		.file 3 "/home/qrsnap/.config/Code/User/globalStorage/bmd.stm32-for-vscode/@xpack-dev-tools/arm-no
 359              		.file 4 "/home/qrsnap/.config/Code/User/globalStorage/bmd.stm32-for-vscode/@xpack-dev-tools/arm-no
 360              		.file 5 "Drivers/CMSIS/Device/ST/STM32F7xx/Include/stm32f7xx.h"
 361              		.file 6 "Drivers/STM32F7xx_HAL_Driver/Inc/stm32f7xx_hal_def.h"
 362              		.file 7 "Drivers/STM32F7xx_HAL_Driver/Inc/stm32f7xx_hal_rcc_ex.h"
 363              		.file 8 "Drivers/STM32F7xx_HAL_Driver/Inc/stm32f7xx_hal_gpio.h"
 364              		.file 9 "Drivers/STM32F7xx_HAL_Driver/Inc/stm32f7xx_ll_usb.h"
 365              		.file 10 "Drivers/STM32F7xx_HAL_Driver/Inc/stm32f7xx_hal_pcd.h"
 366              		.file 11 "Drivers/STM32F7xx_HAL_Driver/Inc/stm32f7xx_hal_cortex.h"
 367              		.file 12 "Core/Inc/usb_otg.h"
 368              		.file 13 "Core/Inc/main.h"
 369              		.file 14 "<built-in>"
ARM GAS  /tmp/cccq9npH.s 			page 11


DEFINED SYMBOLS
                            *ABS*:00000000 usb_otg.c
     /tmp/cccq9npH.s:21     .text.MX_USB_OTG_HS_PCD_Init:00000000 $t
     /tmp/cccq9npH.s:27     .text.MX_USB_OTG_HS_PCD_Init:00000000 MX_USB_OTG_HS_PCD_Init
     /tmp/cccq9npH.s:91     .text.MX_USB_OTG_HS_PCD_Init:00000030 $d
     /tmp/cccq9npH.s:353    .bss.hpcd_USB_OTG_HS:00000000 hpcd_USB_OTG_HS
     /tmp/cccq9npH.s:97     .text.HAL_PCD_MspInit:00000000 $t
     /tmp/cccq9npH.s:103    .text.HAL_PCD_MspInit:00000000 HAL_PCD_MspInit
     /tmp/cccq9npH.s:276    .text.HAL_PCD_MspInit:000000b8 $d
     /tmp/cccq9npH.s:283    .text.HAL_PCD_MspDeInit:00000000 $t
     /tmp/cccq9npH.s:289    .text.HAL_PCD_MspDeInit:00000000 HAL_PCD_MspDeInit
     /tmp/cccq9npH.s:343    .text.HAL_PCD_MspDeInit:0000003c $d
     /tmp/cccq9npH.s:350    .bss.hpcd_USB_OTG_HS:00000000 $d

UNDEFINED SYMBOLS
HAL_PCD_Init
Error_Handler
memset
HAL_RCCEx_PeriphCLKConfig
HAL_GPIO_Init
HAL_NVIC_SetPriority
HAL_NVIC_EnableIRQ
HAL_GPIO_DeInit
HAL_NVIC_DisableIRQ
