ARM GAS  /tmp/ccnDxXI6.s 			page 1


   1              		.cpu cortex-m7
   2              		.arch armv7e-m
   3              		.fpu fpv5-sp-d16
   4              		.eabi_attribute 27, 1
   5              		.eabi_attribute 28, 1
   6              		.eabi_attribute 20, 1
   7              		.eabi_attribute 21, 1
   8              		.eabi_attribute 23, 3
   9              		.eabi_attribute 24, 1
  10              		.eabi_attribute 25, 1
  11              		.eabi_attribute 26, 1
  12              		.eabi_attribute 30, 1
  13              		.eabi_attribute 34, 1
  14              		.eabi_attribute 18, 4
  15              		.file	"usb_otg.c"
  16              		.text
  17              	.Ltext0:
  18              		.cfi_sections	.debug_frame
  19              		.file 1 "Core/Src/usb_otg.c"
  20              		.section	.text.MX_USB_OTG_HS_PCD_Init,"ax",%progbits
  21              		.align	1
  22              		.global	MX_USB_OTG_HS_PCD_Init
  23              		.syntax unified
  24              		.thumb
  25              		.thumb_func
  27              	MX_USB_OTG_HS_PCD_Init:
  28              	.LFB141:
   1:Core/Src/usb_otg.c **** /* USER CODE BEGIN Header */
   2:Core/Src/usb_otg.c **** /**
   3:Core/Src/usb_otg.c ****   ******************************************************************************
   4:Core/Src/usb_otg.c ****   * @file    usb_otg.c
   5:Core/Src/usb_otg.c ****   * @brief   This file provides code for the configuration
   6:Core/Src/usb_otg.c ****   *          of the USB_OTG instances.
   7:Core/Src/usb_otg.c ****   ******************************************************************************
   8:Core/Src/usb_otg.c ****   * @attention
   9:Core/Src/usb_otg.c ****   *
  10:Core/Src/usb_otg.c ****   * Copyright (c) 2023 STMicroelectronics.
  11:Core/Src/usb_otg.c ****   * All rights reserved.
  12:Core/Src/usb_otg.c ****   *
  13:Core/Src/usb_otg.c ****   * This software is licensed under terms that can be found in the LICENSE file
  14:Core/Src/usb_otg.c ****   * in the root directory of this software component.
  15:Core/Src/usb_otg.c ****   * If no LICENSE file comes with this software, it is provided AS-IS.
  16:Core/Src/usb_otg.c ****   *
  17:Core/Src/usb_otg.c ****   ******************************************************************************
  18:Core/Src/usb_otg.c ****   */
  19:Core/Src/usb_otg.c **** /* USER CODE END Header */
  20:Core/Src/usb_otg.c **** /* Includes ------------------------------------------------------------------*/
  21:Core/Src/usb_otg.c **** #include "usb_otg.h"
  22:Core/Src/usb_otg.c **** 
  23:Core/Src/usb_otg.c **** /* USER CODE BEGIN 0 */
  24:Core/Src/usb_otg.c **** 
  25:Core/Src/usb_otg.c **** /* USER CODE END 0 */
  26:Core/Src/usb_otg.c **** 
  27:Core/Src/usb_otg.c **** PCD_HandleTypeDef hpcd_USB_OTG_HS;
  28:Core/Src/usb_otg.c **** 
  29:Core/Src/usb_otg.c **** /* USB_OTG_HS init function */
  30:Core/Src/usb_otg.c **** 
ARM GAS  /tmp/ccnDxXI6.s 			page 2


  31:Core/Src/usb_otg.c **** void MX_USB_OTG_HS_PCD_Init(void)
  32:Core/Src/usb_otg.c **** {
  29              		.loc 1 32 1 view -0
  30              		.cfi_startproc
  31              		@ args = 0, pretend = 0, frame = 0
  32              		@ frame_needed = 0, uses_anonymous_args = 0
  33 0000 08B5     		push	{r3, lr}
  34              		.cfi_def_cfa_offset 8
  35              		.cfi_offset 3, -8
  36              		.cfi_offset 14, -4
  33:Core/Src/usb_otg.c **** 
  34:Core/Src/usb_otg.c ****   /* USER CODE BEGIN USB_OTG_HS_Init 0 */
  35:Core/Src/usb_otg.c **** 
  36:Core/Src/usb_otg.c ****   /* USER CODE END USB_OTG_HS_Init 0 */
  37:Core/Src/usb_otg.c **** 
  38:Core/Src/usb_otg.c ****   /* USER CODE BEGIN USB_OTG_HS_Init 1 */
  39:Core/Src/usb_otg.c **** 
  40:Core/Src/usb_otg.c ****   /* USER CODE END USB_OTG_HS_Init 1 */
  41:Core/Src/usb_otg.c ****   hpcd_USB_OTG_HS.Instance = USB_OTG_HS;
  37              		.loc 1 41 3 view .LVU1
  38              		.loc 1 41 28 is_stmt 0 view .LVU2
  39 0002 0B48     		ldr	r0, .L5
  40 0004 0B4B     		ldr	r3, .L5+4
  41 0006 0360     		str	r3, [r0]
  42:Core/Src/usb_otg.c ****   hpcd_USB_OTG_HS.Init.dev_endpoints = 9;
  42              		.loc 1 42 3 is_stmt 1 view .LVU3
  43              		.loc 1 42 38 is_stmt 0 view .LVU4
  44 0008 0923     		movs	r3, #9
  45 000a 4360     		str	r3, [r0, #4]
  43:Core/Src/usb_otg.c ****   hpcd_USB_OTG_HS.Init.dma_enable = ENABLE;
  46              		.loc 1 43 3 is_stmt 1 view .LVU5
  47              		.loc 1 43 35 is_stmt 0 view .LVU6
  48 000c 0123     		movs	r3, #1
  49 000e 0361     		str	r3, [r0, #16]
  44:Core/Src/usb_otg.c ****   hpcd_USB_OTG_HS.Init.phy_itface = USB_OTG_HS_EMBEDDED_PHY;
  50              		.loc 1 44 3 is_stmt 1 view .LVU7
  51              		.loc 1 44 35 is_stmt 0 view .LVU8
  52 0010 0323     		movs	r3, #3
  53 0012 8361     		str	r3, [r0, #24]
  45:Core/Src/usb_otg.c ****   hpcd_USB_OTG_HS.Init.Sof_enable = DISABLE;
  54              		.loc 1 45 3 is_stmt 1 view .LVU9
  55              		.loc 1 45 35 is_stmt 0 view .LVU10
  56 0014 0023     		movs	r3, #0
  57 0016 C361     		str	r3, [r0, #28]
  46:Core/Src/usb_otg.c ****   hpcd_USB_OTG_HS.Init.low_power_enable = DISABLE;
  58              		.loc 1 46 3 is_stmt 1 view .LVU11
  59              		.loc 1 46 41 is_stmt 0 view .LVU12
  60 0018 0362     		str	r3, [r0, #32]
  47:Core/Src/usb_otg.c ****   hpcd_USB_OTG_HS.Init.lpm_enable = DISABLE;
  61              		.loc 1 47 3 is_stmt 1 view .LVU13
  62              		.loc 1 47 35 is_stmt 0 view .LVU14
  63 001a 4362     		str	r3, [r0, #36]
  48:Core/Src/usb_otg.c ****   hpcd_USB_OTG_HS.Init.vbus_sensing_enable = DISABLE;
  64              		.loc 1 48 3 is_stmt 1 view .LVU15
  65              		.loc 1 48 44 is_stmt 0 view .LVU16
  66 001c C362     		str	r3, [r0, #44]
  49:Core/Src/usb_otg.c ****   hpcd_USB_OTG_HS.Init.use_dedicated_ep1 = DISABLE;
ARM GAS  /tmp/ccnDxXI6.s 			page 3


  67              		.loc 1 49 3 is_stmt 1 view .LVU17
  68              		.loc 1 49 42 is_stmt 0 view .LVU18
  69 001e 0363     		str	r3, [r0, #48]
  50:Core/Src/usb_otg.c ****   hpcd_USB_OTG_HS.Init.use_external_vbus = DISABLE;
  70              		.loc 1 50 3 is_stmt 1 view .LVU19
  71              		.loc 1 50 42 is_stmt 0 view .LVU20
  72 0020 4363     		str	r3, [r0, #52]
  51:Core/Src/usb_otg.c ****   if (HAL_PCD_Init(&hpcd_USB_OTG_HS) != HAL_OK)
  73              		.loc 1 51 3 is_stmt 1 view .LVU21
  74              		.loc 1 51 7 is_stmt 0 view .LVU22
  75 0022 FFF7FEFF 		bl	HAL_PCD_Init
  76              	.LVL0:
  77              		.loc 1 51 6 view .LVU23
  78 0026 00B9     		cbnz	r0, .L4
  79              	.L1:
  52:Core/Src/usb_otg.c ****   {
  53:Core/Src/usb_otg.c ****     Error_Handler();
  54:Core/Src/usb_otg.c ****   }
  55:Core/Src/usb_otg.c ****   /* USER CODE BEGIN USB_OTG_HS_Init 2 */
  56:Core/Src/usb_otg.c **** 
  57:Core/Src/usb_otg.c ****   /* USER CODE END USB_OTG_HS_Init 2 */
  58:Core/Src/usb_otg.c **** 
  59:Core/Src/usb_otg.c **** }
  80              		.loc 1 59 1 view .LVU24
  81 0028 08BD     		pop	{r3, pc}
  82              	.L4:
  53:Core/Src/usb_otg.c ****   }
  83              		.loc 1 53 5 is_stmt 1 view .LVU25
  84 002a FFF7FEFF 		bl	Error_Handler
  85              	.LVL1:
  86              		.loc 1 59 1 is_stmt 0 view .LVU26
  87 002e FBE7     		b	.L1
  88              	.L6:
  89              		.align	2
  90              	.L5:
  91 0030 00000000 		.word	hpcd_USB_OTG_HS
  92 0034 00000440 		.word	1074003968
  93              		.cfi_endproc
  94              	.LFE141:
  96              		.section	.text.HAL_PCD_MspInit,"ax",%progbits
  97              		.align	1
  98              		.global	HAL_PCD_MspInit
  99              		.syntax unified
 100              		.thumb
 101              		.thumb_func
 103              	HAL_PCD_MspInit:
 104              	.LVL2:
 105              	.LFB142:
  60:Core/Src/usb_otg.c **** 
  61:Core/Src/usb_otg.c **** void HAL_PCD_MspInit(PCD_HandleTypeDef* pcdHandle)
  62:Core/Src/usb_otg.c **** {
 106              		.loc 1 62 1 is_stmt 1 view -0
 107              		.cfi_startproc
 108              		@ args = 0, pretend = 0, frame = 168
 109              		@ frame_needed = 0, uses_anonymous_args = 0
 110              		.loc 1 62 1 is_stmt 0 view .LVU28
 111 0000 2DE9F041 		push	{r4, r5, r6, r7, r8, lr}
ARM GAS  /tmp/ccnDxXI6.s 			page 4


 112              		.cfi_def_cfa_offset 24
 113              		.cfi_offset 4, -24
 114              		.cfi_offset 5, -20
 115              		.cfi_offset 6, -16
 116              		.cfi_offset 7, -12
 117              		.cfi_offset 8, -8
 118              		.cfi_offset 14, -4
 119 0004 AAB0     		sub	sp, sp, #168
 120              		.cfi_def_cfa_offset 192
 121 0006 0446     		mov	r4, r0
  63:Core/Src/usb_otg.c **** 
  64:Core/Src/usb_otg.c ****   GPIO_InitTypeDef GPIO_InitStruct = {0};
 122              		.loc 1 64 3 is_stmt 1 view .LVU29
 123              		.loc 1 64 20 is_stmt 0 view .LVU30
 124 0008 0021     		movs	r1, #0
 125 000a 2591     		str	r1, [sp, #148]
 126 000c 2691     		str	r1, [sp, #152]
 127 000e 2791     		str	r1, [sp, #156]
 128 0010 2891     		str	r1, [sp, #160]
 129 0012 2991     		str	r1, [sp, #164]
  65:Core/Src/usb_otg.c ****   RCC_PeriphCLKInitTypeDef PeriphClkInitStruct = {0};
 130              		.loc 1 65 3 is_stmt 1 view .LVU31
 131              		.loc 1 65 28 is_stmt 0 view .LVU32
 132 0014 8022     		movs	r2, #128
 133 0016 05A8     		add	r0, sp, #20
 134              	.LVL3:
 135              		.loc 1 65 28 view .LVU33
 136 0018 FFF7FEFF 		bl	memset
 137              	.LVL4:
  66:Core/Src/usb_otg.c ****   if(pcdHandle->Instance==USB_OTG_HS)
 138              		.loc 1 66 3 is_stmt 1 view .LVU34
 139              		.loc 1 66 15 is_stmt 0 view .LVU35
 140 001c 2268     		ldr	r2, [r4]
 141              		.loc 1 66 5 view .LVU36
 142 001e 324B     		ldr	r3, .L13
 143 0020 9A42     		cmp	r2, r3
 144 0022 02D0     		beq	.L11
 145              	.LVL5:
 146              	.L7:
  67:Core/Src/usb_otg.c ****   {
  68:Core/Src/usb_otg.c ****   /* USER CODE BEGIN USB_OTG_HS_MspInit 0 */
  69:Core/Src/usb_otg.c **** 
  70:Core/Src/usb_otg.c ****   /* USER CODE END USB_OTG_HS_MspInit 0 */
  71:Core/Src/usb_otg.c **** 
  72:Core/Src/usb_otg.c ****   /** Initializes the peripherals clock
  73:Core/Src/usb_otg.c ****   */
  74:Core/Src/usb_otg.c ****     PeriphClkInitStruct.PeriphClockSelection = RCC_PERIPHCLK_CLK48;
  75:Core/Src/usb_otg.c ****     PeriphClkInitStruct.Clk48ClockSelection = RCC_CLK48SOURCE_PLL;
  76:Core/Src/usb_otg.c ****     if (HAL_RCCEx_PeriphCLKConfig(&PeriphClkInitStruct) != HAL_OK)
  77:Core/Src/usb_otg.c ****     {
  78:Core/Src/usb_otg.c ****       Error_Handler();
  79:Core/Src/usb_otg.c ****     }
  80:Core/Src/usb_otg.c **** 
  81:Core/Src/usb_otg.c ****     __HAL_RCC_GPIOA_CLK_ENABLE();
  82:Core/Src/usb_otg.c ****     __HAL_RCC_GPIOB_CLK_ENABLE();
  83:Core/Src/usb_otg.c ****     /**USB_OTG_HS GPIO Configuration
  84:Core/Src/usb_otg.c ****     PA4     ------> USB_OTG_HS_SOF
ARM GAS  /tmp/ccnDxXI6.s 			page 5


  85:Core/Src/usb_otg.c ****     PB14     ------> USB_OTG_HS_DM
  86:Core/Src/usb_otg.c ****     PB15     ------> USB_OTG_HS_DP
  87:Core/Src/usb_otg.c ****     */
  88:Core/Src/usb_otg.c ****     GPIO_InitStruct.Pin = GPIO_PIN_4;
  89:Core/Src/usb_otg.c ****     GPIO_InitStruct.Mode = GPIO_MODE_AF_PP;
  90:Core/Src/usb_otg.c ****     GPIO_InitStruct.Pull = GPIO_NOPULL;
  91:Core/Src/usb_otg.c ****     GPIO_InitStruct.Speed = GPIO_SPEED_FREQ_VERY_HIGH;
  92:Core/Src/usb_otg.c ****     GPIO_InitStruct.Alternate = GPIO_AF12_OTG_HS_FS;
  93:Core/Src/usb_otg.c ****     HAL_GPIO_Init(GPIOA, &GPIO_InitStruct);
  94:Core/Src/usb_otg.c **** 
  95:Core/Src/usb_otg.c ****     GPIO_InitStruct.Pin = GPIO_PIN_14|GPIO_PIN_15;
  96:Core/Src/usb_otg.c ****     GPIO_InitStruct.Mode = GPIO_MODE_AF_PP;
  97:Core/Src/usb_otg.c ****     GPIO_InitStruct.Pull = GPIO_NOPULL;
  98:Core/Src/usb_otg.c ****     GPIO_InitStruct.Speed = GPIO_SPEED_FREQ_VERY_HIGH;
  99:Core/Src/usb_otg.c ****     GPIO_InitStruct.Alternate = GPIO_AF12_OTG_HS_FS;
 100:Core/Src/usb_otg.c ****     HAL_GPIO_Init(GPIOB, &GPIO_InitStruct);
 101:Core/Src/usb_otg.c **** 
 102:Core/Src/usb_otg.c ****     /* USB_OTG_HS clock enable */
 103:Core/Src/usb_otg.c ****     __HAL_RCC_OTGPHYC_CLK_ENABLE();
 104:Core/Src/usb_otg.c ****     __HAL_RCC_USB_OTG_HS_CLK_ENABLE();
 105:Core/Src/usb_otg.c ****     __HAL_RCC_USB_OTG_HS_ULPI_CLK_ENABLE();
 106:Core/Src/usb_otg.c **** 
 107:Core/Src/usb_otg.c ****     /* USB_OTG_HS interrupt Init */
 108:Core/Src/usb_otg.c ****     HAL_NVIC_SetPriority(OTG_HS_IRQn, 1, 0);
 109:Core/Src/usb_otg.c ****     HAL_NVIC_EnableIRQ(OTG_HS_IRQn);
 110:Core/Src/usb_otg.c ****   /* USER CODE BEGIN USB_OTG_HS_MspInit 1 */
 111:Core/Src/usb_otg.c **** 
 112:Core/Src/usb_otg.c ****   /* USER CODE END USB_OTG_HS_MspInit 1 */
 113:Core/Src/usb_otg.c ****   }
 114:Core/Src/usb_otg.c **** }
 147              		.loc 1 114 1 view .LVU37
 148 0024 2AB0     		add	sp, sp, #168
 149              		.cfi_remember_state
 150              		.cfi_def_cfa_offset 24
 151              		@ sp needed
 152 0026 BDE8F081 		pop	{r4, r5, r6, r7, r8, pc}
 153              	.LVL6:
 154              	.L11:
 155              		.cfi_restore_state
  74:Core/Src/usb_otg.c ****     PeriphClkInitStruct.Clk48ClockSelection = RCC_CLK48SOURCE_PLL;
 156              		.loc 1 74 5 is_stmt 1 view .LVU38
  74:Core/Src/usb_otg.c ****     PeriphClkInitStruct.Clk48ClockSelection = RCC_CLK48SOURCE_PLL;
 157              		.loc 1 74 46 is_stmt 0 view .LVU39
 158 002a 4FF40013 		mov	r3, #2097152
 159 002e 0593     		str	r3, [sp, #20]
  75:Core/Src/usb_otg.c ****     if (HAL_RCCEx_PeriphCLKConfig(&PeriphClkInitStruct) != HAL_OK)
 160              		.loc 1 75 5 is_stmt 1 view .LVU40
  76:Core/Src/usb_otg.c ****     {
 161              		.loc 1 76 5 view .LVU41
  76:Core/Src/usb_otg.c ****     {
 162              		.loc 1 76 9 is_stmt 0 view .LVU42
 163 0030 05A8     		add	r0, sp, #20
 164 0032 FFF7FEFF 		bl	HAL_RCCEx_PeriphCLKConfig
 165              	.LVL7:
  76:Core/Src/usb_otg.c ****     {
 166              		.loc 1 76 8 view .LVU43
 167 0036 0028     		cmp	r0, #0
ARM GAS  /tmp/ccnDxXI6.s 			page 6


 168 0038 52D1     		bne	.L12
 169              	.L9:
  81:Core/Src/usb_otg.c ****     __HAL_RCC_GPIOB_CLK_ENABLE();
 170              		.loc 1 81 5 is_stmt 1 view .LVU44
 171              	.LBB2:
  81:Core/Src/usb_otg.c ****     __HAL_RCC_GPIOB_CLK_ENABLE();
 172              		.loc 1 81 5 view .LVU45
  81:Core/Src/usb_otg.c ****     __HAL_RCC_GPIOB_CLK_ENABLE();
 173              		.loc 1 81 5 view .LVU46
 174 003a 2C4C     		ldr	r4, .L13+4
 175              	.LVL8:
  81:Core/Src/usb_otg.c ****     __HAL_RCC_GPIOB_CLK_ENABLE();
 176              		.loc 1 81 5 is_stmt 0 view .LVU47
 177 003c 236B     		ldr	r3, [r4, #48]
 178 003e 43F00103 		orr	r3, r3, #1
 179 0042 2363     		str	r3, [r4, #48]
  81:Core/Src/usb_otg.c ****     __HAL_RCC_GPIOB_CLK_ENABLE();
 180              		.loc 1 81 5 is_stmt 1 view .LVU48
 181 0044 236B     		ldr	r3, [r4, #48]
 182 0046 03F00103 		and	r3, r3, #1
 183 004a 0093     		str	r3, [sp]
  81:Core/Src/usb_otg.c ****     __HAL_RCC_GPIOB_CLK_ENABLE();
 184              		.loc 1 81 5 view .LVU49
 185 004c 009B     		ldr	r3, [sp]
 186              	.LBE2:
  81:Core/Src/usb_otg.c ****     __HAL_RCC_GPIOB_CLK_ENABLE();
 187              		.loc 1 81 5 view .LVU50
  82:Core/Src/usb_otg.c ****     /**USB_OTG_HS GPIO Configuration
 188              		.loc 1 82 5 view .LVU51
 189              	.LBB3:
  82:Core/Src/usb_otg.c ****     /**USB_OTG_HS GPIO Configuration
 190              		.loc 1 82 5 view .LVU52
  82:Core/Src/usb_otg.c ****     /**USB_OTG_HS GPIO Configuration
 191              		.loc 1 82 5 view .LVU53
 192 004e 236B     		ldr	r3, [r4, #48]
 193 0050 43F00203 		orr	r3, r3, #2
 194 0054 2363     		str	r3, [r4, #48]
  82:Core/Src/usb_otg.c ****     /**USB_OTG_HS GPIO Configuration
 195              		.loc 1 82 5 view .LVU54
 196 0056 236B     		ldr	r3, [r4, #48]
 197 0058 03F00203 		and	r3, r3, #2
 198 005c 0193     		str	r3, [sp, #4]
  82:Core/Src/usb_otg.c ****     /**USB_OTG_HS GPIO Configuration
 199              		.loc 1 82 5 view .LVU55
 200 005e 019B     		ldr	r3, [sp, #4]
 201              	.LBE3:
  82:Core/Src/usb_otg.c ****     /**USB_OTG_HS GPIO Configuration
 202              		.loc 1 82 5 view .LVU56
  88:Core/Src/usb_otg.c ****     GPIO_InitStruct.Mode = GPIO_MODE_AF_PP;
 203              		.loc 1 88 5 view .LVU57
  88:Core/Src/usb_otg.c ****     GPIO_InitStruct.Mode = GPIO_MODE_AF_PP;
 204              		.loc 1 88 25 is_stmt 0 view .LVU58
 205 0060 1023     		movs	r3, #16
 206 0062 2593     		str	r3, [sp, #148]
  89:Core/Src/usb_otg.c ****     GPIO_InitStruct.Pull = GPIO_NOPULL;
 207              		.loc 1 89 5 is_stmt 1 view .LVU59
  89:Core/Src/usb_otg.c ****     GPIO_InitStruct.Pull = GPIO_NOPULL;
ARM GAS  /tmp/ccnDxXI6.s 			page 7


 208              		.loc 1 89 26 is_stmt 0 view .LVU60
 209 0064 4FF00208 		mov	r8, #2
 210 0068 CDF89880 		str	r8, [sp, #152]
  90:Core/Src/usb_otg.c ****     GPIO_InitStruct.Speed = GPIO_SPEED_FREQ_VERY_HIGH;
 211              		.loc 1 90 5 is_stmt 1 view .LVU61
  90:Core/Src/usb_otg.c ****     GPIO_InitStruct.Speed = GPIO_SPEED_FREQ_VERY_HIGH;
 212              		.loc 1 90 26 is_stmt 0 view .LVU62
 213 006c 0025     		movs	r5, #0
 214 006e 2795     		str	r5, [sp, #156]
  91:Core/Src/usb_otg.c ****     GPIO_InitStruct.Alternate = GPIO_AF12_OTG_HS_FS;
 215              		.loc 1 91 5 is_stmt 1 view .LVU63
  91:Core/Src/usb_otg.c ****     GPIO_InitStruct.Alternate = GPIO_AF12_OTG_HS_FS;
 216              		.loc 1 91 27 is_stmt 0 view .LVU64
 217 0070 0327     		movs	r7, #3
 218 0072 2897     		str	r7, [sp, #160]
  92:Core/Src/usb_otg.c ****     HAL_GPIO_Init(GPIOA, &GPIO_InitStruct);
 219              		.loc 1 92 5 is_stmt 1 view .LVU65
  92:Core/Src/usb_otg.c ****     HAL_GPIO_Init(GPIOA, &GPIO_InitStruct);
 220              		.loc 1 92 31 is_stmt 0 view .LVU66
 221 0074 0C26     		movs	r6, #12
 222 0076 2996     		str	r6, [sp, #164]
  93:Core/Src/usb_otg.c **** 
 223              		.loc 1 93 5 is_stmt 1 view .LVU67
 224 0078 25A9     		add	r1, sp, #148
 225 007a 1D48     		ldr	r0, .L13+8
 226 007c FFF7FEFF 		bl	HAL_GPIO_Init
 227              	.LVL9:
  95:Core/Src/usb_otg.c ****     GPIO_InitStruct.Mode = GPIO_MODE_AF_PP;
 228              		.loc 1 95 5 view .LVU68
  95:Core/Src/usb_otg.c ****     GPIO_InitStruct.Mode = GPIO_MODE_AF_PP;
 229              		.loc 1 95 25 is_stmt 0 view .LVU69
 230 0080 4FF44043 		mov	r3, #49152
 231 0084 2593     		str	r3, [sp, #148]
  96:Core/Src/usb_otg.c ****     GPIO_InitStruct.Pull = GPIO_NOPULL;
 232              		.loc 1 96 5 is_stmt 1 view .LVU70
  96:Core/Src/usb_otg.c ****     GPIO_InitStruct.Pull = GPIO_NOPULL;
 233              		.loc 1 96 26 is_stmt 0 view .LVU71
 234 0086 CDF89880 		str	r8, [sp, #152]
  97:Core/Src/usb_otg.c ****     GPIO_InitStruct.Speed = GPIO_SPEED_FREQ_VERY_HIGH;
 235              		.loc 1 97 5 is_stmt 1 view .LVU72
  97:Core/Src/usb_otg.c ****     GPIO_InitStruct.Speed = GPIO_SPEED_FREQ_VERY_HIGH;
 236              		.loc 1 97 26 is_stmt 0 view .LVU73
 237 008a 2795     		str	r5, [sp, #156]
  98:Core/Src/usb_otg.c ****     GPIO_InitStruct.Alternate = GPIO_AF12_OTG_HS_FS;
 238              		.loc 1 98 5 is_stmt 1 view .LVU74
  98:Core/Src/usb_otg.c ****     GPIO_InitStruct.Alternate = GPIO_AF12_OTG_HS_FS;
 239              		.loc 1 98 27 is_stmt 0 view .LVU75
 240 008c 2897     		str	r7, [sp, #160]
  99:Core/Src/usb_otg.c ****     HAL_GPIO_Init(GPIOB, &GPIO_InitStruct);
 241              		.loc 1 99 5 is_stmt 1 view .LVU76
  99:Core/Src/usb_otg.c ****     HAL_GPIO_Init(GPIOB, &GPIO_InitStruct);
 242              		.loc 1 99 31 is_stmt 0 view .LVU77
 243 008e 2996     		str	r6, [sp, #164]
 100:Core/Src/usb_otg.c **** 
 244              		.loc 1 100 5 is_stmt 1 view .LVU78
 245 0090 25A9     		add	r1, sp, #148
 246 0092 1848     		ldr	r0, .L13+12
ARM GAS  /tmp/ccnDxXI6.s 			page 8


 247 0094 FFF7FEFF 		bl	HAL_GPIO_Init
 248              	.LVL10:
 103:Core/Src/usb_otg.c ****     __HAL_RCC_USB_OTG_HS_CLK_ENABLE();
 249              		.loc 1 103 5 view .LVU79
 250              	.LBB4:
 103:Core/Src/usb_otg.c ****     __HAL_RCC_USB_OTG_HS_CLK_ENABLE();
 251              		.loc 1 103 5 view .LVU80
 103:Core/Src/usb_otg.c ****     __HAL_RCC_USB_OTG_HS_CLK_ENABLE();
 252              		.loc 1 103 5 view .LVU81
 253 0098 636C     		ldr	r3, [r4, #68]
 254 009a 43F00043 		orr	r3, r3, #-2147483648
 255 009e 6364     		str	r3, [r4, #68]
 103:Core/Src/usb_otg.c ****     __HAL_RCC_USB_OTG_HS_CLK_ENABLE();
 256              		.loc 1 103 5 view .LVU82
 257 00a0 636C     		ldr	r3, [r4, #68]
 258 00a2 03F00043 		and	r3, r3, #-2147483648
 259 00a6 0293     		str	r3, [sp, #8]
 103:Core/Src/usb_otg.c ****     __HAL_RCC_USB_OTG_HS_CLK_ENABLE();
 260              		.loc 1 103 5 view .LVU83
 261 00a8 029B     		ldr	r3, [sp, #8]
 262              	.LBE4:
 103:Core/Src/usb_otg.c ****     __HAL_RCC_USB_OTG_HS_CLK_ENABLE();
 263              		.loc 1 103 5 view .LVU84
 104:Core/Src/usb_otg.c ****     __HAL_RCC_USB_OTG_HS_ULPI_CLK_ENABLE();
 264              		.loc 1 104 5 view .LVU85
 265              	.LBB5:
 104:Core/Src/usb_otg.c ****     __HAL_RCC_USB_OTG_HS_ULPI_CLK_ENABLE();
 266              		.loc 1 104 5 view .LVU86
 104:Core/Src/usb_otg.c ****     __HAL_RCC_USB_OTG_HS_ULPI_CLK_ENABLE();
 267              		.loc 1 104 5 view .LVU87
 268 00aa 236B     		ldr	r3, [r4, #48]
 269 00ac 43F00053 		orr	r3, r3, #536870912
 270 00b0 2363     		str	r3, [r4, #48]
 104:Core/Src/usb_otg.c ****     __HAL_RCC_USB_OTG_HS_ULPI_CLK_ENABLE();
 271              		.loc 1 104 5 view .LVU88
 272 00b2 236B     		ldr	r3, [r4, #48]
 273 00b4 03F00053 		and	r3, r3, #536870912
 274 00b8 0393     		str	r3, [sp, #12]
 104:Core/Src/usb_otg.c ****     __HAL_RCC_USB_OTG_HS_ULPI_CLK_ENABLE();
 275              		.loc 1 104 5 view .LVU89
 276 00ba 039B     		ldr	r3, [sp, #12]
 277              	.LBE5:
 104:Core/Src/usb_otg.c ****     __HAL_RCC_USB_OTG_HS_ULPI_CLK_ENABLE();
 278              		.loc 1 104 5 view .LVU90
 105:Core/Src/usb_otg.c **** 
 279              		.loc 1 105 5 view .LVU91
 280              	.LBB6:
 105:Core/Src/usb_otg.c **** 
 281              		.loc 1 105 5 view .LVU92
 105:Core/Src/usb_otg.c **** 
 282              		.loc 1 105 5 view .LVU93
 283 00bc 236B     		ldr	r3, [r4, #48]
 284 00be 43F08043 		orr	r3, r3, #1073741824
 285 00c2 2363     		str	r3, [r4, #48]
 105:Core/Src/usb_otg.c **** 
 286              		.loc 1 105 5 view .LVU94
 287 00c4 236B     		ldr	r3, [r4, #48]
ARM GAS  /tmp/ccnDxXI6.s 			page 9


 288 00c6 03F08043 		and	r3, r3, #1073741824
 289 00ca 0493     		str	r3, [sp, #16]
 105:Core/Src/usb_otg.c **** 
 290              		.loc 1 105 5 view .LVU95
 291 00cc 049B     		ldr	r3, [sp, #16]
 292              	.LBE6:
 105:Core/Src/usb_otg.c **** 
 293              		.loc 1 105 5 view .LVU96
 108:Core/Src/usb_otg.c ****     HAL_NVIC_EnableIRQ(OTG_HS_IRQn);
 294              		.loc 1 108 5 view .LVU97
 295 00ce 2A46     		mov	r2, r5
 296 00d0 0121     		movs	r1, #1
 297 00d2 4D20     		movs	r0, #77
 298 00d4 FFF7FEFF 		bl	HAL_NVIC_SetPriority
 299              	.LVL11:
 109:Core/Src/usb_otg.c ****   /* USER CODE BEGIN USB_OTG_HS_MspInit 1 */
 300              		.loc 1 109 5 view .LVU98
 301 00d8 4D20     		movs	r0, #77
 302 00da FFF7FEFF 		bl	HAL_NVIC_EnableIRQ
 303              	.LVL12:
 304              		.loc 1 114 1 is_stmt 0 view .LVU99
 305 00de A1E7     		b	.L7
 306              	.LVL13:
 307              	.L12:
  78:Core/Src/usb_otg.c ****     }
 308              		.loc 1 78 7 is_stmt 1 view .LVU100
 309 00e0 FFF7FEFF 		bl	Error_Handler
 310              	.LVL14:
 311 00e4 A9E7     		b	.L9
 312              	.L14:
 313 00e6 00BF     		.align	2
 314              	.L13:
 315 00e8 00000440 		.word	1074003968
 316 00ec 00380240 		.word	1073887232
 317 00f0 00000240 		.word	1073872896
 318 00f4 00040240 		.word	1073873920
 319              		.cfi_endproc
 320              	.LFE142:
 322              		.section	.text.HAL_PCD_MspDeInit,"ax",%progbits
 323              		.align	1
 324              		.global	HAL_PCD_MspDeInit
 325              		.syntax unified
 326              		.thumb
 327              		.thumb_func
 329              	HAL_PCD_MspDeInit:
 330              	.LVL15:
 331              	.LFB143:
 115:Core/Src/usb_otg.c **** 
 116:Core/Src/usb_otg.c **** void HAL_PCD_MspDeInit(PCD_HandleTypeDef* pcdHandle)
 117:Core/Src/usb_otg.c **** {
 332              		.loc 1 117 1 view -0
 333              		.cfi_startproc
 334              		@ args = 0, pretend = 0, frame = 0
 335              		@ frame_needed = 0, uses_anonymous_args = 0
 336              		.loc 1 117 1 is_stmt 0 view .LVU102
 337 0000 08B5     		push	{r3, lr}
 338              		.cfi_def_cfa_offset 8
ARM GAS  /tmp/ccnDxXI6.s 			page 10


 339              		.cfi_offset 3, -8
 340              		.cfi_offset 14, -4
 118:Core/Src/usb_otg.c **** 
 119:Core/Src/usb_otg.c ****   if(pcdHandle->Instance==USB_OTG_HS)
 341              		.loc 1 119 3 is_stmt 1 view .LVU103
 342              		.loc 1 119 15 is_stmt 0 view .LVU104
 343 0002 0268     		ldr	r2, [r0]
 344              		.loc 1 119 5 view .LVU105
 345 0004 0F4B     		ldr	r3, .L19
 346 0006 9A42     		cmp	r2, r3
 347 0008 00D0     		beq	.L18
 348              	.LVL16:
 349              	.L15:
 120:Core/Src/usb_otg.c ****   {
 121:Core/Src/usb_otg.c ****   /* USER CODE BEGIN USB_OTG_HS_MspDeInit 0 */
 122:Core/Src/usb_otg.c **** 
 123:Core/Src/usb_otg.c ****   /* USER CODE END USB_OTG_HS_MspDeInit 0 */
 124:Core/Src/usb_otg.c ****     /* Peripheral clock disable */
 125:Core/Src/usb_otg.c ****     __HAL_RCC_OTGPHYC_CLK_DISABLE();
 126:Core/Src/usb_otg.c ****     __HAL_RCC_USB_OTG_HS_CLK_DISABLE();
 127:Core/Src/usb_otg.c ****     __HAL_RCC_USB_OTG_HS_ULPI_CLK_DISABLE();
 128:Core/Src/usb_otg.c **** 
 129:Core/Src/usb_otg.c ****     /**USB_OTG_HS GPIO Configuration
 130:Core/Src/usb_otg.c ****     PA4     ------> USB_OTG_HS_SOF
 131:Core/Src/usb_otg.c ****     PB14     ------> USB_OTG_HS_DM
 132:Core/Src/usb_otg.c ****     PB15     ------> USB_OTG_HS_DP
 133:Core/Src/usb_otg.c ****     */
 134:Core/Src/usb_otg.c ****     HAL_GPIO_DeInit(GPIOA, GPIO_PIN_4);
 135:Core/Src/usb_otg.c **** 
 136:Core/Src/usb_otg.c ****     HAL_GPIO_DeInit(GPIOB, GPIO_PIN_14|GPIO_PIN_15);
 137:Core/Src/usb_otg.c **** 
 138:Core/Src/usb_otg.c ****     /* USB_OTG_HS interrupt Deinit */
 139:Core/Src/usb_otg.c ****     HAL_NVIC_DisableIRQ(OTG_HS_IRQn);
 140:Core/Src/usb_otg.c ****   /* USER CODE BEGIN USB_OTG_HS_MspDeInit 1 */
 141:Core/Src/usb_otg.c **** 
 142:Core/Src/usb_otg.c ****   /* USER CODE END USB_OTG_HS_MspDeInit 1 */
 143:Core/Src/usb_otg.c ****   }
 144:Core/Src/usb_otg.c **** }
 350              		.loc 1 144 1 view .LVU106
 351 000a 08BD     		pop	{r3, pc}
 352              	.LVL17:
 353              	.L18:
 125:Core/Src/usb_otg.c ****     __HAL_RCC_USB_OTG_HS_CLK_DISABLE();
 354              		.loc 1 125 5 is_stmt 1 view .LVU107
 355 000c A3F5E433 		sub	r3, r3, #116736
 356 0010 5A6C     		ldr	r2, [r3, #68]
 357 0012 22F00042 		bic	r2, r2, #-2147483648
 358 0016 5A64     		str	r2, [r3, #68]
 126:Core/Src/usb_otg.c ****     __HAL_RCC_USB_OTG_HS_ULPI_CLK_DISABLE();
 359              		.loc 1 126 5 view .LVU108
 360 0018 1A6B     		ldr	r2, [r3, #48]
 361 001a 22F00052 		bic	r2, r2, #536870912
 362 001e 1A63     		str	r2, [r3, #48]
 127:Core/Src/usb_otg.c **** 
 363              		.loc 1 127 5 view .LVU109
 364 0020 1A6B     		ldr	r2, [r3, #48]
 365 0022 22F08042 		bic	r2, r2, #1073741824
ARM GAS  /tmp/ccnDxXI6.s 			page 11


 366 0026 1A63     		str	r2, [r3, #48]
 134:Core/Src/usb_otg.c **** 
 367              		.loc 1 134 5 view .LVU110
 368 0028 1021     		movs	r1, #16
 369 002a 0748     		ldr	r0, .L19+4
 370              	.LVL18:
 134:Core/Src/usb_otg.c **** 
 371              		.loc 1 134 5 is_stmt 0 view .LVU111
 372 002c FFF7FEFF 		bl	HAL_GPIO_DeInit
 373              	.LVL19:
 136:Core/Src/usb_otg.c **** 
 374              		.loc 1 136 5 is_stmt 1 view .LVU112
 375 0030 4FF44041 		mov	r1, #49152
 376 0034 0548     		ldr	r0, .L19+8
 377 0036 FFF7FEFF 		bl	HAL_GPIO_DeInit
 378              	.LVL20:
 139:Core/Src/usb_otg.c ****   /* USER CODE BEGIN USB_OTG_HS_MspDeInit 1 */
 379              		.loc 1 139 5 view .LVU113
 380 003a 4D20     		movs	r0, #77
 381 003c FFF7FEFF 		bl	HAL_NVIC_DisableIRQ
 382              	.LVL21:
 383              		.loc 1 144 1 is_stmt 0 view .LVU114
 384 0040 E3E7     		b	.L15
 385              	.L20:
 386 0042 00BF     		.align	2
 387              	.L19:
 388 0044 00000440 		.word	1074003968
 389 0048 00000240 		.word	1073872896
 390 004c 00040240 		.word	1073873920
 391              		.cfi_endproc
 392              	.LFE143:
 394              		.global	hpcd_USB_OTG_HS
 395              		.section	.bss.hpcd_USB_OTG_HS,"aw",%nobits
 396              		.align	2
 399              	hpcd_USB_OTG_HS:
 400 0000 00000000 		.space	1288
 400      00000000 
 400      00000000 
 400      00000000 
 400      00000000 
 401              		.text
 402              	.Letext0:
 403              		.file 2 "Drivers/CMSIS/Device/ST/STM32F7xx/Include/stm32f723xx.h"
 404              		.file 3 "/home/qrsnap/.config/Code/User/globalStorage/bmd.stm32-for-vscode/@xpack-dev-tools/arm-no
 405              		.file 4 "/home/qrsnap/.config/Code/User/globalStorage/bmd.stm32-for-vscode/@xpack-dev-tools/arm-no
 406              		.file 5 "Drivers/CMSIS/Device/ST/STM32F7xx/Include/stm32f7xx.h"
 407              		.file 6 "Drivers/STM32F7xx_HAL_Driver/Inc/stm32f7xx_hal_def.h"
 408              		.file 7 "Drivers/STM32F7xx_HAL_Driver/Inc/stm32f7xx_hal_rcc_ex.h"
 409              		.file 8 "Drivers/STM32F7xx_HAL_Driver/Inc/stm32f7xx_hal_gpio.h"
 410              		.file 9 "Drivers/STM32F7xx_HAL_Driver/Inc/stm32f7xx_ll_usb.h"
 411              		.file 10 "Drivers/STM32F7xx_HAL_Driver/Inc/stm32f7xx_hal_pcd.h"
 412              		.file 11 "Drivers/STM32F7xx_HAL_Driver/Inc/stm32f7xx_hal_cortex.h"
 413              		.file 12 "Core/Inc/usb_otg.h"
 414              		.file 13 "Core/Inc/main.h"
 415              		.file 14 "<built-in>"
ARM GAS  /tmp/ccnDxXI6.s 			page 12

