ARM GAS  /tmp/cckoXYmN.s 			page 1


   1              		.cpu cortex-m7
   2              		.arch armv7e-m
   3              		.fpu fpv5-sp-d16
   4              		.eabi_attribute 27, 1
   5              		.eabi_attribute 28, 1
   6              		.eabi_attribute 20, 1
   7              		.eabi_attribute 21, 1
   8              		.eabi_attribute 23, 3
   9              		.eabi_attribute 24, 1
  10              		.eabi_attribute 25, 1
  11              		.eabi_attribute 26, 1
  12              		.eabi_attribute 30, 1
  13              		.eabi_attribute 34, 1
  14              		.eabi_attribute 18, 4
  15              		.file	"usbd_hid_keyboard.c"
  16              		.text
  17              	.Ltext0:
  18              		.cfi_sections	.debug_frame
  19              		.file 1 "Middlewares/Third_Party/AL94_USB_Composite/COMPOSITE/Class/HID_KEYBOARD/Src/usbd_hid_keyb
  20              		.section	.text.USBD_HID_GetFSCfgDesc,"ax",%progbits
  21              		.align	1
  22              		.syntax unified
  23              		.thumb
  24              		.thumb_func
  26              	USBD_HID_GetFSCfgDesc:
  27              	.LVL0:
  28              	.LFB148:
   1:Middlewares/Third_Party/AL94_USB_Composite/COMPOSITE/Class/HID_KEYBOARD/Src/usbd_hid_keyboard.c **** /**
   2:Middlewares/Third_Party/AL94_USB_Composite/COMPOSITE/Class/HID_KEYBOARD/Src/usbd_hid_keyboard.c ****   ******************************************************************************
   3:Middlewares/Third_Party/AL94_USB_Composite/COMPOSITE/Class/HID_KEYBOARD/Src/usbd_hid_keyboard.c ****   * @file    usbd_hid.c
   4:Middlewares/Third_Party/AL94_USB_Composite/COMPOSITE/Class/HID_KEYBOARD/Src/usbd_hid_keyboard.c ****   * @author  MCD Application Team
   5:Middlewares/Third_Party/AL94_USB_Composite/COMPOSITE/Class/HID_KEYBOARD/Src/usbd_hid_keyboard.c ****   * @brief   This file provides the HID core functions.
   6:Middlewares/Third_Party/AL94_USB_Composite/COMPOSITE/Class/HID_KEYBOARD/Src/usbd_hid_keyboard.c ****   *
   7:Middlewares/Third_Party/AL94_USB_Composite/COMPOSITE/Class/HID_KEYBOARD/Src/usbd_hid_keyboard.c ****   * @verbatim
   8:Middlewares/Third_Party/AL94_USB_Composite/COMPOSITE/Class/HID_KEYBOARD/Src/usbd_hid_keyboard.c ****   *
   9:Middlewares/Third_Party/AL94_USB_Composite/COMPOSITE/Class/HID_KEYBOARD/Src/usbd_hid_keyboard.c ****   *          ===================================================================
  10:Middlewares/Third_Party/AL94_USB_Composite/COMPOSITE/Class/HID_KEYBOARD/Src/usbd_hid_keyboard.c ****   *                                HID Class  Description
  11:Middlewares/Third_Party/AL94_USB_Composite/COMPOSITE/Class/HID_KEYBOARD/Src/usbd_hid_keyboard.c ****   *          ===================================================================
  12:Middlewares/Third_Party/AL94_USB_Composite/COMPOSITE/Class/HID_KEYBOARD/Src/usbd_hid_keyboard.c ****   *           This module manages the HID class V1.11 following the "Device Class Definition
  13:Middlewares/Third_Party/AL94_USB_Composite/COMPOSITE/Class/HID_KEYBOARD/Src/usbd_hid_keyboard.c ****   *           for Human Interface Devices (HID) Version 1.11 Jun 27, 2001".
  14:Middlewares/Third_Party/AL94_USB_Composite/COMPOSITE/Class/HID_KEYBOARD/Src/usbd_hid_keyboard.c ****   *           This driver implements the following aspects of the specification:
  15:Middlewares/Third_Party/AL94_USB_Composite/COMPOSITE/Class/HID_KEYBOARD/Src/usbd_hid_keyboard.c ****   *             - The Boot Interface Subclass
  16:Middlewares/Third_Party/AL94_USB_Composite/COMPOSITE/Class/HID_KEYBOARD/Src/usbd_hid_keyboard.c ****   *             - The Keyboard protocol
  17:Middlewares/Third_Party/AL94_USB_Composite/COMPOSITE/Class/HID_KEYBOARD/Src/usbd_hid_keyboard.c ****   *             - Usage Page : Generic Desktop
  18:Middlewares/Third_Party/AL94_USB_Composite/COMPOSITE/Class/HID_KEYBOARD/Src/usbd_hid_keyboard.c ****   *             - Collection : Application
  19:Middlewares/Third_Party/AL94_USB_Composite/COMPOSITE/Class/HID_KEYBOARD/Src/usbd_hid_keyboard.c ****   *
  20:Middlewares/Third_Party/AL94_USB_Composite/COMPOSITE/Class/HID_KEYBOARD/Src/usbd_hid_keyboard.c ****   * @note     In HS mode and when the DMA is used, all variables and data structures
  21:Middlewares/Third_Party/AL94_USB_Composite/COMPOSITE/Class/HID_KEYBOARD/Src/usbd_hid_keyboard.c ****   *           dealing with the DMA during the transaction process should be 32-bit aligned.
  22:Middlewares/Third_Party/AL94_USB_Composite/COMPOSITE/Class/HID_KEYBOARD/Src/usbd_hid_keyboard.c ****   *
  23:Middlewares/Third_Party/AL94_USB_Composite/COMPOSITE/Class/HID_KEYBOARD/Src/usbd_hid_keyboard.c ****   *
  24:Middlewares/Third_Party/AL94_USB_Composite/COMPOSITE/Class/HID_KEYBOARD/Src/usbd_hid_keyboard.c ****   *  @endverbatim
  25:Middlewares/Third_Party/AL94_USB_Composite/COMPOSITE/Class/HID_KEYBOARD/Src/usbd_hid_keyboard.c ****   *
  26:Middlewares/Third_Party/AL94_USB_Composite/COMPOSITE/Class/HID_KEYBOARD/Src/usbd_hid_keyboard.c ****   ******************************************************************************
  27:Middlewares/Third_Party/AL94_USB_Composite/COMPOSITE/Class/HID_KEYBOARD/Src/usbd_hid_keyboard.c ****   * @attention
  28:Middlewares/Third_Party/AL94_USB_Composite/COMPOSITE/Class/HID_KEYBOARD/Src/usbd_hid_keyboard.c ****   *
  29:Middlewares/Third_Party/AL94_USB_Composite/COMPOSITE/Class/HID_KEYBOARD/Src/usbd_hid_keyboard.c ****   * <h2><center>&copy; Copyright (c) 2015 STMicroelectronics.
  30:Middlewares/Third_Party/AL94_USB_Composite/COMPOSITE/Class/HID_KEYBOARD/Src/usbd_hid_keyboard.c ****   * All rights reserved.</center></h2>
ARM GAS  /tmp/cckoXYmN.s 			page 2


  31:Middlewares/Third_Party/AL94_USB_Composite/COMPOSITE/Class/HID_KEYBOARD/Src/usbd_hid_keyboard.c ****   *
  32:Middlewares/Third_Party/AL94_USB_Composite/COMPOSITE/Class/HID_KEYBOARD/Src/usbd_hid_keyboard.c ****   * This software component is licensed by ST under Ultimate Liberty license
  33:Middlewares/Third_Party/AL94_USB_Composite/COMPOSITE/Class/HID_KEYBOARD/Src/usbd_hid_keyboard.c ****   * SLA0044, the "License"; You may not use this file except in compliance with
  34:Middlewares/Third_Party/AL94_USB_Composite/COMPOSITE/Class/HID_KEYBOARD/Src/usbd_hid_keyboard.c ****   * the License. You may obtain a copy of the License at:
  35:Middlewares/Third_Party/AL94_USB_Composite/COMPOSITE/Class/HID_KEYBOARD/Src/usbd_hid_keyboard.c ****   *                      www.st.com/SLA0044
  36:Middlewares/Third_Party/AL94_USB_Composite/COMPOSITE/Class/HID_KEYBOARD/Src/usbd_hid_keyboard.c ****   *
  37:Middlewares/Third_Party/AL94_USB_Composite/COMPOSITE/Class/HID_KEYBOARD/Src/usbd_hid_keyboard.c ****   ******************************************************************************
  38:Middlewares/Third_Party/AL94_USB_Composite/COMPOSITE/Class/HID_KEYBOARD/Src/usbd_hid_keyboard.c ****   */
  39:Middlewares/Third_Party/AL94_USB_Composite/COMPOSITE/Class/HID_KEYBOARD/Src/usbd_hid_keyboard.c **** 
  40:Middlewares/Third_Party/AL94_USB_Composite/COMPOSITE/Class/HID_KEYBOARD/Src/usbd_hid_keyboard.c **** /* BSPDependencies
  41:Middlewares/Third_Party/AL94_USB_Composite/COMPOSITE/Class/HID_KEYBOARD/Src/usbd_hid_keyboard.c **** - "stm32xxxxx_{eval}{discovery}{nucleo_144}.c"
  42:Middlewares/Third_Party/AL94_USB_Composite/COMPOSITE/Class/HID_KEYBOARD/Src/usbd_hid_keyboard.c **** - "stm32xxxxx_{eval}{discovery}_io.c"
  43:Middlewares/Third_Party/AL94_USB_Composite/COMPOSITE/Class/HID_KEYBOARD/Src/usbd_hid_keyboard.c **** EndBSPDependencies */
  44:Middlewares/Third_Party/AL94_USB_Composite/COMPOSITE/Class/HID_KEYBOARD/Src/usbd_hid_keyboard.c **** 
  45:Middlewares/Third_Party/AL94_USB_Composite/COMPOSITE/Class/HID_KEYBOARD/Src/usbd_hid_keyboard.c **** /* Includes ------------------------------------------------------------------*/
  46:Middlewares/Third_Party/AL94_USB_Composite/COMPOSITE/Class/HID_KEYBOARD/Src/usbd_hid_keyboard.c **** #include "usbd_hid_keyboard.h"
  47:Middlewares/Third_Party/AL94_USB_Composite/COMPOSITE/Class/HID_KEYBOARD/Src/usbd_hid_keyboard.c **** #include "usbd_ctlreq.h"
  48:Middlewares/Third_Party/AL94_USB_Composite/COMPOSITE/Class/HID_KEYBOARD/Src/usbd_hid_keyboard.c **** 
  49:Middlewares/Third_Party/AL94_USB_Composite/COMPOSITE/Class/HID_KEYBOARD/Src/usbd_hid_keyboard.c **** #define _HID_KEYBOARD_IN_EP 0x81U
  50:Middlewares/Third_Party/AL94_USB_Composite/COMPOSITE/Class/HID_KEYBOARD/Src/usbd_hid_keyboard.c **** #define _HID_KEYBOARD_ITF_NBR 0x00
  51:Middlewares/Third_Party/AL94_USB_Composite/COMPOSITE/Class/HID_KEYBOARD/Src/usbd_hid_keyboard.c **** #define _HID_KEYBOARD_STR_DESC_IDX 0x00U
  52:Middlewares/Third_Party/AL94_USB_Composite/COMPOSITE/Class/HID_KEYBOARD/Src/usbd_hid_keyboard.c **** 
  53:Middlewares/Third_Party/AL94_USB_Composite/COMPOSITE/Class/HID_KEYBOARD/Src/usbd_hid_keyboard.c **** uint8_t HID_KEYBOARD_IN_EP = _HID_KEYBOARD_IN_EP;
  54:Middlewares/Third_Party/AL94_USB_Composite/COMPOSITE/Class/HID_KEYBOARD/Src/usbd_hid_keyboard.c **** uint8_t HID_KEYBOARD_ITF_NBR = _HID_KEYBOARD_ITF_NBR;
  55:Middlewares/Third_Party/AL94_USB_Composite/COMPOSITE/Class/HID_KEYBOARD/Src/usbd_hid_keyboard.c **** uint8_t HID_KEYBOARD_STR_DESC_IDX = _HID_KEYBOARD_STR_DESC_IDX;
  56:Middlewares/Third_Party/AL94_USB_Composite/COMPOSITE/Class/HID_KEYBOARD/Src/usbd_hid_keyboard.c **** 
  57:Middlewares/Third_Party/AL94_USB_Composite/COMPOSITE/Class/HID_KEYBOARD/Src/usbd_hid_keyboard.c **** /** @addtogroup STM32_USB_DEVICE_LIBRARY
  58:Middlewares/Third_Party/AL94_USB_Composite/COMPOSITE/Class/HID_KEYBOARD/Src/usbd_hid_keyboard.c ****   * @{
  59:Middlewares/Third_Party/AL94_USB_Composite/COMPOSITE/Class/HID_KEYBOARD/Src/usbd_hid_keyboard.c ****   */
  60:Middlewares/Third_Party/AL94_USB_Composite/COMPOSITE/Class/HID_KEYBOARD/Src/usbd_hid_keyboard.c **** 
  61:Middlewares/Third_Party/AL94_USB_Composite/COMPOSITE/Class/HID_KEYBOARD/Src/usbd_hid_keyboard.c **** /** @defgroup USBD_HID
  62:Middlewares/Third_Party/AL94_USB_Composite/COMPOSITE/Class/HID_KEYBOARD/Src/usbd_hid_keyboard.c ****   * @brief usbd core module
  63:Middlewares/Third_Party/AL94_USB_Composite/COMPOSITE/Class/HID_KEYBOARD/Src/usbd_hid_keyboard.c ****   * @{
  64:Middlewares/Third_Party/AL94_USB_Composite/COMPOSITE/Class/HID_KEYBOARD/Src/usbd_hid_keyboard.c ****   */
  65:Middlewares/Third_Party/AL94_USB_Composite/COMPOSITE/Class/HID_KEYBOARD/Src/usbd_hid_keyboard.c **** 
  66:Middlewares/Third_Party/AL94_USB_Composite/COMPOSITE/Class/HID_KEYBOARD/Src/usbd_hid_keyboard.c **** /** @defgroup USBD_HID_Private_TypesDefinitions
  67:Middlewares/Third_Party/AL94_USB_Composite/COMPOSITE/Class/HID_KEYBOARD/Src/usbd_hid_keyboard.c ****   * @{
  68:Middlewares/Third_Party/AL94_USB_Composite/COMPOSITE/Class/HID_KEYBOARD/Src/usbd_hid_keyboard.c ****   */
  69:Middlewares/Third_Party/AL94_USB_Composite/COMPOSITE/Class/HID_KEYBOARD/Src/usbd_hid_keyboard.c **** /**
  70:Middlewares/Third_Party/AL94_USB_Composite/COMPOSITE/Class/HID_KEYBOARD/Src/usbd_hid_keyboard.c ****   * @}
  71:Middlewares/Third_Party/AL94_USB_Composite/COMPOSITE/Class/HID_KEYBOARD/Src/usbd_hid_keyboard.c ****   */
  72:Middlewares/Third_Party/AL94_USB_Composite/COMPOSITE/Class/HID_KEYBOARD/Src/usbd_hid_keyboard.c **** 
  73:Middlewares/Third_Party/AL94_USB_Composite/COMPOSITE/Class/HID_KEYBOARD/Src/usbd_hid_keyboard.c **** /** @defgroup USBD_HID_Private_Defines
  74:Middlewares/Third_Party/AL94_USB_Composite/COMPOSITE/Class/HID_KEYBOARD/Src/usbd_hid_keyboard.c ****   * @{
  75:Middlewares/Third_Party/AL94_USB_Composite/COMPOSITE/Class/HID_KEYBOARD/Src/usbd_hid_keyboard.c ****   */
  76:Middlewares/Third_Party/AL94_USB_Composite/COMPOSITE/Class/HID_KEYBOARD/Src/usbd_hid_keyboard.c **** 
  77:Middlewares/Third_Party/AL94_USB_Composite/COMPOSITE/Class/HID_KEYBOARD/Src/usbd_hid_keyboard.c **** /**
  78:Middlewares/Third_Party/AL94_USB_Composite/COMPOSITE/Class/HID_KEYBOARD/Src/usbd_hid_keyboard.c ****   * @}
  79:Middlewares/Third_Party/AL94_USB_Composite/COMPOSITE/Class/HID_KEYBOARD/Src/usbd_hid_keyboard.c ****   */
  80:Middlewares/Third_Party/AL94_USB_Composite/COMPOSITE/Class/HID_KEYBOARD/Src/usbd_hid_keyboard.c **** 
  81:Middlewares/Third_Party/AL94_USB_Composite/COMPOSITE/Class/HID_KEYBOARD/Src/usbd_hid_keyboard.c **** /** @defgroup USBD_HID_Private_Macros
  82:Middlewares/Third_Party/AL94_USB_Composite/COMPOSITE/Class/HID_KEYBOARD/Src/usbd_hid_keyboard.c ****   * @{
  83:Middlewares/Third_Party/AL94_USB_Composite/COMPOSITE/Class/HID_KEYBOARD/Src/usbd_hid_keyboard.c ****   */
  84:Middlewares/Third_Party/AL94_USB_Composite/COMPOSITE/Class/HID_KEYBOARD/Src/usbd_hid_keyboard.c **** /**
  85:Middlewares/Third_Party/AL94_USB_Composite/COMPOSITE/Class/HID_KEYBOARD/Src/usbd_hid_keyboard.c ****   * @}
  86:Middlewares/Third_Party/AL94_USB_Composite/COMPOSITE/Class/HID_KEYBOARD/Src/usbd_hid_keyboard.c ****   */
  87:Middlewares/Third_Party/AL94_USB_Composite/COMPOSITE/Class/HID_KEYBOARD/Src/usbd_hid_keyboard.c **** 
ARM GAS  /tmp/cckoXYmN.s 			page 3


  88:Middlewares/Third_Party/AL94_USB_Composite/COMPOSITE/Class/HID_KEYBOARD/Src/usbd_hid_keyboard.c **** /** @defgroup USBD_HID_Private_FunctionPrototypes
  89:Middlewares/Third_Party/AL94_USB_Composite/COMPOSITE/Class/HID_KEYBOARD/Src/usbd_hid_keyboard.c ****   * @{
  90:Middlewares/Third_Party/AL94_USB_Composite/COMPOSITE/Class/HID_KEYBOARD/Src/usbd_hid_keyboard.c ****   */
  91:Middlewares/Third_Party/AL94_USB_Composite/COMPOSITE/Class/HID_KEYBOARD/Src/usbd_hid_keyboard.c **** 
  92:Middlewares/Third_Party/AL94_USB_Composite/COMPOSITE/Class/HID_KEYBOARD/Src/usbd_hid_keyboard.c **** static uint8_t USBD_HID_Init(USBD_HandleTypeDef *pdev, uint8_t cfgidx);
  93:Middlewares/Third_Party/AL94_USB_Composite/COMPOSITE/Class/HID_KEYBOARD/Src/usbd_hid_keyboard.c **** static uint8_t USBD_HID_DeInit(USBD_HandleTypeDef *pdev, uint8_t cfgidx);
  94:Middlewares/Third_Party/AL94_USB_Composite/COMPOSITE/Class/HID_KEYBOARD/Src/usbd_hid_keyboard.c **** static uint8_t USBD_HID_Setup(USBD_HandleTypeDef *pdev, USBD_SetupReqTypedef *req);
  95:Middlewares/Third_Party/AL94_USB_Composite/COMPOSITE/Class/HID_KEYBOARD/Src/usbd_hid_keyboard.c **** static uint8_t USBD_HID_DataIn(USBD_HandleTypeDef *pdev, uint8_t epnum);
  96:Middlewares/Third_Party/AL94_USB_Composite/COMPOSITE/Class/HID_KEYBOARD/Src/usbd_hid_keyboard.c **** 
  97:Middlewares/Third_Party/AL94_USB_Composite/COMPOSITE/Class/HID_KEYBOARD/Src/usbd_hid_keyboard.c **** static uint8_t *USBD_HID_GetFSCfgDesc(uint16_t *length);
  98:Middlewares/Third_Party/AL94_USB_Composite/COMPOSITE/Class/HID_KEYBOARD/Src/usbd_hid_keyboard.c **** static uint8_t *USBD_HID_GetHSCfgDesc(uint16_t *length);
  99:Middlewares/Third_Party/AL94_USB_Composite/COMPOSITE/Class/HID_KEYBOARD/Src/usbd_hid_keyboard.c **** static uint8_t *USBD_HID_GetOtherSpeedCfgDesc(uint16_t *length);
 100:Middlewares/Third_Party/AL94_USB_Composite/COMPOSITE/Class/HID_KEYBOARD/Src/usbd_hid_keyboard.c **** static uint8_t *USBD_HID_GetDeviceQualifierDesc(uint16_t *length);
 101:Middlewares/Third_Party/AL94_USB_Composite/COMPOSITE/Class/HID_KEYBOARD/Src/usbd_hid_keyboard.c **** 
 102:Middlewares/Third_Party/AL94_USB_Composite/COMPOSITE/Class/HID_KEYBOARD/Src/usbd_hid_keyboard.c **** /**
 103:Middlewares/Third_Party/AL94_USB_Composite/COMPOSITE/Class/HID_KEYBOARD/Src/usbd_hid_keyboard.c ****   * @}
 104:Middlewares/Third_Party/AL94_USB_Composite/COMPOSITE/Class/HID_KEYBOARD/Src/usbd_hid_keyboard.c ****   */
 105:Middlewares/Third_Party/AL94_USB_Composite/COMPOSITE/Class/HID_KEYBOARD/Src/usbd_hid_keyboard.c **** 
 106:Middlewares/Third_Party/AL94_USB_Composite/COMPOSITE/Class/HID_KEYBOARD/Src/usbd_hid_keyboard.c **** /** @defgroup USBD_HID_Private_Variables
 107:Middlewares/Third_Party/AL94_USB_Composite/COMPOSITE/Class/HID_KEYBOARD/Src/usbd_hid_keyboard.c ****   * @{
 108:Middlewares/Third_Party/AL94_USB_Composite/COMPOSITE/Class/HID_KEYBOARD/Src/usbd_hid_keyboard.c ****   */
 109:Middlewares/Third_Party/AL94_USB_Composite/COMPOSITE/Class/HID_KEYBOARD/Src/usbd_hid_keyboard.c **** 
 110:Middlewares/Third_Party/AL94_USB_Composite/COMPOSITE/Class/HID_KEYBOARD/Src/usbd_hid_keyboard.c **** static USBD_HID_Keyboard_HandleTypeDef USBD_HID_KBD_Instace;
 111:Middlewares/Third_Party/AL94_USB_Composite/COMPOSITE/Class/HID_KEYBOARD/Src/usbd_hid_keyboard.c **** 
 112:Middlewares/Third_Party/AL94_USB_Composite/COMPOSITE/Class/HID_KEYBOARD/Src/usbd_hid_keyboard.c **** USBD_ClassTypeDef USBD_HID_KEYBOARD =
 113:Middlewares/Third_Party/AL94_USB_Composite/COMPOSITE/Class/HID_KEYBOARD/Src/usbd_hid_keyboard.c ****     {
 114:Middlewares/Third_Party/AL94_USB_Composite/COMPOSITE/Class/HID_KEYBOARD/Src/usbd_hid_keyboard.c ****         USBD_HID_Init,
 115:Middlewares/Third_Party/AL94_USB_Composite/COMPOSITE/Class/HID_KEYBOARD/Src/usbd_hid_keyboard.c ****         USBD_HID_DeInit,
 116:Middlewares/Third_Party/AL94_USB_Composite/COMPOSITE/Class/HID_KEYBOARD/Src/usbd_hid_keyboard.c ****         USBD_HID_Setup,
 117:Middlewares/Third_Party/AL94_USB_Composite/COMPOSITE/Class/HID_KEYBOARD/Src/usbd_hid_keyboard.c ****         NULL,            /* EP0_TxSent */
 118:Middlewares/Third_Party/AL94_USB_Composite/COMPOSITE/Class/HID_KEYBOARD/Src/usbd_hid_keyboard.c ****         NULL,            /* EP0_RxReady */
 119:Middlewares/Third_Party/AL94_USB_Composite/COMPOSITE/Class/HID_KEYBOARD/Src/usbd_hid_keyboard.c ****         USBD_HID_DataIn, /* DataIn */
 120:Middlewares/Third_Party/AL94_USB_Composite/COMPOSITE/Class/HID_KEYBOARD/Src/usbd_hid_keyboard.c ****         NULL,            /* DataOut */
 121:Middlewares/Third_Party/AL94_USB_Composite/COMPOSITE/Class/HID_KEYBOARD/Src/usbd_hid_keyboard.c ****         NULL,            /* SOF */
 122:Middlewares/Third_Party/AL94_USB_Composite/COMPOSITE/Class/HID_KEYBOARD/Src/usbd_hid_keyboard.c ****         NULL,
 123:Middlewares/Third_Party/AL94_USB_Composite/COMPOSITE/Class/HID_KEYBOARD/Src/usbd_hid_keyboard.c ****         NULL,
 124:Middlewares/Third_Party/AL94_USB_Composite/COMPOSITE/Class/HID_KEYBOARD/Src/usbd_hid_keyboard.c ****         USBD_HID_GetHSCfgDesc,
 125:Middlewares/Third_Party/AL94_USB_Composite/COMPOSITE/Class/HID_KEYBOARD/Src/usbd_hid_keyboard.c ****         USBD_HID_GetFSCfgDesc,
 126:Middlewares/Third_Party/AL94_USB_Composite/COMPOSITE/Class/HID_KEYBOARD/Src/usbd_hid_keyboard.c ****         USBD_HID_GetOtherSpeedCfgDesc,
 127:Middlewares/Third_Party/AL94_USB_Composite/COMPOSITE/Class/HID_KEYBOARD/Src/usbd_hid_keyboard.c ****         USBD_HID_GetDeviceQualifierDesc,
 128:Middlewares/Third_Party/AL94_USB_Composite/COMPOSITE/Class/HID_KEYBOARD/Src/usbd_hid_keyboard.c **** };
 129:Middlewares/Third_Party/AL94_USB_Composite/COMPOSITE/Class/HID_KEYBOARD/Src/usbd_hid_keyboard.c **** 
 130:Middlewares/Third_Party/AL94_USB_Composite/COMPOSITE/Class/HID_KEYBOARD/Src/usbd_hid_keyboard.c **** /* USB HID device FS Configuration Descriptor */
 131:Middlewares/Third_Party/AL94_USB_Composite/COMPOSITE/Class/HID_KEYBOARD/Src/usbd_hid_keyboard.c **** __ALIGN_BEGIN static uint8_t USBD_HID_KEYBOARD_CfgFSDesc[HID_KEYBOARD_CONFIG_DESC_SIZE] __ALIGN_END
 132:Middlewares/Third_Party/AL94_USB_Composite/COMPOSITE/Class/HID_KEYBOARD/Src/usbd_hid_keyboard.c ****     {
 133:Middlewares/Third_Party/AL94_USB_Composite/COMPOSITE/Class/HID_KEYBOARD/Src/usbd_hid_keyboard.c ****         0x09,                          /* bLength: Configuration Descriptor size */
 134:Middlewares/Third_Party/AL94_USB_Composite/COMPOSITE/Class/HID_KEYBOARD/Src/usbd_hid_keyboard.c ****         USB_DESC_TYPE_CONFIGURATION,   /* bDescriptorType: Configuration */
 135:Middlewares/Third_Party/AL94_USB_Composite/COMPOSITE/Class/HID_KEYBOARD/Src/usbd_hid_keyboard.c ****         HID_KEYBOARD_CONFIG_DESC_SIZE, /* wTotalLength: Bytes returned */
 136:Middlewares/Third_Party/AL94_USB_Composite/COMPOSITE/Class/HID_KEYBOARD/Src/usbd_hid_keyboard.c ****         0x00,
 137:Middlewares/Third_Party/AL94_USB_Composite/COMPOSITE/Class/HID_KEYBOARD/Src/usbd_hid_keyboard.c ****         0x01, /* bNumInterfaces: 1 interface */
 138:Middlewares/Third_Party/AL94_USB_Composite/COMPOSITE/Class/HID_KEYBOARD/Src/usbd_hid_keyboard.c ****         0x01, /* bConfigurationValue: Configuration value */
 139:Middlewares/Third_Party/AL94_USB_Composite/COMPOSITE/Class/HID_KEYBOARD/Src/usbd_hid_keyboard.c ****         0x00, /* iConfiguration: Index of string descriptor describing the configuration */
 140:Middlewares/Third_Party/AL94_USB_Composite/COMPOSITE/Class/HID_KEYBOARD/Src/usbd_hid_keyboard.c **** #if (USBD_SELF_POWERED == 1U)
 141:Middlewares/Third_Party/AL94_USB_Composite/COMPOSITE/Class/HID_KEYBOARD/Src/usbd_hid_keyboard.c ****         0xE0, /* bmAttributes: Bus Powered according to user configuration */
 142:Middlewares/Third_Party/AL94_USB_Composite/COMPOSITE/Class/HID_KEYBOARD/Src/usbd_hid_keyboard.c **** #else
 143:Middlewares/Third_Party/AL94_USB_Composite/COMPOSITE/Class/HID_KEYBOARD/Src/usbd_hid_keyboard.c ****         0xA0, /* bmAttributes: Bus Powered according to user configuration */
 144:Middlewares/Third_Party/AL94_USB_Composite/COMPOSITE/Class/HID_KEYBOARD/Src/usbd_hid_keyboard.c **** #endif
ARM GAS  /tmp/cckoXYmN.s 			page 4


 145:Middlewares/Third_Party/AL94_USB_Composite/COMPOSITE/Class/HID_KEYBOARD/Src/usbd_hid_keyboard.c ****         USBD_MAX_POWER, /* MaxPower 100 mA: this current is used for detecting Vbus */
 146:Middlewares/Third_Party/AL94_USB_Composite/COMPOSITE/Class/HID_KEYBOARD/Src/usbd_hid_keyboard.c **** 
 147:Middlewares/Third_Party/AL94_USB_Composite/COMPOSITE/Class/HID_KEYBOARD/Src/usbd_hid_keyboard.c ****         /************** Descriptor of Keyboard interface ****************/
 148:Middlewares/Third_Party/AL94_USB_Composite/COMPOSITE/Class/HID_KEYBOARD/Src/usbd_hid_keyboard.c ****         /* 09 */
 149:Middlewares/Third_Party/AL94_USB_Composite/COMPOSITE/Class/HID_KEYBOARD/Src/usbd_hid_keyboard.c ****         0x09,                       /* bLength: Interface Descriptor size */
 150:Middlewares/Third_Party/AL94_USB_Composite/COMPOSITE/Class/HID_KEYBOARD/Src/usbd_hid_keyboard.c ****         USB_DESC_TYPE_INTERFACE,    /* bDescriptorType: Interface descriptor type */
 151:Middlewares/Third_Party/AL94_USB_Composite/COMPOSITE/Class/HID_KEYBOARD/Src/usbd_hid_keyboard.c ****         _HID_KEYBOARD_ITF_NBR,      /* bInterfaceNumber: Number of Interface */
 152:Middlewares/Third_Party/AL94_USB_Composite/COMPOSITE/Class/HID_KEYBOARD/Src/usbd_hid_keyboard.c ****         0x00,                       /* bAlternateSetting: Alternate setting */
 153:Middlewares/Third_Party/AL94_USB_Composite/COMPOSITE/Class/HID_KEYBOARD/Src/usbd_hid_keyboard.c ****         0x01,                       /* bNumEndpoints */
 154:Middlewares/Third_Party/AL94_USB_Composite/COMPOSITE/Class/HID_KEYBOARD/Src/usbd_hid_keyboard.c ****         0x03,                       /* bInterfaceClass: HID */
 155:Middlewares/Third_Party/AL94_USB_Composite/COMPOSITE/Class/HID_KEYBOARD/Src/usbd_hid_keyboard.c ****         0x01,                       /* bInterfaceSubClass : 1=BOOT, 0=no boot */
 156:Middlewares/Third_Party/AL94_USB_Composite/COMPOSITE/Class/HID_KEYBOARD/Src/usbd_hid_keyboard.c ****         0x01,                       /* nInterfaceProtocol : 0=none, 1=keyboard, 2=mouse */
 157:Middlewares/Third_Party/AL94_USB_Composite/COMPOSITE/Class/HID_KEYBOARD/Src/usbd_hid_keyboard.c ****         _HID_KEYBOARD_STR_DESC_IDX, /* iInterface: Index of string descriptor */
 158:Middlewares/Third_Party/AL94_USB_Composite/COMPOSITE/Class/HID_KEYBOARD/Src/usbd_hid_keyboard.c ****         /******************** Descriptor of Keyboard HID ********************/
 159:Middlewares/Third_Party/AL94_USB_Composite/COMPOSITE/Class/HID_KEYBOARD/Src/usbd_hid_keyboard.c ****         /* 18 */
 160:Middlewares/Third_Party/AL94_USB_Composite/COMPOSITE/Class/HID_KEYBOARD/Src/usbd_hid_keyboard.c ****         0x09,                         /* bLength: HID Descriptor size */
 161:Middlewares/Third_Party/AL94_USB_Composite/COMPOSITE/Class/HID_KEYBOARD/Src/usbd_hid_keyboard.c ****         HID_KEYBOARD_DESCRIPTOR_TYPE, /* bDescriptorType: HID */
 162:Middlewares/Third_Party/AL94_USB_Composite/COMPOSITE/Class/HID_KEYBOARD/Src/usbd_hid_keyboard.c ****         0x11,                         /* bcdHID: HID Class Spec release number */
 163:Middlewares/Third_Party/AL94_USB_Composite/COMPOSITE/Class/HID_KEYBOARD/Src/usbd_hid_keyboard.c ****         0x01,
 164:Middlewares/Third_Party/AL94_USB_Composite/COMPOSITE/Class/HID_KEYBOARD/Src/usbd_hid_keyboard.c ****         0x00,                          /* bCountryCode: Hardware target country */
 165:Middlewares/Third_Party/AL94_USB_Composite/COMPOSITE/Class/HID_KEYBOARD/Src/usbd_hid_keyboard.c ****         0x01,                          /* bNumDescriptors: Number of HID class descriptors to follo
 166:Middlewares/Third_Party/AL94_USB_Composite/COMPOSITE/Class/HID_KEYBOARD/Src/usbd_hid_keyboard.c ****         0x22,                          /* bDescriptorType */
 167:Middlewares/Third_Party/AL94_USB_Composite/COMPOSITE/Class/HID_KEYBOARD/Src/usbd_hid_keyboard.c ****         HID_KEYBOARD_REPORT_DESC_SIZE, /* wItemLength: Total length of Report descriptor */
 168:Middlewares/Third_Party/AL94_USB_Composite/COMPOSITE/Class/HID_KEYBOARD/Src/usbd_hid_keyboard.c ****         0x00,
 169:Middlewares/Third_Party/AL94_USB_Composite/COMPOSITE/Class/HID_KEYBOARD/Src/usbd_hid_keyboard.c ****         /******************** Descriptor of Keyboard endpoint ********************/
 170:Middlewares/Third_Party/AL94_USB_Composite/COMPOSITE/Class/HID_KEYBOARD/Src/usbd_hid_keyboard.c ****         /* 27 */
 171:Middlewares/Third_Party/AL94_USB_Composite/COMPOSITE/Class/HID_KEYBOARD/Src/usbd_hid_keyboard.c ****         0x07,                   /* bLength: Endpoint Descriptor size */
 172:Middlewares/Third_Party/AL94_USB_Composite/COMPOSITE/Class/HID_KEYBOARD/Src/usbd_hid_keyboard.c ****         USB_DESC_TYPE_ENDPOINT, /* bDescriptorType:*/
 173:Middlewares/Third_Party/AL94_USB_Composite/COMPOSITE/Class/HID_KEYBOARD/Src/usbd_hid_keyboard.c ****         _HID_KEYBOARD_IN_EP,    /* bEndpointAddress: Endpoint Address (IN) */
 174:Middlewares/Third_Party/AL94_USB_Composite/COMPOSITE/Class/HID_KEYBOARD/Src/usbd_hid_keyboard.c ****         0x03,                   /* bmAttributes: Interrupt endpoint */
 175:Middlewares/Third_Party/AL94_USB_Composite/COMPOSITE/Class/HID_KEYBOARD/Src/usbd_hid_keyboard.c ****         HID_KEYBOARD_EPIN_SIZE, /* wMaxPacketSize: 4 Byte max */
 176:Middlewares/Third_Party/AL94_USB_Composite/COMPOSITE/Class/HID_KEYBOARD/Src/usbd_hid_keyboard.c ****         0x00,
 177:Middlewares/Third_Party/AL94_USB_Composite/COMPOSITE/Class/HID_KEYBOARD/Src/usbd_hid_keyboard.c ****         HID_KEYBOARD_FS_BINTERVAL, /* bInterval: Polling Interval */
 178:Middlewares/Third_Party/AL94_USB_Composite/COMPOSITE/Class/HID_KEYBOARD/Src/usbd_hid_keyboard.c ****                                    /* 34 */
 179:Middlewares/Third_Party/AL94_USB_Composite/COMPOSITE/Class/HID_KEYBOARD/Src/usbd_hid_keyboard.c **** };
 180:Middlewares/Third_Party/AL94_USB_Composite/COMPOSITE/Class/HID_KEYBOARD/Src/usbd_hid_keyboard.c **** 
 181:Middlewares/Third_Party/AL94_USB_Composite/COMPOSITE/Class/HID_KEYBOARD/Src/usbd_hid_keyboard.c **** /* USB HID device HS Configuration Descriptor */
 182:Middlewares/Third_Party/AL94_USB_Composite/COMPOSITE/Class/HID_KEYBOARD/Src/usbd_hid_keyboard.c **** __ALIGN_BEGIN static uint8_t USBD_HID_KEYBOARD_CfgHSDesc[HID_KEYBOARD_CONFIG_DESC_SIZE] __ALIGN_END
 183:Middlewares/Third_Party/AL94_USB_Composite/COMPOSITE/Class/HID_KEYBOARD/Src/usbd_hid_keyboard.c ****     {
 184:Middlewares/Third_Party/AL94_USB_Composite/COMPOSITE/Class/HID_KEYBOARD/Src/usbd_hid_keyboard.c ****         0x09,                          /* bLength: Configuration Descriptor size */
 185:Middlewares/Third_Party/AL94_USB_Composite/COMPOSITE/Class/HID_KEYBOARD/Src/usbd_hid_keyboard.c ****         USB_DESC_TYPE_CONFIGURATION,   /* bDescriptorType: Configuration */
 186:Middlewares/Third_Party/AL94_USB_Composite/COMPOSITE/Class/HID_KEYBOARD/Src/usbd_hid_keyboard.c ****         HID_KEYBOARD_CONFIG_DESC_SIZE, /* wTotalLength: Bytes returned */
 187:Middlewares/Third_Party/AL94_USB_Composite/COMPOSITE/Class/HID_KEYBOARD/Src/usbd_hid_keyboard.c ****         0x00,
 188:Middlewares/Third_Party/AL94_USB_Composite/COMPOSITE/Class/HID_KEYBOARD/Src/usbd_hid_keyboard.c ****         0x01, /* bNumInterfaces: 1 interface */
 189:Middlewares/Third_Party/AL94_USB_Composite/COMPOSITE/Class/HID_KEYBOARD/Src/usbd_hid_keyboard.c ****         0x01, /* bConfigurationValue: Configuration value */
 190:Middlewares/Third_Party/AL94_USB_Composite/COMPOSITE/Class/HID_KEYBOARD/Src/usbd_hid_keyboard.c ****         0x00, /* iConfiguration: Index of string descriptor describing the configuration */
 191:Middlewares/Third_Party/AL94_USB_Composite/COMPOSITE/Class/HID_KEYBOARD/Src/usbd_hid_keyboard.c **** #if (USBD_SELF_POWERED == 1U)
 192:Middlewares/Third_Party/AL94_USB_Composite/COMPOSITE/Class/HID_KEYBOARD/Src/usbd_hid_keyboard.c ****         0xE0, /* bmAttributes: Bus Powered according to user configuration */
 193:Middlewares/Third_Party/AL94_USB_Composite/COMPOSITE/Class/HID_KEYBOARD/Src/usbd_hid_keyboard.c **** #else
 194:Middlewares/Third_Party/AL94_USB_Composite/COMPOSITE/Class/HID_KEYBOARD/Src/usbd_hid_keyboard.c ****         0xA0, /* bmAttributes: Bus Powered according to user configuration */
 195:Middlewares/Third_Party/AL94_USB_Composite/COMPOSITE/Class/HID_KEYBOARD/Src/usbd_hid_keyboard.c **** #endif
 196:Middlewares/Third_Party/AL94_USB_Composite/COMPOSITE/Class/HID_KEYBOARD/Src/usbd_hid_keyboard.c ****         USBD_MAX_POWER, /* MaxPower 100 mA: this current is used for detecting Vbus */
 197:Middlewares/Third_Party/AL94_USB_Composite/COMPOSITE/Class/HID_KEYBOARD/Src/usbd_hid_keyboard.c **** 
 198:Middlewares/Third_Party/AL94_USB_Composite/COMPOSITE/Class/HID_KEYBOARD/Src/usbd_hid_keyboard.c ****         /************** Descriptor of Keyboard interface ****************/
 199:Middlewares/Third_Party/AL94_USB_Composite/COMPOSITE/Class/HID_KEYBOARD/Src/usbd_hid_keyboard.c ****         /* 09 */
 200:Middlewares/Third_Party/AL94_USB_Composite/COMPOSITE/Class/HID_KEYBOARD/Src/usbd_hid_keyboard.c ****         0x09,                       /* bLength: Interface Descriptor size */
 201:Middlewares/Third_Party/AL94_USB_Composite/COMPOSITE/Class/HID_KEYBOARD/Src/usbd_hid_keyboard.c ****         USB_DESC_TYPE_INTERFACE,    /* bDescriptorType: Interface descriptor type */
ARM GAS  /tmp/cckoXYmN.s 			page 5


 202:Middlewares/Third_Party/AL94_USB_Composite/COMPOSITE/Class/HID_KEYBOARD/Src/usbd_hid_keyboard.c ****         _HID_KEYBOARD_ITF_NBR,      /* bInterfaceNumber: Number of Interface */
 203:Middlewares/Third_Party/AL94_USB_Composite/COMPOSITE/Class/HID_KEYBOARD/Src/usbd_hid_keyboard.c ****         0x00,                       /* bAlternateSetting: Alternate setting */
 204:Middlewares/Third_Party/AL94_USB_Composite/COMPOSITE/Class/HID_KEYBOARD/Src/usbd_hid_keyboard.c ****         0x01,                       /* bNumEndpoints */
 205:Middlewares/Third_Party/AL94_USB_Composite/COMPOSITE/Class/HID_KEYBOARD/Src/usbd_hid_keyboard.c ****         0x03,                       /* bInterfaceClass: HID */
 206:Middlewares/Third_Party/AL94_USB_Composite/COMPOSITE/Class/HID_KEYBOARD/Src/usbd_hid_keyboard.c ****         0x01,                       /* bInterfaceSubClass : 1=BOOT, 0=no boot */
 207:Middlewares/Third_Party/AL94_USB_Composite/COMPOSITE/Class/HID_KEYBOARD/Src/usbd_hid_keyboard.c ****         0x01,                       /* nInterfaceProtocol : 0=none, 1=keyboard, 2=mouse */
 208:Middlewares/Third_Party/AL94_USB_Composite/COMPOSITE/Class/HID_KEYBOARD/Src/usbd_hid_keyboard.c ****         _HID_KEYBOARD_STR_DESC_IDX, /* iInterface: Index of string descriptor */
 209:Middlewares/Third_Party/AL94_USB_Composite/COMPOSITE/Class/HID_KEYBOARD/Src/usbd_hid_keyboard.c ****         /******************** Descriptor of Keyboard HID ********************/
 210:Middlewares/Third_Party/AL94_USB_Composite/COMPOSITE/Class/HID_KEYBOARD/Src/usbd_hid_keyboard.c ****         /* 18 */
 211:Middlewares/Third_Party/AL94_USB_Composite/COMPOSITE/Class/HID_KEYBOARD/Src/usbd_hid_keyboard.c ****         0x09,                         /* bLength: HID Descriptor size */
 212:Middlewares/Third_Party/AL94_USB_Composite/COMPOSITE/Class/HID_KEYBOARD/Src/usbd_hid_keyboard.c ****         HID_KEYBOARD_DESCRIPTOR_TYPE, /* bDescriptorType: HID */
 213:Middlewares/Third_Party/AL94_USB_Composite/COMPOSITE/Class/HID_KEYBOARD/Src/usbd_hid_keyboard.c ****         0x11,                         /* bcdHID: HID Class Spec release number */
 214:Middlewares/Third_Party/AL94_USB_Composite/COMPOSITE/Class/HID_KEYBOARD/Src/usbd_hid_keyboard.c ****         0x01,
 215:Middlewares/Third_Party/AL94_USB_Composite/COMPOSITE/Class/HID_KEYBOARD/Src/usbd_hid_keyboard.c ****         0x00,                          /* bCountryCode: Hardware target country */
 216:Middlewares/Third_Party/AL94_USB_Composite/COMPOSITE/Class/HID_KEYBOARD/Src/usbd_hid_keyboard.c ****         0x01,                          /* bNumDescriptors: Number of HID class descriptors to follo
 217:Middlewares/Third_Party/AL94_USB_Composite/COMPOSITE/Class/HID_KEYBOARD/Src/usbd_hid_keyboard.c ****         0x22,                          /* bDescriptorType */
 218:Middlewares/Third_Party/AL94_USB_Composite/COMPOSITE/Class/HID_KEYBOARD/Src/usbd_hid_keyboard.c ****         HID_KEYBOARD_REPORT_DESC_SIZE, /* wItemLength: Total length of Report descriptor */
 219:Middlewares/Third_Party/AL94_USB_Composite/COMPOSITE/Class/HID_KEYBOARD/Src/usbd_hid_keyboard.c ****         0x00,
 220:Middlewares/Third_Party/AL94_USB_Composite/COMPOSITE/Class/HID_KEYBOARD/Src/usbd_hid_keyboard.c ****         /******************** Descriptor of Keyboard endpoint ********************/
 221:Middlewares/Third_Party/AL94_USB_Composite/COMPOSITE/Class/HID_KEYBOARD/Src/usbd_hid_keyboard.c ****         /* 27 */
 222:Middlewares/Third_Party/AL94_USB_Composite/COMPOSITE/Class/HID_KEYBOARD/Src/usbd_hid_keyboard.c ****         0x07,                   /* bLength: Endpoint Descriptor size */
 223:Middlewares/Third_Party/AL94_USB_Composite/COMPOSITE/Class/HID_KEYBOARD/Src/usbd_hid_keyboard.c ****         USB_DESC_TYPE_ENDPOINT, /* bDescriptorType: */
 224:Middlewares/Third_Party/AL94_USB_Composite/COMPOSITE/Class/HID_KEYBOARD/Src/usbd_hid_keyboard.c ****         _HID_KEYBOARD_IN_EP,    /* bEndpointAddress: Endpoint Address (IN) */
 225:Middlewares/Third_Party/AL94_USB_Composite/COMPOSITE/Class/HID_KEYBOARD/Src/usbd_hid_keyboard.c ****         0x03,                   /* bmAttributes: Interrupt endpoint */
 226:Middlewares/Third_Party/AL94_USB_Composite/COMPOSITE/Class/HID_KEYBOARD/Src/usbd_hid_keyboard.c ****         HID_KEYBOARD_EPIN_SIZE, /* wMaxPacketSize: 4 Byte max */
 227:Middlewares/Third_Party/AL94_USB_Composite/COMPOSITE/Class/HID_KEYBOARD/Src/usbd_hid_keyboard.c ****         0x00,
 228:Middlewares/Third_Party/AL94_USB_Composite/COMPOSITE/Class/HID_KEYBOARD/Src/usbd_hid_keyboard.c ****         HID_KEYBOARD_HS_BINTERVAL, /* bInterval: Polling Interval */
 229:Middlewares/Third_Party/AL94_USB_Composite/COMPOSITE/Class/HID_KEYBOARD/Src/usbd_hid_keyboard.c ****                                    /* 34 */
 230:Middlewares/Third_Party/AL94_USB_Composite/COMPOSITE/Class/HID_KEYBOARD/Src/usbd_hid_keyboard.c **** };
 231:Middlewares/Third_Party/AL94_USB_Composite/COMPOSITE/Class/HID_KEYBOARD/Src/usbd_hid_keyboard.c **** 
 232:Middlewares/Third_Party/AL94_USB_Composite/COMPOSITE/Class/HID_KEYBOARD/Src/usbd_hid_keyboard.c **** /* USB HID device Configuration Descriptor */
 233:Middlewares/Third_Party/AL94_USB_Composite/COMPOSITE/Class/HID_KEYBOARD/Src/usbd_hid_keyboard.c **** __ALIGN_BEGIN static uint8_t USBD_HID_KEYBOARD_Desc[HID_KEYBOARD_DESC_SIZE] __ALIGN_END =
 234:Middlewares/Third_Party/AL94_USB_Composite/COMPOSITE/Class/HID_KEYBOARD/Src/usbd_hid_keyboard.c ****     {
 235:Middlewares/Third_Party/AL94_USB_Composite/COMPOSITE/Class/HID_KEYBOARD/Src/usbd_hid_keyboard.c ****         /* 18 */
 236:Middlewares/Third_Party/AL94_USB_Composite/COMPOSITE/Class/HID_KEYBOARD/Src/usbd_hid_keyboard.c ****         0x09,                         /* bLength: HID Descriptor size */
 237:Middlewares/Third_Party/AL94_USB_Composite/COMPOSITE/Class/HID_KEYBOARD/Src/usbd_hid_keyboard.c ****         HID_KEYBOARD_DESCRIPTOR_TYPE, /* bDescriptorType: HID */
 238:Middlewares/Third_Party/AL94_USB_Composite/COMPOSITE/Class/HID_KEYBOARD/Src/usbd_hid_keyboard.c ****         0x11,                         /* bcdHID: HID Class Spec release number */
 239:Middlewares/Third_Party/AL94_USB_Composite/COMPOSITE/Class/HID_KEYBOARD/Src/usbd_hid_keyboard.c ****         0x01,
 240:Middlewares/Third_Party/AL94_USB_Composite/COMPOSITE/Class/HID_KEYBOARD/Src/usbd_hid_keyboard.c ****         0x00,                          /* bCountryCode: Hardware target country */
 241:Middlewares/Third_Party/AL94_USB_Composite/COMPOSITE/Class/HID_KEYBOARD/Src/usbd_hid_keyboard.c ****         0x01,                          /* bNumDescriptors: Number of HID class descriptors to follo
 242:Middlewares/Third_Party/AL94_USB_Composite/COMPOSITE/Class/HID_KEYBOARD/Src/usbd_hid_keyboard.c ****         0x22,                          /* bDescriptorType */
 243:Middlewares/Third_Party/AL94_USB_Composite/COMPOSITE/Class/HID_KEYBOARD/Src/usbd_hid_keyboard.c ****         HID_KEYBOARD_REPORT_DESC_SIZE, /* wItemLength: Total length of Report descriptor */
 244:Middlewares/Third_Party/AL94_USB_Composite/COMPOSITE/Class/HID_KEYBOARD/Src/usbd_hid_keyboard.c ****         0x00,
 245:Middlewares/Third_Party/AL94_USB_Composite/COMPOSITE/Class/HID_KEYBOARD/Src/usbd_hid_keyboard.c **** };
 246:Middlewares/Third_Party/AL94_USB_Composite/COMPOSITE/Class/HID_KEYBOARD/Src/usbd_hid_keyboard.c **** 
 247:Middlewares/Third_Party/AL94_USB_Composite/COMPOSITE/Class/HID_KEYBOARD/Src/usbd_hid_keyboard.c **** /* USB Standard Device Descriptor */
 248:Middlewares/Third_Party/AL94_USB_Composite/COMPOSITE/Class/HID_KEYBOARD/Src/usbd_hid_keyboard.c **** __ALIGN_BEGIN static uint8_t USBD_HID_DeviceQualifierDesc[USB_LEN_DEV_QUALIFIER_DESC] __ALIGN_END =
 249:Middlewares/Third_Party/AL94_USB_Composite/COMPOSITE/Class/HID_KEYBOARD/Src/usbd_hid_keyboard.c ****     {
 250:Middlewares/Third_Party/AL94_USB_Composite/COMPOSITE/Class/HID_KEYBOARD/Src/usbd_hid_keyboard.c ****         USB_LEN_DEV_QUALIFIER_DESC,
 251:Middlewares/Third_Party/AL94_USB_Composite/COMPOSITE/Class/HID_KEYBOARD/Src/usbd_hid_keyboard.c ****         USB_DESC_TYPE_DEVICE_QUALIFIER,
 252:Middlewares/Third_Party/AL94_USB_Composite/COMPOSITE/Class/HID_KEYBOARD/Src/usbd_hid_keyboard.c ****         0x00,
 253:Middlewares/Third_Party/AL94_USB_Composite/COMPOSITE/Class/HID_KEYBOARD/Src/usbd_hid_keyboard.c ****         0x02,
 254:Middlewares/Third_Party/AL94_USB_Composite/COMPOSITE/Class/HID_KEYBOARD/Src/usbd_hid_keyboard.c ****         0x00,
 255:Middlewares/Third_Party/AL94_USB_Composite/COMPOSITE/Class/HID_KEYBOARD/Src/usbd_hid_keyboard.c ****         0x00,
 256:Middlewares/Third_Party/AL94_USB_Composite/COMPOSITE/Class/HID_KEYBOARD/Src/usbd_hid_keyboard.c ****         0x00,
 257:Middlewares/Third_Party/AL94_USB_Composite/COMPOSITE/Class/HID_KEYBOARD/Src/usbd_hid_keyboard.c ****         0x40,
 258:Middlewares/Third_Party/AL94_USB_Composite/COMPOSITE/Class/HID_KEYBOARD/Src/usbd_hid_keyboard.c ****         0x01,
ARM GAS  /tmp/cckoXYmN.s 			page 6


 259:Middlewares/Third_Party/AL94_USB_Composite/COMPOSITE/Class/HID_KEYBOARD/Src/usbd_hid_keyboard.c ****         0x00,
 260:Middlewares/Third_Party/AL94_USB_Composite/COMPOSITE/Class/HID_KEYBOARD/Src/usbd_hid_keyboard.c **** };
 261:Middlewares/Third_Party/AL94_USB_Composite/COMPOSITE/Class/HID_KEYBOARD/Src/usbd_hid_keyboard.c **** 
 262:Middlewares/Third_Party/AL94_USB_Composite/COMPOSITE/Class/HID_KEYBOARD/Src/usbd_hid_keyboard.c **** /*  HID keyboard report descriptor */
 263:Middlewares/Third_Party/AL94_USB_Composite/COMPOSITE/Class/HID_KEYBOARD/Src/usbd_hid_keyboard.c **** __ALIGN_BEGIN static uint8_t HID_KEYBOARD_ReportDesc[HID_KEYBOARD_REPORT_DESC_SIZE] __ALIGN_END =
 264:Middlewares/Third_Party/AL94_USB_Composite/COMPOSITE/Class/HID_KEYBOARD/Src/usbd_hid_keyboard.c ****     {
 265:Middlewares/Third_Party/AL94_USB_Composite/COMPOSITE/Class/HID_KEYBOARD/Src/usbd_hid_keyboard.c ****         0x05, 0x01,
 266:Middlewares/Third_Party/AL94_USB_Composite/COMPOSITE/Class/HID_KEYBOARD/Src/usbd_hid_keyboard.c ****         0x09, 0x06,
 267:Middlewares/Third_Party/AL94_USB_Composite/COMPOSITE/Class/HID_KEYBOARD/Src/usbd_hid_keyboard.c ****         0xA1, 0x01,
 268:Middlewares/Third_Party/AL94_USB_Composite/COMPOSITE/Class/HID_KEYBOARD/Src/usbd_hid_keyboard.c ****         0x85, 0x01,
 269:Middlewares/Third_Party/AL94_USB_Composite/COMPOSITE/Class/HID_KEYBOARD/Src/usbd_hid_keyboard.c ****         0x05, 0x07,
 270:Middlewares/Third_Party/AL94_USB_Composite/COMPOSITE/Class/HID_KEYBOARD/Src/usbd_hid_keyboard.c ****         0x19, 0xE0,
 271:Middlewares/Third_Party/AL94_USB_Composite/COMPOSITE/Class/HID_KEYBOARD/Src/usbd_hid_keyboard.c ****         0x29, 0xE7,
 272:Middlewares/Third_Party/AL94_USB_Composite/COMPOSITE/Class/HID_KEYBOARD/Src/usbd_hid_keyboard.c ****         0x15, 0x00,
 273:Middlewares/Third_Party/AL94_USB_Composite/COMPOSITE/Class/HID_KEYBOARD/Src/usbd_hid_keyboard.c ****         0x25, 0x01,
 274:Middlewares/Third_Party/AL94_USB_Composite/COMPOSITE/Class/HID_KEYBOARD/Src/usbd_hid_keyboard.c ****         0x75, 0x01,
 275:Middlewares/Third_Party/AL94_USB_Composite/COMPOSITE/Class/HID_KEYBOARD/Src/usbd_hid_keyboard.c ****         0x95, 0x08,
 276:Middlewares/Third_Party/AL94_USB_Composite/COMPOSITE/Class/HID_KEYBOARD/Src/usbd_hid_keyboard.c ****         0x81, 0x02,
 277:Middlewares/Third_Party/AL94_USB_Composite/COMPOSITE/Class/HID_KEYBOARD/Src/usbd_hid_keyboard.c ****         0x75, 0x08,
 278:Middlewares/Third_Party/AL94_USB_Composite/COMPOSITE/Class/HID_KEYBOARD/Src/usbd_hid_keyboard.c ****         0x95, 0x01,
 279:Middlewares/Third_Party/AL94_USB_Composite/COMPOSITE/Class/HID_KEYBOARD/Src/usbd_hid_keyboard.c ****         0x81, 0x01,
 280:Middlewares/Third_Party/AL94_USB_Composite/COMPOSITE/Class/HID_KEYBOARD/Src/usbd_hid_keyboard.c ****         0x05, 0x07,
 281:Middlewares/Third_Party/AL94_USB_Composite/COMPOSITE/Class/HID_KEYBOARD/Src/usbd_hid_keyboard.c ****         0x19, 0x00,
 282:Middlewares/Third_Party/AL94_USB_Composite/COMPOSITE/Class/HID_KEYBOARD/Src/usbd_hid_keyboard.c ****         0x29, 0x65,
 283:Middlewares/Third_Party/AL94_USB_Composite/COMPOSITE/Class/HID_KEYBOARD/Src/usbd_hid_keyboard.c ****         0x15, 0x00,
 284:Middlewares/Third_Party/AL94_USB_Composite/COMPOSITE/Class/HID_KEYBOARD/Src/usbd_hid_keyboard.c ****         0x25, 0x65,
 285:Middlewares/Third_Party/AL94_USB_Composite/COMPOSITE/Class/HID_KEYBOARD/Src/usbd_hid_keyboard.c ****         0x75, 0x08,
 286:Middlewares/Third_Party/AL94_USB_Composite/COMPOSITE/Class/HID_KEYBOARD/Src/usbd_hid_keyboard.c ****         0x95, 0x05,
 287:Middlewares/Third_Party/AL94_USB_Composite/COMPOSITE/Class/HID_KEYBOARD/Src/usbd_hid_keyboard.c ****         0x81, 0x00,
 288:Middlewares/Third_Party/AL94_USB_Composite/COMPOSITE/Class/HID_KEYBOARD/Src/usbd_hid_keyboard.c ****         0xC0, 0x05,
 289:Middlewares/Third_Party/AL94_USB_Composite/COMPOSITE/Class/HID_KEYBOARD/Src/usbd_hid_keyboard.c ****         0x0C, 0x09,
 290:Middlewares/Third_Party/AL94_USB_Composite/COMPOSITE/Class/HID_KEYBOARD/Src/usbd_hid_keyboard.c ****         0x01, 0xA1,
 291:Middlewares/Third_Party/AL94_USB_Composite/COMPOSITE/Class/HID_KEYBOARD/Src/usbd_hid_keyboard.c ****         0x01, 0x85,
 292:Middlewares/Third_Party/AL94_USB_Composite/COMPOSITE/Class/HID_KEYBOARD/Src/usbd_hid_keyboard.c ****         0x02, 0x19,
 293:Middlewares/Third_Party/AL94_USB_Composite/COMPOSITE/Class/HID_KEYBOARD/Src/usbd_hid_keyboard.c ****         0x00, 0x2A,
 294:Middlewares/Third_Party/AL94_USB_Composite/COMPOSITE/Class/HID_KEYBOARD/Src/usbd_hid_keyboard.c ****         0x3C, 0x02,
 295:Middlewares/Third_Party/AL94_USB_Composite/COMPOSITE/Class/HID_KEYBOARD/Src/usbd_hid_keyboard.c ****         0x15, 0x00,
 296:Middlewares/Third_Party/AL94_USB_Composite/COMPOSITE/Class/HID_KEYBOARD/Src/usbd_hid_keyboard.c ****         0x26, 0x3C,
 297:Middlewares/Third_Party/AL94_USB_Composite/COMPOSITE/Class/HID_KEYBOARD/Src/usbd_hid_keyboard.c ****         0x02, 0x95,
 298:Middlewares/Third_Party/AL94_USB_Composite/COMPOSITE/Class/HID_KEYBOARD/Src/usbd_hid_keyboard.c ****         0x01, 0x75,
 299:Middlewares/Third_Party/AL94_USB_Composite/COMPOSITE/Class/HID_KEYBOARD/Src/usbd_hid_keyboard.c ****         0x10, 0x81,
 300:Middlewares/Third_Party/AL94_USB_Composite/COMPOSITE/Class/HID_KEYBOARD/Src/usbd_hid_keyboard.c ****         0x00, 0xC0,
 301:Middlewares/Third_Party/AL94_USB_Composite/COMPOSITE/Class/HID_KEYBOARD/Src/usbd_hid_keyboard.c ****         0x05, 0x01,
 302:Middlewares/Third_Party/AL94_USB_Composite/COMPOSITE/Class/HID_KEYBOARD/Src/usbd_hid_keyboard.c ****         0x09, 0x80,
 303:Middlewares/Third_Party/AL94_USB_Composite/COMPOSITE/Class/HID_KEYBOARD/Src/usbd_hid_keyboard.c ****         0xA1, 0x01,
 304:Middlewares/Third_Party/AL94_USB_Composite/COMPOSITE/Class/HID_KEYBOARD/Src/usbd_hid_keyboard.c ****         0x85, 0x03,
 305:Middlewares/Third_Party/AL94_USB_Composite/COMPOSITE/Class/HID_KEYBOARD/Src/usbd_hid_keyboard.c ****         0x19, 0x81,
 306:Middlewares/Third_Party/AL94_USB_Composite/COMPOSITE/Class/HID_KEYBOARD/Src/usbd_hid_keyboard.c ****         0x29, 0x83,
 307:Middlewares/Third_Party/AL94_USB_Composite/COMPOSITE/Class/HID_KEYBOARD/Src/usbd_hid_keyboard.c ****         0x15, 0x00,
 308:Middlewares/Third_Party/AL94_USB_Composite/COMPOSITE/Class/HID_KEYBOARD/Src/usbd_hid_keyboard.c ****         0x25, 0x01,
 309:Middlewares/Third_Party/AL94_USB_Composite/COMPOSITE/Class/HID_KEYBOARD/Src/usbd_hid_keyboard.c ****         0x75, 0x01,
 310:Middlewares/Third_Party/AL94_USB_Composite/COMPOSITE/Class/HID_KEYBOARD/Src/usbd_hid_keyboard.c ****         0x95, 0x03,
 311:Middlewares/Third_Party/AL94_USB_Composite/COMPOSITE/Class/HID_KEYBOARD/Src/usbd_hid_keyboard.c ****         0x81, 0x02,
 312:Middlewares/Third_Party/AL94_USB_Composite/COMPOSITE/Class/HID_KEYBOARD/Src/usbd_hid_keyboard.c ****         0x95, 0x05,
 313:Middlewares/Third_Party/AL94_USB_Composite/COMPOSITE/Class/HID_KEYBOARD/Src/usbd_hid_keyboard.c ****         0x81, 0x01,
 314:Middlewares/Third_Party/AL94_USB_Composite/COMPOSITE/Class/HID_KEYBOARD/Src/usbd_hid_keyboard.c ****         0xC0, 0x06,
 315:Middlewares/Third_Party/AL94_USB_Composite/COMPOSITE/Class/HID_KEYBOARD/Src/usbd_hid_keyboard.c ****         0x01, 0xFF,
ARM GAS  /tmp/cckoXYmN.s 			page 7


 316:Middlewares/Third_Party/AL94_USB_Composite/COMPOSITE/Class/HID_KEYBOARD/Src/usbd_hid_keyboard.c ****         0x09, 0x01,
 317:Middlewares/Third_Party/AL94_USB_Composite/COMPOSITE/Class/HID_KEYBOARD/Src/usbd_hid_keyboard.c ****         0xA1, 0x01,
 318:Middlewares/Third_Party/AL94_USB_Composite/COMPOSITE/Class/HID_KEYBOARD/Src/usbd_hid_keyboard.c ****         0x85, 0x04,
 319:Middlewares/Third_Party/AL94_USB_Composite/COMPOSITE/Class/HID_KEYBOARD/Src/usbd_hid_keyboard.c ****         0x95, 0x01,
 320:Middlewares/Third_Party/AL94_USB_Composite/COMPOSITE/Class/HID_KEYBOARD/Src/usbd_hid_keyboard.c ****         0x75, 0x08,
 321:Middlewares/Third_Party/AL94_USB_Composite/COMPOSITE/Class/HID_KEYBOARD/Src/usbd_hid_keyboard.c ****         0x15, 0x01,
 322:Middlewares/Third_Party/AL94_USB_Composite/COMPOSITE/Class/HID_KEYBOARD/Src/usbd_hid_keyboard.c ****         0x25, 0x0A,
 323:Middlewares/Third_Party/AL94_USB_Composite/COMPOSITE/Class/HID_KEYBOARD/Src/usbd_hid_keyboard.c ****         0x09, 0x20,
 324:Middlewares/Third_Party/AL94_USB_Composite/COMPOSITE/Class/HID_KEYBOARD/Src/usbd_hid_keyboard.c ****         0xB1, 0x03,
 325:Middlewares/Third_Party/AL94_USB_Composite/COMPOSITE/Class/HID_KEYBOARD/Src/usbd_hid_keyboard.c ****         0x09, 0x23,
 326:Middlewares/Third_Party/AL94_USB_Composite/COMPOSITE/Class/HID_KEYBOARD/Src/usbd_hid_keyboard.c ****         0xB1, 0x03,
 327:Middlewares/Third_Party/AL94_USB_Composite/COMPOSITE/Class/HID_KEYBOARD/Src/usbd_hid_keyboard.c ****         0x25, 0x4F,
 328:Middlewares/Third_Party/AL94_USB_Composite/COMPOSITE/Class/HID_KEYBOARD/Src/usbd_hid_keyboard.c ****         0x09, 0x21,
 329:Middlewares/Third_Party/AL94_USB_Composite/COMPOSITE/Class/HID_KEYBOARD/Src/usbd_hid_keyboard.c ****         0xB1, 0x03,
 330:Middlewares/Third_Party/AL94_USB_Composite/COMPOSITE/Class/HID_KEYBOARD/Src/usbd_hid_keyboard.c ****         0x25, 0x30,
 331:Middlewares/Third_Party/AL94_USB_Composite/COMPOSITE/Class/HID_KEYBOARD/Src/usbd_hid_keyboard.c ****         0x09, 0x22,
 332:Middlewares/Third_Party/AL94_USB_Composite/COMPOSITE/Class/HID_KEYBOARD/Src/usbd_hid_keyboard.c ****         0xB1, 0x03,
 333:Middlewares/Third_Party/AL94_USB_Composite/COMPOSITE/Class/HID_KEYBOARD/Src/usbd_hid_keyboard.c ****         0x95, 0x03,
 334:Middlewares/Third_Party/AL94_USB_Composite/COMPOSITE/Class/HID_KEYBOARD/Src/usbd_hid_keyboard.c ****         0x09, 0x24,
 335:Middlewares/Third_Party/AL94_USB_Composite/COMPOSITE/Class/HID_KEYBOARD/Src/usbd_hid_keyboard.c ****         0xB1, 0x03,
 336:Middlewares/Third_Party/AL94_USB_Composite/COMPOSITE/Class/HID_KEYBOARD/Src/usbd_hid_keyboard.c ****         0xC0, 0x06,
 337:Middlewares/Third_Party/AL94_USB_Composite/COMPOSITE/Class/HID_KEYBOARD/Src/usbd_hid_keyboard.c ****         0x01, 0xFF,
 338:Middlewares/Third_Party/AL94_USB_Composite/COMPOSITE/Class/HID_KEYBOARD/Src/usbd_hid_keyboard.c ****         0x09, 0x01,
 339:Middlewares/Third_Party/AL94_USB_Composite/COMPOSITE/Class/HID_KEYBOARD/Src/usbd_hid_keyboard.c ****         0xA1, 0x01,
 340:Middlewares/Third_Party/AL94_USB_Composite/COMPOSITE/Class/HID_KEYBOARD/Src/usbd_hid_keyboard.c ****         0x85, 0x05,
 341:Middlewares/Third_Party/AL94_USB_Composite/COMPOSITE/Class/HID_KEYBOARD/Src/usbd_hid_keyboard.c ****         0x95, 0x01,
 342:Middlewares/Third_Party/AL94_USB_Composite/COMPOSITE/Class/HID_KEYBOARD/Src/usbd_hid_keyboard.c ****         0x75, 0x08,
 343:Middlewares/Third_Party/AL94_USB_Composite/COMPOSITE/Class/HID_KEYBOARD/Src/usbd_hid_keyboard.c ****         0x15, 0x01,
 344:Middlewares/Third_Party/AL94_USB_Composite/COMPOSITE/Class/HID_KEYBOARD/Src/usbd_hid_keyboard.c ****         0x25, 0x0A,
 345:Middlewares/Third_Party/AL94_USB_Composite/COMPOSITE/Class/HID_KEYBOARD/Src/usbd_hid_keyboard.c ****         0x09, 0x20,
 346:Middlewares/Third_Party/AL94_USB_Composite/COMPOSITE/Class/HID_KEYBOARD/Src/usbd_hid_keyboard.c ****         0xB1, 0x03,
 347:Middlewares/Third_Party/AL94_USB_Composite/COMPOSITE/Class/HID_KEYBOARD/Src/usbd_hid_keyboard.c ****         0x09, 0x23,
 348:Middlewares/Third_Party/AL94_USB_Composite/COMPOSITE/Class/HID_KEYBOARD/Src/usbd_hid_keyboard.c ****         0xB1, 0x03,
 349:Middlewares/Third_Party/AL94_USB_Composite/COMPOSITE/Class/HID_KEYBOARD/Src/usbd_hid_keyboard.c ****         0x25, 0x4F,
 350:Middlewares/Third_Party/AL94_USB_Composite/COMPOSITE/Class/HID_KEYBOARD/Src/usbd_hid_keyboard.c ****         0x09, 0x21,
 351:Middlewares/Third_Party/AL94_USB_Composite/COMPOSITE/Class/HID_KEYBOARD/Src/usbd_hid_keyboard.c ****         0xB1, 0x03,
 352:Middlewares/Third_Party/AL94_USB_Composite/COMPOSITE/Class/HID_KEYBOARD/Src/usbd_hid_keyboard.c ****         0x25, 0x30,
 353:Middlewares/Third_Party/AL94_USB_Composite/COMPOSITE/Class/HID_KEYBOARD/Src/usbd_hid_keyboard.c ****         0x09, 0x22,
 354:Middlewares/Third_Party/AL94_USB_Composite/COMPOSITE/Class/HID_KEYBOARD/Src/usbd_hid_keyboard.c ****         0xB1, 0x03,
 355:Middlewares/Third_Party/AL94_USB_Composite/COMPOSITE/Class/HID_KEYBOARD/Src/usbd_hid_keyboard.c ****         0x95, 0x03,
 356:Middlewares/Third_Party/AL94_USB_Composite/COMPOSITE/Class/HID_KEYBOARD/Src/usbd_hid_keyboard.c ****         0x09, 0x24,
 357:Middlewares/Third_Party/AL94_USB_Composite/COMPOSITE/Class/HID_KEYBOARD/Src/usbd_hid_keyboard.c ****         0xB1, 0x03,
 358:Middlewares/Third_Party/AL94_USB_Composite/COMPOSITE/Class/HID_KEYBOARD/Src/usbd_hid_keyboard.c ****         0xC0};
 359:Middlewares/Third_Party/AL94_USB_Composite/COMPOSITE/Class/HID_KEYBOARD/Src/usbd_hid_keyboard.c **** 
 360:Middlewares/Third_Party/AL94_USB_Composite/COMPOSITE/Class/HID_KEYBOARD/Src/usbd_hid_keyboard.c **** /**
 361:Middlewares/Third_Party/AL94_USB_Composite/COMPOSITE/Class/HID_KEYBOARD/Src/usbd_hid_keyboard.c ****   * @}
 362:Middlewares/Third_Party/AL94_USB_Composite/COMPOSITE/Class/HID_KEYBOARD/Src/usbd_hid_keyboard.c ****   */
 363:Middlewares/Third_Party/AL94_USB_Composite/COMPOSITE/Class/HID_KEYBOARD/Src/usbd_hid_keyboard.c **** 
 364:Middlewares/Third_Party/AL94_USB_Composite/COMPOSITE/Class/HID_KEYBOARD/Src/usbd_hid_keyboard.c **** /** @defgroup USBD_HID_Private_Functions
 365:Middlewares/Third_Party/AL94_USB_Composite/COMPOSITE/Class/HID_KEYBOARD/Src/usbd_hid_keyboard.c ****   * @{
 366:Middlewares/Third_Party/AL94_USB_Composite/COMPOSITE/Class/HID_KEYBOARD/Src/usbd_hid_keyboard.c ****   */
 367:Middlewares/Third_Party/AL94_USB_Composite/COMPOSITE/Class/HID_KEYBOARD/Src/usbd_hid_keyboard.c **** 
 368:Middlewares/Third_Party/AL94_USB_Composite/COMPOSITE/Class/HID_KEYBOARD/Src/usbd_hid_keyboard.c **** /**
 369:Middlewares/Third_Party/AL94_USB_Composite/COMPOSITE/Class/HID_KEYBOARD/Src/usbd_hid_keyboard.c ****   * @brief  USBD_HID_Init
 370:Middlewares/Third_Party/AL94_USB_Composite/COMPOSITE/Class/HID_KEYBOARD/Src/usbd_hid_keyboard.c ****   *         Initialize the HID interface
 371:Middlewares/Third_Party/AL94_USB_Composite/COMPOSITE/Class/HID_KEYBOARD/Src/usbd_hid_keyboard.c ****   * @param  pdev: device instance
 372:Middlewares/Third_Party/AL94_USB_Composite/COMPOSITE/Class/HID_KEYBOARD/Src/usbd_hid_keyboard.c ****   * @param  cfgidx: Configuration index
ARM GAS  /tmp/cckoXYmN.s 			page 8


 373:Middlewares/Third_Party/AL94_USB_Composite/COMPOSITE/Class/HID_KEYBOARD/Src/usbd_hid_keyboard.c ****   * @retval status
 374:Middlewares/Third_Party/AL94_USB_Composite/COMPOSITE/Class/HID_KEYBOARD/Src/usbd_hid_keyboard.c ****   */
 375:Middlewares/Third_Party/AL94_USB_Composite/COMPOSITE/Class/HID_KEYBOARD/Src/usbd_hid_keyboard.c **** static uint8_t USBD_HID_Init(USBD_HandleTypeDef *pdev, uint8_t cfgidx)
 376:Middlewares/Third_Party/AL94_USB_Composite/COMPOSITE/Class/HID_KEYBOARD/Src/usbd_hid_keyboard.c **** {
 377:Middlewares/Third_Party/AL94_USB_Composite/COMPOSITE/Class/HID_KEYBOARD/Src/usbd_hid_keyboard.c ****   UNUSED(cfgidx);
 378:Middlewares/Third_Party/AL94_USB_Composite/COMPOSITE/Class/HID_KEYBOARD/Src/usbd_hid_keyboard.c **** 
 379:Middlewares/Third_Party/AL94_USB_Composite/COMPOSITE/Class/HID_KEYBOARD/Src/usbd_hid_keyboard.c ****   USBD_HID_Keyboard_HandleTypeDef *hhid;
 380:Middlewares/Third_Party/AL94_USB_Composite/COMPOSITE/Class/HID_KEYBOARD/Src/usbd_hid_keyboard.c **** 
 381:Middlewares/Third_Party/AL94_USB_Composite/COMPOSITE/Class/HID_KEYBOARD/Src/usbd_hid_keyboard.c ****   hhid = &USBD_HID_KBD_Instace;
 382:Middlewares/Third_Party/AL94_USB_Composite/COMPOSITE/Class/HID_KEYBOARD/Src/usbd_hid_keyboard.c **** 
 383:Middlewares/Third_Party/AL94_USB_Composite/COMPOSITE/Class/HID_KEYBOARD/Src/usbd_hid_keyboard.c ****   if (hhid == NULL)
 384:Middlewares/Third_Party/AL94_USB_Composite/COMPOSITE/Class/HID_KEYBOARD/Src/usbd_hid_keyboard.c ****   {
 385:Middlewares/Third_Party/AL94_USB_Composite/COMPOSITE/Class/HID_KEYBOARD/Src/usbd_hid_keyboard.c ****     pdev->pClassData_HID_Keyboard = NULL;
 386:Middlewares/Third_Party/AL94_USB_Composite/COMPOSITE/Class/HID_KEYBOARD/Src/usbd_hid_keyboard.c ****     return (uint8_t)USBD_EMEM;
 387:Middlewares/Third_Party/AL94_USB_Composite/COMPOSITE/Class/HID_KEYBOARD/Src/usbd_hid_keyboard.c ****   }
 388:Middlewares/Third_Party/AL94_USB_Composite/COMPOSITE/Class/HID_KEYBOARD/Src/usbd_hid_keyboard.c **** 
 389:Middlewares/Third_Party/AL94_USB_Composite/COMPOSITE/Class/HID_KEYBOARD/Src/usbd_hid_keyboard.c ****   pdev->pClassData_HID_Keyboard = (void *)hhid;
 390:Middlewares/Third_Party/AL94_USB_Composite/COMPOSITE/Class/HID_KEYBOARD/Src/usbd_hid_keyboard.c **** 
 391:Middlewares/Third_Party/AL94_USB_Composite/COMPOSITE/Class/HID_KEYBOARD/Src/usbd_hid_keyboard.c ****   if (pdev->dev_speed == USBD_SPEED_HIGH)
 392:Middlewares/Third_Party/AL94_USB_Composite/COMPOSITE/Class/HID_KEYBOARD/Src/usbd_hid_keyboard.c ****   {
 393:Middlewares/Third_Party/AL94_USB_Composite/COMPOSITE/Class/HID_KEYBOARD/Src/usbd_hid_keyboard.c ****     pdev->ep_in[HID_KEYBOARD_IN_EP & 0xFU].bInterval = HID_KEYBOARD_HS_BINTERVAL;
 394:Middlewares/Third_Party/AL94_USB_Composite/COMPOSITE/Class/HID_KEYBOARD/Src/usbd_hid_keyboard.c ****   }
 395:Middlewares/Third_Party/AL94_USB_Composite/COMPOSITE/Class/HID_KEYBOARD/Src/usbd_hid_keyboard.c ****   else /* LOW and FULL-speed endpoints */
 396:Middlewares/Third_Party/AL94_USB_Composite/COMPOSITE/Class/HID_KEYBOARD/Src/usbd_hid_keyboard.c ****   {
 397:Middlewares/Third_Party/AL94_USB_Composite/COMPOSITE/Class/HID_KEYBOARD/Src/usbd_hid_keyboard.c ****     pdev->ep_in[HID_KEYBOARD_IN_EP & 0xFU].bInterval = HID_KEYBOARD_FS_BINTERVAL;
 398:Middlewares/Third_Party/AL94_USB_Composite/COMPOSITE/Class/HID_KEYBOARD/Src/usbd_hid_keyboard.c ****   }
 399:Middlewares/Third_Party/AL94_USB_Composite/COMPOSITE/Class/HID_KEYBOARD/Src/usbd_hid_keyboard.c **** 
 400:Middlewares/Third_Party/AL94_USB_Composite/COMPOSITE/Class/HID_KEYBOARD/Src/usbd_hid_keyboard.c ****   /* Open EP IN */
 401:Middlewares/Third_Party/AL94_USB_Composite/COMPOSITE/Class/HID_KEYBOARD/Src/usbd_hid_keyboard.c ****   (void)USBD_LL_OpenEP(pdev, HID_KEYBOARD_IN_EP, USBD_EP_TYPE_INTR, HID_KEYBOARD_EPIN_SIZE);
 402:Middlewares/Third_Party/AL94_USB_Composite/COMPOSITE/Class/HID_KEYBOARD/Src/usbd_hid_keyboard.c ****   pdev->ep_in[HID_KEYBOARD_IN_EP & 0xFU].is_used = 1U;
 403:Middlewares/Third_Party/AL94_USB_Composite/COMPOSITE/Class/HID_KEYBOARD/Src/usbd_hid_keyboard.c **** 
 404:Middlewares/Third_Party/AL94_USB_Composite/COMPOSITE/Class/HID_KEYBOARD/Src/usbd_hid_keyboard.c ****   hhid->state = KEYBOARD_HID_IDLE;
 405:Middlewares/Third_Party/AL94_USB_Composite/COMPOSITE/Class/HID_KEYBOARD/Src/usbd_hid_keyboard.c **** 
 406:Middlewares/Third_Party/AL94_USB_Composite/COMPOSITE/Class/HID_KEYBOARD/Src/usbd_hid_keyboard.c ****   return (uint8_t)USBD_OK;
 407:Middlewares/Third_Party/AL94_USB_Composite/COMPOSITE/Class/HID_KEYBOARD/Src/usbd_hid_keyboard.c **** }
 408:Middlewares/Third_Party/AL94_USB_Composite/COMPOSITE/Class/HID_KEYBOARD/Src/usbd_hid_keyboard.c **** 
 409:Middlewares/Third_Party/AL94_USB_Composite/COMPOSITE/Class/HID_KEYBOARD/Src/usbd_hid_keyboard.c **** /**
 410:Middlewares/Third_Party/AL94_USB_Composite/COMPOSITE/Class/HID_KEYBOARD/Src/usbd_hid_keyboard.c ****   * @brief  USBD_HID_DeInit
 411:Middlewares/Third_Party/AL94_USB_Composite/COMPOSITE/Class/HID_KEYBOARD/Src/usbd_hid_keyboard.c ****   *         DeInitialize the HID layer
 412:Middlewares/Third_Party/AL94_USB_Composite/COMPOSITE/Class/HID_KEYBOARD/Src/usbd_hid_keyboard.c ****   * @param  pdev: device instance
 413:Middlewares/Third_Party/AL94_USB_Composite/COMPOSITE/Class/HID_KEYBOARD/Src/usbd_hid_keyboard.c ****   * @param  cfgidx: Configuration index
 414:Middlewares/Third_Party/AL94_USB_Composite/COMPOSITE/Class/HID_KEYBOARD/Src/usbd_hid_keyboard.c ****   * @retval status
 415:Middlewares/Third_Party/AL94_USB_Composite/COMPOSITE/Class/HID_KEYBOARD/Src/usbd_hid_keyboard.c ****   */
 416:Middlewares/Third_Party/AL94_USB_Composite/COMPOSITE/Class/HID_KEYBOARD/Src/usbd_hid_keyboard.c **** static uint8_t USBD_HID_DeInit(USBD_HandleTypeDef *pdev, uint8_t cfgidx)
 417:Middlewares/Third_Party/AL94_USB_Composite/COMPOSITE/Class/HID_KEYBOARD/Src/usbd_hid_keyboard.c **** {
 418:Middlewares/Third_Party/AL94_USB_Composite/COMPOSITE/Class/HID_KEYBOARD/Src/usbd_hid_keyboard.c ****   UNUSED(cfgidx);
 419:Middlewares/Third_Party/AL94_USB_Composite/COMPOSITE/Class/HID_KEYBOARD/Src/usbd_hid_keyboard.c **** 
 420:Middlewares/Third_Party/AL94_USB_Composite/COMPOSITE/Class/HID_KEYBOARD/Src/usbd_hid_keyboard.c ****   /* Close HID EPs */
 421:Middlewares/Third_Party/AL94_USB_Composite/COMPOSITE/Class/HID_KEYBOARD/Src/usbd_hid_keyboard.c ****   (void)USBD_LL_CloseEP(pdev, HID_KEYBOARD_IN_EP);
 422:Middlewares/Third_Party/AL94_USB_Composite/COMPOSITE/Class/HID_KEYBOARD/Src/usbd_hid_keyboard.c ****   pdev->ep_in[HID_KEYBOARD_IN_EP & 0xFU].is_used = 0U;
 423:Middlewares/Third_Party/AL94_USB_Composite/COMPOSITE/Class/HID_KEYBOARD/Src/usbd_hid_keyboard.c ****   pdev->ep_in[HID_KEYBOARD_IN_EP & 0xFU].bInterval = 0U;
 424:Middlewares/Third_Party/AL94_USB_Composite/COMPOSITE/Class/HID_KEYBOARD/Src/usbd_hid_keyboard.c **** 
 425:Middlewares/Third_Party/AL94_USB_Composite/COMPOSITE/Class/HID_KEYBOARD/Src/usbd_hid_keyboard.c ****   /* Free allocated memory */
 426:Middlewares/Third_Party/AL94_USB_Composite/COMPOSITE/Class/HID_KEYBOARD/Src/usbd_hid_keyboard.c ****   if (pdev->pClassData_HID_Keyboard != NULL)
 427:Middlewares/Third_Party/AL94_USB_Composite/COMPOSITE/Class/HID_KEYBOARD/Src/usbd_hid_keyboard.c ****   {
 428:Middlewares/Third_Party/AL94_USB_Composite/COMPOSITE/Class/HID_KEYBOARD/Src/usbd_hid_keyboard.c **** #if (0)
 429:Middlewares/Third_Party/AL94_USB_Composite/COMPOSITE/Class/HID_KEYBOARD/Src/usbd_hid_keyboard.c ****     (void)USBD_free(pdev->pClassData_HID_Keyboard);
ARM GAS  /tmp/cckoXYmN.s 			page 9


 430:Middlewares/Third_Party/AL94_USB_Composite/COMPOSITE/Class/HID_KEYBOARD/Src/usbd_hid_keyboard.c **** #endif
 431:Middlewares/Third_Party/AL94_USB_Composite/COMPOSITE/Class/HID_KEYBOARD/Src/usbd_hid_keyboard.c ****     pdev->pClassData_HID_Keyboard = NULL;
 432:Middlewares/Third_Party/AL94_USB_Composite/COMPOSITE/Class/HID_KEYBOARD/Src/usbd_hid_keyboard.c ****   }
 433:Middlewares/Third_Party/AL94_USB_Composite/COMPOSITE/Class/HID_KEYBOARD/Src/usbd_hid_keyboard.c **** 
 434:Middlewares/Third_Party/AL94_USB_Composite/COMPOSITE/Class/HID_KEYBOARD/Src/usbd_hid_keyboard.c ****   return (uint8_t)USBD_OK;
 435:Middlewares/Third_Party/AL94_USB_Composite/COMPOSITE/Class/HID_KEYBOARD/Src/usbd_hid_keyboard.c **** }
 436:Middlewares/Third_Party/AL94_USB_Composite/COMPOSITE/Class/HID_KEYBOARD/Src/usbd_hid_keyboard.c **** 
 437:Middlewares/Third_Party/AL94_USB_Composite/COMPOSITE/Class/HID_KEYBOARD/Src/usbd_hid_keyboard.c **** /**
 438:Middlewares/Third_Party/AL94_USB_Composite/COMPOSITE/Class/HID_KEYBOARD/Src/usbd_hid_keyboard.c ****   * @brief  USBD_HID_Setup
 439:Middlewares/Third_Party/AL94_USB_Composite/COMPOSITE/Class/HID_KEYBOARD/Src/usbd_hid_keyboard.c ****   *         Handle the HID specific requests
 440:Middlewares/Third_Party/AL94_USB_Composite/COMPOSITE/Class/HID_KEYBOARD/Src/usbd_hid_keyboard.c ****   * @param  pdev: instance
 441:Middlewares/Third_Party/AL94_USB_Composite/COMPOSITE/Class/HID_KEYBOARD/Src/usbd_hid_keyboard.c ****   * @param  req: usb requests
 442:Middlewares/Third_Party/AL94_USB_Composite/COMPOSITE/Class/HID_KEYBOARD/Src/usbd_hid_keyboard.c ****   * @retval status
 443:Middlewares/Third_Party/AL94_USB_Composite/COMPOSITE/Class/HID_KEYBOARD/Src/usbd_hid_keyboard.c ****   */
 444:Middlewares/Third_Party/AL94_USB_Composite/COMPOSITE/Class/HID_KEYBOARD/Src/usbd_hid_keyboard.c **** static uint8_t USBD_HID_Setup(USBD_HandleTypeDef *pdev, USBD_SetupReqTypedef *req)
 445:Middlewares/Third_Party/AL94_USB_Composite/COMPOSITE/Class/HID_KEYBOARD/Src/usbd_hid_keyboard.c **** {
 446:Middlewares/Third_Party/AL94_USB_Composite/COMPOSITE/Class/HID_KEYBOARD/Src/usbd_hid_keyboard.c ****   USBD_HID_Keyboard_HandleTypeDef *hhid = (USBD_HID_Keyboard_HandleTypeDef *)pdev->pClassData_HID_K
 447:Middlewares/Third_Party/AL94_USB_Composite/COMPOSITE/Class/HID_KEYBOARD/Src/usbd_hid_keyboard.c ****   USBD_StatusTypeDef ret = USBD_OK;
 448:Middlewares/Third_Party/AL94_USB_Composite/COMPOSITE/Class/HID_KEYBOARD/Src/usbd_hid_keyboard.c ****   uint16_t len;
 449:Middlewares/Third_Party/AL94_USB_Composite/COMPOSITE/Class/HID_KEYBOARD/Src/usbd_hid_keyboard.c ****   uint8_t *pbuf;
 450:Middlewares/Third_Party/AL94_USB_Composite/COMPOSITE/Class/HID_KEYBOARD/Src/usbd_hid_keyboard.c ****   uint16_t status_info = 0U;
 451:Middlewares/Third_Party/AL94_USB_Composite/COMPOSITE/Class/HID_KEYBOARD/Src/usbd_hid_keyboard.c **** 
 452:Middlewares/Third_Party/AL94_USB_Composite/COMPOSITE/Class/HID_KEYBOARD/Src/usbd_hid_keyboard.c ****   if (hhid == NULL)
 453:Middlewares/Third_Party/AL94_USB_Composite/COMPOSITE/Class/HID_KEYBOARD/Src/usbd_hid_keyboard.c ****   {
 454:Middlewares/Third_Party/AL94_USB_Composite/COMPOSITE/Class/HID_KEYBOARD/Src/usbd_hid_keyboard.c ****     return (uint8_t)USBD_FAIL;
 455:Middlewares/Third_Party/AL94_USB_Composite/COMPOSITE/Class/HID_KEYBOARD/Src/usbd_hid_keyboard.c ****   }
 456:Middlewares/Third_Party/AL94_USB_Composite/COMPOSITE/Class/HID_KEYBOARD/Src/usbd_hid_keyboard.c **** 
 457:Middlewares/Third_Party/AL94_USB_Composite/COMPOSITE/Class/HID_KEYBOARD/Src/usbd_hid_keyboard.c ****   switch (req->bmRequest & USB_REQ_TYPE_MASK)
 458:Middlewares/Third_Party/AL94_USB_Composite/COMPOSITE/Class/HID_KEYBOARD/Src/usbd_hid_keyboard.c ****   {
 459:Middlewares/Third_Party/AL94_USB_Composite/COMPOSITE/Class/HID_KEYBOARD/Src/usbd_hid_keyboard.c ****   case USB_REQ_TYPE_CLASS:
 460:Middlewares/Third_Party/AL94_USB_Composite/COMPOSITE/Class/HID_KEYBOARD/Src/usbd_hid_keyboard.c ****     switch (req->bRequest)
 461:Middlewares/Third_Party/AL94_USB_Composite/COMPOSITE/Class/HID_KEYBOARD/Src/usbd_hid_keyboard.c ****     {
 462:Middlewares/Third_Party/AL94_USB_Composite/COMPOSITE/Class/HID_KEYBOARD/Src/usbd_hid_keyboard.c ****     case HID_KEYBOARD_REQ_SET_PROTOCOL:
 463:Middlewares/Third_Party/AL94_USB_Composite/COMPOSITE/Class/HID_KEYBOARD/Src/usbd_hid_keyboard.c ****       hhid->Protocol = (uint8_t)(req->wValue);
 464:Middlewares/Third_Party/AL94_USB_Composite/COMPOSITE/Class/HID_KEYBOARD/Src/usbd_hid_keyboard.c ****       break;
 465:Middlewares/Third_Party/AL94_USB_Composite/COMPOSITE/Class/HID_KEYBOARD/Src/usbd_hid_keyboard.c **** 
 466:Middlewares/Third_Party/AL94_USB_Composite/COMPOSITE/Class/HID_KEYBOARD/Src/usbd_hid_keyboard.c ****     case HID_KEYBOARD_REQ_GET_PROTOCOL:
 467:Middlewares/Third_Party/AL94_USB_Composite/COMPOSITE/Class/HID_KEYBOARD/Src/usbd_hid_keyboard.c ****       (void)USBD_CtlSendData(pdev, (uint8_t *)&hhid->Protocol, 1U);
 468:Middlewares/Third_Party/AL94_USB_Composite/COMPOSITE/Class/HID_KEYBOARD/Src/usbd_hid_keyboard.c ****       break;
 469:Middlewares/Third_Party/AL94_USB_Composite/COMPOSITE/Class/HID_KEYBOARD/Src/usbd_hid_keyboard.c **** 
 470:Middlewares/Third_Party/AL94_USB_Composite/COMPOSITE/Class/HID_KEYBOARD/Src/usbd_hid_keyboard.c ****     case HID_KEYBOARD_REQ_SET_IDLE:
 471:Middlewares/Third_Party/AL94_USB_Composite/COMPOSITE/Class/HID_KEYBOARD/Src/usbd_hid_keyboard.c ****       hhid->IdleState = (uint8_t)(req->wValue >> 8);
 472:Middlewares/Third_Party/AL94_USB_Composite/COMPOSITE/Class/HID_KEYBOARD/Src/usbd_hid_keyboard.c ****       break;
 473:Middlewares/Third_Party/AL94_USB_Composite/COMPOSITE/Class/HID_KEYBOARD/Src/usbd_hid_keyboard.c **** 
 474:Middlewares/Third_Party/AL94_USB_Composite/COMPOSITE/Class/HID_KEYBOARD/Src/usbd_hid_keyboard.c ****     case HID_KEYBOARD_REQ_GET_IDLE:
 475:Middlewares/Third_Party/AL94_USB_Composite/COMPOSITE/Class/HID_KEYBOARD/Src/usbd_hid_keyboard.c ****       (void)USBD_CtlSendData(pdev, (uint8_t *)&hhid->IdleState, 1U);
 476:Middlewares/Third_Party/AL94_USB_Composite/COMPOSITE/Class/HID_KEYBOARD/Src/usbd_hid_keyboard.c ****       break;
 477:Middlewares/Third_Party/AL94_USB_Composite/COMPOSITE/Class/HID_KEYBOARD/Src/usbd_hid_keyboard.c **** 
 478:Middlewares/Third_Party/AL94_USB_Composite/COMPOSITE/Class/HID_KEYBOARD/Src/usbd_hid_keyboard.c ****     default:
 479:Middlewares/Third_Party/AL94_USB_Composite/COMPOSITE/Class/HID_KEYBOARD/Src/usbd_hid_keyboard.c ****       USBD_CtlError(pdev, req);
 480:Middlewares/Third_Party/AL94_USB_Composite/COMPOSITE/Class/HID_KEYBOARD/Src/usbd_hid_keyboard.c ****       ret = USBD_FAIL;
 481:Middlewares/Third_Party/AL94_USB_Composite/COMPOSITE/Class/HID_KEYBOARD/Src/usbd_hid_keyboard.c ****       break;
 482:Middlewares/Third_Party/AL94_USB_Composite/COMPOSITE/Class/HID_KEYBOARD/Src/usbd_hid_keyboard.c ****     }
 483:Middlewares/Third_Party/AL94_USB_Composite/COMPOSITE/Class/HID_KEYBOARD/Src/usbd_hid_keyboard.c ****     break;
 484:Middlewares/Third_Party/AL94_USB_Composite/COMPOSITE/Class/HID_KEYBOARD/Src/usbd_hid_keyboard.c ****   case USB_REQ_TYPE_STANDARD:
 485:Middlewares/Third_Party/AL94_USB_Composite/COMPOSITE/Class/HID_KEYBOARD/Src/usbd_hid_keyboard.c ****     switch (req->bRequest)
 486:Middlewares/Third_Party/AL94_USB_Composite/COMPOSITE/Class/HID_KEYBOARD/Src/usbd_hid_keyboard.c ****     {
ARM GAS  /tmp/cckoXYmN.s 			page 10


 487:Middlewares/Third_Party/AL94_USB_Composite/COMPOSITE/Class/HID_KEYBOARD/Src/usbd_hid_keyboard.c ****     case USB_REQ_GET_STATUS:
 488:Middlewares/Third_Party/AL94_USB_Composite/COMPOSITE/Class/HID_KEYBOARD/Src/usbd_hid_keyboard.c ****       if (pdev->dev_state == USBD_STATE_CONFIGURED)
 489:Middlewares/Third_Party/AL94_USB_Composite/COMPOSITE/Class/HID_KEYBOARD/Src/usbd_hid_keyboard.c ****       {
 490:Middlewares/Third_Party/AL94_USB_Composite/COMPOSITE/Class/HID_KEYBOARD/Src/usbd_hid_keyboard.c ****         (void)USBD_CtlSendData(pdev, (uint8_t *)&status_info, 2U);
 491:Middlewares/Third_Party/AL94_USB_Composite/COMPOSITE/Class/HID_KEYBOARD/Src/usbd_hid_keyboard.c ****       }
 492:Middlewares/Third_Party/AL94_USB_Composite/COMPOSITE/Class/HID_KEYBOARD/Src/usbd_hid_keyboard.c ****       else
 493:Middlewares/Third_Party/AL94_USB_Composite/COMPOSITE/Class/HID_KEYBOARD/Src/usbd_hid_keyboard.c ****       {
 494:Middlewares/Third_Party/AL94_USB_Composite/COMPOSITE/Class/HID_KEYBOARD/Src/usbd_hid_keyboard.c ****         USBD_CtlError(pdev, req);
 495:Middlewares/Third_Party/AL94_USB_Composite/COMPOSITE/Class/HID_KEYBOARD/Src/usbd_hid_keyboard.c ****         ret = USBD_FAIL;
 496:Middlewares/Third_Party/AL94_USB_Composite/COMPOSITE/Class/HID_KEYBOARD/Src/usbd_hid_keyboard.c ****       }
 497:Middlewares/Third_Party/AL94_USB_Composite/COMPOSITE/Class/HID_KEYBOARD/Src/usbd_hid_keyboard.c ****       break;
 498:Middlewares/Third_Party/AL94_USB_Composite/COMPOSITE/Class/HID_KEYBOARD/Src/usbd_hid_keyboard.c **** 
 499:Middlewares/Third_Party/AL94_USB_Composite/COMPOSITE/Class/HID_KEYBOARD/Src/usbd_hid_keyboard.c ****     case USB_REQ_GET_DESCRIPTOR:
 500:Middlewares/Third_Party/AL94_USB_Composite/COMPOSITE/Class/HID_KEYBOARD/Src/usbd_hid_keyboard.c ****       if ((req->wValue >> 8) == HID_KEYBOARD_REPORT_DESC)
 501:Middlewares/Third_Party/AL94_USB_Composite/COMPOSITE/Class/HID_KEYBOARD/Src/usbd_hid_keyboard.c ****       {
 502:Middlewares/Third_Party/AL94_USB_Composite/COMPOSITE/Class/HID_KEYBOARD/Src/usbd_hid_keyboard.c ****         len = MIN(HID_KEYBOARD_REPORT_DESC_SIZE, req->wLength);
 503:Middlewares/Third_Party/AL94_USB_Composite/COMPOSITE/Class/HID_KEYBOARD/Src/usbd_hid_keyboard.c ****         pbuf = HID_KEYBOARD_ReportDesc;
 504:Middlewares/Third_Party/AL94_USB_Composite/COMPOSITE/Class/HID_KEYBOARD/Src/usbd_hid_keyboard.c ****       }
 505:Middlewares/Third_Party/AL94_USB_Composite/COMPOSITE/Class/HID_KEYBOARD/Src/usbd_hid_keyboard.c ****       else if ((req->wValue >> 8) == HID_KEYBOARD_DESCRIPTOR_TYPE)
 506:Middlewares/Third_Party/AL94_USB_Composite/COMPOSITE/Class/HID_KEYBOARD/Src/usbd_hid_keyboard.c ****       {
 507:Middlewares/Third_Party/AL94_USB_Composite/COMPOSITE/Class/HID_KEYBOARD/Src/usbd_hid_keyboard.c ****         pbuf = USBD_HID_KEYBOARD_Desc;
 508:Middlewares/Third_Party/AL94_USB_Composite/COMPOSITE/Class/HID_KEYBOARD/Src/usbd_hid_keyboard.c ****         len = MIN(HID_KEYBOARD_DESC_SIZE, req->wLength);
 509:Middlewares/Third_Party/AL94_USB_Composite/COMPOSITE/Class/HID_KEYBOARD/Src/usbd_hid_keyboard.c ****       }
 510:Middlewares/Third_Party/AL94_USB_Composite/COMPOSITE/Class/HID_KEYBOARD/Src/usbd_hid_keyboard.c ****       else
 511:Middlewares/Third_Party/AL94_USB_Composite/COMPOSITE/Class/HID_KEYBOARD/Src/usbd_hid_keyboard.c ****       {
 512:Middlewares/Third_Party/AL94_USB_Composite/COMPOSITE/Class/HID_KEYBOARD/Src/usbd_hid_keyboard.c ****         USBD_CtlError(pdev, req);
 513:Middlewares/Third_Party/AL94_USB_Composite/COMPOSITE/Class/HID_KEYBOARD/Src/usbd_hid_keyboard.c ****         ret = USBD_FAIL;
 514:Middlewares/Third_Party/AL94_USB_Composite/COMPOSITE/Class/HID_KEYBOARD/Src/usbd_hid_keyboard.c ****         break;
 515:Middlewares/Third_Party/AL94_USB_Composite/COMPOSITE/Class/HID_KEYBOARD/Src/usbd_hid_keyboard.c ****       }
 516:Middlewares/Third_Party/AL94_USB_Composite/COMPOSITE/Class/HID_KEYBOARD/Src/usbd_hid_keyboard.c ****       (void)USBD_CtlSendData(pdev, pbuf, len);
 517:Middlewares/Third_Party/AL94_USB_Composite/COMPOSITE/Class/HID_KEYBOARD/Src/usbd_hid_keyboard.c ****       break;
 518:Middlewares/Third_Party/AL94_USB_Composite/COMPOSITE/Class/HID_KEYBOARD/Src/usbd_hid_keyboard.c **** 
 519:Middlewares/Third_Party/AL94_USB_Composite/COMPOSITE/Class/HID_KEYBOARD/Src/usbd_hid_keyboard.c ****     case USB_REQ_GET_INTERFACE:
 520:Middlewares/Third_Party/AL94_USB_Composite/COMPOSITE/Class/HID_KEYBOARD/Src/usbd_hid_keyboard.c ****       if (pdev->dev_state == USBD_STATE_CONFIGURED)
 521:Middlewares/Third_Party/AL94_USB_Composite/COMPOSITE/Class/HID_KEYBOARD/Src/usbd_hid_keyboard.c ****       {
 522:Middlewares/Third_Party/AL94_USB_Composite/COMPOSITE/Class/HID_KEYBOARD/Src/usbd_hid_keyboard.c ****         (void)USBD_CtlSendData(pdev, (uint8_t *)&hhid->AltSetting, 1U);
 523:Middlewares/Third_Party/AL94_USB_Composite/COMPOSITE/Class/HID_KEYBOARD/Src/usbd_hid_keyboard.c ****       }
 524:Middlewares/Third_Party/AL94_USB_Composite/COMPOSITE/Class/HID_KEYBOARD/Src/usbd_hid_keyboard.c ****       else
 525:Middlewares/Third_Party/AL94_USB_Composite/COMPOSITE/Class/HID_KEYBOARD/Src/usbd_hid_keyboard.c ****       {
 526:Middlewares/Third_Party/AL94_USB_Composite/COMPOSITE/Class/HID_KEYBOARD/Src/usbd_hid_keyboard.c ****         USBD_CtlError(pdev, req);
 527:Middlewares/Third_Party/AL94_USB_Composite/COMPOSITE/Class/HID_KEYBOARD/Src/usbd_hid_keyboard.c ****         ret = USBD_FAIL;
 528:Middlewares/Third_Party/AL94_USB_Composite/COMPOSITE/Class/HID_KEYBOARD/Src/usbd_hid_keyboard.c ****       }
 529:Middlewares/Third_Party/AL94_USB_Composite/COMPOSITE/Class/HID_KEYBOARD/Src/usbd_hid_keyboard.c ****       break;
 530:Middlewares/Third_Party/AL94_USB_Composite/COMPOSITE/Class/HID_KEYBOARD/Src/usbd_hid_keyboard.c **** 
 531:Middlewares/Third_Party/AL94_USB_Composite/COMPOSITE/Class/HID_KEYBOARD/Src/usbd_hid_keyboard.c ****     case USB_REQ_SET_INTERFACE:
 532:Middlewares/Third_Party/AL94_USB_Composite/COMPOSITE/Class/HID_KEYBOARD/Src/usbd_hid_keyboard.c ****       if (pdev->dev_state == USBD_STATE_CONFIGURED)
 533:Middlewares/Third_Party/AL94_USB_Composite/COMPOSITE/Class/HID_KEYBOARD/Src/usbd_hid_keyboard.c ****       {
 534:Middlewares/Third_Party/AL94_USB_Composite/COMPOSITE/Class/HID_KEYBOARD/Src/usbd_hid_keyboard.c ****         hhid->AltSetting = (uint8_t)(req->wValue);
 535:Middlewares/Third_Party/AL94_USB_Composite/COMPOSITE/Class/HID_KEYBOARD/Src/usbd_hid_keyboard.c ****       }
 536:Middlewares/Third_Party/AL94_USB_Composite/COMPOSITE/Class/HID_KEYBOARD/Src/usbd_hid_keyboard.c ****       else
 537:Middlewares/Third_Party/AL94_USB_Composite/COMPOSITE/Class/HID_KEYBOARD/Src/usbd_hid_keyboard.c ****       {
 538:Middlewares/Third_Party/AL94_USB_Composite/COMPOSITE/Class/HID_KEYBOARD/Src/usbd_hid_keyboard.c ****         USBD_CtlError(pdev, req);
 539:Middlewares/Third_Party/AL94_USB_Composite/COMPOSITE/Class/HID_KEYBOARD/Src/usbd_hid_keyboard.c ****         ret = USBD_FAIL;
 540:Middlewares/Third_Party/AL94_USB_Composite/COMPOSITE/Class/HID_KEYBOARD/Src/usbd_hid_keyboard.c ****       }
 541:Middlewares/Third_Party/AL94_USB_Composite/COMPOSITE/Class/HID_KEYBOARD/Src/usbd_hid_keyboard.c ****       break;
 542:Middlewares/Third_Party/AL94_USB_Composite/COMPOSITE/Class/HID_KEYBOARD/Src/usbd_hid_keyboard.c **** 
 543:Middlewares/Third_Party/AL94_USB_Composite/COMPOSITE/Class/HID_KEYBOARD/Src/usbd_hid_keyboard.c ****     case USB_REQ_CLEAR_FEATURE:
ARM GAS  /tmp/cckoXYmN.s 			page 11


 544:Middlewares/Third_Party/AL94_USB_Composite/COMPOSITE/Class/HID_KEYBOARD/Src/usbd_hid_keyboard.c ****       break;
 545:Middlewares/Third_Party/AL94_USB_Composite/COMPOSITE/Class/HID_KEYBOARD/Src/usbd_hid_keyboard.c **** 
 546:Middlewares/Third_Party/AL94_USB_Composite/COMPOSITE/Class/HID_KEYBOARD/Src/usbd_hid_keyboard.c ****     default:
 547:Middlewares/Third_Party/AL94_USB_Composite/COMPOSITE/Class/HID_KEYBOARD/Src/usbd_hid_keyboard.c ****       USBD_CtlError(pdev, req);
 548:Middlewares/Third_Party/AL94_USB_Composite/COMPOSITE/Class/HID_KEYBOARD/Src/usbd_hid_keyboard.c ****       ret = USBD_FAIL;
 549:Middlewares/Third_Party/AL94_USB_Composite/COMPOSITE/Class/HID_KEYBOARD/Src/usbd_hid_keyboard.c ****       break;
 550:Middlewares/Third_Party/AL94_USB_Composite/COMPOSITE/Class/HID_KEYBOARD/Src/usbd_hid_keyboard.c ****     }
 551:Middlewares/Third_Party/AL94_USB_Composite/COMPOSITE/Class/HID_KEYBOARD/Src/usbd_hid_keyboard.c ****     break;
 552:Middlewares/Third_Party/AL94_USB_Composite/COMPOSITE/Class/HID_KEYBOARD/Src/usbd_hid_keyboard.c **** 
 553:Middlewares/Third_Party/AL94_USB_Composite/COMPOSITE/Class/HID_KEYBOARD/Src/usbd_hid_keyboard.c ****   default:
 554:Middlewares/Third_Party/AL94_USB_Composite/COMPOSITE/Class/HID_KEYBOARD/Src/usbd_hid_keyboard.c ****     USBD_CtlError(pdev, req);
 555:Middlewares/Third_Party/AL94_USB_Composite/COMPOSITE/Class/HID_KEYBOARD/Src/usbd_hid_keyboard.c ****     ret = USBD_FAIL;
 556:Middlewares/Third_Party/AL94_USB_Composite/COMPOSITE/Class/HID_KEYBOARD/Src/usbd_hid_keyboard.c ****     break;
 557:Middlewares/Third_Party/AL94_USB_Composite/COMPOSITE/Class/HID_KEYBOARD/Src/usbd_hid_keyboard.c ****   }
 558:Middlewares/Third_Party/AL94_USB_Composite/COMPOSITE/Class/HID_KEYBOARD/Src/usbd_hid_keyboard.c **** 
 559:Middlewares/Third_Party/AL94_USB_Composite/COMPOSITE/Class/HID_KEYBOARD/Src/usbd_hid_keyboard.c ****   return (uint8_t)ret;
 560:Middlewares/Third_Party/AL94_USB_Composite/COMPOSITE/Class/HID_KEYBOARD/Src/usbd_hid_keyboard.c **** }
 561:Middlewares/Third_Party/AL94_USB_Composite/COMPOSITE/Class/HID_KEYBOARD/Src/usbd_hid_keyboard.c **** 
 562:Middlewares/Third_Party/AL94_USB_Composite/COMPOSITE/Class/HID_KEYBOARD/Src/usbd_hid_keyboard.c **** /**
 563:Middlewares/Third_Party/AL94_USB_Composite/COMPOSITE/Class/HID_KEYBOARD/Src/usbd_hid_keyboard.c ****   * @brief  USBD_HID_GetCfgFSDesc
 564:Middlewares/Third_Party/AL94_USB_Composite/COMPOSITE/Class/HID_KEYBOARD/Src/usbd_hid_keyboard.c ****   *         return FS configuration descriptor
 565:Middlewares/Third_Party/AL94_USB_Composite/COMPOSITE/Class/HID_KEYBOARD/Src/usbd_hid_keyboard.c ****   * @param  speed : current device speed
 566:Middlewares/Third_Party/AL94_USB_Composite/COMPOSITE/Class/HID_KEYBOARD/Src/usbd_hid_keyboard.c ****   * @param  length : pointer data length
 567:Middlewares/Third_Party/AL94_USB_Composite/COMPOSITE/Class/HID_KEYBOARD/Src/usbd_hid_keyboard.c ****   * @retval pointer to descriptor buffer
 568:Middlewares/Third_Party/AL94_USB_Composite/COMPOSITE/Class/HID_KEYBOARD/Src/usbd_hid_keyboard.c ****   */
 569:Middlewares/Third_Party/AL94_USB_Composite/COMPOSITE/Class/HID_KEYBOARD/Src/usbd_hid_keyboard.c **** static uint8_t *USBD_HID_GetFSCfgDesc(uint16_t *length)
 570:Middlewares/Third_Party/AL94_USB_Composite/COMPOSITE/Class/HID_KEYBOARD/Src/usbd_hid_keyboard.c **** {
  29              		.loc 1 570 1 view -0
  30              		.cfi_startproc
  31              		@ args = 0, pretend = 0, frame = 0
  32              		@ frame_needed = 0, uses_anonymous_args = 0
  33              		@ link register save eliminated.
 571:Middlewares/Third_Party/AL94_USB_Composite/COMPOSITE/Class/HID_KEYBOARD/Src/usbd_hid_keyboard.c ****   *length = (uint16_t)sizeof(USBD_HID_KEYBOARD_CfgFSDesc);
  34              		.loc 1 571 3 view .LVU1
  35              		.loc 1 571 11 is_stmt 0 view .LVU2
  36 0000 2223     		movs	r3, #34
  37 0002 0380     		strh	r3, [r0]	@ movhi
 572:Middlewares/Third_Party/AL94_USB_Composite/COMPOSITE/Class/HID_KEYBOARD/Src/usbd_hid_keyboard.c **** 
 573:Middlewares/Third_Party/AL94_USB_Composite/COMPOSITE/Class/HID_KEYBOARD/Src/usbd_hid_keyboard.c ****   return USBD_HID_KEYBOARD_CfgFSDesc;
  38              		.loc 1 573 3 is_stmt 1 view .LVU3
 574:Middlewares/Third_Party/AL94_USB_Composite/COMPOSITE/Class/HID_KEYBOARD/Src/usbd_hid_keyboard.c **** }
  39              		.loc 1 574 1 is_stmt 0 view .LVU4
  40 0004 0048     		ldr	r0, .L2
  41              	.LVL1:
  42              		.loc 1 574 1 view .LVU5
  43 0006 7047     		bx	lr
  44              	.L3:
  45              		.align	2
  46              	.L2:
  47 0008 00000000 		.word	USBD_HID_KEYBOARD_CfgFSDesc
  48              		.cfi_endproc
  49              	.LFE148:
  51              		.section	.text.USBD_HID_GetHSCfgDesc,"ax",%progbits
  52              		.align	1
  53              		.syntax unified
  54              		.thumb
  55              		.thumb_func
ARM GAS  /tmp/cckoXYmN.s 			page 12


  57              	USBD_HID_GetHSCfgDesc:
  58              	.LVL2:
  59              	.LFB149:
 575:Middlewares/Third_Party/AL94_USB_Composite/COMPOSITE/Class/HID_KEYBOARD/Src/usbd_hid_keyboard.c **** 
 576:Middlewares/Third_Party/AL94_USB_Composite/COMPOSITE/Class/HID_KEYBOARD/Src/usbd_hid_keyboard.c **** /**
 577:Middlewares/Third_Party/AL94_USB_Composite/COMPOSITE/Class/HID_KEYBOARD/Src/usbd_hid_keyboard.c ****   * @brief  USBD_HID_GetCfgHSDesc
 578:Middlewares/Third_Party/AL94_USB_Composite/COMPOSITE/Class/HID_KEYBOARD/Src/usbd_hid_keyboard.c ****   *         return HS configuration descriptor
 579:Middlewares/Third_Party/AL94_USB_Composite/COMPOSITE/Class/HID_KEYBOARD/Src/usbd_hid_keyboard.c ****   * @param  speed : current device speed
 580:Middlewares/Third_Party/AL94_USB_Composite/COMPOSITE/Class/HID_KEYBOARD/Src/usbd_hid_keyboard.c ****   * @param  length : pointer data length
 581:Middlewares/Third_Party/AL94_USB_Composite/COMPOSITE/Class/HID_KEYBOARD/Src/usbd_hid_keyboard.c ****   * @retval pointer to descriptor buffer
 582:Middlewares/Third_Party/AL94_USB_Composite/COMPOSITE/Class/HID_KEYBOARD/Src/usbd_hid_keyboard.c ****   */
 583:Middlewares/Third_Party/AL94_USB_Composite/COMPOSITE/Class/HID_KEYBOARD/Src/usbd_hid_keyboard.c **** static uint8_t *USBD_HID_GetHSCfgDesc(uint16_t *length)
 584:Middlewares/Third_Party/AL94_USB_Composite/COMPOSITE/Class/HID_KEYBOARD/Src/usbd_hid_keyboard.c **** {
  60              		.loc 1 584 1 is_stmt 1 view -0
  61              		.cfi_startproc
  62              		@ args = 0, pretend = 0, frame = 0
  63              		@ frame_needed = 0, uses_anonymous_args = 0
  64              		@ link register save eliminated.
 585:Middlewares/Third_Party/AL94_USB_Composite/COMPOSITE/Class/HID_KEYBOARD/Src/usbd_hid_keyboard.c ****   *length = (uint16_t)sizeof(USBD_HID_KEYBOARD_CfgHSDesc);
  65              		.loc 1 585 3 view .LVU7
  66              		.loc 1 585 11 is_stmt 0 view .LVU8
  67 0000 2223     		movs	r3, #34
  68 0002 0380     		strh	r3, [r0]	@ movhi
 586:Middlewares/Third_Party/AL94_USB_Composite/COMPOSITE/Class/HID_KEYBOARD/Src/usbd_hid_keyboard.c **** 
 587:Middlewares/Third_Party/AL94_USB_Composite/COMPOSITE/Class/HID_KEYBOARD/Src/usbd_hid_keyboard.c ****   return USBD_HID_KEYBOARD_CfgHSDesc;
  69              		.loc 1 587 3 is_stmt 1 view .LVU9
 588:Middlewares/Third_Party/AL94_USB_Composite/COMPOSITE/Class/HID_KEYBOARD/Src/usbd_hid_keyboard.c **** }
  70              		.loc 1 588 1 is_stmt 0 view .LVU10
  71 0004 0048     		ldr	r0, .L5
  72              	.LVL3:
  73              		.loc 1 588 1 view .LVU11
  74 0006 7047     		bx	lr
  75              	.L6:
  76              		.align	2
  77              	.L5:
  78 0008 00000000 		.word	USBD_HID_KEYBOARD_CfgHSDesc
  79              		.cfi_endproc
  80              	.LFE149:
  82              		.section	.text.USBD_HID_GetOtherSpeedCfgDesc,"ax",%progbits
  83              		.align	1
  84              		.syntax unified
  85              		.thumb
  86              		.thumb_func
  88              	USBD_HID_GetOtherSpeedCfgDesc:
  89              	.LVL4:
  90              	.LFB150:
 589:Middlewares/Third_Party/AL94_USB_Composite/COMPOSITE/Class/HID_KEYBOARD/Src/usbd_hid_keyboard.c **** 
 590:Middlewares/Third_Party/AL94_USB_Composite/COMPOSITE/Class/HID_KEYBOARD/Src/usbd_hid_keyboard.c **** /**
 591:Middlewares/Third_Party/AL94_USB_Composite/COMPOSITE/Class/HID_KEYBOARD/Src/usbd_hid_keyboard.c ****   * @brief  USBD_HID_GetOtherSpeedCfgDesc
 592:Middlewares/Third_Party/AL94_USB_Composite/COMPOSITE/Class/HID_KEYBOARD/Src/usbd_hid_keyboard.c ****   *         return other speed configuration descriptor
 593:Middlewares/Third_Party/AL94_USB_Composite/COMPOSITE/Class/HID_KEYBOARD/Src/usbd_hid_keyboard.c ****   * @param  speed : current device speed
 594:Middlewares/Third_Party/AL94_USB_Composite/COMPOSITE/Class/HID_KEYBOARD/Src/usbd_hid_keyboard.c ****   * @param  length : pointer data length
 595:Middlewares/Third_Party/AL94_USB_Composite/COMPOSITE/Class/HID_KEYBOARD/Src/usbd_hid_keyboard.c ****   * @retval pointer to descriptor buffer
 596:Middlewares/Third_Party/AL94_USB_Composite/COMPOSITE/Class/HID_KEYBOARD/Src/usbd_hid_keyboard.c ****   */
 597:Middlewares/Third_Party/AL94_USB_Composite/COMPOSITE/Class/HID_KEYBOARD/Src/usbd_hid_keyboard.c **** static uint8_t *USBD_HID_GetOtherSpeedCfgDesc(uint16_t *length)
 598:Middlewares/Third_Party/AL94_USB_Composite/COMPOSITE/Class/HID_KEYBOARD/Src/usbd_hid_keyboard.c **** {
  91              		.loc 1 598 1 is_stmt 1 view -0
ARM GAS  /tmp/cckoXYmN.s 			page 13


  92              		.cfi_startproc
  93              		@ args = 0, pretend = 0, frame = 0
  94              		@ frame_needed = 0, uses_anonymous_args = 0
  95              		@ link register save eliminated.
 599:Middlewares/Third_Party/AL94_USB_Composite/COMPOSITE/Class/HID_KEYBOARD/Src/usbd_hid_keyboard.c ****   *length = (uint16_t)sizeof(USBD_HID_KEYBOARD_CfgFSDesc);
  96              		.loc 1 599 3 view .LVU13
  97              		.loc 1 599 11 is_stmt 0 view .LVU14
  98 0000 2223     		movs	r3, #34
  99 0002 0380     		strh	r3, [r0]	@ movhi
 600:Middlewares/Third_Party/AL94_USB_Composite/COMPOSITE/Class/HID_KEYBOARD/Src/usbd_hid_keyboard.c **** 
 601:Middlewares/Third_Party/AL94_USB_Composite/COMPOSITE/Class/HID_KEYBOARD/Src/usbd_hid_keyboard.c ****   return USBD_HID_KEYBOARD_CfgFSDesc;
 100              		.loc 1 601 3 is_stmt 1 view .LVU15
 602:Middlewares/Third_Party/AL94_USB_Composite/COMPOSITE/Class/HID_KEYBOARD/Src/usbd_hid_keyboard.c **** }
 101              		.loc 1 602 1 is_stmt 0 view .LVU16
 102 0004 0048     		ldr	r0, .L8
 103              	.LVL5:
 104              		.loc 1 602 1 view .LVU17
 105 0006 7047     		bx	lr
 106              	.L9:
 107              		.align	2
 108              	.L8:
 109 0008 00000000 		.word	USBD_HID_KEYBOARD_CfgFSDesc
 110              		.cfi_endproc
 111              	.LFE150:
 113              		.section	.text.USBD_HID_DataIn,"ax",%progbits
 114              		.align	1
 115              		.syntax unified
 116              		.thumb
 117              		.thumb_func
 119              	USBD_HID_DataIn:
 120              	.LVL6:
 121              	.LFB151:
 603:Middlewares/Third_Party/AL94_USB_Composite/COMPOSITE/Class/HID_KEYBOARD/Src/usbd_hid_keyboard.c **** 
 604:Middlewares/Third_Party/AL94_USB_Composite/COMPOSITE/Class/HID_KEYBOARD/Src/usbd_hid_keyboard.c **** /**
 605:Middlewares/Third_Party/AL94_USB_Composite/COMPOSITE/Class/HID_KEYBOARD/Src/usbd_hid_keyboard.c ****   * @brief  USBD_HID_DataIn
 606:Middlewares/Third_Party/AL94_USB_Composite/COMPOSITE/Class/HID_KEYBOARD/Src/usbd_hid_keyboard.c ****   *         handle data IN Stage
 607:Middlewares/Third_Party/AL94_USB_Composite/COMPOSITE/Class/HID_KEYBOARD/Src/usbd_hid_keyboard.c ****   * @param  pdev: device instance
 608:Middlewares/Third_Party/AL94_USB_Composite/COMPOSITE/Class/HID_KEYBOARD/Src/usbd_hid_keyboard.c ****   * @param  epnum: endpoint index
 609:Middlewares/Third_Party/AL94_USB_Composite/COMPOSITE/Class/HID_KEYBOARD/Src/usbd_hid_keyboard.c ****   * @retval status
 610:Middlewares/Third_Party/AL94_USB_Composite/COMPOSITE/Class/HID_KEYBOARD/Src/usbd_hid_keyboard.c ****   */
 611:Middlewares/Third_Party/AL94_USB_Composite/COMPOSITE/Class/HID_KEYBOARD/Src/usbd_hid_keyboard.c **** static uint8_t USBD_HID_DataIn(USBD_HandleTypeDef *pdev, uint8_t epnum)
 612:Middlewares/Third_Party/AL94_USB_Composite/COMPOSITE/Class/HID_KEYBOARD/Src/usbd_hid_keyboard.c **** {
 122              		.loc 1 612 1 is_stmt 1 view -0
 123              		.cfi_startproc
 124              		@ args = 0, pretend = 0, frame = 0
 125              		@ frame_needed = 0, uses_anonymous_args = 0
 126              		@ link register save eliminated.
 613:Middlewares/Third_Party/AL94_USB_Composite/COMPOSITE/Class/HID_KEYBOARD/Src/usbd_hid_keyboard.c ****   UNUSED(epnum);
 127              		.loc 1 613 3 view .LVU19
 614:Middlewares/Third_Party/AL94_USB_Composite/COMPOSITE/Class/HID_KEYBOARD/Src/usbd_hid_keyboard.c ****   /* Ensure that the FIFO is empty before a new transfer, this condition could
 615:Middlewares/Third_Party/AL94_USB_Composite/COMPOSITE/Class/HID_KEYBOARD/Src/usbd_hid_keyboard.c ****   be caused by  a new transfer before the end of the previous transfer */
 616:Middlewares/Third_Party/AL94_USB_Composite/COMPOSITE/Class/HID_KEYBOARD/Src/usbd_hid_keyboard.c ****   ((USBD_HID_Keyboard_HandleTypeDef *)pdev->pClassData_HID_Keyboard)->state = KEYBOARD_HID_IDLE;
 128              		.loc 1 616 3 view .LVU20
 129              		.loc 1 616 43 is_stmt 0 view .LVU21
 130 0000 D0F8D432 		ldr	r3, [r0, #724]
 131              		.loc 1 616 77 view .LVU22
 132 0004 0020     		movs	r0, #0
ARM GAS  /tmp/cckoXYmN.s 			page 14


 133              	.LVL7:
 134              		.loc 1 616 77 view .LVU23
 135 0006 1873     		strb	r0, [r3, #12]
 617:Middlewares/Third_Party/AL94_USB_Composite/COMPOSITE/Class/HID_KEYBOARD/Src/usbd_hid_keyboard.c **** 
 618:Middlewares/Third_Party/AL94_USB_Composite/COMPOSITE/Class/HID_KEYBOARD/Src/usbd_hid_keyboard.c ****   return (uint8_t)USBD_OK;
 136              		.loc 1 618 3 is_stmt 1 view .LVU24
 619:Middlewares/Third_Party/AL94_USB_Composite/COMPOSITE/Class/HID_KEYBOARD/Src/usbd_hid_keyboard.c **** }
 137              		.loc 1 619 1 is_stmt 0 view .LVU25
 138 0008 7047     		bx	lr
 139              		.cfi_endproc
 140              	.LFE151:
 142              		.section	.text.USBD_HID_GetDeviceQualifierDesc,"ax",%progbits
 143              		.align	1
 144              		.syntax unified
 145              		.thumb
 146              		.thumb_func
 148              	USBD_HID_GetDeviceQualifierDesc:
 149              	.LVL8:
 150              	.LFB152:
 620:Middlewares/Third_Party/AL94_USB_Composite/COMPOSITE/Class/HID_KEYBOARD/Src/usbd_hid_keyboard.c **** 
 621:Middlewares/Third_Party/AL94_USB_Composite/COMPOSITE/Class/HID_KEYBOARD/Src/usbd_hid_keyboard.c **** /**
 622:Middlewares/Third_Party/AL94_USB_Composite/COMPOSITE/Class/HID_KEYBOARD/Src/usbd_hid_keyboard.c ****   * @brief  DeviceQualifierDescriptor
 623:Middlewares/Third_Party/AL94_USB_Composite/COMPOSITE/Class/HID_KEYBOARD/Src/usbd_hid_keyboard.c ****   *         return Device Qualifier descriptor
 624:Middlewares/Third_Party/AL94_USB_Composite/COMPOSITE/Class/HID_KEYBOARD/Src/usbd_hid_keyboard.c ****   * @param  length : pointer data length
 625:Middlewares/Third_Party/AL94_USB_Composite/COMPOSITE/Class/HID_KEYBOARD/Src/usbd_hid_keyboard.c ****   * @retval pointer to descriptor buffer
 626:Middlewares/Third_Party/AL94_USB_Composite/COMPOSITE/Class/HID_KEYBOARD/Src/usbd_hid_keyboard.c ****   */
 627:Middlewares/Third_Party/AL94_USB_Composite/COMPOSITE/Class/HID_KEYBOARD/Src/usbd_hid_keyboard.c **** static uint8_t *USBD_HID_GetDeviceQualifierDesc(uint16_t *length)
 628:Middlewares/Third_Party/AL94_USB_Composite/COMPOSITE/Class/HID_KEYBOARD/Src/usbd_hid_keyboard.c **** {
 151              		.loc 1 628 1 is_stmt 1 view -0
 152              		.cfi_startproc
 153              		@ args = 0, pretend = 0, frame = 0
 154              		@ frame_needed = 0, uses_anonymous_args = 0
 155              		@ link register save eliminated.
 629:Middlewares/Third_Party/AL94_USB_Composite/COMPOSITE/Class/HID_KEYBOARD/Src/usbd_hid_keyboard.c ****   *length = (uint16_t)sizeof(USBD_HID_DeviceQualifierDesc);
 156              		.loc 1 629 3 view .LVU27
 157              		.loc 1 629 11 is_stmt 0 view .LVU28
 158 0000 0A23     		movs	r3, #10
 159 0002 0380     		strh	r3, [r0]	@ movhi
 630:Middlewares/Third_Party/AL94_USB_Composite/COMPOSITE/Class/HID_KEYBOARD/Src/usbd_hid_keyboard.c **** 
 631:Middlewares/Third_Party/AL94_USB_Composite/COMPOSITE/Class/HID_KEYBOARD/Src/usbd_hid_keyboard.c ****   return USBD_HID_DeviceQualifierDesc;
 160              		.loc 1 631 3 is_stmt 1 view .LVU29
 632:Middlewares/Third_Party/AL94_USB_Composite/COMPOSITE/Class/HID_KEYBOARD/Src/usbd_hid_keyboard.c **** }
 161              		.loc 1 632 1 is_stmt 0 view .LVU30
 162 0004 0048     		ldr	r0, .L12
 163              	.LVL9:
 164              		.loc 1 632 1 view .LVU31
 165 0006 7047     		bx	lr
 166              	.L13:
 167              		.align	2
 168              	.L12:
 169 0008 00000000 		.word	USBD_HID_DeviceQualifierDesc
 170              		.cfi_endproc
 171              	.LFE152:
 173              		.section	.text.USBD_HID_Setup,"ax",%progbits
 174              		.align	1
 175              		.syntax unified
 176              		.thumb
ARM GAS  /tmp/cckoXYmN.s 			page 15


 177              		.thumb_func
 179              	USBD_HID_Setup:
 180              	.LVL10:
 181              	.LFB147:
 445:Middlewares/Third_Party/AL94_USB_Composite/COMPOSITE/Class/HID_KEYBOARD/Src/usbd_hid_keyboard.c ****   USBD_HID_Keyboard_HandleTypeDef *hhid = (USBD_HID_Keyboard_HandleTypeDef *)pdev->pClassData_HID_K
 182              		.loc 1 445 1 is_stmt 1 view -0
 183              		.cfi_startproc
 184              		@ args = 0, pretend = 0, frame = 8
 185              		@ frame_needed = 0, uses_anonymous_args = 0
 445:Middlewares/Third_Party/AL94_USB_Composite/COMPOSITE/Class/HID_KEYBOARD/Src/usbd_hid_keyboard.c ****   USBD_HID_Keyboard_HandleTypeDef *hhid = (USBD_HID_Keyboard_HandleTypeDef *)pdev->pClassData_HID_K
 186              		.loc 1 445 1 is_stmt 0 view .LVU33
 187 0000 70B5     		push	{r4, r5, r6, lr}
 188              		.cfi_def_cfa_offset 16
 189              		.cfi_offset 4, -16
 190              		.cfi_offset 5, -12
 191              		.cfi_offset 6, -8
 192              		.cfi_offset 14, -4
 193 0002 82B0     		sub	sp, sp, #8
 194              		.cfi_def_cfa_offset 24
 446:Middlewares/Third_Party/AL94_USB_Composite/COMPOSITE/Class/HID_KEYBOARD/Src/usbd_hid_keyboard.c ****   USBD_StatusTypeDef ret = USBD_OK;
 195              		.loc 1 446 3 is_stmt 1 view .LVU34
 446:Middlewares/Third_Party/AL94_USB_Composite/COMPOSITE/Class/HID_KEYBOARD/Src/usbd_hid_keyboard.c ****   USBD_StatusTypeDef ret = USBD_OK;
 196              		.loc 1 446 36 is_stmt 0 view .LVU35
 197 0004 D0F8D452 		ldr	r5, [r0, #724]
 198              	.LVL11:
 447:Middlewares/Third_Party/AL94_USB_Composite/COMPOSITE/Class/HID_KEYBOARD/Src/usbd_hid_keyboard.c ****   uint16_t len;
 199              		.loc 1 447 3 is_stmt 1 view .LVU36
 448:Middlewares/Third_Party/AL94_USB_Composite/COMPOSITE/Class/HID_KEYBOARD/Src/usbd_hid_keyboard.c ****   uint8_t *pbuf;
 200              		.loc 1 448 3 view .LVU37
 449:Middlewares/Third_Party/AL94_USB_Composite/COMPOSITE/Class/HID_KEYBOARD/Src/usbd_hid_keyboard.c ****   uint16_t status_info = 0U;
 201              		.loc 1 449 3 view .LVU38
 450:Middlewares/Third_Party/AL94_USB_Composite/COMPOSITE/Class/HID_KEYBOARD/Src/usbd_hid_keyboard.c **** 
 202              		.loc 1 450 3 view .LVU39
 450:Middlewares/Third_Party/AL94_USB_Composite/COMPOSITE/Class/HID_KEYBOARD/Src/usbd_hid_keyboard.c **** 
 203              		.loc 1 450 12 is_stmt 0 view .LVU40
 204 0008 0023     		movs	r3, #0
 205 000a ADF80630 		strh	r3, [sp, #6]	@ movhi
 452:Middlewares/Third_Party/AL94_USB_Composite/COMPOSITE/Class/HID_KEYBOARD/Src/usbd_hid_keyboard.c ****   {
 206              		.loc 1 452 3 is_stmt 1 view .LVU41
 452:Middlewares/Third_Party/AL94_USB_Composite/COMPOSITE/Class/HID_KEYBOARD/Src/usbd_hid_keyboard.c ****   {
 207              		.loc 1 452 6 is_stmt 0 view .LVU42
 208 000e 002D     		cmp	r5, #0
 209 0010 00F08280 		beq	.L36
 457:Middlewares/Third_Party/AL94_USB_Composite/COMPOSITE/Class/HID_KEYBOARD/Src/usbd_hid_keyboard.c ****   {
 210              		.loc 1 457 3 is_stmt 1 view .LVU43
 457:Middlewares/Third_Party/AL94_USB_Composite/COMPOSITE/Class/HID_KEYBOARD/Src/usbd_hid_keyboard.c ****   {
 211              		.loc 1 457 14 is_stmt 0 view .LVU44
 212 0014 0C78     		ldrb	r4, [r1]	@ zero_extendqisi2
 457:Middlewares/Third_Party/AL94_USB_Composite/COMPOSITE/Class/HID_KEYBOARD/Src/usbd_hid_keyboard.c ****   {
 213              		.loc 1 457 3 view .LVU45
 214 0016 14F06004 		ands	r4, r4, #96
 215 001a 25D0     		beq	.L16
 216 001c 202C     		cmp	r4, #32
 217 001e 75D1     		bne	.L17
 460:Middlewares/Third_Party/AL94_USB_Composite/COMPOSITE/Class/HID_KEYBOARD/Src/usbd_hid_keyboard.c ****     {
 218              		.loc 1 460 5 is_stmt 1 view .LVU46
 460:Middlewares/Third_Party/AL94_USB_Composite/COMPOSITE/Class/HID_KEYBOARD/Src/usbd_hid_keyboard.c ****     {
ARM GAS  /tmp/cckoXYmN.s 			page 16


 219              		.loc 1 460 16 is_stmt 0 view .LVU47
 220 0020 4B78     		ldrb	r3, [r1, #1]	@ zero_extendqisi2
 221 0022 023B     		subs	r3, r3, #2
 222 0024 092B     		cmp	r3, #9
 223 0026 1BD8     		bhi	.L18
 224 0028 DFE803F0 		tbb	[pc, r3]
 225              	.L20:
 226 002c 14       		.byte	(.L23-.L20)/2
 227 002d 09       		.byte	(.L22-.L20)/2
 228 002e 1A       		.byte	(.L18-.L20)/2
 229 002f 1A       		.byte	(.L18-.L20)/2
 230 0030 1A       		.byte	(.L18-.L20)/2
 231 0031 1A       		.byte	(.L18-.L20)/2
 232 0032 1A       		.byte	(.L18-.L20)/2
 233 0033 1A       		.byte	(.L18-.L20)/2
 234 0034 0F       		.byte	(.L21-.L20)/2
 235 0035 05       		.byte	(.L19-.L20)/2
 236              		.p2align 1
 237              	.L19:
 463:Middlewares/Third_Party/AL94_USB_Composite/COMPOSITE/Class/HID_KEYBOARD/Src/usbd_hid_keyboard.c ****       break;
 238              		.loc 1 463 7 is_stmt 1 view .LVU48
 463:Middlewares/Third_Party/AL94_USB_Composite/COMPOSITE/Class/HID_KEYBOARD/Src/usbd_hid_keyboard.c ****       break;
 239              		.loc 1 463 24 is_stmt 0 view .LVU49
 240 0036 8B78     		ldrb	r3, [r1, #2]	@ zero_extendqisi2
 463:Middlewares/Third_Party/AL94_USB_Composite/COMPOSITE/Class/HID_KEYBOARD/Src/usbd_hid_keyboard.c ****       break;
 241              		.loc 1 463 22 view .LVU50
 242 0038 2B60     		str	r3, [r5]
 464:Middlewares/Third_Party/AL94_USB_Composite/COMPOSITE/Class/HID_KEYBOARD/Src/usbd_hid_keyboard.c **** 
 243              		.loc 1 464 7 is_stmt 1 view .LVU51
 447:Middlewares/Third_Party/AL94_USB_Composite/COMPOSITE/Class/HID_KEYBOARD/Src/usbd_hid_keyboard.c ****   uint16_t len;
 244              		.loc 1 447 22 is_stmt 0 view .LVU52
 245 003a 0024     		movs	r4, #0
 464:Middlewares/Third_Party/AL94_USB_Composite/COMPOSITE/Class/HID_KEYBOARD/Src/usbd_hid_keyboard.c **** 
 246              		.loc 1 464 7 view .LVU53
 247 003c 69E0     		b	.L15
 248              	.L22:
 467:Middlewares/Third_Party/AL94_USB_Composite/COMPOSITE/Class/HID_KEYBOARD/Src/usbd_hid_keyboard.c ****       break;
 249              		.loc 1 467 7 is_stmt 1 view .LVU54
 467:Middlewares/Third_Party/AL94_USB_Composite/COMPOSITE/Class/HID_KEYBOARD/Src/usbd_hid_keyboard.c ****       break;
 250              		.loc 1 467 13 is_stmt 0 view .LVU55
 251 003e 0122     		movs	r2, #1
 252 0040 2946     		mov	r1, r5
 253              	.LVL12:
 467:Middlewares/Third_Party/AL94_USB_Composite/COMPOSITE/Class/HID_KEYBOARD/Src/usbd_hid_keyboard.c ****       break;
 254              		.loc 1 467 13 view .LVU56
 255 0042 FFF7FEFF 		bl	USBD_CtlSendData
 256              	.LVL13:
 468:Middlewares/Third_Party/AL94_USB_Composite/COMPOSITE/Class/HID_KEYBOARD/Src/usbd_hid_keyboard.c **** 
 257              		.loc 1 468 7 is_stmt 1 view .LVU57
 447:Middlewares/Third_Party/AL94_USB_Composite/COMPOSITE/Class/HID_KEYBOARD/Src/usbd_hid_keyboard.c ****   uint16_t len;
 258              		.loc 1 447 22 is_stmt 0 view .LVU58
 259 0046 0024     		movs	r4, #0
 468:Middlewares/Third_Party/AL94_USB_Composite/COMPOSITE/Class/HID_KEYBOARD/Src/usbd_hid_keyboard.c **** 
 260              		.loc 1 468 7 view .LVU59
 261 0048 63E0     		b	.L15
 262              	.LVL14:
 263              	.L21:
ARM GAS  /tmp/cckoXYmN.s 			page 17


 471:Middlewares/Third_Party/AL94_USB_Composite/COMPOSITE/Class/HID_KEYBOARD/Src/usbd_hid_keyboard.c ****       break;
 264              		.loc 1 471 7 is_stmt 1 view .LVU60
 471:Middlewares/Third_Party/AL94_USB_Composite/COMPOSITE/Class/HID_KEYBOARD/Src/usbd_hid_keyboard.c ****       break;
 265              		.loc 1 471 38 is_stmt 0 view .LVU61
 266 004a 4B88     		ldrh	r3, [r1, #2]
 471:Middlewares/Third_Party/AL94_USB_Composite/COMPOSITE/Class/HID_KEYBOARD/Src/usbd_hid_keyboard.c ****       break;
 267              		.loc 1 471 25 view .LVU62
 268 004c 1B0A     		lsrs	r3, r3, #8
 471:Middlewares/Third_Party/AL94_USB_Composite/COMPOSITE/Class/HID_KEYBOARD/Src/usbd_hid_keyboard.c ****       break;
 269              		.loc 1 471 23 view .LVU63
 270 004e 6B60     		str	r3, [r5, #4]
 472:Middlewares/Third_Party/AL94_USB_Composite/COMPOSITE/Class/HID_KEYBOARD/Src/usbd_hid_keyboard.c **** 
 271              		.loc 1 472 7 is_stmt 1 view .LVU64
 447:Middlewares/Third_Party/AL94_USB_Composite/COMPOSITE/Class/HID_KEYBOARD/Src/usbd_hid_keyboard.c ****   uint16_t len;
 272              		.loc 1 447 22 is_stmt 0 view .LVU65
 273 0050 0024     		movs	r4, #0
 472:Middlewares/Third_Party/AL94_USB_Composite/COMPOSITE/Class/HID_KEYBOARD/Src/usbd_hid_keyboard.c **** 
 274              		.loc 1 472 7 view .LVU66
 275 0052 5EE0     		b	.L15
 276              	.L23:
 475:Middlewares/Third_Party/AL94_USB_Composite/COMPOSITE/Class/HID_KEYBOARD/Src/usbd_hid_keyboard.c ****       break;
 277              		.loc 1 475 7 is_stmt 1 view .LVU67
 475:Middlewares/Third_Party/AL94_USB_Composite/COMPOSITE/Class/HID_KEYBOARD/Src/usbd_hid_keyboard.c ****       break;
 278              		.loc 1 475 13 is_stmt 0 view .LVU68
 279 0054 0122     		movs	r2, #1
 280 0056 291D     		adds	r1, r5, #4
 281              	.LVL15:
 475:Middlewares/Third_Party/AL94_USB_Composite/COMPOSITE/Class/HID_KEYBOARD/Src/usbd_hid_keyboard.c ****       break;
 282              		.loc 1 475 13 view .LVU69
 283 0058 FFF7FEFF 		bl	USBD_CtlSendData
 284              	.LVL16:
 476:Middlewares/Third_Party/AL94_USB_Composite/COMPOSITE/Class/HID_KEYBOARD/Src/usbd_hid_keyboard.c **** 
 285              		.loc 1 476 7 is_stmt 1 view .LVU70
 447:Middlewares/Third_Party/AL94_USB_Composite/COMPOSITE/Class/HID_KEYBOARD/Src/usbd_hid_keyboard.c ****   uint16_t len;
 286              		.loc 1 447 22 is_stmt 0 view .LVU71
 287 005c 0024     		movs	r4, #0
 476:Middlewares/Third_Party/AL94_USB_Composite/COMPOSITE/Class/HID_KEYBOARD/Src/usbd_hid_keyboard.c **** 
 288              		.loc 1 476 7 view .LVU72
 289 005e 58E0     		b	.L15
 290              	.LVL17:
 291              	.L18:
 479:Middlewares/Third_Party/AL94_USB_Composite/COMPOSITE/Class/HID_KEYBOARD/Src/usbd_hid_keyboard.c ****       ret = USBD_FAIL;
 292              		.loc 1 479 7 is_stmt 1 view .LVU73
 293 0060 FFF7FEFF 		bl	USBD_CtlError
 294              	.LVL18:
 480:Middlewares/Third_Party/AL94_USB_Composite/COMPOSITE/Class/HID_KEYBOARD/Src/usbd_hid_keyboard.c ****       break;
 295              		.loc 1 480 7 view .LVU74
 481:Middlewares/Third_Party/AL94_USB_Composite/COMPOSITE/Class/HID_KEYBOARD/Src/usbd_hid_keyboard.c ****     }
 296              		.loc 1 481 7 view .LVU75
 480:Middlewares/Third_Party/AL94_USB_Composite/COMPOSITE/Class/HID_KEYBOARD/Src/usbd_hid_keyboard.c ****       break;
 297              		.loc 1 480 11 is_stmt 0 view .LVU76
 298 0064 0324     		movs	r4, #3
 481:Middlewares/Third_Party/AL94_USB_Composite/COMPOSITE/Class/HID_KEYBOARD/Src/usbd_hid_keyboard.c ****     }
 299              		.loc 1 481 7 view .LVU77
 300 0066 54E0     		b	.L15
 301              	.LVL19:
 302              	.L16:
ARM GAS  /tmp/cckoXYmN.s 			page 18


 485:Middlewares/Third_Party/AL94_USB_Composite/COMPOSITE/Class/HID_KEYBOARD/Src/usbd_hid_keyboard.c ****     {
 303              		.loc 1 485 5 is_stmt 1 view .LVU78
 485:Middlewares/Third_Party/AL94_USB_Composite/COMPOSITE/Class/HID_KEYBOARD/Src/usbd_hid_keyboard.c ****     {
 304              		.loc 1 485 16 is_stmt 0 view .LVU79
 305 0068 4E78     		ldrb	r6, [r1, #1]	@ zero_extendqisi2
 306 006a 0B2E     		cmp	r6, #11
 307 006c 4AD8     		bhi	.L24
 308 006e DFE806F0 		tbb	[pc, r6]
 309              	.L26:
 310 0072 06       		.byte	(.L29-.L26)/2
 311 0073 50       		.byte	(.L15-.L26)/2
 312 0074 49       		.byte	(.L24-.L26)/2
 313 0075 49       		.byte	(.L24-.L26)/2
 314 0076 49       		.byte	(.L24-.L26)/2
 315 0077 49       		.byte	(.L24-.L26)/2
 316 0078 16       		.byte	(.L28-.L26)/2
 317 0079 49       		.byte	(.L24-.L26)/2
 318 007a 49       		.byte	(.L24-.L26)/2
 319 007b 49       		.byte	(.L24-.L26)/2
 320 007c 2E       		.byte	(.L27-.L26)/2
 321 007d 3D       		.byte	(.L25-.L26)/2
 322              		.p2align 1
 323              	.L29:
 488:Middlewares/Third_Party/AL94_USB_Composite/COMPOSITE/Class/HID_KEYBOARD/Src/usbd_hid_keyboard.c ****       {
 324              		.loc 1 488 7 is_stmt 1 view .LVU80
 488:Middlewares/Third_Party/AL94_USB_Composite/COMPOSITE/Class/HID_KEYBOARD/Src/usbd_hid_keyboard.c ****       {
 325              		.loc 1 488 15 is_stmt 0 view .LVU81
 326 007e 90F89C32 		ldrb	r3, [r0, #668]	@ zero_extendqisi2
 327 0082 DBB2     		uxtb	r3, r3
 488:Middlewares/Third_Party/AL94_USB_Composite/COMPOSITE/Class/HID_KEYBOARD/Src/usbd_hid_keyboard.c ****       {
 328              		.loc 1 488 10 view .LVU82
 329 0084 032B     		cmp	r3, #3
 330 0086 03D0     		beq	.L39
 494:Middlewares/Third_Party/AL94_USB_Composite/COMPOSITE/Class/HID_KEYBOARD/Src/usbd_hid_keyboard.c ****         ret = USBD_FAIL;
 331              		.loc 1 494 9 is_stmt 1 view .LVU83
 332 0088 FFF7FEFF 		bl	USBD_CtlError
 333              	.LVL20:
 495:Middlewares/Third_Party/AL94_USB_Composite/COMPOSITE/Class/HID_KEYBOARD/Src/usbd_hid_keyboard.c ****       }
 334              		.loc 1 495 9 view .LVU84
 495:Middlewares/Third_Party/AL94_USB_Composite/COMPOSITE/Class/HID_KEYBOARD/Src/usbd_hid_keyboard.c ****       }
 335              		.loc 1 495 13 is_stmt 0 view .LVU85
 336 008c 0324     		movs	r4, #3
 337 008e 40E0     		b	.L15
 338              	.LVL21:
 339              	.L39:
 490:Middlewares/Third_Party/AL94_USB_Composite/COMPOSITE/Class/HID_KEYBOARD/Src/usbd_hid_keyboard.c ****       }
 340              		.loc 1 490 9 is_stmt 1 view .LVU86
 490:Middlewares/Third_Party/AL94_USB_Composite/COMPOSITE/Class/HID_KEYBOARD/Src/usbd_hid_keyboard.c ****       }
 341              		.loc 1 490 15 is_stmt 0 view .LVU87
 342 0090 0222     		movs	r2, #2
 343 0092 0DF10601 		add	r1, sp, #6
 344              	.LVL22:
 490:Middlewares/Third_Party/AL94_USB_Composite/COMPOSITE/Class/HID_KEYBOARD/Src/usbd_hid_keyboard.c ****       }
 345              		.loc 1 490 15 view .LVU88
 346 0096 FFF7FEFF 		bl	USBD_CtlSendData
 347              	.LVL23:
 447:Middlewares/Third_Party/AL94_USB_Composite/COMPOSITE/Class/HID_KEYBOARD/Src/usbd_hid_keyboard.c ****   uint16_t len;
ARM GAS  /tmp/cckoXYmN.s 			page 19


 348              		.loc 1 447 22 view .LVU89
 349 009a 3446     		mov	r4, r6
 350 009c 39E0     		b	.L15
 351              	.LVL24:
 352              	.L28:
 500:Middlewares/Third_Party/AL94_USB_Composite/COMPOSITE/Class/HID_KEYBOARD/Src/usbd_hid_keyboard.c ****       {
 353              		.loc 1 500 7 is_stmt 1 view .LVU90
 500:Middlewares/Third_Party/AL94_USB_Composite/COMPOSITE/Class/HID_KEYBOARD/Src/usbd_hid_keyboard.c ****       {
 354              		.loc 1 500 15 is_stmt 0 view .LVU91
 355 009e 4B88     		ldrh	r3, [r1, #2]
 500:Middlewares/Third_Party/AL94_USB_Composite/COMPOSITE/Class/HID_KEYBOARD/Src/usbd_hid_keyboard.c ****       {
 356              		.loc 1 500 30 view .LVU92
 357 00a0 1B0A     		lsrs	r3, r3, #8
 500:Middlewares/Third_Party/AL94_USB_Composite/COMPOSITE/Class/HID_KEYBOARD/Src/usbd_hid_keyboard.c ****       {
 358              		.loc 1 500 10 view .LVU93
 359 00a2 222B     		cmp	r3, #34
 360 00a4 09D0     		beq	.L40
 505:Middlewares/Third_Party/AL94_USB_Composite/COMPOSITE/Class/HID_KEYBOARD/Src/usbd_hid_keyboard.c ****       {
 361              		.loc 1 505 12 is_stmt 1 view .LVU94
 505:Middlewares/Third_Party/AL94_USB_Composite/COMPOSITE/Class/HID_KEYBOARD/Src/usbd_hid_keyboard.c ****       {
 362              		.loc 1 505 15 is_stmt 0 view .LVU95
 363 00a6 212B     		cmp	r3, #33
 364 00a8 0DD1     		bne	.L33
 507:Middlewares/Third_Party/AL94_USB_Composite/COMPOSITE/Class/HID_KEYBOARD/Src/usbd_hid_keyboard.c ****         len = MIN(HID_KEYBOARD_DESC_SIZE, req->wLength);
 365              		.loc 1 507 9 is_stmt 1 view .LVU96
 366              	.LVL25:
 508:Middlewares/Third_Party/AL94_USB_Composite/COMPOSITE/Class/HID_KEYBOARD/Src/usbd_hid_keyboard.c ****       }
 367              		.loc 1 508 9 view .LVU97
 508:Middlewares/Third_Party/AL94_USB_Composite/COMPOSITE/Class/HID_KEYBOARD/Src/usbd_hid_keyboard.c ****       }
 368              		.loc 1 508 15 is_stmt 0 view .LVU98
 369 00aa CA88     		ldrh	r2, [r1, #6]
 508:Middlewares/Third_Party/AL94_USB_Composite/COMPOSITE/Class/HID_KEYBOARD/Src/usbd_hid_keyboard.c ****       }
 370              		.loc 1 508 13 view .LVU99
 371 00ac 092A     		cmp	r2, #9
 372 00ae 28BF     		it	cs
 373 00b0 0922     		movcs	r2, #9
 374              	.LVL26:
 507:Middlewares/Third_Party/AL94_USB_Composite/COMPOSITE/Class/HID_KEYBOARD/Src/usbd_hid_keyboard.c ****         len = MIN(HID_KEYBOARD_DESC_SIZE, req->wLength);
 375              		.loc 1 507 14 view .LVU100
 376 00b2 1A49     		ldr	r1, .L42
 377              	.LVL27:
 378              	.L32:
 516:Middlewares/Third_Party/AL94_USB_Composite/COMPOSITE/Class/HID_KEYBOARD/Src/usbd_hid_keyboard.c ****       break;
 379              		.loc 1 516 7 is_stmt 1 view .LVU101
 516:Middlewares/Third_Party/AL94_USB_Composite/COMPOSITE/Class/HID_KEYBOARD/Src/usbd_hid_keyboard.c ****       break;
 380              		.loc 1 516 13 is_stmt 0 view .LVU102
 381 00b4 FFF7FEFF 		bl	USBD_CtlSendData
 382              	.LVL28:
 517:Middlewares/Third_Party/AL94_USB_Composite/COMPOSITE/Class/HID_KEYBOARD/Src/usbd_hid_keyboard.c **** 
 383              		.loc 1 517 7 is_stmt 1 view .LVU103
 384 00b8 2BE0     		b	.L15
 385              	.LVL29:
 386              	.L40:
 502:Middlewares/Third_Party/AL94_USB_Composite/COMPOSITE/Class/HID_KEYBOARD/Src/usbd_hid_keyboard.c ****         pbuf = HID_KEYBOARD_ReportDesc;
 387              		.loc 1 502 9 view .LVU104
 502:Middlewares/Third_Party/AL94_USB_Composite/COMPOSITE/Class/HID_KEYBOARD/Src/usbd_hid_keyboard.c ****         pbuf = HID_KEYBOARD_ReportDesc;
 388              		.loc 1 502 15 is_stmt 0 view .LVU105
ARM GAS  /tmp/cckoXYmN.s 			page 20


 389 00ba CA88     		ldrh	r2, [r1, #6]
 502:Middlewares/Third_Party/AL94_USB_Composite/COMPOSITE/Class/HID_KEYBOARD/Src/usbd_hid_keyboard.c ****         pbuf = HID_KEYBOARD_ReportDesc;
 390              		.loc 1 502 13 view .LVU106
 391 00bc BB2A     		cmp	r2, #187
 392 00be 28BF     		it	cs
 393 00c0 BB22     		movcs	r2, #187
 394              	.LVL30:
 503:Middlewares/Third_Party/AL94_USB_Composite/COMPOSITE/Class/HID_KEYBOARD/Src/usbd_hid_keyboard.c ****       }
 395              		.loc 1 503 9 is_stmt 1 view .LVU107
 503:Middlewares/Third_Party/AL94_USB_Composite/COMPOSITE/Class/HID_KEYBOARD/Src/usbd_hid_keyboard.c ****       }
 396              		.loc 1 503 14 is_stmt 0 view .LVU108
 397 00c2 1749     		ldr	r1, .L42+4
 398              	.LVL31:
 503:Middlewares/Third_Party/AL94_USB_Composite/COMPOSITE/Class/HID_KEYBOARD/Src/usbd_hid_keyboard.c ****       }
 399              		.loc 1 503 14 view .LVU109
 400 00c4 F6E7     		b	.L32
 401              	.LVL32:
 402              	.L33:
 512:Middlewares/Third_Party/AL94_USB_Composite/COMPOSITE/Class/HID_KEYBOARD/Src/usbd_hid_keyboard.c ****         ret = USBD_FAIL;
 403              		.loc 1 512 9 is_stmt 1 view .LVU110
 404 00c6 FFF7FEFF 		bl	USBD_CtlError
 405              	.LVL33:
 513:Middlewares/Third_Party/AL94_USB_Composite/COMPOSITE/Class/HID_KEYBOARD/Src/usbd_hid_keyboard.c ****         break;
 406              		.loc 1 513 9 view .LVU111
 514:Middlewares/Third_Party/AL94_USB_Composite/COMPOSITE/Class/HID_KEYBOARD/Src/usbd_hid_keyboard.c ****       }
 407              		.loc 1 514 9 view .LVU112
 513:Middlewares/Third_Party/AL94_USB_Composite/COMPOSITE/Class/HID_KEYBOARD/Src/usbd_hid_keyboard.c ****         break;
 408              		.loc 1 513 13 is_stmt 0 view .LVU113
 409 00ca 0324     		movs	r4, #3
 514:Middlewares/Third_Party/AL94_USB_Composite/COMPOSITE/Class/HID_KEYBOARD/Src/usbd_hid_keyboard.c ****       }
 410              		.loc 1 514 9 view .LVU114
 411 00cc 21E0     		b	.L15
 412              	.LVL34:
 413              	.L27:
 520:Middlewares/Third_Party/AL94_USB_Composite/COMPOSITE/Class/HID_KEYBOARD/Src/usbd_hid_keyboard.c ****       {
 414              		.loc 1 520 7 is_stmt 1 view .LVU115
 520:Middlewares/Third_Party/AL94_USB_Composite/COMPOSITE/Class/HID_KEYBOARD/Src/usbd_hid_keyboard.c ****       {
 415              		.loc 1 520 15 is_stmt 0 view .LVU116
 416 00ce 90F89C32 		ldrb	r3, [r0, #668]	@ zero_extendqisi2
 417 00d2 DBB2     		uxtb	r3, r3
 520:Middlewares/Third_Party/AL94_USB_Composite/COMPOSITE/Class/HID_KEYBOARD/Src/usbd_hid_keyboard.c ****       {
 418              		.loc 1 520 10 view .LVU117
 419 00d4 032B     		cmp	r3, #3
 420 00d6 03D0     		beq	.L41
 526:Middlewares/Third_Party/AL94_USB_Composite/COMPOSITE/Class/HID_KEYBOARD/Src/usbd_hid_keyboard.c ****         ret = USBD_FAIL;
 421              		.loc 1 526 9 is_stmt 1 view .LVU118
 422 00d8 FFF7FEFF 		bl	USBD_CtlError
 423              	.LVL35:
 527:Middlewares/Third_Party/AL94_USB_Composite/COMPOSITE/Class/HID_KEYBOARD/Src/usbd_hid_keyboard.c ****       }
 424              		.loc 1 527 9 view .LVU119
 527:Middlewares/Third_Party/AL94_USB_Composite/COMPOSITE/Class/HID_KEYBOARD/Src/usbd_hid_keyboard.c ****       }
 425              		.loc 1 527 13 is_stmt 0 view .LVU120
 426 00dc 0324     		movs	r4, #3
 427 00de 18E0     		b	.L15
 428              	.LVL36:
 429              	.L41:
 522:Middlewares/Third_Party/AL94_USB_Composite/COMPOSITE/Class/HID_KEYBOARD/Src/usbd_hid_keyboard.c ****       }
ARM GAS  /tmp/cckoXYmN.s 			page 21


 430              		.loc 1 522 9 is_stmt 1 view .LVU121
 522:Middlewares/Third_Party/AL94_USB_Composite/COMPOSITE/Class/HID_KEYBOARD/Src/usbd_hid_keyboard.c ****       }
 431              		.loc 1 522 15 is_stmt 0 view .LVU122
 432 00e0 0122     		movs	r2, #1
 433 00e2 05F10801 		add	r1, r5, #8
 434              	.LVL37:
 522:Middlewares/Third_Party/AL94_USB_Composite/COMPOSITE/Class/HID_KEYBOARD/Src/usbd_hid_keyboard.c ****       }
 435              		.loc 1 522 15 view .LVU123
 436 00e6 FFF7FEFF 		bl	USBD_CtlSendData
 437              	.LVL38:
 522:Middlewares/Third_Party/AL94_USB_Composite/COMPOSITE/Class/HID_KEYBOARD/Src/usbd_hid_keyboard.c ****       }
 438              		.loc 1 522 15 view .LVU124
 439 00ea 12E0     		b	.L15
 440              	.LVL39:
 441              	.L25:
 532:Middlewares/Third_Party/AL94_USB_Composite/COMPOSITE/Class/HID_KEYBOARD/Src/usbd_hid_keyboard.c ****       {
 442              		.loc 1 532 7 is_stmt 1 view .LVU125
 532:Middlewares/Third_Party/AL94_USB_Composite/COMPOSITE/Class/HID_KEYBOARD/Src/usbd_hid_keyboard.c ****       {
 443              		.loc 1 532 15 is_stmt 0 view .LVU126
 444 00ec 90F89C32 		ldrb	r3, [r0, #668]	@ zero_extendqisi2
 445 00f0 DBB2     		uxtb	r3, r3
 532:Middlewares/Third_Party/AL94_USB_Composite/COMPOSITE/Class/HID_KEYBOARD/Src/usbd_hid_keyboard.c ****       {
 446              		.loc 1 532 10 view .LVU127
 447 00f2 032B     		cmp	r3, #3
 448 00f4 02D1     		bne	.L35
 534:Middlewares/Third_Party/AL94_USB_Composite/COMPOSITE/Class/HID_KEYBOARD/Src/usbd_hid_keyboard.c ****       }
 449              		.loc 1 534 9 is_stmt 1 view .LVU128
 534:Middlewares/Third_Party/AL94_USB_Composite/COMPOSITE/Class/HID_KEYBOARD/Src/usbd_hid_keyboard.c ****       }
 450              		.loc 1 534 28 is_stmt 0 view .LVU129
 451 00f6 8B78     		ldrb	r3, [r1, #2]	@ zero_extendqisi2
 534:Middlewares/Third_Party/AL94_USB_Composite/COMPOSITE/Class/HID_KEYBOARD/Src/usbd_hid_keyboard.c ****       }
 452              		.loc 1 534 26 view .LVU130
 453 00f8 AB60     		str	r3, [r5, #8]
 454 00fa 0AE0     		b	.L15
 455              	.L35:
 538:Middlewares/Third_Party/AL94_USB_Composite/COMPOSITE/Class/HID_KEYBOARD/Src/usbd_hid_keyboard.c ****         ret = USBD_FAIL;
 456              		.loc 1 538 9 is_stmt 1 view .LVU131
 457 00fc FFF7FEFF 		bl	USBD_CtlError
 458              	.LVL40:
 539:Middlewares/Third_Party/AL94_USB_Composite/COMPOSITE/Class/HID_KEYBOARD/Src/usbd_hid_keyboard.c ****       }
 459              		.loc 1 539 9 view .LVU132
 539:Middlewares/Third_Party/AL94_USB_Composite/COMPOSITE/Class/HID_KEYBOARD/Src/usbd_hid_keyboard.c ****       }
 460              		.loc 1 539 13 is_stmt 0 view .LVU133
 461 0100 0324     		movs	r4, #3
 462 0102 06E0     		b	.L15
 463              	.LVL41:
 464              	.L24:
 547:Middlewares/Third_Party/AL94_USB_Composite/COMPOSITE/Class/HID_KEYBOARD/Src/usbd_hid_keyboard.c ****       ret = USBD_FAIL;
 465              		.loc 1 547 7 is_stmt 1 view .LVU134
 466 0104 FFF7FEFF 		bl	USBD_CtlError
 467              	.LVL42:
 548:Middlewares/Third_Party/AL94_USB_Composite/COMPOSITE/Class/HID_KEYBOARD/Src/usbd_hid_keyboard.c ****       break;
 468              		.loc 1 548 7 view .LVU135
 549:Middlewares/Third_Party/AL94_USB_Composite/COMPOSITE/Class/HID_KEYBOARD/Src/usbd_hid_keyboard.c ****     }
 469              		.loc 1 549 7 view .LVU136
 548:Middlewares/Third_Party/AL94_USB_Composite/COMPOSITE/Class/HID_KEYBOARD/Src/usbd_hid_keyboard.c ****       break;
 470              		.loc 1 548 11 is_stmt 0 view .LVU137
ARM GAS  /tmp/cckoXYmN.s 			page 22


 471 0108 0324     		movs	r4, #3
 549:Middlewares/Third_Party/AL94_USB_Composite/COMPOSITE/Class/HID_KEYBOARD/Src/usbd_hid_keyboard.c ****     }
 472              		.loc 1 549 7 view .LVU138
 473 010a 02E0     		b	.L15
 474              	.LVL43:
 475              	.L17:
 554:Middlewares/Third_Party/AL94_USB_Composite/COMPOSITE/Class/HID_KEYBOARD/Src/usbd_hid_keyboard.c ****     ret = USBD_FAIL;
 476              		.loc 1 554 5 is_stmt 1 view .LVU139
 477 010c FFF7FEFF 		bl	USBD_CtlError
 478              	.LVL44:
 555:Middlewares/Third_Party/AL94_USB_Composite/COMPOSITE/Class/HID_KEYBOARD/Src/usbd_hid_keyboard.c ****     break;
 479              		.loc 1 555 5 view .LVU140
 556:Middlewares/Third_Party/AL94_USB_Composite/COMPOSITE/Class/HID_KEYBOARD/Src/usbd_hid_keyboard.c ****   }
 480              		.loc 1 556 5 view .LVU141
 555:Middlewares/Third_Party/AL94_USB_Composite/COMPOSITE/Class/HID_KEYBOARD/Src/usbd_hid_keyboard.c ****     break;
 481              		.loc 1 555 9 is_stmt 0 view .LVU142
 482 0110 0324     		movs	r4, #3
 483              	.LVL45:
 484              	.L15:
 560:Middlewares/Third_Party/AL94_USB_Composite/COMPOSITE/Class/HID_KEYBOARD/Src/usbd_hid_keyboard.c **** 
 485              		.loc 1 560 1 view .LVU143
 486 0112 2046     		mov	r0, r4
 487 0114 02B0     		add	sp, sp, #8
 488              		.cfi_remember_state
 489              		.cfi_def_cfa_offset 16
 490              		@ sp needed
 491 0116 70BD     		pop	{r4, r5, r6, pc}
 492              	.LVL46:
 493              	.L36:
 494              		.cfi_restore_state
 454:Middlewares/Third_Party/AL94_USB_Composite/COMPOSITE/Class/HID_KEYBOARD/Src/usbd_hid_keyboard.c ****   }
 495              		.loc 1 454 12 view .LVU144
 496 0118 0324     		movs	r4, #3
 497 011a FAE7     		b	.L15
 498              	.L43:
 499              		.align	2
 500              	.L42:
 501 011c 00000000 		.word	USBD_HID_KEYBOARD_Desc
 502 0120 00000000 		.word	HID_KEYBOARD_ReportDesc
 503              		.cfi_endproc
 504              	.LFE147:
 506              		.section	.text.USBD_HID_DeInit,"ax",%progbits
 507              		.align	1
 508              		.syntax unified
 509              		.thumb
 510              		.thumb_func
 512              	USBD_HID_DeInit:
 513              	.LVL47:
 514              	.LFB146:
 417:Middlewares/Third_Party/AL94_USB_Composite/COMPOSITE/Class/HID_KEYBOARD/Src/usbd_hid_keyboard.c ****   UNUSED(cfgidx);
 515              		.loc 1 417 1 is_stmt 1 view -0
 516              		.cfi_startproc
 517              		@ args = 0, pretend = 0, frame = 0
 518              		@ frame_needed = 0, uses_anonymous_args = 0
 417:Middlewares/Third_Party/AL94_USB_Composite/COMPOSITE/Class/HID_KEYBOARD/Src/usbd_hid_keyboard.c ****   UNUSED(cfgidx);
 519              		.loc 1 417 1 is_stmt 0 view .LVU146
 520 0000 38B5     		push	{r3, r4, r5, lr}
ARM GAS  /tmp/cckoXYmN.s 			page 23


 521              		.cfi_def_cfa_offset 16
 522              		.cfi_offset 3, -16
 523              		.cfi_offset 4, -12
 524              		.cfi_offset 5, -8
 525              		.cfi_offset 14, -4
 526 0002 0446     		mov	r4, r0
 418:Middlewares/Third_Party/AL94_USB_Composite/COMPOSITE/Class/HID_KEYBOARD/Src/usbd_hid_keyboard.c **** 
 527              		.loc 1 418 3 is_stmt 1 view .LVU147
 421:Middlewares/Third_Party/AL94_USB_Composite/COMPOSITE/Class/HID_KEYBOARD/Src/usbd_hid_keyboard.c ****   pdev->ep_in[HID_KEYBOARD_IN_EP & 0xFU].is_used = 0U;
 528              		.loc 1 421 3 view .LVU148
 529 0004 0A4D     		ldr	r5, .L47
 421:Middlewares/Third_Party/AL94_USB_Composite/COMPOSITE/Class/HID_KEYBOARD/Src/usbd_hid_keyboard.c ****   pdev->ep_in[HID_KEYBOARD_IN_EP & 0xFU].is_used = 0U;
 530              		.loc 1 421 9 is_stmt 0 view .LVU149
 531 0006 2978     		ldrb	r1, [r5]	@ zero_extendqisi2
 532              	.LVL48:
 421:Middlewares/Third_Party/AL94_USB_Composite/COMPOSITE/Class/HID_KEYBOARD/Src/usbd_hid_keyboard.c ****   pdev->ep_in[HID_KEYBOARD_IN_EP & 0xFU].is_used = 0U;
 533              		.loc 1 421 9 view .LVU150
 534 0008 FFF7FEFF 		bl	USBD_LL_CloseEP
 535              	.LVL49:
 422:Middlewares/Third_Party/AL94_USB_Composite/COMPOSITE/Class/HID_KEYBOARD/Src/usbd_hid_keyboard.c ****   pdev->ep_in[HID_KEYBOARD_IN_EP & 0xFU].bInterval = 0U;
 536              		.loc 1 422 3 is_stmt 1 view .LVU151
 422:Middlewares/Third_Party/AL94_USB_Composite/COMPOSITE/Class/HID_KEYBOARD/Src/usbd_hid_keyboard.c ****   pdev->ep_in[HID_KEYBOARD_IN_EP & 0xFU].bInterval = 0U;
 537              		.loc 1 422 34 is_stmt 0 view .LVU152
 538 000c 2B78     		ldrb	r3, [r5]	@ zero_extendqisi2
 539 000e 03F00F03 		and	r3, r3, #15
 422:Middlewares/Third_Party/AL94_USB_Composite/COMPOSITE/Class/HID_KEYBOARD/Src/usbd_hid_keyboard.c ****   pdev->ep_in[HID_KEYBOARD_IN_EP & 0xFU].bInterval = 0U;
 540              		.loc 1 422 50 view .LVU153
 541 0012 03EB8302 		add	r2, r3, r3, lsl #2
 542 0016 04EB8202 		add	r2, r4, r2, lsl #2
 543 001a 0021     		movs	r1, #0
 544 001c 9184     		strh	r1, [r2, #36]	@ movhi
 423:Middlewares/Third_Party/AL94_USB_Composite/COMPOSITE/Class/HID_KEYBOARD/Src/usbd_hid_keyboard.c **** 
 545              		.loc 1 423 3 is_stmt 1 view .LVU154
 423:Middlewares/Third_Party/AL94_USB_Composite/COMPOSITE/Class/HID_KEYBOARD/Src/usbd_hid_keyboard.c **** 
 546              		.loc 1 423 52 is_stmt 0 view .LVU155
 547 001e D184     		strh	r1, [r2, #38]	@ movhi
 426:Middlewares/Third_Party/AL94_USB_Composite/COMPOSITE/Class/HID_KEYBOARD/Src/usbd_hid_keyboard.c ****   {
 548              		.loc 1 426 3 is_stmt 1 view .LVU156
 426:Middlewares/Third_Party/AL94_USB_Composite/COMPOSITE/Class/HID_KEYBOARD/Src/usbd_hid_keyboard.c ****   {
 549              		.loc 1 426 11 is_stmt 0 view .LVU157
 550 0020 D4F8D432 		ldr	r3, [r4, #724]
 426:Middlewares/Third_Party/AL94_USB_Composite/COMPOSITE/Class/HID_KEYBOARD/Src/usbd_hid_keyboard.c ****   {
 551              		.loc 1 426 6 view .LVU158
 552 0024 0BB1     		cbz	r3, .L45
 431:Middlewares/Third_Party/AL94_USB_Composite/COMPOSITE/Class/HID_KEYBOARD/Src/usbd_hid_keyboard.c ****   }
 553              		.loc 1 431 5 is_stmt 1 view .LVU159
 431:Middlewares/Third_Party/AL94_USB_Composite/COMPOSITE/Class/HID_KEYBOARD/Src/usbd_hid_keyboard.c ****   }
 554              		.loc 1 431 35 is_stmt 0 view .LVU160
 555 0026 C4F8D412 		str	r1, [r4, #724]
 556              	.L45:
 434:Middlewares/Third_Party/AL94_USB_Composite/COMPOSITE/Class/HID_KEYBOARD/Src/usbd_hid_keyboard.c **** }
 557              		.loc 1 434 3 is_stmt 1 view .LVU161
 435:Middlewares/Third_Party/AL94_USB_Composite/COMPOSITE/Class/HID_KEYBOARD/Src/usbd_hid_keyboard.c **** 
 558              		.loc 1 435 1 is_stmt 0 view .LVU162
 559 002a 0020     		movs	r0, #0
 560 002c 38BD     		pop	{r3, r4, r5, pc}
 561              	.LVL50:
ARM GAS  /tmp/cckoXYmN.s 			page 24


 562              	.L48:
 435:Middlewares/Third_Party/AL94_USB_Composite/COMPOSITE/Class/HID_KEYBOARD/Src/usbd_hid_keyboard.c **** 
 563              		.loc 1 435 1 view .LVU163
 564 002e 00BF     		.align	2
 565              	.L47:
 566 0030 00000000 		.word	HID_KEYBOARD_IN_EP
 567              		.cfi_endproc
 568              	.LFE146:
 570              		.section	.text.USBD_HID_Init,"ax",%progbits
 571              		.align	1
 572              		.syntax unified
 573              		.thumb
 574              		.thumb_func
 576              	USBD_HID_Init:
 577              	.LVL51:
 578              	.LFB145:
 376:Middlewares/Third_Party/AL94_USB_Composite/COMPOSITE/Class/HID_KEYBOARD/Src/usbd_hid_keyboard.c ****   UNUSED(cfgidx);
 579              		.loc 1 376 1 is_stmt 1 view -0
 580              		.cfi_startproc
 581              		@ args = 0, pretend = 0, frame = 0
 582              		@ frame_needed = 0, uses_anonymous_args = 0
 376:Middlewares/Third_Party/AL94_USB_Composite/COMPOSITE/Class/HID_KEYBOARD/Src/usbd_hid_keyboard.c ****   UNUSED(cfgidx);
 583              		.loc 1 376 1 is_stmt 0 view .LVU165
 584 0000 38B5     		push	{r3, r4, r5, lr}
 585              		.cfi_def_cfa_offset 16
 586              		.cfi_offset 3, -16
 587              		.cfi_offset 4, -12
 588              		.cfi_offset 5, -8
 589              		.cfi_offset 14, -4
 590 0002 0446     		mov	r4, r0
 377:Middlewares/Third_Party/AL94_USB_Composite/COMPOSITE/Class/HID_KEYBOARD/Src/usbd_hid_keyboard.c **** 
 591              		.loc 1 377 3 is_stmt 1 view .LVU166
 379:Middlewares/Third_Party/AL94_USB_Composite/COMPOSITE/Class/HID_KEYBOARD/Src/usbd_hid_keyboard.c **** 
 592              		.loc 1 379 3 view .LVU167
 381:Middlewares/Third_Party/AL94_USB_Composite/COMPOSITE/Class/HID_KEYBOARD/Src/usbd_hid_keyboard.c **** 
 593              		.loc 1 381 3 view .LVU168
 594              	.LVL52:
 383:Middlewares/Third_Party/AL94_USB_Composite/COMPOSITE/Class/HID_KEYBOARD/Src/usbd_hid_keyboard.c ****   {
 595              		.loc 1 383 3 view .LVU169
 389:Middlewares/Third_Party/AL94_USB_Composite/COMPOSITE/Class/HID_KEYBOARD/Src/usbd_hid_keyboard.c **** 
 596              		.loc 1 389 3 view .LVU170
 389:Middlewares/Third_Party/AL94_USB_Composite/COMPOSITE/Class/HID_KEYBOARD/Src/usbd_hid_keyboard.c **** 
 597              		.loc 1 389 33 is_stmt 0 view .LVU171
 598 0004 164B     		ldr	r3, .L53
 599 0006 C0F8D432 		str	r3, [r0, #724]
 391:Middlewares/Third_Party/AL94_USB_Composite/COMPOSITE/Class/HID_KEYBOARD/Src/usbd_hid_keyboard.c ****   {
 600              		.loc 1 391 3 is_stmt 1 view .LVU172
 391:Middlewares/Third_Party/AL94_USB_Composite/COMPOSITE/Class/HID_KEYBOARD/Src/usbd_hid_keyboard.c ****   {
 601              		.loc 1 391 11 is_stmt 0 view .LVU173
 602 000a 037C     		ldrb	r3, [r0, #16]	@ zero_extendqisi2
 391:Middlewares/Third_Party/AL94_USB_Composite/COMPOSITE/Class/HID_KEYBOARD/Src/usbd_hid_keyboard.c ****   {
 603              		.loc 1 391 6 view .LVU174
 604 000c EBB9     		cbnz	r3, .L50
 393:Middlewares/Third_Party/AL94_USB_Composite/COMPOSITE/Class/HID_KEYBOARD/Src/usbd_hid_keyboard.c ****   }
 605              		.loc 1 393 5 is_stmt 1 view .LVU175
 393:Middlewares/Third_Party/AL94_USB_Composite/COMPOSITE/Class/HID_KEYBOARD/Src/usbd_hid_keyboard.c ****   }
 606              		.loc 1 393 36 is_stmt 0 view .LVU176
ARM GAS  /tmp/cckoXYmN.s 			page 25


 607 000e 154B     		ldr	r3, .L53+4
 608 0010 1B78     		ldrb	r3, [r3]	@ zero_extendqisi2
 609 0012 03F00F03 		and	r3, r3, #15
 393:Middlewares/Third_Party/AL94_USB_Composite/COMPOSITE/Class/HID_KEYBOARD/Src/usbd_hid_keyboard.c ****   }
 610              		.loc 1 393 54 view .LVU177
 611 0016 03EB8303 		add	r3, r3, r3, lsl #2
 612 001a 00EB8303 		add	r3, r0, r3, lsl #2
 613 001e 0722     		movs	r2, #7
 614 0020 DA84     		strh	r2, [r3, #38]	@ movhi
 615              	.L51:
 401:Middlewares/Third_Party/AL94_USB_Composite/COMPOSITE/Class/HID_KEYBOARD/Src/usbd_hid_keyboard.c ****   pdev->ep_in[HID_KEYBOARD_IN_EP & 0xFU].is_used = 1U;
 616              		.loc 1 401 3 is_stmt 1 view .LVU178
 617 0022 104D     		ldr	r5, .L53+4
 401:Middlewares/Third_Party/AL94_USB_Composite/COMPOSITE/Class/HID_KEYBOARD/Src/usbd_hid_keyboard.c ****   pdev->ep_in[HID_KEYBOARD_IN_EP & 0xFU].is_used = 1U;
 618              		.loc 1 401 9 is_stmt 0 view .LVU179
 619 0024 0823     		movs	r3, #8
 620 0026 0322     		movs	r2, #3
 621 0028 2978     		ldrb	r1, [r5]	@ zero_extendqisi2
 622              	.LVL53:
 401:Middlewares/Third_Party/AL94_USB_Composite/COMPOSITE/Class/HID_KEYBOARD/Src/usbd_hid_keyboard.c ****   pdev->ep_in[HID_KEYBOARD_IN_EP & 0xFU].is_used = 1U;
 623              		.loc 1 401 9 view .LVU180
 624 002a 2046     		mov	r0, r4
 625              	.LVL54:
 401:Middlewares/Third_Party/AL94_USB_Composite/COMPOSITE/Class/HID_KEYBOARD/Src/usbd_hid_keyboard.c ****   pdev->ep_in[HID_KEYBOARD_IN_EP & 0xFU].is_used = 1U;
 626              		.loc 1 401 9 view .LVU181
 627 002c FFF7FEFF 		bl	USBD_LL_OpenEP
 628              	.LVL55:
 402:Middlewares/Third_Party/AL94_USB_Composite/COMPOSITE/Class/HID_KEYBOARD/Src/usbd_hid_keyboard.c **** 
 629              		.loc 1 402 3 is_stmt 1 view .LVU182
 402:Middlewares/Third_Party/AL94_USB_Composite/COMPOSITE/Class/HID_KEYBOARD/Src/usbd_hid_keyboard.c **** 
 630              		.loc 1 402 34 is_stmt 0 view .LVU183
 631 0030 2B78     		ldrb	r3, [r5]	@ zero_extendqisi2
 632 0032 03F00F03 		and	r3, r3, #15
 402:Middlewares/Third_Party/AL94_USB_Composite/COMPOSITE/Class/HID_KEYBOARD/Src/usbd_hid_keyboard.c **** 
 633              		.loc 1 402 50 view .LVU184
 634 0036 03EB8303 		add	r3, r3, r3, lsl #2
 635 003a 04EB8304 		add	r4, r4, r3, lsl #2
 636              	.LVL56:
 402:Middlewares/Third_Party/AL94_USB_Composite/COMPOSITE/Class/HID_KEYBOARD/Src/usbd_hid_keyboard.c **** 
 637              		.loc 1 402 50 view .LVU185
 638 003e 0123     		movs	r3, #1
 639 0040 A384     		strh	r3, [r4, #36]	@ movhi
 404:Middlewares/Third_Party/AL94_USB_Composite/COMPOSITE/Class/HID_KEYBOARD/Src/usbd_hid_keyboard.c **** 
 640              		.loc 1 404 3 is_stmt 1 view .LVU186
 404:Middlewares/Third_Party/AL94_USB_Composite/COMPOSITE/Class/HID_KEYBOARD/Src/usbd_hid_keyboard.c **** 
 641              		.loc 1 404 15 is_stmt 0 view .LVU187
 642 0042 0020     		movs	r0, #0
 643 0044 064B     		ldr	r3, .L53
 644 0046 1873     		strb	r0, [r3, #12]
 406:Middlewares/Third_Party/AL94_USB_Composite/COMPOSITE/Class/HID_KEYBOARD/Src/usbd_hid_keyboard.c **** }
 645              		.loc 1 406 3 is_stmt 1 view .LVU188
 407:Middlewares/Third_Party/AL94_USB_Composite/COMPOSITE/Class/HID_KEYBOARD/Src/usbd_hid_keyboard.c **** 
 646              		.loc 1 407 1 is_stmt 0 view .LVU189
 647 0048 38BD     		pop	{r3, r4, r5, pc}
 648              	.LVL57:
 649              	.L50:
 397:Middlewares/Third_Party/AL94_USB_Composite/COMPOSITE/Class/HID_KEYBOARD/Src/usbd_hid_keyboard.c ****   }
ARM GAS  /tmp/cckoXYmN.s 			page 26


 650              		.loc 1 397 5 is_stmt 1 view .LVU190
 397:Middlewares/Third_Party/AL94_USB_Composite/COMPOSITE/Class/HID_KEYBOARD/Src/usbd_hid_keyboard.c ****   }
 651              		.loc 1 397 36 is_stmt 0 view .LVU191
 652 004a 064B     		ldr	r3, .L53+4
 653 004c 1B78     		ldrb	r3, [r3]	@ zero_extendqisi2
 654 004e 03F00F03 		and	r3, r3, #15
 397:Middlewares/Third_Party/AL94_USB_Composite/COMPOSITE/Class/HID_KEYBOARD/Src/usbd_hid_keyboard.c ****   }
 655              		.loc 1 397 54 view .LVU192
 656 0052 03EB8303 		add	r3, r3, r3, lsl #2
 657 0056 00EB8303 		add	r3, r0, r3, lsl #2
 658 005a 0A22     		movs	r2, #10
 659 005c DA84     		strh	r2, [r3, #38]	@ movhi
 660 005e E0E7     		b	.L51
 661              	.L54:
 662              		.align	2
 663              	.L53:
 664 0060 00000000 		.word	USBD_HID_KBD_Instace
 665 0064 00000000 		.word	HID_KEYBOARD_IN_EP
 666              		.cfi_endproc
 667              	.LFE145:
 669              		.section	.text.USBD_HID_Keybaord_SendReport,"ax",%progbits
 670              		.align	1
 671              		.global	USBD_HID_Keybaord_SendReport
 672              		.syntax unified
 673              		.thumb
 674              		.thumb_func
 676              	USBD_HID_Keybaord_SendReport:
 677              	.LVL58:
 678              	.LFB153:
 633:Middlewares/Third_Party/AL94_USB_Composite/COMPOSITE/Class/HID_KEYBOARD/Src/usbd_hid_keyboard.c **** 
 634:Middlewares/Third_Party/AL94_USB_Composite/COMPOSITE/Class/HID_KEYBOARD/Src/usbd_hid_keyboard.c **** /**
 635:Middlewares/Third_Party/AL94_USB_Composite/COMPOSITE/Class/HID_KEYBOARD/Src/usbd_hid_keyboard.c ****   * @brief  USBD_HID_SendReport
 636:Middlewares/Third_Party/AL94_USB_Composite/COMPOSITE/Class/HID_KEYBOARD/Src/usbd_hid_keyboard.c ****   *         Send HID Report
 637:Middlewares/Third_Party/AL94_USB_Composite/COMPOSITE/Class/HID_KEYBOARD/Src/usbd_hid_keyboard.c ****   * @param  pdev: device instance
 638:Middlewares/Third_Party/AL94_USB_Composite/COMPOSITE/Class/HID_KEYBOARD/Src/usbd_hid_keyboard.c ****   * @param  buff: pointer to report
 639:Middlewares/Third_Party/AL94_USB_Composite/COMPOSITE/Class/HID_KEYBOARD/Src/usbd_hid_keyboard.c ****   * @retval status
 640:Middlewares/Third_Party/AL94_USB_Composite/COMPOSITE/Class/HID_KEYBOARD/Src/usbd_hid_keyboard.c ****   */
 641:Middlewares/Third_Party/AL94_USB_Composite/COMPOSITE/Class/HID_KEYBOARD/Src/usbd_hid_keyboard.c **** uint8_t USBD_HID_Keybaord_SendReport(USBD_HandleTypeDef *pdev, uint8_t *report, uint16_t len)
 642:Middlewares/Third_Party/AL94_USB_Composite/COMPOSITE/Class/HID_KEYBOARD/Src/usbd_hid_keyboard.c **** {
 679              		.loc 1 642 1 is_stmt 1 view -0
 680              		.cfi_startproc
 681              		@ args = 0, pretend = 0, frame = 0
 682              		@ frame_needed = 0, uses_anonymous_args = 0
 683              		.loc 1 642 1 is_stmt 0 view .LVU194
 684 0000 10B5     		push	{r4, lr}
 685              		.cfi_def_cfa_offset 8
 686              		.cfi_offset 4, -8
 687              		.cfi_offset 14, -4
 643:Middlewares/Third_Party/AL94_USB_Composite/COMPOSITE/Class/HID_KEYBOARD/Src/usbd_hid_keyboard.c ****   USBD_HID_Keyboard_HandleTypeDef *hhid = (USBD_HID_Keyboard_HandleTypeDef *)pdev->pClassData_HID_K
 688              		.loc 1 643 3 is_stmt 1 view .LVU195
 689              		.loc 1 643 36 is_stmt 0 view .LVU196
 690 0002 D0F8D432 		ldr	r3, [r0, #724]
 691              	.LVL59:
 644:Middlewares/Third_Party/AL94_USB_Composite/COMPOSITE/Class/HID_KEYBOARD/Src/usbd_hid_keyboard.c **** 
 645:Middlewares/Third_Party/AL94_USB_Composite/COMPOSITE/Class/HID_KEYBOARD/Src/usbd_hid_keyboard.c ****   if (hhid == NULL)
 692              		.loc 1 645 3 is_stmt 1 view .LVU197
 693              		.loc 1 645 6 is_stmt 0 view .LVU198
ARM GAS  /tmp/cckoXYmN.s 			page 27


 694 0006 C3B1     		cbz	r3, .L57
 646:Middlewares/Third_Party/AL94_USB_Composite/COMPOSITE/Class/HID_KEYBOARD/Src/usbd_hid_keyboard.c ****   {
 647:Middlewares/Third_Party/AL94_USB_Composite/COMPOSITE/Class/HID_KEYBOARD/Src/usbd_hid_keyboard.c ****     return (uint8_t)USBD_FAIL;
 648:Middlewares/Third_Party/AL94_USB_Composite/COMPOSITE/Class/HID_KEYBOARD/Src/usbd_hid_keyboard.c ****   }
 649:Middlewares/Third_Party/AL94_USB_Composite/COMPOSITE/Class/HID_KEYBOARD/Src/usbd_hid_keyboard.c **** 
 650:Middlewares/Third_Party/AL94_USB_Composite/COMPOSITE/Class/HID_KEYBOARD/Src/usbd_hid_keyboard.c ****   if (pdev->dev_state == USBD_STATE_CONFIGURED)
 695              		.loc 1 650 3 is_stmt 1 view .LVU199
 696              		.loc 1 650 11 is_stmt 0 view .LVU200
 697 0008 90F89CC2 		ldrb	ip, [r0, #668]	@ zero_extendqisi2
 698 000c 5FFA8CFC 		uxtb	ip, ip
 699              		.loc 1 650 6 view .LVU201
 700 0010 BCF1030F 		cmp	ip, #3
 701 0014 02D0     		beq	.L61
 651:Middlewares/Third_Party/AL94_USB_Composite/COMPOSITE/Class/HID_KEYBOARD/Src/usbd_hid_keyboard.c ****   {
 652:Middlewares/Third_Party/AL94_USB_Composite/COMPOSITE/Class/HID_KEYBOARD/Src/usbd_hid_keyboard.c ****     if (hhid->state == KEYBOARD_HID_IDLE)
 653:Middlewares/Third_Party/AL94_USB_Composite/COMPOSITE/Class/HID_KEYBOARD/Src/usbd_hid_keyboard.c ****     {
 654:Middlewares/Third_Party/AL94_USB_Composite/COMPOSITE/Class/HID_KEYBOARD/Src/usbd_hid_keyboard.c ****       hhid->state = KEYBOARD_HID_BUSY;
 655:Middlewares/Third_Party/AL94_USB_Composite/COMPOSITE/Class/HID_KEYBOARD/Src/usbd_hid_keyboard.c ****       (void)USBD_LL_Transmit(pdev, HID_KEYBOARD_IN_EP, report, len);
 656:Middlewares/Third_Party/AL94_USB_Composite/COMPOSITE/Class/HID_KEYBOARD/Src/usbd_hid_keyboard.c ****     }
 657:Middlewares/Third_Party/AL94_USB_Composite/COMPOSITE/Class/HID_KEYBOARD/Src/usbd_hid_keyboard.c ****   }
 658:Middlewares/Third_Party/AL94_USB_Composite/COMPOSITE/Class/HID_KEYBOARD/Src/usbd_hid_keyboard.c **** 
 659:Middlewares/Third_Party/AL94_USB_Composite/COMPOSITE/Class/HID_KEYBOARD/Src/usbd_hid_keyboard.c ****   return (uint8_t)USBD_OK;
 702              		.loc 1 659 10 view .LVU202
 703 0016 0024     		movs	r4, #0
 704              	.LVL60:
 705              	.L56:
 660:Middlewares/Third_Party/AL94_USB_Composite/COMPOSITE/Class/HID_KEYBOARD/Src/usbd_hid_keyboard.c **** }
 706              		.loc 1 660 1 view .LVU203
 707 0018 2046     		mov	r0, r4
 708 001a 10BD     		pop	{r4, pc}
 709              	.LVL61:
 710              	.L61:
 652:Middlewares/Third_Party/AL94_USB_Composite/COMPOSITE/Class/HID_KEYBOARD/Src/usbd_hid_keyboard.c ****     {
 711              		.loc 1 652 5 is_stmt 1 view .LVU204
 652:Middlewares/Third_Party/AL94_USB_Composite/COMPOSITE/Class/HID_KEYBOARD/Src/usbd_hid_keyboard.c ****     {
 712              		.loc 1 652 13 is_stmt 0 view .LVU205
 713 001c 1C7B     		ldrb	r4, [r3, #12]	@ zero_extendqisi2
 652:Middlewares/Third_Party/AL94_USB_Composite/COMPOSITE/Class/HID_KEYBOARD/Src/usbd_hid_keyboard.c ****     {
 714              		.loc 1 652 8 view .LVU206
 715 001e 0CB1     		cbz	r4, .L62
 659:Middlewares/Third_Party/AL94_USB_Composite/COMPOSITE/Class/HID_KEYBOARD/Src/usbd_hid_keyboard.c **** }
 716              		.loc 1 659 10 view .LVU207
 717 0020 0024     		movs	r4, #0
 718 0022 F9E7     		b	.L56
 719              	.L62:
 654:Middlewares/Third_Party/AL94_USB_Composite/COMPOSITE/Class/HID_KEYBOARD/Src/usbd_hid_keyboard.c ****       (void)USBD_LL_Transmit(pdev, HID_KEYBOARD_IN_EP, report, len);
 720              		.loc 1 654 7 is_stmt 1 view .LVU208
 654:Middlewares/Third_Party/AL94_USB_Composite/COMPOSITE/Class/HID_KEYBOARD/Src/usbd_hid_keyboard.c ****       (void)USBD_LL_Transmit(pdev, HID_KEYBOARD_IN_EP, report, len);
 721              		.loc 1 654 19 is_stmt 0 view .LVU209
 722 0024 4FF0010C 		mov	ip, #1
 723 0028 83F80CC0 		strb	ip, [r3, #12]
 655:Middlewares/Third_Party/AL94_USB_Composite/COMPOSITE/Class/HID_KEYBOARD/Src/usbd_hid_keyboard.c ****     }
 724              		.loc 1 655 7 is_stmt 1 view .LVU210
 655:Middlewares/Third_Party/AL94_USB_Composite/COMPOSITE/Class/HID_KEYBOARD/Src/usbd_hid_keyboard.c ****     }
 725              		.loc 1 655 13 is_stmt 0 view .LVU211
 726 002c 1346     		mov	r3, r2
 727              	.LVL62:
ARM GAS  /tmp/cckoXYmN.s 			page 28


 655:Middlewares/Third_Party/AL94_USB_Composite/COMPOSITE/Class/HID_KEYBOARD/Src/usbd_hid_keyboard.c ****     }
 728              		.loc 1 655 13 view .LVU212
 729 002e 0A46     		mov	r2, r1
 730              	.LVL63:
 655:Middlewares/Third_Party/AL94_USB_Composite/COMPOSITE/Class/HID_KEYBOARD/Src/usbd_hid_keyboard.c ****     }
 731              		.loc 1 655 13 view .LVU213
 732 0030 0349     		ldr	r1, .L63
 733              	.LVL64:
 655:Middlewares/Third_Party/AL94_USB_Composite/COMPOSITE/Class/HID_KEYBOARD/Src/usbd_hid_keyboard.c ****     }
 734              		.loc 1 655 13 view .LVU214
 735 0032 0978     		ldrb	r1, [r1]	@ zero_extendqisi2
 736 0034 FFF7FEFF 		bl	USBD_LL_Transmit
 737              	.LVL65:
 655:Middlewares/Third_Party/AL94_USB_Composite/COMPOSITE/Class/HID_KEYBOARD/Src/usbd_hid_keyboard.c ****     }
 738              		.loc 1 655 13 view .LVU215
 739 0038 EEE7     		b	.L56
 740              	.LVL66:
 741              	.L57:
 647:Middlewares/Third_Party/AL94_USB_Composite/COMPOSITE/Class/HID_KEYBOARD/Src/usbd_hid_keyboard.c ****   }
 742              		.loc 1 647 12 view .LVU216
 743 003a 0324     		movs	r4, #3
 744 003c ECE7     		b	.L56
 745              	.L64:
 746 003e 00BF     		.align	2
 747              	.L63:
 748 0040 00000000 		.word	HID_KEYBOARD_IN_EP
 749              		.cfi_endproc
 750              	.LFE153:
 752              		.section	.text.USBD_HID_Keyboard_GetPollingInterval,"ax",%progbits
 753              		.align	1
 754              		.global	USBD_HID_Keyboard_GetPollingInterval
 755              		.syntax unified
 756              		.thumb
 757              		.thumb_func
 759              	USBD_HID_Keyboard_GetPollingInterval:
 760              	.LVL67:
 761              	.LFB154:
 661:Middlewares/Third_Party/AL94_USB_Composite/COMPOSITE/Class/HID_KEYBOARD/Src/usbd_hid_keyboard.c **** 
 662:Middlewares/Third_Party/AL94_USB_Composite/COMPOSITE/Class/HID_KEYBOARD/Src/usbd_hid_keyboard.c **** /**
 663:Middlewares/Third_Party/AL94_USB_Composite/COMPOSITE/Class/HID_KEYBOARD/Src/usbd_hid_keyboard.c ****   * @brief  USBD_HID_GetPollingInterval
 664:Middlewares/Third_Party/AL94_USB_Composite/COMPOSITE/Class/HID_KEYBOARD/Src/usbd_hid_keyboard.c ****   *         return polling interval from endpoint descriptor
 665:Middlewares/Third_Party/AL94_USB_Composite/COMPOSITE/Class/HID_KEYBOARD/Src/usbd_hid_keyboard.c ****   * @param  pdev: device instance
 666:Middlewares/Third_Party/AL94_USB_Composite/COMPOSITE/Class/HID_KEYBOARD/Src/usbd_hid_keyboard.c ****   * @retval polling interval
 667:Middlewares/Third_Party/AL94_USB_Composite/COMPOSITE/Class/HID_KEYBOARD/Src/usbd_hid_keyboard.c ****   */
 668:Middlewares/Third_Party/AL94_USB_Composite/COMPOSITE/Class/HID_KEYBOARD/Src/usbd_hid_keyboard.c **** uint32_t USBD_HID_Keyboard_GetPollingInterval(USBD_HandleTypeDef *pdev)
 669:Middlewares/Third_Party/AL94_USB_Composite/COMPOSITE/Class/HID_KEYBOARD/Src/usbd_hid_keyboard.c **** {
 762              		.loc 1 669 1 is_stmt 1 view -0
 763              		.cfi_startproc
 764              		@ args = 0, pretend = 0, frame = 0
 765              		@ frame_needed = 0, uses_anonymous_args = 0
 766              		@ link register save eliminated.
 670:Middlewares/Third_Party/AL94_USB_Composite/COMPOSITE/Class/HID_KEYBOARD/Src/usbd_hid_keyboard.c ****   uint32_t polling_interval;
 767              		.loc 1 670 3 view .LVU218
 671:Middlewares/Third_Party/AL94_USB_Composite/COMPOSITE/Class/HID_KEYBOARD/Src/usbd_hid_keyboard.c **** 
 672:Middlewares/Third_Party/AL94_USB_Composite/COMPOSITE/Class/HID_KEYBOARD/Src/usbd_hid_keyboard.c ****   /* HIGH-speed endpoints */
 673:Middlewares/Third_Party/AL94_USB_Composite/COMPOSITE/Class/HID_KEYBOARD/Src/usbd_hid_keyboard.c ****   if (pdev->dev_speed == USBD_SPEED_HIGH)
 768              		.loc 1 673 3 view .LVU219
ARM GAS  /tmp/cckoXYmN.s 			page 29


 769              		.loc 1 673 11 is_stmt 0 view .LVU220
 770 0000 037C     		ldrb	r3, [r0, #16]	@ zero_extendqisi2
 771              		.loc 1 673 6 view .LVU221
 772 0002 0BB9     		cbnz	r3, .L67
 674:Middlewares/Third_Party/AL94_USB_Composite/COMPOSITE/Class/HID_KEYBOARD/Src/usbd_hid_keyboard.c ****   {
 675:Middlewares/Third_Party/AL94_USB_Composite/COMPOSITE/Class/HID_KEYBOARD/Src/usbd_hid_keyboard.c ****     /* Sets the data transfer polling interval for high speed transfers.
 676:Middlewares/Third_Party/AL94_USB_Composite/COMPOSITE/Class/HID_KEYBOARD/Src/usbd_hid_keyboard.c ****      Values between 1..16 are allowed. Values correspond to interval
 677:Middlewares/Third_Party/AL94_USB_Composite/COMPOSITE/Class/HID_KEYBOARD/Src/usbd_hid_keyboard.c ****      of 2 ^ (bInterval-1). This option (8 ms, corresponds to HID_HS_BINTERVAL */
 678:Middlewares/Third_Party/AL94_USB_Composite/COMPOSITE/Class/HID_KEYBOARD/Src/usbd_hid_keyboard.c ****     polling_interval = (((1U << (HID_KEYBOARD_HS_BINTERVAL - 1U))) / 8U);
 773              		.loc 1 678 22 view .LVU222
 774 0004 0820     		movs	r0, #8
 775              	.LVL68:
 776              		.loc 1 678 22 view .LVU223
 777 0006 7047     		bx	lr
 778              	.LVL69:
 779              	.L67:
 679:Middlewares/Third_Party/AL94_USB_Composite/COMPOSITE/Class/HID_KEYBOARD/Src/usbd_hid_keyboard.c ****   }
 680:Middlewares/Third_Party/AL94_USB_Composite/COMPOSITE/Class/HID_KEYBOARD/Src/usbd_hid_keyboard.c ****   else /* LOW and FULL-speed endpoints */
 681:Middlewares/Third_Party/AL94_USB_Composite/COMPOSITE/Class/HID_KEYBOARD/Src/usbd_hid_keyboard.c ****   {
 682:Middlewares/Third_Party/AL94_USB_Composite/COMPOSITE/Class/HID_KEYBOARD/Src/usbd_hid_keyboard.c ****     /* Sets the data transfer polling interval for low and full
 683:Middlewares/Third_Party/AL94_USB_Composite/COMPOSITE/Class/HID_KEYBOARD/Src/usbd_hid_keyboard.c ****     speed transfers */
 684:Middlewares/Third_Party/AL94_USB_Composite/COMPOSITE/Class/HID_KEYBOARD/Src/usbd_hid_keyboard.c ****     polling_interval = HID_KEYBOARD_FS_BINTERVAL;
 780              		.loc 1 684 22 view .LVU224
 781 0008 0A20     		movs	r0, #10
 782              	.LVL70:
 685:Middlewares/Third_Party/AL94_USB_Composite/COMPOSITE/Class/HID_KEYBOARD/Src/usbd_hid_keyboard.c ****   }
 686:Middlewares/Third_Party/AL94_USB_Composite/COMPOSITE/Class/HID_KEYBOARD/Src/usbd_hid_keyboard.c **** 
 687:Middlewares/Third_Party/AL94_USB_Composite/COMPOSITE/Class/HID_KEYBOARD/Src/usbd_hid_keyboard.c ****   return ((uint32_t)(polling_interval));
 783              		.loc 1 687 3 is_stmt 1 view .LVU225
 688:Middlewares/Third_Party/AL94_USB_Composite/COMPOSITE/Class/HID_KEYBOARD/Src/usbd_hid_keyboard.c **** }
 784              		.loc 1 688 1 is_stmt 0 view .LVU226
 785 000a 7047     		bx	lr
 786              		.cfi_endproc
 787              	.LFE154:
 789              		.section	.text.USBD_Update_HID_KBD_DESC,"ax",%progbits
 790              		.align	1
 791              		.global	USBD_Update_HID_KBD_DESC
 792              		.syntax unified
 793              		.thumb
 794              		.thumb_func
 796              	USBD_Update_HID_KBD_DESC:
 797              	.LVL71:
 798              	.LFB155:
 689:Middlewares/Third_Party/AL94_USB_Composite/COMPOSITE/Class/HID_KEYBOARD/Src/usbd_hid_keyboard.c **** 
 690:Middlewares/Third_Party/AL94_USB_Composite/COMPOSITE/Class/HID_KEYBOARD/Src/usbd_hid_keyboard.c **** void USBD_Update_HID_KBD_DESC(uint8_t *desc, uint8_t itf_no, uint8_t in_ep, uint8_t str_idx)
 691:Middlewares/Third_Party/AL94_USB_Composite/COMPOSITE/Class/HID_KEYBOARD/Src/usbd_hid_keyboard.c **** {
 799              		.loc 1 691 1 is_stmt 1 view -0
 800              		.cfi_startproc
 801              		@ args = 0, pretend = 0, frame = 0
 802              		@ frame_needed = 0, uses_anonymous_args = 0
 803              		@ link register save eliminated.
 692:Middlewares/Third_Party/AL94_USB_Composite/COMPOSITE/Class/HID_KEYBOARD/Src/usbd_hid_keyboard.c ****   desc[11] = itf_no;
 804              		.loc 1 692 3 view .LVU228
 805              		.loc 1 692 12 is_stmt 0 view .LVU229
 806 0000 C172     		strb	r1, [r0, #11]
 693:Middlewares/Third_Party/AL94_USB_Composite/COMPOSITE/Class/HID_KEYBOARD/Src/usbd_hid_keyboard.c ****   desc[17] = str_idx;
 807              		.loc 1 693 3 is_stmt 1 view .LVU230
ARM GAS  /tmp/cckoXYmN.s 			page 30


 808              		.loc 1 693 12 is_stmt 0 view .LVU231
 809 0002 4374     		strb	r3, [r0, #17]
 694:Middlewares/Third_Party/AL94_USB_Composite/COMPOSITE/Class/HID_KEYBOARD/Src/usbd_hid_keyboard.c ****   desc[29] = in_ep;
 810              		.loc 1 694 3 is_stmt 1 view .LVU232
 811              		.loc 1 694 12 is_stmt 0 view .LVU233
 812 0004 4277     		strb	r2, [r0, #29]
 695:Middlewares/Third_Party/AL94_USB_Composite/COMPOSITE/Class/HID_KEYBOARD/Src/usbd_hid_keyboard.c **** 
 696:Middlewares/Third_Party/AL94_USB_Composite/COMPOSITE/Class/HID_KEYBOARD/Src/usbd_hid_keyboard.c ****   HID_KEYBOARD_IN_EP = in_ep;
 813              		.loc 1 696 3 is_stmt 1 view .LVU234
 814              		.loc 1 696 22 is_stmt 0 view .LVU235
 815 0006 0348     		ldr	r0, .L69
 816              	.LVL72:
 817              		.loc 1 696 22 view .LVU236
 818 0008 0270     		strb	r2, [r0]
 697:Middlewares/Third_Party/AL94_USB_Composite/COMPOSITE/Class/HID_KEYBOARD/Src/usbd_hid_keyboard.c ****   HID_KEYBOARD_ITF_NBR = itf_no;
 819              		.loc 1 697 3 is_stmt 1 view .LVU237
 820              		.loc 1 697 24 is_stmt 0 view .LVU238
 821 000a 034A     		ldr	r2, .L69+4
 822              	.LVL73:
 823              		.loc 1 697 24 view .LVU239
 824 000c 1170     		strb	r1, [r2]
 698:Middlewares/Third_Party/AL94_USB_Composite/COMPOSITE/Class/HID_KEYBOARD/Src/usbd_hid_keyboard.c ****   HID_KEYBOARD_STR_DESC_IDX = str_idx;
 825              		.loc 1 698 3 is_stmt 1 view .LVU240
 826              		.loc 1 698 29 is_stmt 0 view .LVU241
 827 000e 034A     		ldr	r2, .L69+8
 828 0010 1370     		strb	r3, [r2]
 699:Middlewares/Third_Party/AL94_USB_Composite/COMPOSITE/Class/HID_KEYBOARD/Src/usbd_hid_keyboard.c **** }
 829              		.loc 1 699 1 view .LVU242
 830 0012 7047     		bx	lr
 831              	.L70:
 832              		.align	2
 833              	.L69:
 834 0014 00000000 		.word	HID_KEYBOARD_IN_EP
 835 0018 00000000 		.word	HID_KEYBOARD_ITF_NBR
 836 001c 00000000 		.word	HID_KEYBOARD_STR_DESC_IDX
 837              		.cfi_endproc
 838              	.LFE155:
 840              		.section	.data.HID_KEYBOARD_ReportDesc,"aw"
 841              		.align	2
 844              	HID_KEYBOARD_ReportDesc:
 845 0000 05010906 		.ascii	"\005\001\011\006\241\001\205\001\005\007\031\340)\347"
 845      A1018501 
 845      050719E0 
 845      29E7
 846 000e 15002501 		.ascii	"\025\000%\001u\001\225\010\201\002u\010\225\001\201"
 846      75019508 
 846      81027508 
 846      950181
 847 001d 01050719 		.ascii	"\001\005\007\031\000)e\025\000%eu\010\225\005\201\000"
 847      00296515 
 847      00256575 
 847      08950581 
 847      00
 848 002e C0050C09 		.ascii	"\300\005\014\011\001\241\001\205\002\031\000*<\002\025"
 848      01A10185 
 848      0219002A 
 848      3C0215
ARM GAS  /tmp/cckoXYmN.s 			page 31


 849 003d 00263C02 		.ascii	"\000&<\002\225\001u\020\201\000\300\005\001\011\200"
 849      95017510 
 849      8100C005 
 849      010980
 850 004c A1018503 		.ascii	"\241\001\205\003\031\201)\203\025\000%\001u\001\225"
 850      19812983 
 850      15002501 
 850      750195
 851 005b 03810295 		.ascii	"\003\201\002\225\005\201\001\300\006\001\377\011\001"
 851      058101C0 
 851      0601FF09 
 851      01
 852 0068 A1018504 		.ascii	"\241\001\205\004\225\001u\010\025\001%\012\011 \261"
 852      95017508 
 852      1501250A 
 852      0920B1
 853 0077 030923B1 		.ascii	"\003\011#\261\003%O\011!\261\003%0\011\"\261\003\225"
 853      03254F09 
 853      21B10325 
 853      300922B1 
 853      0395
 854 0089 030924B1 		.ascii	"\003\011$\261\003\300\006\001\377\011\001\241\001\205"
 854      03C00601 
 854      FF0901A1 
 854      0185
 855 0097 05950175 		.ascii	"\005\225\001u\010\025\001%\012\011 \261\003\011#\261"
 855      08150125 
 855      0A0920B1 
 855      030923B1 
 856 00a7 03254F09 		.ascii	"\003%O\011!\261\003%0\011\"\261\003\225\003\011$\261"
 856      21B10325 
 856      300922B1 
 856      03950309 
 856      24B1
 857 00b9 03C0     		.ascii	"\003\300"
 858              		.section	.data.USBD_HID_DeviceQualifierDesc,"aw"
 859              		.align	2
 862              	USBD_HID_DeviceQualifierDesc:
 863 0000 0A060002 		.ascii	"\012\006\000\002\000\000\000@\001\000"
 863      00000040 
 863      0100
 864              		.section	.data.USBD_HID_KEYBOARD_Desc,"aw"
 865              		.align	2
 868              	USBD_HID_KEYBOARD_Desc:
 869 0000 09211101 		.ascii	"\011!\021\001\000\001\"\273\000"
 869      000122BB 
 869      00
 870              		.section	.data.USBD_HID_KEYBOARD_CfgHSDesc,"aw"
 871              		.align	2
 874              	USBD_HID_KEYBOARD_CfgHSDesc:
 875 0000 09022200 		.ascii	"\011\002\"\000\001\001\000\3402\011\004\000\000\001"
 875      010100E0 
 875      32090400 
 875      0001
 876 000e 03010100 		.ascii	"\003\001\001\000\011!\021\001\000\001\"\273\000\007"
 876      09211101 
 876      000122BB 
ARM GAS  /tmp/cckoXYmN.s 			page 32


 876      0007
 877 001c 05810308 		.ascii	"\005\201\003\010\000\007"
 877      0007
 878              		.section	.data.USBD_HID_KEYBOARD_CfgFSDesc,"aw"
 879              		.align	2
 882              	USBD_HID_KEYBOARD_CfgFSDesc:
 883 0000 09022200 		.ascii	"\011\002\"\000\001\001\000\3402\011\004\000\000\001"
 883      010100E0 
 883      32090400 
 883      0001
 884 000e 03010100 		.ascii	"\003\001\001\000\011!\021\001\000\001\"\273\000\007"
 884      09211101 
 884      000122BB 
 884      0007
 885 001c 05810308 		.ascii	"\005\201\003\010\000\012"
 885      000A
 886              		.global	USBD_HID_KEYBOARD
 887              		.section	.data.USBD_HID_KEYBOARD,"aw"
 888              		.align	2
 891              	USBD_HID_KEYBOARD:
 892 0000 00000000 		.word	USBD_HID_Init
 893 0004 00000000 		.word	USBD_HID_DeInit
 894 0008 00000000 		.word	USBD_HID_Setup
 895 000c 00000000 		.word	0
 896 0010 00000000 		.word	0
 897 0014 00000000 		.word	USBD_HID_DataIn
 898 0018 00000000 		.word	0
 899 001c 00000000 		.word	0
 900 0020 00000000 		.word	0
 901 0024 00000000 		.word	0
 902 0028 00000000 		.word	USBD_HID_GetHSCfgDesc
 903 002c 00000000 		.word	USBD_HID_GetFSCfgDesc
 904 0030 00000000 		.word	USBD_HID_GetOtherSpeedCfgDesc
 905 0034 00000000 		.word	USBD_HID_GetDeviceQualifierDesc
 906 0038 00000000 		.space	4
 907              		.section	.bss.USBD_HID_KBD_Instace,"aw",%nobits
 908              		.align	2
 911              	USBD_HID_KBD_Instace:
 912 0000 00000000 		.space	16
 912      00000000 
 912      00000000 
 912      00000000 
 913              		.global	HID_KEYBOARD_STR_DESC_IDX
 914              		.section	.bss.HID_KEYBOARD_STR_DESC_IDX,"aw",%nobits
 917              	HID_KEYBOARD_STR_DESC_IDX:
 918 0000 00       		.space	1
 919              		.global	HID_KEYBOARD_ITF_NBR
 920              		.section	.bss.HID_KEYBOARD_ITF_NBR,"aw",%nobits
 923              	HID_KEYBOARD_ITF_NBR:
 924 0000 00       		.space	1
 925              		.global	HID_KEYBOARD_IN_EP
 926              		.section	.data.HID_KEYBOARD_IN_EP,"aw"
 929              	HID_KEYBOARD_IN_EP:
 930 0000 81       		.byte	-127
 931              		.text
 932              	.Letext0:
 933              		.file 2 "/home/qrsnap/.config/Code/User/globalStorage/bmd.stm32-for-vscode/@xpack-dev-tools/arm-no
ARM GAS  /tmp/cckoXYmN.s 			page 33


 934              		.file 3 "/home/qrsnap/.config/Code/User/globalStorage/bmd.stm32-for-vscode/@xpack-dev-tools/arm-no
 935              		.file 4 "Middlewares/Third_Party/AL94_USB_Composite/COMPOSITE/Core/Inc/usbd_def.h"
 936              		.file 5 "Middlewares/Third_Party/AL94_USB_Composite/COMPOSITE/Class/HID_KEYBOARD/Inc/usbd_hid_keyb
 937              		.file 6 "Middlewares/Third_Party/AL94_USB_Composite/COMPOSITE/Core/Inc/usbd_core.h"
 938              		.file 7 "Middlewares/Third_Party/AL94_USB_Composite/COMPOSITE/Core/Inc/usbd_ioreq.h"
 939              		.file 8 "Middlewares/Third_Party/AL94_USB_Composite/COMPOSITE/Core/Inc/usbd_ctlreq.h"
ARM GAS  /tmp/cckoXYmN.s 			page 34

