ARM GAS  /tmp/ccgmFeNy.s 			page 1


   1              		.cpu cortex-m7
   2              		.arch armv7e-m
   3              		.fpu fpv5-sp-d16
   4              		.eabi_attribute 27, 1
   5              		.eabi_attribute 28, 1
   6              		.eabi_attribute 20, 1
   7              		.eabi_attribute 21, 1
   8              		.eabi_attribute 23, 3
   9              		.eabi_attribute 24, 1
  10              		.eabi_attribute 25, 1
  11              		.eabi_attribute 26, 1
  12              		.eabi_attribute 30, 1
  13              		.eabi_attribute 34, 1
  14              		.eabi_attribute 18, 4
  15              		.file	"usbd_cdc_acm_if.c"
  16              		.text
  17              	.Ltext0:
  18              		.cfi_sections	.debug_frame
  19              		.section	.text.CDC_DeInit,"ax",%progbits
  20              		.align	1
  21              		.syntax unified
  22              		.thumb
  23              		.thumb_func
  25              	CDC_DeInit:
  26              	.LVL0:
  27              	.LFB146:
  28              		.file 1 "Middlewares/Third_Party/AL94_USB_Composite/COMPOSITE/App/usbd_cdc_acm_if.c"
   1:Middlewares/Third_Party/AL94_USB_Composite/COMPOSITE/App/usbd_cdc_acm_if.c **** /* USER CODE BEGIN Header */
   2:Middlewares/Third_Party/AL94_USB_Composite/COMPOSITE/App/usbd_cdc_acm_if.c **** /**
   3:Middlewares/Third_Party/AL94_USB_Composite/COMPOSITE/App/usbd_cdc_acm_if.c ****   ******************************************************************************
   4:Middlewares/Third_Party/AL94_USB_Composite/COMPOSITE/App/usbd_cdc_acm_if.c ****   * @file           : usbd_cdc_if.c
   5:Middlewares/Third_Party/AL94_USB_Composite/COMPOSITE/App/usbd_cdc_acm_if.c ****   * @version        : v2.0_Cube
   6:Middlewares/Third_Party/AL94_USB_Composite/COMPOSITE/App/usbd_cdc_acm_if.c ****   * @brief          : Usb device for Virtual Com Port.
   7:Middlewares/Third_Party/AL94_USB_Composite/COMPOSITE/App/usbd_cdc_acm_if.c ****   ******************************************************************************
   8:Middlewares/Third_Party/AL94_USB_Composite/COMPOSITE/App/usbd_cdc_acm_if.c ****   * @attention
   9:Middlewares/Third_Party/AL94_USB_Composite/COMPOSITE/App/usbd_cdc_acm_if.c ****   *
  10:Middlewares/Third_Party/AL94_USB_Composite/COMPOSITE/App/usbd_cdc_acm_if.c ****   * <h2><center>&copy; Copyright (c) 2020 STMicroelectronics.
  11:Middlewares/Third_Party/AL94_USB_Composite/COMPOSITE/App/usbd_cdc_acm_if.c ****   * All rights reserved.</center></h2>
  12:Middlewares/Third_Party/AL94_USB_Composite/COMPOSITE/App/usbd_cdc_acm_if.c ****   *
  13:Middlewares/Third_Party/AL94_USB_Composite/COMPOSITE/App/usbd_cdc_acm_if.c ****   * This software component is licensed by ST under Ultimate Liberty license
  14:Middlewares/Third_Party/AL94_USB_Composite/COMPOSITE/App/usbd_cdc_acm_if.c ****   * SLA0044, the "License"; You may not use this file except in compliance with
  15:Middlewares/Third_Party/AL94_USB_Composite/COMPOSITE/App/usbd_cdc_acm_if.c ****   * the License. You may obtain a copy of the License at:
  16:Middlewares/Third_Party/AL94_USB_Composite/COMPOSITE/App/usbd_cdc_acm_if.c ****   *                             www.st.com/SLA0044
  17:Middlewares/Third_Party/AL94_USB_Composite/COMPOSITE/App/usbd_cdc_acm_if.c ****   *
  18:Middlewares/Third_Party/AL94_USB_Composite/COMPOSITE/App/usbd_cdc_acm_if.c ****   ******************************************************************************
  19:Middlewares/Third_Party/AL94_USB_Composite/COMPOSITE/App/usbd_cdc_acm_if.c ****   */
  20:Middlewares/Third_Party/AL94_USB_Composite/COMPOSITE/App/usbd_cdc_acm_if.c **** /* USER CODE END Header */
  21:Middlewares/Third_Party/AL94_USB_Composite/COMPOSITE/App/usbd_cdc_acm_if.c **** 
  22:Middlewares/Third_Party/AL94_USB_Composite/COMPOSITE/App/usbd_cdc_acm_if.c **** /* Includes ------------------------------------------------------------------*/
  23:Middlewares/Third_Party/AL94_USB_Composite/COMPOSITE/App/usbd_cdc_acm_if.c **** #include "usbd_cdc_acm_if.h"
  24:Middlewares/Third_Party/AL94_USB_Composite/COMPOSITE/App/usbd_cdc_acm_if.c **** 
  25:Middlewares/Third_Party/AL94_USB_Composite/COMPOSITE/App/usbd_cdc_acm_if.c **** /* USER CODE BEGIN INCLUDE */
  26:Middlewares/Third_Party/AL94_USB_Composite/COMPOSITE/App/usbd_cdc_acm_if.c **** //#include "usart.h"
  27:Middlewares/Third_Party/AL94_USB_Composite/COMPOSITE/App/usbd_cdc_acm_if.c **** //#include "tim.h"
  28:Middlewares/Third_Party/AL94_USB_Composite/COMPOSITE/App/usbd_cdc_acm_if.c **** #include "nyan_os.h"
  29:Middlewares/Third_Party/AL94_USB_Composite/COMPOSITE/App/usbd_cdc_acm_if.c **** /* USER CODE END INCLUDE */
  30:Middlewares/Third_Party/AL94_USB_Composite/COMPOSITE/App/usbd_cdc_acm_if.c **** 
ARM GAS  /tmp/ccgmFeNy.s 			page 2


  31:Middlewares/Third_Party/AL94_USB_Composite/COMPOSITE/App/usbd_cdc_acm_if.c **** /* Private typedef -----------------------------------------------------------*/
  32:Middlewares/Third_Party/AL94_USB_Composite/COMPOSITE/App/usbd_cdc_acm_if.c **** /* Private define ------------------------------------------------------------*/
  33:Middlewares/Third_Party/AL94_USB_Composite/COMPOSITE/App/usbd_cdc_acm_if.c **** /* Private macro -------------------------------------------------------------*/
  34:Middlewares/Third_Party/AL94_USB_Composite/COMPOSITE/App/usbd_cdc_acm_if.c **** 
  35:Middlewares/Third_Party/AL94_USB_Composite/COMPOSITE/App/usbd_cdc_acm_if.c **** /* USER CODE BEGIN PV */
  36:Middlewares/Third_Party/AL94_USB_Composite/COMPOSITE/App/usbd_cdc_acm_if.c **** /* Private variables ---------------------------------------------------------*/
  37:Middlewares/Third_Party/AL94_USB_Composite/COMPOSITE/App/usbd_cdc_acm_if.c **** extern NyanOS nos;
  38:Middlewares/Third_Party/AL94_USB_Composite/COMPOSITE/App/usbd_cdc_acm_if.c **** /* USER CODE END PV */
  39:Middlewares/Third_Party/AL94_USB_Composite/COMPOSITE/App/usbd_cdc_acm_if.c **** 
  40:Middlewares/Third_Party/AL94_USB_Composite/COMPOSITE/App/usbd_cdc_acm_if.c **** /** @addtogroup STM32_USB_OTG_DEVICE_LIBRARY
  41:Middlewares/Third_Party/AL94_USB_Composite/COMPOSITE/App/usbd_cdc_acm_if.c ****   * @brief Usb device library.
  42:Middlewares/Third_Party/AL94_USB_Composite/COMPOSITE/App/usbd_cdc_acm_if.c ****   * @{
  43:Middlewares/Third_Party/AL94_USB_Composite/COMPOSITE/App/usbd_cdc_acm_if.c ****   */
  44:Middlewares/Third_Party/AL94_USB_Composite/COMPOSITE/App/usbd_cdc_acm_if.c **** 
  45:Middlewares/Third_Party/AL94_USB_Composite/COMPOSITE/App/usbd_cdc_acm_if.c **** /** @addtogroup USBD_CDC_IF
  46:Middlewares/Third_Party/AL94_USB_Composite/COMPOSITE/App/usbd_cdc_acm_if.c ****   * @{
  47:Middlewares/Third_Party/AL94_USB_Composite/COMPOSITE/App/usbd_cdc_acm_if.c ****   */
  48:Middlewares/Third_Party/AL94_USB_Composite/COMPOSITE/App/usbd_cdc_acm_if.c **** 
  49:Middlewares/Third_Party/AL94_USB_Composite/COMPOSITE/App/usbd_cdc_acm_if.c **** /** @defgroup USBD_CDC_IF_Private_TypesDefinitions USBD_CDC_IF_Private_TypesDefinitions
  50:Middlewares/Third_Party/AL94_USB_Composite/COMPOSITE/App/usbd_cdc_acm_if.c ****   * @brief Private types.
  51:Middlewares/Third_Party/AL94_USB_Composite/COMPOSITE/App/usbd_cdc_acm_if.c ****   * @{
  52:Middlewares/Third_Party/AL94_USB_Composite/COMPOSITE/App/usbd_cdc_acm_if.c ****   */
  53:Middlewares/Third_Party/AL94_USB_Composite/COMPOSITE/App/usbd_cdc_acm_if.c **** 
  54:Middlewares/Third_Party/AL94_USB_Composite/COMPOSITE/App/usbd_cdc_acm_if.c **** /* USER CODE BEGIN PRIVATE_TYPES */
  55:Middlewares/Third_Party/AL94_USB_Composite/COMPOSITE/App/usbd_cdc_acm_if.c **** 
  56:Middlewares/Third_Party/AL94_USB_Composite/COMPOSITE/App/usbd_cdc_acm_if.c **** /* USER CODE END PRIVATE_TYPES */
  57:Middlewares/Third_Party/AL94_USB_Composite/COMPOSITE/App/usbd_cdc_acm_if.c **** 
  58:Middlewares/Third_Party/AL94_USB_Composite/COMPOSITE/App/usbd_cdc_acm_if.c **** /**
  59:Middlewares/Third_Party/AL94_USB_Composite/COMPOSITE/App/usbd_cdc_acm_if.c ****   * @}
  60:Middlewares/Third_Party/AL94_USB_Composite/COMPOSITE/App/usbd_cdc_acm_if.c ****   */
  61:Middlewares/Third_Party/AL94_USB_Composite/COMPOSITE/App/usbd_cdc_acm_if.c **** 
  62:Middlewares/Third_Party/AL94_USB_Composite/COMPOSITE/App/usbd_cdc_acm_if.c **** /** @defgroup USBD_CDC_IF_Private_Defines USBD_CDC_IF_Private_Defines
  63:Middlewares/Third_Party/AL94_USB_Composite/COMPOSITE/App/usbd_cdc_acm_if.c ****   * @brief Private defines.
  64:Middlewares/Third_Party/AL94_USB_Composite/COMPOSITE/App/usbd_cdc_acm_if.c ****   * @{
  65:Middlewares/Third_Party/AL94_USB_Composite/COMPOSITE/App/usbd_cdc_acm_if.c ****   */
  66:Middlewares/Third_Party/AL94_USB_Composite/COMPOSITE/App/usbd_cdc_acm_if.c **** 
  67:Middlewares/Third_Party/AL94_USB_Composite/COMPOSITE/App/usbd_cdc_acm_if.c **** /* USER CODE BEGIN PRIVATE_DEFINES */
  68:Middlewares/Third_Party/AL94_USB_Composite/COMPOSITE/App/usbd_cdc_acm_if.c **** /* USER CODE END PRIVATE_DEFINES */
  69:Middlewares/Third_Party/AL94_USB_Composite/COMPOSITE/App/usbd_cdc_acm_if.c **** 
  70:Middlewares/Third_Party/AL94_USB_Composite/COMPOSITE/App/usbd_cdc_acm_if.c **** /**
  71:Middlewares/Third_Party/AL94_USB_Composite/COMPOSITE/App/usbd_cdc_acm_if.c ****   * @}
  72:Middlewares/Third_Party/AL94_USB_Composite/COMPOSITE/App/usbd_cdc_acm_if.c ****   */
  73:Middlewares/Third_Party/AL94_USB_Composite/COMPOSITE/App/usbd_cdc_acm_if.c **** 
  74:Middlewares/Third_Party/AL94_USB_Composite/COMPOSITE/App/usbd_cdc_acm_if.c **** /** @defgroup USBD_CDC_IF_Private_Macros USBD_CDC_IF_Private_Macros
  75:Middlewares/Third_Party/AL94_USB_Composite/COMPOSITE/App/usbd_cdc_acm_if.c ****   * @brief Private macros.
  76:Middlewares/Third_Party/AL94_USB_Composite/COMPOSITE/App/usbd_cdc_acm_if.c ****   * @{
  77:Middlewares/Third_Party/AL94_USB_Composite/COMPOSITE/App/usbd_cdc_acm_if.c ****   */
  78:Middlewares/Third_Party/AL94_USB_Composite/COMPOSITE/App/usbd_cdc_acm_if.c **** 
  79:Middlewares/Third_Party/AL94_USB_Composite/COMPOSITE/App/usbd_cdc_acm_if.c **** /* USER CODE BEGIN PRIVATE_MACRO */
  80:Middlewares/Third_Party/AL94_USB_Composite/COMPOSITE/App/usbd_cdc_acm_if.c **** 
  81:Middlewares/Third_Party/AL94_USB_Composite/COMPOSITE/App/usbd_cdc_acm_if.c **** /* USER CODE END PRIVATE_MACRO */
  82:Middlewares/Third_Party/AL94_USB_Composite/COMPOSITE/App/usbd_cdc_acm_if.c **** 
  83:Middlewares/Third_Party/AL94_USB_Composite/COMPOSITE/App/usbd_cdc_acm_if.c **** /**
  84:Middlewares/Third_Party/AL94_USB_Composite/COMPOSITE/App/usbd_cdc_acm_if.c ****   * @}
  85:Middlewares/Third_Party/AL94_USB_Composite/COMPOSITE/App/usbd_cdc_acm_if.c ****   */
  86:Middlewares/Third_Party/AL94_USB_Composite/COMPOSITE/App/usbd_cdc_acm_if.c **** 
  87:Middlewares/Third_Party/AL94_USB_Composite/COMPOSITE/App/usbd_cdc_acm_if.c **** /** @defgroup USBD_CDC_IF_Private_Variables USBD_CDC_IF_Private_Variables
ARM GAS  /tmp/ccgmFeNy.s 			page 3


  88:Middlewares/Third_Party/AL94_USB_Composite/COMPOSITE/App/usbd_cdc_acm_if.c ****   * @brief Private variables.
  89:Middlewares/Third_Party/AL94_USB_Composite/COMPOSITE/App/usbd_cdc_acm_if.c ****   * @{
  90:Middlewares/Third_Party/AL94_USB_Composite/COMPOSITE/App/usbd_cdc_acm_if.c ****   */
  91:Middlewares/Third_Party/AL94_USB_Composite/COMPOSITE/App/usbd_cdc_acm_if.c **** 
  92:Middlewares/Third_Party/AL94_USB_Composite/COMPOSITE/App/usbd_cdc_acm_if.c **** /* USER CODE BEGIN PRIVATE_VARIABLES */
  93:Middlewares/Third_Party/AL94_USB_Composite/COMPOSITE/App/usbd_cdc_acm_if.c **** 
  94:Middlewares/Third_Party/AL94_USB_Composite/COMPOSITE/App/usbd_cdc_acm_if.c **** #define APP_RX_DATA_SIZE _NYAN_CDC_RX_BUF_SZ
  95:Middlewares/Third_Party/AL94_USB_Composite/COMPOSITE/App/usbd_cdc_acm_if.c **** #define APP_TX_DATA_SIZE 1024
  96:Middlewares/Third_Party/AL94_USB_Composite/COMPOSITE/App/usbd_cdc_acm_if.c **** 
  97:Middlewares/Third_Party/AL94_USB_Composite/COMPOSITE/App/usbd_cdc_acm_if.c **** /** RX buffer for USB */
  98:Middlewares/Third_Party/AL94_USB_Composite/COMPOSITE/App/usbd_cdc_acm_if.c **** uint8_t RX_Buffer[NUMBER_OF_CDC][APP_RX_DATA_SIZE];
  99:Middlewares/Third_Party/AL94_USB_Composite/COMPOSITE/App/usbd_cdc_acm_if.c **** 
 100:Middlewares/Third_Party/AL94_USB_Composite/COMPOSITE/App/usbd_cdc_acm_if.c **** /** TX buffer for USB, RX buffer for UART */
 101:Middlewares/Third_Party/AL94_USB_Composite/COMPOSITE/App/usbd_cdc_acm_if.c **** uint8_t TX_Buffer[NUMBER_OF_CDC][APP_TX_DATA_SIZE];
 102:Middlewares/Third_Party/AL94_USB_Composite/COMPOSITE/App/usbd_cdc_acm_if.c **** 
 103:Middlewares/Third_Party/AL94_USB_Composite/COMPOSITE/App/usbd_cdc_acm_if.c **** USBD_CDC_ACM_LineCodingTypeDef Line_Coding[NUMBER_OF_CDC];
 104:Middlewares/Third_Party/AL94_USB_Composite/COMPOSITE/App/usbd_cdc_acm_if.c **** 
 105:Middlewares/Third_Party/AL94_USB_Composite/COMPOSITE/App/usbd_cdc_acm_if.c **** uint32_t Write_Index[NUMBER_OF_CDC]; /* keep track of received data over UART */
 106:Middlewares/Third_Party/AL94_USB_Composite/COMPOSITE/App/usbd_cdc_acm_if.c **** uint32_t Read_Index[NUMBER_OF_CDC];  /* keep track of sent data to USB */
 107:Middlewares/Third_Party/AL94_USB_Composite/COMPOSITE/App/usbd_cdc_acm_if.c **** 
 108:Middlewares/Third_Party/AL94_USB_Composite/COMPOSITE/App/usbd_cdc_acm_if.c **** /* USER CODE END PRIVATE_VARIABLES */
 109:Middlewares/Third_Party/AL94_USB_Composite/COMPOSITE/App/usbd_cdc_acm_if.c **** 
 110:Middlewares/Third_Party/AL94_USB_Composite/COMPOSITE/App/usbd_cdc_acm_if.c **** /**
 111:Middlewares/Third_Party/AL94_USB_Composite/COMPOSITE/App/usbd_cdc_acm_if.c ****   * @}
 112:Middlewares/Third_Party/AL94_USB_Composite/COMPOSITE/App/usbd_cdc_acm_if.c ****   */
 113:Middlewares/Third_Party/AL94_USB_Composite/COMPOSITE/App/usbd_cdc_acm_if.c **** 
 114:Middlewares/Third_Party/AL94_USB_Composite/COMPOSITE/App/usbd_cdc_acm_if.c **** /** @defgroup USBD_CDC_IF_Exported_Variables USBD_CDC_IF_Exported_Variables
 115:Middlewares/Third_Party/AL94_USB_Composite/COMPOSITE/App/usbd_cdc_acm_if.c ****   * @brief Public variables.
 116:Middlewares/Third_Party/AL94_USB_Composite/COMPOSITE/App/usbd_cdc_acm_if.c ****   * @{
 117:Middlewares/Third_Party/AL94_USB_Composite/COMPOSITE/App/usbd_cdc_acm_if.c ****   */
 118:Middlewares/Third_Party/AL94_USB_Composite/COMPOSITE/App/usbd_cdc_acm_if.c **** 
 119:Middlewares/Third_Party/AL94_USB_Composite/COMPOSITE/App/usbd_cdc_acm_if.c **** extern USBD_HandleTypeDef hUsbDevice;
 120:Middlewares/Third_Party/AL94_USB_Composite/COMPOSITE/App/usbd_cdc_acm_if.c **** 
 121:Middlewares/Third_Party/AL94_USB_Composite/COMPOSITE/App/usbd_cdc_acm_if.c **** /* USER CODE BEGIN EXPORTED_VARIABLES */
 122:Middlewares/Third_Party/AL94_USB_Composite/COMPOSITE/App/usbd_cdc_acm_if.c **** 
 123:Middlewares/Third_Party/AL94_USB_Composite/COMPOSITE/App/usbd_cdc_acm_if.c **** /* USER CODE END EXPORTED_VARIABLES */
 124:Middlewares/Third_Party/AL94_USB_Composite/COMPOSITE/App/usbd_cdc_acm_if.c **** 
 125:Middlewares/Third_Party/AL94_USB_Composite/COMPOSITE/App/usbd_cdc_acm_if.c **** /**
 126:Middlewares/Third_Party/AL94_USB_Composite/COMPOSITE/App/usbd_cdc_acm_if.c ****   * @}
 127:Middlewares/Third_Party/AL94_USB_Composite/COMPOSITE/App/usbd_cdc_acm_if.c ****   */
 128:Middlewares/Third_Party/AL94_USB_Composite/COMPOSITE/App/usbd_cdc_acm_if.c **** 
 129:Middlewares/Third_Party/AL94_USB_Composite/COMPOSITE/App/usbd_cdc_acm_if.c **** /** @defgroup USBD_CDC_IF_Private_FunctionPrototypes USBD_CDC_IF_Private_FunctionPrototypes
 130:Middlewares/Third_Party/AL94_USB_Composite/COMPOSITE/App/usbd_cdc_acm_if.c ****   * @brief Private functions declaration.
 131:Middlewares/Third_Party/AL94_USB_Composite/COMPOSITE/App/usbd_cdc_acm_if.c ****   * @{
 132:Middlewares/Third_Party/AL94_USB_Composite/COMPOSITE/App/usbd_cdc_acm_if.c ****   */
 133:Middlewares/Third_Party/AL94_USB_Composite/COMPOSITE/App/usbd_cdc_acm_if.c **** 
 134:Middlewares/Third_Party/AL94_USB_Composite/COMPOSITE/App/usbd_cdc_acm_if.c **** static int8_t CDC_Init(uint8_t cdc_ch);
 135:Middlewares/Third_Party/AL94_USB_Composite/COMPOSITE/App/usbd_cdc_acm_if.c **** static int8_t CDC_DeInit(uint8_t cdc_ch);
 136:Middlewares/Third_Party/AL94_USB_Composite/COMPOSITE/App/usbd_cdc_acm_if.c **** static int8_t CDC_Control(uint8_t cdc_ch, uint8_t cmd, uint8_t *pbuf, uint16_t length);
 137:Middlewares/Third_Party/AL94_USB_Composite/COMPOSITE/App/usbd_cdc_acm_if.c **** static int8_t CDC_Receive(uint8_t cdc_ch, uint8_t *pbuf, uint32_t *Len);
 138:Middlewares/Third_Party/AL94_USB_Composite/COMPOSITE/App/usbd_cdc_acm_if.c **** static int8_t CDC_TransmitCplt(uint8_t cdc_ch, uint8_t *Buf, uint32_t *Len, uint8_t epnum);
 139:Middlewares/Third_Party/AL94_USB_Composite/COMPOSITE/App/usbd_cdc_acm_if.c **** 
 140:Middlewares/Third_Party/AL94_USB_Composite/COMPOSITE/App/usbd_cdc_acm_if.c **** /* USER CODE BEGIN PRIVATE_FUNCTIONS_DECLARATION */
 141:Middlewares/Third_Party/AL94_USB_Composite/COMPOSITE/App/usbd_cdc_acm_if.c **** /* USER CODE END PRIVATE_FUNCTIONS_DECLARATION */
 142:Middlewares/Third_Party/AL94_USB_Composite/COMPOSITE/App/usbd_cdc_acm_if.c **** 
 143:Middlewares/Third_Party/AL94_USB_Composite/COMPOSITE/App/usbd_cdc_acm_if.c **** /**
 144:Middlewares/Third_Party/AL94_USB_Composite/COMPOSITE/App/usbd_cdc_acm_if.c ****   * @}
ARM GAS  /tmp/ccgmFeNy.s 			page 4


 145:Middlewares/Third_Party/AL94_USB_Composite/COMPOSITE/App/usbd_cdc_acm_if.c ****   */
 146:Middlewares/Third_Party/AL94_USB_Composite/COMPOSITE/App/usbd_cdc_acm_if.c **** 
 147:Middlewares/Third_Party/AL94_USB_Composite/COMPOSITE/App/usbd_cdc_acm_if.c **** USBD_CDC_ACM_ItfTypeDef USBD_CDC_ACM_fops = {CDC_Init,
 148:Middlewares/Third_Party/AL94_USB_Composite/COMPOSITE/App/usbd_cdc_acm_if.c ****                                              CDC_DeInit,
 149:Middlewares/Third_Party/AL94_USB_Composite/COMPOSITE/App/usbd_cdc_acm_if.c ****                                              CDC_Control,
 150:Middlewares/Third_Party/AL94_USB_Composite/COMPOSITE/App/usbd_cdc_acm_if.c ****                                              CDC_Receive,
 151:Middlewares/Third_Party/AL94_USB_Composite/COMPOSITE/App/usbd_cdc_acm_if.c ****                                              CDC_TransmitCplt};
 152:Middlewares/Third_Party/AL94_USB_Composite/COMPOSITE/App/usbd_cdc_acm_if.c **** 
 153:Middlewares/Third_Party/AL94_USB_Composite/COMPOSITE/App/usbd_cdc_acm_if.c **** /* Private functions ---------------------------------------------------------*/
 154:Middlewares/Third_Party/AL94_USB_Composite/COMPOSITE/App/usbd_cdc_acm_if.c **** /**
 155:Middlewares/Third_Party/AL94_USB_Composite/COMPOSITE/App/usbd_cdc_acm_if.c ****   * @brief  Initializes the CDC media low layer over the FS USB IP
 156:Middlewares/Third_Party/AL94_USB_Composite/COMPOSITE/App/usbd_cdc_acm_if.c ****   * @retval USBD_OK if all operations are OK else USBD_FAIL
 157:Middlewares/Third_Party/AL94_USB_Composite/COMPOSITE/App/usbd_cdc_acm_if.c ****   */
 158:Middlewares/Third_Party/AL94_USB_Composite/COMPOSITE/App/usbd_cdc_acm_if.c **** static int8_t CDC_Init(uint8_t cdc_ch)
 159:Middlewares/Third_Party/AL94_USB_Composite/COMPOSITE/App/usbd_cdc_acm_if.c **** {
 160:Middlewares/Third_Party/AL94_USB_Composite/COMPOSITE/App/usbd_cdc_acm_if.c ****   /* USER CODE BEGIN 3 */
 161:Middlewares/Third_Party/AL94_USB_Composite/COMPOSITE/App/usbd_cdc_acm_if.c **** 
 162:Middlewares/Third_Party/AL94_USB_Composite/COMPOSITE/App/usbd_cdc_acm_if.c ****   /* ##-1- Set Application Buffers */
 163:Middlewares/Third_Party/AL94_USB_Composite/COMPOSITE/App/usbd_cdc_acm_if.c ****   USBD_CDC_SetRxBuffer(cdc_ch, &hUsbDevice, RX_Buffer[cdc_ch]);
 164:Middlewares/Third_Party/AL94_USB_Composite/COMPOSITE/App/usbd_cdc_acm_if.c **** 
 165:Middlewares/Third_Party/AL94_USB_Composite/COMPOSITE/App/usbd_cdc_acm_if.c ****   //  /*##-2- Start the TIM Base generation in interrupt mode ####################*/
 166:Middlewares/Third_Party/AL94_USB_Composite/COMPOSITE/App/usbd_cdc_acm_if.c ****   //  /* Start Channel1 */
 167:Middlewares/Third_Party/AL94_USB_Composite/COMPOSITE/App/usbd_cdc_acm_if.c ****   //  if (HAL_TIM_Base_Start_IT(&htim4) != HAL_OK)
 168:Middlewares/Third_Party/AL94_USB_Composite/COMPOSITE/App/usbd_cdc_acm_if.c ****   //  {
 169:Middlewares/Third_Party/AL94_USB_Composite/COMPOSITE/App/usbd_cdc_acm_if.c ****   //    /* Starting Error */
 170:Middlewares/Third_Party/AL94_USB_Composite/COMPOSITE/App/usbd_cdc_acm_if.c ****   //    Error_Handler();
 171:Middlewares/Third_Party/AL94_USB_Composite/COMPOSITE/App/usbd_cdc_acm_if.c ****   //  }
 172:Middlewares/Third_Party/AL94_USB_Composite/COMPOSITE/App/usbd_cdc_acm_if.c **** 
 173:Middlewares/Third_Party/AL94_USB_Composite/COMPOSITE/App/usbd_cdc_acm_if.c ****   return (USBD_OK);
 174:Middlewares/Third_Party/AL94_USB_Composite/COMPOSITE/App/usbd_cdc_acm_if.c ****   /* USER CODE END 3 */
 175:Middlewares/Third_Party/AL94_USB_Composite/COMPOSITE/App/usbd_cdc_acm_if.c **** }
 176:Middlewares/Third_Party/AL94_USB_Composite/COMPOSITE/App/usbd_cdc_acm_if.c **** 
 177:Middlewares/Third_Party/AL94_USB_Composite/COMPOSITE/App/usbd_cdc_acm_if.c **** /**
 178:Middlewares/Third_Party/AL94_USB_Composite/COMPOSITE/App/usbd_cdc_acm_if.c ****   * @brief  DeInitializes the CDC media low layer
 179:Middlewares/Third_Party/AL94_USB_Composite/COMPOSITE/App/usbd_cdc_acm_if.c ****   * @retval USBD_OK if all operations are OK else USBD_FAIL
 180:Middlewares/Third_Party/AL94_USB_Composite/COMPOSITE/App/usbd_cdc_acm_if.c ****   */
 181:Middlewares/Third_Party/AL94_USB_Composite/COMPOSITE/App/usbd_cdc_acm_if.c **** static int8_t CDC_DeInit(uint8_t cdc_ch)
 182:Middlewares/Third_Party/AL94_USB_Composite/COMPOSITE/App/usbd_cdc_acm_if.c **** {
  29              		.loc 1 182 1 view -0
  30              		.cfi_startproc
  31              		@ args = 0, pretend = 0, frame = 0
  32              		@ frame_needed = 0, uses_anonymous_args = 0
  33              		@ link register save eliminated.
 183:Middlewares/Third_Party/AL94_USB_Composite/COMPOSITE/App/usbd_cdc_acm_if.c ****   /* USER CODE BEGIN 4 */
 184:Middlewares/Third_Party/AL94_USB_Composite/COMPOSITE/App/usbd_cdc_acm_if.c ****   /* DeInitialize the UART peripheral */
 185:Middlewares/Third_Party/AL94_USB_Composite/COMPOSITE/App/usbd_cdc_acm_if.c ****   //  if (HAL_UART_DeInit(CDC_CH_To_UART_Handle(cdc_ch)) != HAL_OK)
 186:Middlewares/Third_Party/AL94_USB_Composite/COMPOSITE/App/usbd_cdc_acm_if.c ****   //  {
 187:Middlewares/Third_Party/AL94_USB_Composite/COMPOSITE/App/usbd_cdc_acm_if.c ****   //    /* Initialization Error */
 188:Middlewares/Third_Party/AL94_USB_Composite/COMPOSITE/App/usbd_cdc_acm_if.c ****   //    Error_Handler();
 189:Middlewares/Third_Party/AL94_USB_Composite/COMPOSITE/App/usbd_cdc_acm_if.c ****   //  }
 190:Middlewares/Third_Party/AL94_USB_Composite/COMPOSITE/App/usbd_cdc_acm_if.c ****   return (USBD_OK);
  34              		.loc 1 190 3 view .LVU1
 191:Middlewares/Third_Party/AL94_USB_Composite/COMPOSITE/App/usbd_cdc_acm_if.c ****   /* USER CODE END 4 */
 192:Middlewares/Third_Party/AL94_USB_Composite/COMPOSITE/App/usbd_cdc_acm_if.c **** }
  35              		.loc 1 192 1 is_stmt 0 view .LVU2
  36 0000 0020     		movs	r0, #0
  37              	.LVL1:
ARM GAS  /tmp/ccgmFeNy.s 			page 5


  38              		.loc 1 192 1 view .LVU3
  39 0002 7047     		bx	lr
  40              		.cfi_endproc
  41              	.LFE146:
  43              		.section	.text.CDC_TransmitCplt,"ax",%progbits
  44              		.align	1
  45              		.syntax unified
  46              		.thumb
  47              		.thumb_func
  49              	CDC_TransmitCplt:
  50              	.LVL2:
  51              	.LFB149:
 193:Middlewares/Third_Party/AL94_USB_Composite/COMPOSITE/App/usbd_cdc_acm_if.c **** 
 194:Middlewares/Third_Party/AL94_USB_Composite/COMPOSITE/App/usbd_cdc_acm_if.c **** /**
 195:Middlewares/Third_Party/AL94_USB_Composite/COMPOSITE/App/usbd_cdc_acm_if.c ****   * @brief  Manage the CDC class requests
 196:Middlewares/Third_Party/AL94_USB_Composite/COMPOSITE/App/usbd_cdc_acm_if.c ****   * @param  cmd: Command code
 197:Middlewares/Third_Party/AL94_USB_Composite/COMPOSITE/App/usbd_cdc_acm_if.c ****   * @param  pbuf: Buffer containing command data (request parameters)
 198:Middlewares/Third_Party/AL94_USB_Composite/COMPOSITE/App/usbd_cdc_acm_if.c ****   * @param  length: Number of data to be sent (in bytes)
 199:Middlewares/Third_Party/AL94_USB_Composite/COMPOSITE/App/usbd_cdc_acm_if.c ****   * @retval Result of the operation: USBD_OK if all operations are OK else USBD_FAIL
 200:Middlewares/Third_Party/AL94_USB_Composite/COMPOSITE/App/usbd_cdc_acm_if.c ****   */
 201:Middlewares/Third_Party/AL94_USB_Composite/COMPOSITE/App/usbd_cdc_acm_if.c **** static int8_t CDC_Control(uint8_t cdc_ch, uint8_t cmd, uint8_t *pbuf, uint16_t length)
 202:Middlewares/Third_Party/AL94_USB_Composite/COMPOSITE/App/usbd_cdc_acm_if.c **** {
 203:Middlewares/Third_Party/AL94_USB_Composite/COMPOSITE/App/usbd_cdc_acm_if.c ****   
 204:Middlewares/Third_Party/AL94_USB_Composite/COMPOSITE/App/usbd_cdc_acm_if.c ****   /* USER CODE BEGIN 5 */
 205:Middlewares/Third_Party/AL94_USB_Composite/COMPOSITE/App/usbd_cdc_acm_if.c ****   switch (cmd)
 206:Middlewares/Third_Party/AL94_USB_Composite/COMPOSITE/App/usbd_cdc_acm_if.c ****   {
 207:Middlewares/Third_Party/AL94_USB_Composite/COMPOSITE/App/usbd_cdc_acm_if.c ****   case CDC_SEND_ENCAPSULATED_COMMAND:
 208:Middlewares/Third_Party/AL94_USB_Composite/COMPOSITE/App/usbd_cdc_acm_if.c ****     break;
 209:Middlewares/Third_Party/AL94_USB_Composite/COMPOSITE/App/usbd_cdc_acm_if.c **** 
 210:Middlewares/Third_Party/AL94_USB_Composite/COMPOSITE/App/usbd_cdc_acm_if.c ****   case CDC_GET_ENCAPSULATED_RESPONSE:
 211:Middlewares/Third_Party/AL94_USB_Composite/COMPOSITE/App/usbd_cdc_acm_if.c ****     break;
 212:Middlewares/Third_Party/AL94_USB_Composite/COMPOSITE/App/usbd_cdc_acm_if.c **** 
 213:Middlewares/Third_Party/AL94_USB_Composite/COMPOSITE/App/usbd_cdc_acm_if.c ****   case CDC_SET_COMM_FEATURE:
 214:Middlewares/Third_Party/AL94_USB_Composite/COMPOSITE/App/usbd_cdc_acm_if.c ****     break;
 215:Middlewares/Third_Party/AL94_USB_Composite/COMPOSITE/App/usbd_cdc_acm_if.c **** 
 216:Middlewares/Third_Party/AL94_USB_Composite/COMPOSITE/App/usbd_cdc_acm_if.c ****   case CDC_GET_COMM_FEATURE:
 217:Middlewares/Third_Party/AL94_USB_Composite/COMPOSITE/App/usbd_cdc_acm_if.c ****     break;
 218:Middlewares/Third_Party/AL94_USB_Composite/COMPOSITE/App/usbd_cdc_acm_if.c **** 
 219:Middlewares/Third_Party/AL94_USB_Composite/COMPOSITE/App/usbd_cdc_acm_if.c ****   case CDC_CLEAR_COMM_FEATURE:
 220:Middlewares/Third_Party/AL94_USB_Composite/COMPOSITE/App/usbd_cdc_acm_if.c ****     break;
 221:Middlewares/Third_Party/AL94_USB_Composite/COMPOSITE/App/usbd_cdc_acm_if.c **** 
 222:Middlewares/Third_Party/AL94_USB_Composite/COMPOSITE/App/usbd_cdc_acm_if.c ****     /*******************************************************************************/
 223:Middlewares/Third_Party/AL94_USB_Composite/COMPOSITE/App/usbd_cdc_acm_if.c ****     /* Line Coding Structure                                                       */
 224:Middlewares/Third_Party/AL94_USB_Composite/COMPOSITE/App/usbd_cdc_acm_if.c ****     /*-----------------------------------------------------------------------------*/
 225:Middlewares/Third_Party/AL94_USB_Composite/COMPOSITE/App/usbd_cdc_acm_if.c ****     /* Offset | Field       | Size | Value  | Description                          */
 226:Middlewares/Third_Party/AL94_USB_Composite/COMPOSITE/App/usbd_cdc_acm_if.c ****     /* 0      | dwDTERate   |   4  | Number |Data terminal rate, in bits per second*/
 227:Middlewares/Third_Party/AL94_USB_Composite/COMPOSITE/App/usbd_cdc_acm_if.c ****     /* 4      | bCharFormat |   1  | Number | Stop bits                            */
 228:Middlewares/Third_Party/AL94_USB_Composite/COMPOSITE/App/usbd_cdc_acm_if.c ****     /*                                        0 - 1 Stop bit                       */
 229:Middlewares/Third_Party/AL94_USB_Composite/COMPOSITE/App/usbd_cdc_acm_if.c ****     /*                                        1 - 1.5 Stop bits                    */
 230:Middlewares/Third_Party/AL94_USB_Composite/COMPOSITE/App/usbd_cdc_acm_if.c ****     /*                                        2 - 2 Stop bits                      */
 231:Middlewares/Third_Party/AL94_USB_Composite/COMPOSITE/App/usbd_cdc_acm_if.c ****     /* 5      | bParityType |  1   | Number | Parity                               */
 232:Middlewares/Third_Party/AL94_USB_Composite/COMPOSITE/App/usbd_cdc_acm_if.c ****     /*                                        0 - None                             */
 233:Middlewares/Third_Party/AL94_USB_Composite/COMPOSITE/App/usbd_cdc_acm_if.c ****     /*                                        1 - Odd                              */
 234:Middlewares/Third_Party/AL94_USB_Composite/COMPOSITE/App/usbd_cdc_acm_if.c ****     /*                                        2 - Even                             */
 235:Middlewares/Third_Party/AL94_USB_Composite/COMPOSITE/App/usbd_cdc_acm_if.c ****     /*                                        3 - Mark                             */
 236:Middlewares/Third_Party/AL94_USB_Composite/COMPOSITE/App/usbd_cdc_acm_if.c ****     /*                                        4 - Space                            */
 237:Middlewares/Third_Party/AL94_USB_Composite/COMPOSITE/App/usbd_cdc_acm_if.c ****     /* 6      | bDataBits  |   1   | Number Data bits (5, 6, 7, 8 or 16).          */
ARM GAS  /tmp/ccgmFeNy.s 			page 6


 238:Middlewares/Third_Party/AL94_USB_Composite/COMPOSITE/App/usbd_cdc_acm_if.c ****     /*******************************************************************************/
 239:Middlewares/Third_Party/AL94_USB_Composite/COMPOSITE/App/usbd_cdc_acm_if.c ****   case CDC_SET_LINE_CODING:
 240:Middlewares/Third_Party/AL94_USB_Composite/COMPOSITE/App/usbd_cdc_acm_if.c ****     Line_Coding[cdc_ch].bitrate = (uint32_t)(pbuf[0] | (pbuf[1] << 8) |
 241:Middlewares/Third_Party/AL94_USB_Composite/COMPOSITE/App/usbd_cdc_acm_if.c ****                                              (pbuf[2] << 16) | (pbuf[3] << 24));
 242:Middlewares/Third_Party/AL94_USB_Composite/COMPOSITE/App/usbd_cdc_acm_if.c ****     Line_Coding[cdc_ch].format = pbuf[4];
 243:Middlewares/Third_Party/AL94_USB_Composite/COMPOSITE/App/usbd_cdc_acm_if.c ****     Line_Coding[cdc_ch].paritytype = pbuf[5];
 244:Middlewares/Third_Party/AL94_USB_Composite/COMPOSITE/App/usbd_cdc_acm_if.c ****     Line_Coding[cdc_ch].datatype = pbuf[6];
 245:Middlewares/Third_Party/AL94_USB_Composite/COMPOSITE/App/usbd_cdc_acm_if.c **** 
 246:Middlewares/Third_Party/AL94_USB_Composite/COMPOSITE/App/usbd_cdc_acm_if.c ****     //Change_UART_Setting(cdc_ch);
 247:Middlewares/Third_Party/AL94_USB_Composite/COMPOSITE/App/usbd_cdc_acm_if.c ****     break;
 248:Middlewares/Third_Party/AL94_USB_Composite/COMPOSITE/App/usbd_cdc_acm_if.c **** 
 249:Middlewares/Third_Party/AL94_USB_Composite/COMPOSITE/App/usbd_cdc_acm_if.c ****   case CDC_GET_LINE_CODING:
 250:Middlewares/Third_Party/AL94_USB_Composite/COMPOSITE/App/usbd_cdc_acm_if.c ****     pbuf[0] = (uint8_t)(Line_Coding[cdc_ch].bitrate);
 251:Middlewares/Third_Party/AL94_USB_Composite/COMPOSITE/App/usbd_cdc_acm_if.c ****     pbuf[1] = (uint8_t)(Line_Coding[cdc_ch].bitrate >> 8);
 252:Middlewares/Third_Party/AL94_USB_Composite/COMPOSITE/App/usbd_cdc_acm_if.c ****     pbuf[2] = (uint8_t)(Line_Coding[cdc_ch].bitrate >> 16);
 253:Middlewares/Third_Party/AL94_USB_Composite/COMPOSITE/App/usbd_cdc_acm_if.c ****     pbuf[3] = (uint8_t)(Line_Coding[cdc_ch].bitrate >> 24);
 254:Middlewares/Third_Party/AL94_USB_Composite/COMPOSITE/App/usbd_cdc_acm_if.c ****     pbuf[4] = Line_Coding[cdc_ch].format;
 255:Middlewares/Third_Party/AL94_USB_Composite/COMPOSITE/App/usbd_cdc_acm_if.c ****     pbuf[5] = Line_Coding[cdc_ch].paritytype;
 256:Middlewares/Third_Party/AL94_USB_Composite/COMPOSITE/App/usbd_cdc_acm_if.c ****     pbuf[6] = Line_Coding[cdc_ch].datatype;
 257:Middlewares/Third_Party/AL94_USB_Composite/COMPOSITE/App/usbd_cdc_acm_if.c ****     break;
 258:Middlewares/Third_Party/AL94_USB_Composite/COMPOSITE/App/usbd_cdc_acm_if.c **** 
 259:Middlewares/Third_Party/AL94_USB_Composite/COMPOSITE/App/usbd_cdc_acm_if.c ****   case CDC_SET_CONTROL_LINE_STATE:
 260:Middlewares/Third_Party/AL94_USB_Composite/COMPOSITE/App/usbd_cdc_acm_if.c ****     if (pbuf[0] & 0x01) { // Check if DTR bit is set
 261:Middlewares/Third_Party/AL94_USB_Composite/COMPOSITE/App/usbd_cdc_acm_if.c ****       // Initialize the NyanOS for this session - Invalidates all other sessions
 262:Middlewares/Third_Party/AL94_USB_Composite/COMPOSITE/App/usbd_cdc_acm_if.c ****       NyanOsInit(&nos);
 263:Middlewares/Third_Party/AL94_USB_Composite/COMPOSITE/App/usbd_cdc_acm_if.c ****       nos.send_welcome_screen = true;
 264:Middlewares/Third_Party/AL94_USB_Composite/COMPOSITE/App/usbd_cdc_acm_if.c ****     }
 265:Middlewares/Third_Party/AL94_USB_Composite/COMPOSITE/App/usbd_cdc_acm_if.c ****     break;
 266:Middlewares/Third_Party/AL94_USB_Composite/COMPOSITE/App/usbd_cdc_acm_if.c **** 
 267:Middlewares/Third_Party/AL94_USB_Composite/COMPOSITE/App/usbd_cdc_acm_if.c ****   case CDC_SEND_BREAK:
 268:Middlewares/Third_Party/AL94_USB_Composite/COMPOSITE/App/usbd_cdc_acm_if.c **** 
 269:Middlewares/Third_Party/AL94_USB_Composite/COMPOSITE/App/usbd_cdc_acm_if.c ****     break;
 270:Middlewares/Third_Party/AL94_USB_Composite/COMPOSITE/App/usbd_cdc_acm_if.c **** 
 271:Middlewares/Third_Party/AL94_USB_Composite/COMPOSITE/App/usbd_cdc_acm_if.c ****   default:
 272:Middlewares/Third_Party/AL94_USB_Composite/COMPOSITE/App/usbd_cdc_acm_if.c ****     break;
 273:Middlewares/Third_Party/AL94_USB_Composite/COMPOSITE/App/usbd_cdc_acm_if.c ****   }
 274:Middlewares/Third_Party/AL94_USB_Composite/COMPOSITE/App/usbd_cdc_acm_if.c **** 
 275:Middlewares/Third_Party/AL94_USB_Composite/COMPOSITE/App/usbd_cdc_acm_if.c ****   return (USBD_OK);
 276:Middlewares/Third_Party/AL94_USB_Composite/COMPOSITE/App/usbd_cdc_acm_if.c ****   /* USER CODE END 5 */
 277:Middlewares/Third_Party/AL94_USB_Composite/COMPOSITE/App/usbd_cdc_acm_if.c **** }
 278:Middlewares/Third_Party/AL94_USB_Composite/COMPOSITE/App/usbd_cdc_acm_if.c **** 
 279:Middlewares/Third_Party/AL94_USB_Composite/COMPOSITE/App/usbd_cdc_acm_if.c **** /**
 280:Middlewares/Third_Party/AL94_USB_Composite/COMPOSITE/App/usbd_cdc_acm_if.c ****   * @brief  Data received over USB OUT endpoint are sent over CDC interface
 281:Middlewares/Third_Party/AL94_USB_Composite/COMPOSITE/App/usbd_cdc_acm_if.c ****   *         through this function.
 282:Middlewares/Third_Party/AL94_USB_Composite/COMPOSITE/App/usbd_cdc_acm_if.c ****   *
 283:Middlewares/Third_Party/AL94_USB_Composite/COMPOSITE/App/usbd_cdc_acm_if.c ****   *         @note
 284:Middlewares/Third_Party/AL94_USB_Composite/COMPOSITE/App/usbd_cdc_acm_if.c ****   *         This function will issue a NAK packet on any OUT packet received on
 285:Middlewares/Third_Party/AL94_USB_Composite/COMPOSITE/App/usbd_cdc_acm_if.c ****   *         USB endpoint until exiting this function. If you exit this function
 286:Middlewares/Third_Party/AL94_USB_Composite/COMPOSITE/App/usbd_cdc_acm_if.c ****   *         before transfer is complete on CDC interface (ie. using DMA controller)
 287:Middlewares/Third_Party/AL94_USB_Composite/COMPOSITE/App/usbd_cdc_acm_if.c ****   *         it will result in receiving more data while previous ones are still
 288:Middlewares/Third_Party/AL94_USB_Composite/COMPOSITE/App/usbd_cdc_acm_if.c ****   *         not sent.
 289:Middlewares/Third_Party/AL94_USB_Composite/COMPOSITE/App/usbd_cdc_acm_if.c ****   *
 290:Middlewares/Third_Party/AL94_USB_Composite/COMPOSITE/App/usbd_cdc_acm_if.c ****   * @param  Buf: Buffer of data to be received
 291:Middlewares/Third_Party/AL94_USB_Composite/COMPOSITE/App/usbd_cdc_acm_if.c ****   * @param  Len: Number of data received (in bytes)
 292:Middlewares/Third_Party/AL94_USB_Composite/COMPOSITE/App/usbd_cdc_acm_if.c ****   * @retval Result of the operation: USBD_OK if all operations are OK else USBD_FAIL
 293:Middlewares/Third_Party/AL94_USB_Composite/COMPOSITE/App/usbd_cdc_acm_if.c ****   */
 294:Middlewares/Third_Party/AL94_USB_Composite/COMPOSITE/App/usbd_cdc_acm_if.c **** static int8_t CDC_Receive(uint8_t cdc_ch, uint8_t *Buf, uint32_t *Len)
ARM GAS  /tmp/ccgmFeNy.s 			page 7


 295:Middlewares/Third_Party/AL94_USB_Composite/COMPOSITE/App/usbd_cdc_acm_if.c **** {
 296:Middlewares/Third_Party/AL94_USB_Composite/COMPOSITE/App/usbd_cdc_acm_if.c ****   /* USER CODE BEGIN 6 */
 297:Middlewares/Third_Party/AL94_USB_Composite/COMPOSITE/App/usbd_cdc_acm_if.c ****   // Check if there is something to copy.
 298:Middlewares/Third_Party/AL94_USB_Composite/COMPOSITE/App/usbd_cdc_acm_if.c ****   if (Buf != NULL && Len != NULL && *Len > 0) {
 299:Middlewares/Third_Party/AL94_USB_Composite/COMPOSITE/App/usbd_cdc_acm_if.c ****     // Allocate memory for the temporary buffer.
 300:Middlewares/Third_Party/AL94_USB_Composite/COMPOSITE/App/usbd_cdc_acm_if.c ****     // Make sure to free this buffer once you're done with it if it's no longer needed.
 301:Middlewares/Third_Party/AL94_USB_Composite/COMPOSITE/App/usbd_cdc_acm_if.c ****     uint8_t* tBuf = (uint8_t*)malloc(*Len * sizeof(uint8_t));
 302:Middlewares/Third_Party/AL94_USB_Composite/COMPOSITE/App/usbd_cdc_acm_if.c ****     if (tBuf == NULL) {
 303:Middlewares/Third_Party/AL94_USB_Composite/COMPOSITE/App/usbd_cdc_acm_if.c ****       // Handle memory allocation error
 304:Middlewares/Third_Party/AL94_USB_Composite/COMPOSITE/App/usbd_cdc_acm_if.c ****       return (USBD_FAIL);
 305:Middlewares/Third_Party/AL94_USB_Composite/COMPOSITE/App/usbd_cdc_acm_if.c ****     }
 306:Middlewares/Third_Party/AL94_USB_Composite/COMPOSITE/App/usbd_cdc_acm_if.c ****     
 307:Middlewares/Third_Party/AL94_USB_Composite/COMPOSITE/App/usbd_cdc_acm_if.c ****     // Copy the contents of Buf into tBuf.
 308:Middlewares/Third_Party/AL94_USB_Composite/COMPOSITE/App/usbd_cdc_acm_if.c ****     memcpy(tBuf, Buf, *Len);
 309:Middlewares/Third_Party/AL94_USB_Composite/COMPOSITE/App/usbd_cdc_acm_if.c **** 
 310:Middlewares/Third_Party/AL94_USB_Composite/COMPOSITE/App/usbd_cdc_acm_if.c ****     // Clear the buffers and ready for more data to be received.
 311:Middlewares/Third_Party/AL94_USB_Composite/COMPOSITE/App/usbd_cdc_acm_if.c ****     USBD_CDC_SetRxBuffer(cdc_ch, &hUsbDevice, &Buf[0]);
 312:Middlewares/Third_Party/AL94_USB_Composite/COMPOSITE/App/usbd_cdc_acm_if.c ****     USBD_CDC_ReceivePacket(cdc_ch, &hUsbDevice);
 313:Middlewares/Third_Party/AL94_USB_Composite/COMPOSITE/App/usbd_cdc_acm_if.c **** 
 314:Middlewares/Third_Party/AL94_USB_Composite/COMPOSITE/App/usbd_cdc_acm_if.c ****     // Activate led to signal data received by MCU
 315:Middlewares/Third_Party/AL94_USB_Composite/COMPOSITE/App/usbd_cdc_acm_if.c ****     HAL_GPIO_WritePin(GPIOD, Nyan_Keys_LED3_Pin, GPIO_PIN_SET);
 316:Middlewares/Third_Party/AL94_USB_Composite/COMPOSITE/App/usbd_cdc_acm_if.c **** 
 317:Middlewares/Third_Party/AL94_USB_Composite/COMPOSITE/App/usbd_cdc_acm_if.c ****     // Pass the USB CDC input to NyanOS(nos)
 318:Middlewares/Third_Party/AL94_USB_Composite/COMPOSITE/App/usbd_cdc_acm_if.c ****     NyanAddInputBuffer(&nos, tBuf, Len);
 319:Middlewares/Third_Party/AL94_USB_Composite/COMPOSITE/App/usbd_cdc_acm_if.c **** 
 320:Middlewares/Third_Party/AL94_USB_Composite/COMPOSITE/App/usbd_cdc_acm_if.c ****     // Free the temporary buffer if it's no longer needed.
 321:Middlewares/Third_Party/AL94_USB_Composite/COMPOSITE/App/usbd_cdc_acm_if.c ****     free(tBuf);
 322:Middlewares/Third_Party/AL94_USB_Composite/COMPOSITE/App/usbd_cdc_acm_if.c ****   }
 323:Middlewares/Third_Party/AL94_USB_Composite/COMPOSITE/App/usbd_cdc_acm_if.c **** 
 324:Middlewares/Third_Party/AL94_USB_Composite/COMPOSITE/App/usbd_cdc_acm_if.c ****   return (USBD_OK);
 325:Middlewares/Third_Party/AL94_USB_Composite/COMPOSITE/App/usbd_cdc_acm_if.c ****   /* USER CODE END 6 */
 326:Middlewares/Third_Party/AL94_USB_Composite/COMPOSITE/App/usbd_cdc_acm_if.c **** }
 327:Middlewares/Third_Party/AL94_USB_Composite/COMPOSITE/App/usbd_cdc_acm_if.c **** 
 328:Middlewares/Third_Party/AL94_USB_Composite/COMPOSITE/App/usbd_cdc_acm_if.c **** /**
 329:Middlewares/Third_Party/AL94_USB_Composite/COMPOSITE/App/usbd_cdc_acm_if.c ****   * @brief  CDC_TransmitCplt_FS
 330:Middlewares/Third_Party/AL94_USB_Composite/COMPOSITE/App/usbd_cdc_acm_if.c ****   *         Data transmited callback
 331:Middlewares/Third_Party/AL94_USB_Composite/COMPOSITE/App/usbd_cdc_acm_if.c ****   *
 332:Middlewares/Third_Party/AL94_USB_Composite/COMPOSITE/App/usbd_cdc_acm_if.c ****   *         @note
 333:Middlewares/Third_Party/AL94_USB_Composite/COMPOSITE/App/usbd_cdc_acm_if.c ****   *         This function is IN transfer complete callback used to inform user that
 334:Middlewares/Third_Party/AL94_USB_Composite/COMPOSITE/App/usbd_cdc_acm_if.c ****   *         the submitted Data is successfully sent over USB.
 335:Middlewares/Third_Party/AL94_USB_Composite/COMPOSITE/App/usbd_cdc_acm_if.c ****   *
 336:Middlewares/Third_Party/AL94_USB_Composite/COMPOSITE/App/usbd_cdc_acm_if.c ****   * @param  Buf: Buffer of data to be received
 337:Middlewares/Third_Party/AL94_USB_Composite/COMPOSITE/App/usbd_cdc_acm_if.c ****   * @param  Len: Number of data received (in bytes)
 338:Middlewares/Third_Party/AL94_USB_Composite/COMPOSITE/App/usbd_cdc_acm_if.c ****   * @retval Result of the operation: USBD_OK if all operations are OK else USBD_FAIL
 339:Middlewares/Third_Party/AL94_USB_Composite/COMPOSITE/App/usbd_cdc_acm_if.c ****   */
 340:Middlewares/Third_Party/AL94_USB_Composite/COMPOSITE/App/usbd_cdc_acm_if.c **** static int8_t CDC_TransmitCplt(uint8_t cdc_ch, uint8_t *Buf, uint32_t *Len, uint8_t epnum)
 341:Middlewares/Third_Party/AL94_USB_Composite/COMPOSITE/App/usbd_cdc_acm_if.c **** {
  52              		.loc 1 341 1 is_stmt 1 view -0
  53              		.cfi_startproc
  54              		@ args = 0, pretend = 0, frame = 0
  55              		@ frame_needed = 0, uses_anonymous_args = 0
  56              		.loc 1 341 1 is_stmt 0 view .LVU5
  57 0000 08B5     		push	{r3, lr}
  58              	.LCFI0:
  59              		.cfi_def_cfa_offset 8
  60              		.cfi_offset 3, -8
  61              		.cfi_offset 14, -4
ARM GAS  /tmp/ccgmFeNy.s 			page 8


 342:Middlewares/Third_Party/AL94_USB_Composite/COMPOSITE/App/usbd_cdc_acm_if.c ****   if(!nos.tx_bulk_transfer_in_progress)
  62              		.loc 1 342 3 is_stmt 1 view .LVU6
  63              		.loc 1 342 10 is_stmt 0 view .LVU7
  64 0002 064B     		ldr	r3, .L6
  65              	.LVL3:
  66              		.loc 1 342 10 view .LVU8
  67 0004 93F89430 		ldrb	r3, [r3, #148]	@ zero_extendqisi2
  68              		.loc 1 342 5 view .LVU9
  69 0008 23B1     		cbz	r3, .L5
  70              	.LVL4:
  71              	.L3:
 343:Middlewares/Third_Party/AL94_USB_Composite/COMPOSITE/App/usbd_cdc_acm_if.c ****     FreeNyanString(&nos.tx_buffer);
 344:Middlewares/Third_Party/AL94_USB_Composite/COMPOSITE/App/usbd_cdc_acm_if.c ****   nos.tx_inflight = 0;
  72              		.loc 1 344 3 is_stmt 1 view .LVU10
  73              		.loc 1 344 19 is_stmt 0 view .LVU11
  74 000a 0020     		movs	r0, #0
  75 000c 034B     		ldr	r3, .L6
  76 000e 83F89300 		strb	r0, [r3, #147]
 345:Middlewares/Third_Party/AL94_USB_Composite/COMPOSITE/App/usbd_cdc_acm_if.c ****   return (USBD_OK);
  77              		.loc 1 345 3 is_stmt 1 view .LVU12
 346:Middlewares/Third_Party/AL94_USB_Composite/COMPOSITE/App/usbd_cdc_acm_if.c **** }
  78              		.loc 1 346 1 is_stmt 0 view .LVU13
  79 0012 08BD     		pop	{r3, pc}
  80              	.LVL5:
  81              	.L5:
 343:Middlewares/Third_Party/AL94_USB_Composite/COMPOSITE/App/usbd_cdc_acm_if.c ****     FreeNyanString(&nos.tx_buffer);
  82              		.loc 1 343 5 is_stmt 1 view .LVU14
  83 0014 0248     		ldr	r0, .L6+4
  84              	.LVL6:
 343:Middlewares/Third_Party/AL94_USB_Composite/COMPOSITE/App/usbd_cdc_acm_if.c ****     FreeNyanString(&nos.tx_buffer);
  85              		.loc 1 343 5 is_stmt 0 view .LVU15
  86 0016 FFF7FEFF 		bl	FreeNyanString
  87              	.LVL7:
 343:Middlewares/Third_Party/AL94_USB_Composite/COMPOSITE/App/usbd_cdc_acm_if.c ****     FreeNyanString(&nos.tx_buffer);
  88              		.loc 1 343 5 view .LVU16
  89 001a F6E7     		b	.L3
  90              	.L7:
  91              		.align	2
  92              	.L6:
  93 001c 00000000 		.word	nos
  94 0020 98000000 		.word	nos+152
  95              		.cfi_endproc
  96              	.LFE149:
  98              		.section	.text.CDC_Init,"ax",%progbits
  99              		.align	1
 100              		.syntax unified
 101              		.thumb
 102              		.thumb_func
 104              	CDC_Init:
 105              	.LVL8:
 106              	.LFB145:
 159:Middlewares/Third_Party/AL94_USB_Composite/COMPOSITE/App/usbd_cdc_acm_if.c ****   /* USER CODE BEGIN 3 */
 107              		.loc 1 159 1 is_stmt 1 view -0
 108              		.cfi_startproc
 109              		@ args = 0, pretend = 0, frame = 0
 110              		@ frame_needed = 0, uses_anonymous_args = 0
 159:Middlewares/Third_Party/AL94_USB_Composite/COMPOSITE/App/usbd_cdc_acm_if.c ****   /* USER CODE BEGIN 3 */
ARM GAS  /tmp/ccgmFeNy.s 			page 9


 111              		.loc 1 159 1 is_stmt 0 view .LVU18
 112 0000 08B5     		push	{r3, lr}
 113              	.LCFI1:
 114              		.cfi_def_cfa_offset 8
 115              		.cfi_offset 3, -8
 116              		.cfi_offset 14, -4
 163:Middlewares/Third_Party/AL94_USB_Composite/COMPOSITE/App/usbd_cdc_acm_if.c **** 
 117              		.loc 1 163 3 is_stmt 1 view .LVU19
 118 0002 044A     		ldr	r2, .L10
 119 0004 02EB4022 		add	r2, r2, r0, lsl #9
 120 0008 0349     		ldr	r1, .L10+4
 121 000a FFF7FEFF 		bl	USBD_CDC_SetRxBuffer
 122              	.LVL9:
 173:Middlewares/Third_Party/AL94_USB_Composite/COMPOSITE/App/usbd_cdc_acm_if.c ****   /* USER CODE END 3 */
 123              		.loc 1 173 3 view .LVU20
 175:Middlewares/Third_Party/AL94_USB_Composite/COMPOSITE/App/usbd_cdc_acm_if.c **** 
 124              		.loc 1 175 1 is_stmt 0 view .LVU21
 125 000e 0020     		movs	r0, #0
 126 0010 08BD     		pop	{r3, pc}
 127              	.L11:
 128 0012 00BF     		.align	2
 129              	.L10:
 130 0014 00000000 		.word	.LANCHOR0
 131 0018 00000000 		.word	hUsbDevice
 132              		.cfi_endproc
 133              	.LFE145:
 135              		.section	.text.CDC_Receive,"ax",%progbits
 136              		.align	1
 137              		.syntax unified
 138              		.thumb
 139              		.thumb_func
 141              	CDC_Receive:
 142              	.LVL10:
 143              	.LFB148:
 295:Middlewares/Third_Party/AL94_USB_Composite/COMPOSITE/App/usbd_cdc_acm_if.c ****   /* USER CODE BEGIN 6 */
 144              		.loc 1 295 1 is_stmt 1 view -0
 145              		.cfi_startproc
 146              		@ args = 0, pretend = 0, frame = 0
 147              		@ frame_needed = 0, uses_anonymous_args = 0
 298:Middlewares/Third_Party/AL94_USB_Composite/COMPOSITE/App/usbd_cdc_acm_if.c ****     // Allocate memory for the temporary buffer.
 148              		.loc 1 298 3 view .LVU23
 298:Middlewares/Third_Party/AL94_USB_Composite/COMPOSITE/App/usbd_cdc_acm_if.c ****     // Allocate memory for the temporary buffer.
 149              		.loc 1 298 6 is_stmt 0 view .LVU24
 150 0000 0029     		cmp	r1, #0
 151 0002 18BF     		it	ne
 152 0004 002A     		cmpne	r2, #0
 153 0006 2BD0     		beq	.L14
 295:Middlewares/Third_Party/AL94_USB_Composite/COMPOSITE/App/usbd_cdc_acm_if.c ****   /* USER CODE BEGIN 6 */
 154              		.loc 1 295 1 discriminator 1 view .LVU25
 155 0008 2DE9F041 		push	{r4, r5, r6, r7, r8, lr}
 156              	.LCFI2:
 157              		.cfi_def_cfa_offset 24
 158              		.cfi_offset 4, -24
 159              		.cfi_offset 5, -20
 160              		.cfi_offset 6, -16
 161              		.cfi_offset 7, -12
 162              		.cfi_offset 8, -8
ARM GAS  /tmp/ccgmFeNy.s 			page 10


 163              		.cfi_offset 14, -4
 164 000c 0446     		mov	r4, r0
 165 000e 0F46     		mov	r7, r1
 166 0010 1546     		mov	r5, r2
 298:Middlewares/Third_Party/AL94_USB_Composite/COMPOSITE/App/usbd_cdc_acm_if.c ****     // Allocate memory for the temporary buffer.
 167              		.loc 1 298 37 discriminator 1 view .LVU26
 168 0012 1668     		ldr	r6, [r2]
 298:Middlewares/Third_Party/AL94_USB_Composite/COMPOSITE/App/usbd_cdc_acm_if.c ****     // Allocate memory for the temporary buffer.
 169              		.loc 1 298 34 discriminator 1 view .LVU27
 170 0014 16B9     		cbnz	r6, .L21
 324:Middlewares/Third_Party/AL94_USB_Composite/COMPOSITE/App/usbd_cdc_acm_if.c ****   /* USER CODE END 6 */
 171              		.loc 1 324 10 view .LVU28
 172 0016 0020     		movs	r0, #0
 173              	.LVL11:
 174              	.L13:
 326:Middlewares/Third_Party/AL94_USB_Composite/COMPOSITE/App/usbd_cdc_acm_if.c **** 
 175              		.loc 1 326 1 view .LVU29
 176 0018 BDE8F081 		pop	{r4, r5, r6, r7, r8, pc}
 177              	.LVL12:
 178              	.L21:
 179              	.LBB2:
 301:Middlewares/Third_Party/AL94_USB_Composite/COMPOSITE/App/usbd_cdc_acm_if.c ****     if (tBuf == NULL) {
 180              		.loc 1 301 5 is_stmt 1 view .LVU30
 301:Middlewares/Third_Party/AL94_USB_Composite/COMPOSITE/App/usbd_cdc_acm_if.c ****     if (tBuf == NULL) {
 181              		.loc 1 301 31 is_stmt 0 view .LVU31
 182 001c 3046     		mov	r0, r6
 183              	.LVL13:
 301:Middlewares/Third_Party/AL94_USB_Composite/COMPOSITE/App/usbd_cdc_acm_if.c ****     if (tBuf == NULL) {
 184              		.loc 1 301 31 view .LVU32
 185 001e FFF7FEFF 		bl	malloc
 186              	.LVL14:
 302:Middlewares/Third_Party/AL94_USB_Composite/COMPOSITE/App/usbd_cdc_acm_if.c ****       // Handle memory allocation error
 187              		.loc 1 302 5 is_stmt 1 view .LVU33
 302:Middlewares/Third_Party/AL94_USB_Composite/COMPOSITE/App/usbd_cdc_acm_if.c ****       // Handle memory allocation error
 188              		.loc 1 302 8 is_stmt 0 view .LVU34
 189 0022 8046     		mov	r8, r0
 190 0024 F0B1     		cbz	r0, .L16
 308:Middlewares/Third_Party/AL94_USB_Composite/COMPOSITE/App/usbd_cdc_acm_if.c **** 
 191              		.loc 1 308 5 is_stmt 1 view .LVU35
 192 0026 3246     		mov	r2, r6
 193 0028 3946     		mov	r1, r7
 194 002a FFF7FEFF 		bl	memcpy
 195              	.LVL15:
 311:Middlewares/Third_Party/AL94_USB_Composite/COMPOSITE/App/usbd_cdc_acm_if.c ****     USBD_CDC_ReceivePacket(cdc_ch, &hUsbDevice);
 196              		.loc 1 311 5 view .LVU36
 197 002e 0E4E     		ldr	r6, .L22
 198 0030 3A46     		mov	r2, r7
 199 0032 3146     		mov	r1, r6
 200 0034 2046     		mov	r0, r4
 201 0036 FFF7FEFF 		bl	USBD_CDC_SetRxBuffer
 202              	.LVL16:
 312:Middlewares/Third_Party/AL94_USB_Composite/COMPOSITE/App/usbd_cdc_acm_if.c **** 
 203              		.loc 1 312 5 view .LVU37
 204 003a 3146     		mov	r1, r6
 205 003c 2046     		mov	r0, r4
 206 003e FFF7FEFF 		bl	USBD_CDC_ReceivePacket
 207              	.LVL17:
ARM GAS  /tmp/ccgmFeNy.s 			page 11


 315:Middlewares/Third_Party/AL94_USB_Composite/COMPOSITE/App/usbd_cdc_acm_if.c **** 
 208              		.loc 1 315 5 view .LVU38
 209 0042 0122     		movs	r2, #1
 210 0044 0821     		movs	r1, #8
 211 0046 0948     		ldr	r0, .L22+4
 212 0048 FFF7FEFF 		bl	HAL_GPIO_WritePin
 213              	.LVL18:
 318:Middlewares/Third_Party/AL94_USB_Composite/COMPOSITE/App/usbd_cdc_acm_if.c **** 
 214              		.loc 1 318 5 view .LVU39
 215 004c 2A46     		mov	r2, r5
 216 004e 4146     		mov	r1, r8
 217 0050 0748     		ldr	r0, .L22+8
 218 0052 FFF7FEFF 		bl	NyanAddInputBuffer
 219              	.LVL19:
 321:Middlewares/Third_Party/AL94_USB_Composite/COMPOSITE/App/usbd_cdc_acm_if.c ****   }
 220              		.loc 1 321 5 view .LVU40
 221 0056 4046     		mov	r0, r8
 222 0058 FFF7FEFF 		bl	free
 223              	.LVL20:
 224              	.LBE2:
 324:Middlewares/Third_Party/AL94_USB_Composite/COMPOSITE/App/usbd_cdc_acm_if.c ****   /* USER CODE END 6 */
 225              		.loc 1 324 10 is_stmt 0 view .LVU41
 226 005c 0020     		movs	r0, #0
 227 005e DBE7     		b	.L13
 228              	.LVL21:
 229              	.L14:
 230              	.LCFI3:
 231              		.cfi_def_cfa_offset 0
 232              		.cfi_restore 4
 233              		.cfi_restore 5
 234              		.cfi_restore 6
 235              		.cfi_restore 7
 236              		.cfi_restore 8
 237              		.cfi_restore 14
 324:Middlewares/Third_Party/AL94_USB_Composite/COMPOSITE/App/usbd_cdc_acm_if.c ****   /* USER CODE END 6 */
 238              		.loc 1 324 10 view .LVU42
 239 0060 0020     		movs	r0, #0
 240              	.LVL22:
 326:Middlewares/Third_Party/AL94_USB_Composite/COMPOSITE/App/usbd_cdc_acm_if.c **** 
 241              		.loc 1 326 1 view .LVU43
 242 0062 7047     		bx	lr
 243              	.LVL23:
 244              	.L16:
 245              	.LCFI4:
 246              		.cfi_def_cfa_offset 24
 247              		.cfi_offset 4, -24
 248              		.cfi_offset 5, -20
 249              		.cfi_offset 6, -16
 250              		.cfi_offset 7, -12
 251              		.cfi_offset 8, -8
 252              		.cfi_offset 14, -4
 253              	.LBB3:
 304:Middlewares/Third_Party/AL94_USB_Composite/COMPOSITE/App/usbd_cdc_acm_if.c ****     }
 254              		.loc 1 304 14 view .LVU44
 255 0064 0320     		movs	r0, #3
 256              	.LVL24:
 304:Middlewares/Third_Party/AL94_USB_Composite/COMPOSITE/App/usbd_cdc_acm_if.c ****     }
ARM GAS  /tmp/ccgmFeNy.s 			page 12


 257              		.loc 1 304 14 view .LVU45
 258 0066 D7E7     		b	.L13
 259              	.L23:
 260              		.align	2
 261              	.L22:
 262 0068 00000000 		.word	hUsbDevice
 263 006c 000C0240 		.word	1073875968
 264 0070 00000000 		.word	nos
 265              	.LBE3:
 266              		.cfi_endproc
 267              	.LFE148:
 269              		.section	.text.CDC_Control,"ax",%progbits
 270              		.align	1
 271              		.syntax unified
 272              		.thumb
 273              		.thumb_func
 275              	CDC_Control:
 276              	.LVL25:
 277              	.LFB147:
 202:Middlewares/Third_Party/AL94_USB_Composite/COMPOSITE/App/usbd_cdc_acm_if.c ****   
 278              		.loc 1 202 1 is_stmt 1 view -0
 279              		.cfi_startproc
 280              		@ args = 0, pretend = 0, frame = 0
 281              		@ frame_needed = 0, uses_anonymous_args = 0
 205:Middlewares/Third_Party/AL94_USB_Composite/COMPOSITE/App/usbd_cdc_acm_if.c ****   {
 282              		.loc 1 205 3 view .LVU47
 283 0000 2129     		cmp	r1, #33
 284 0002 1BD0     		beq	.L25
 285 0004 2229     		cmp	r1, #34
 286 0006 34D0     		beq	.L26
 287 0008 2029     		cmp	r1, #32
 288 000a 01D0     		beq	.L32
 289              	.LVL26:
 290              	.L29:
 275:Middlewares/Third_Party/AL94_USB_Composite/COMPOSITE/App/usbd_cdc_acm_if.c ****   /* USER CODE END 5 */
 291              		.loc 1 275 3 view .LVU48
 277:Middlewares/Third_Party/AL94_USB_Composite/COMPOSITE/App/usbd_cdc_acm_if.c **** 
 292              		.loc 1 277 1 is_stmt 0 view .LVU49
 293 000c 0020     		movs	r0, #0
 294              	.LVL27:
 277:Middlewares/Third_Party/AL94_USB_Composite/COMPOSITE/App/usbd_cdc_acm_if.c **** 
 295              		.loc 1 277 1 view .LVU50
 296 000e 7047     		bx	lr
 297              	.LVL28:
 298              	.L32:
 240:Middlewares/Third_Party/AL94_USB_Composite/COMPOSITE/App/usbd_cdc_acm_if.c ****                                              (pbuf[2] << 16) | (pbuf[3] << 24));
 299              		.loc 1 240 5 is_stmt 1 view .LVU51
 240:Middlewares/Third_Party/AL94_USB_Composite/COMPOSITE/App/usbd_cdc_acm_if.c ****                                              (pbuf[2] << 16) | (pbuf[3] << 24));
 300              		.loc 1 240 50 is_stmt 0 view .LVU52
 301 0010 1178     		ldrb	r1, [r2]	@ zero_extendqisi2
 302              	.LVL29:
 240:Middlewares/Third_Party/AL94_USB_Composite/COMPOSITE/App/usbd_cdc_acm_if.c ****                                              (pbuf[2] << 16) | (pbuf[3] << 24));
 303              		.loc 1 240 61 view .LVU53
 304 0012 5378     		ldrb	r3, [r2, #1]	@ zero_extendqisi2
 305              	.LVL30:
 240:Middlewares/Third_Party/AL94_USB_Composite/COMPOSITE/App/usbd_cdc_acm_if.c ****                                              (pbuf[2] << 16) | (pbuf[3] << 24));
 306              		.loc 1 240 54 view .LVU54
ARM GAS  /tmp/ccgmFeNy.s 			page 13


 307 0014 41EA0321 		orr	r1, r1, r3, lsl #8
 241:Middlewares/Third_Party/AL94_USB_Composite/COMPOSITE/App/usbd_cdc_acm_if.c ****     Line_Coding[cdc_ch].format = pbuf[4];
 308              		.loc 1 241 51 view .LVU55
 309 0018 9378     		ldrb	r3, [r2, #2]	@ zero_extendqisi2
 240:Middlewares/Third_Party/AL94_USB_Composite/COMPOSITE/App/usbd_cdc_acm_if.c ****                                              (pbuf[2] << 16) | (pbuf[3] << 24));
 310              		.loc 1 240 71 view .LVU56
 311 001a 41EA0341 		orr	r1, r1, r3, lsl #16
 241:Middlewares/Third_Party/AL94_USB_Composite/COMPOSITE/App/usbd_cdc_acm_if.c ****     Line_Coding[cdc_ch].format = pbuf[4];
 312              		.loc 1 241 69 view .LVU57
 313 001e D378     		ldrb	r3, [r2, #3]	@ zero_extendqisi2
 241:Middlewares/Third_Party/AL94_USB_Composite/COMPOSITE/App/usbd_cdc_acm_if.c ****     Line_Coding[cdc_ch].format = pbuf[4];
 314              		.loc 1 241 62 view .LVU58
 315 0020 41EA0361 		orr	r1, r1, r3, lsl #24
 240:Middlewares/Third_Party/AL94_USB_Composite/COMPOSITE/App/usbd_cdc_acm_if.c ****                                              (pbuf[2] << 16) | (pbuf[3] << 24));
 316              		.loc 1 240 33 view .LVU59
 317 0024 194B     		ldr	r3, .L33
 318 0026 43F83010 		str	r1, [r3, r0, lsl #3]
 242:Middlewares/Third_Party/AL94_USB_Composite/COMPOSITE/App/usbd_cdc_acm_if.c ****     Line_Coding[cdc_ch].paritytype = pbuf[5];
 319              		.loc 1 242 5 is_stmt 1 view .LVU60
 242:Middlewares/Third_Party/AL94_USB_Composite/COMPOSITE/App/usbd_cdc_acm_if.c ****     Line_Coding[cdc_ch].paritytype = pbuf[5];
 320              		.loc 1 242 32 is_stmt 0 view .LVU61
 321 002a 1179     		ldrb	r1, [r2, #4]	@ zero_extendqisi2
 322 002c 03EBC003 		add	r3, r3, r0, lsl #3
 323 0030 1971     		strb	r1, [r3, #4]
 243:Middlewares/Third_Party/AL94_USB_Composite/COMPOSITE/App/usbd_cdc_acm_if.c ****     Line_Coding[cdc_ch].datatype = pbuf[6];
 324              		.loc 1 243 5 is_stmt 1 view .LVU62
 243:Middlewares/Third_Party/AL94_USB_Composite/COMPOSITE/App/usbd_cdc_acm_if.c ****     Line_Coding[cdc_ch].datatype = pbuf[6];
 325              		.loc 1 243 36 is_stmt 0 view .LVU63
 326 0032 5179     		ldrb	r1, [r2, #5]	@ zero_extendqisi2
 327 0034 5971     		strb	r1, [r3, #5]
 244:Middlewares/Third_Party/AL94_USB_Composite/COMPOSITE/App/usbd_cdc_acm_if.c **** 
 328              		.loc 1 244 5 is_stmt 1 view .LVU64
 244:Middlewares/Third_Party/AL94_USB_Composite/COMPOSITE/App/usbd_cdc_acm_if.c **** 
 329              		.loc 1 244 34 is_stmt 0 view .LVU65
 330 0036 9279     		ldrb	r2, [r2, #6]	@ zero_extendqisi2
 331              	.LVL31:
 244:Middlewares/Third_Party/AL94_USB_Composite/COMPOSITE/App/usbd_cdc_acm_if.c **** 
 332              		.loc 1 244 34 view .LVU66
 333 0038 9A71     		strb	r2, [r3, #6]
 247:Middlewares/Third_Party/AL94_USB_Composite/COMPOSITE/App/usbd_cdc_acm_if.c **** 
 334              		.loc 1 247 5 is_stmt 1 view .LVU67
 335 003a E7E7     		b	.L29
 336              	.LVL32:
 337              	.L25:
 250:Middlewares/Third_Party/AL94_USB_Composite/COMPOSITE/App/usbd_cdc_acm_if.c ****     pbuf[1] = (uint8_t)(Line_Coding[cdc_ch].bitrate >> 8);
 338              		.loc 1 250 5 view .LVU68
 250:Middlewares/Third_Party/AL94_USB_Composite/COMPOSITE/App/usbd_cdc_acm_if.c ****     pbuf[1] = (uint8_t)(Line_Coding[cdc_ch].bitrate >> 8);
 339              		.loc 1 250 44 is_stmt 0 view .LVU69
 340 003c 134B     		ldr	r3, .L33
 341              	.LVL33:
 250:Middlewares/Third_Party/AL94_USB_Composite/COMPOSITE/App/usbd_cdc_acm_if.c ****     pbuf[1] = (uint8_t)(Line_Coding[cdc_ch].bitrate >> 8);
 342              		.loc 1 250 15 view .LVU70
 343 003e 13F83010 		ldrb	r1, [r3, r0, lsl #3]	@ zero_extendqisi2
 344              	.LVL34:
 250:Middlewares/Third_Party/AL94_USB_Composite/COMPOSITE/App/usbd_cdc_acm_if.c ****     pbuf[1] = (uint8_t)(Line_Coding[cdc_ch].bitrate >> 8);
 345              		.loc 1 250 13 view .LVU71
 346 0042 1170     		strb	r1, [r2]
ARM GAS  /tmp/ccgmFeNy.s 			page 14


 251:Middlewares/Third_Party/AL94_USB_Composite/COMPOSITE/App/usbd_cdc_acm_if.c ****     pbuf[2] = (uint8_t)(Line_Coding[cdc_ch].bitrate >> 16);
 347              		.loc 1 251 5 is_stmt 1 view .LVU72
 251:Middlewares/Third_Party/AL94_USB_Composite/COMPOSITE/App/usbd_cdc_acm_if.c ****     pbuf[2] = (uint8_t)(Line_Coding[cdc_ch].bitrate >> 16);
 348              		.loc 1 251 44 is_stmt 0 view .LVU73
 349 0044 53F83010 		ldr	r1, [r3, r0, lsl #3]
 251:Middlewares/Third_Party/AL94_USB_Composite/COMPOSITE/App/usbd_cdc_acm_if.c ****     pbuf[2] = (uint8_t)(Line_Coding[cdc_ch].bitrate >> 16);
 350              		.loc 1 251 15 view .LVU74
 351 0048 C1F30721 		ubfx	r1, r1, #8, #8
 251:Middlewares/Third_Party/AL94_USB_Composite/COMPOSITE/App/usbd_cdc_acm_if.c ****     pbuf[2] = (uint8_t)(Line_Coding[cdc_ch].bitrate >> 16);
 352              		.loc 1 251 13 view .LVU75
 353 004c 5170     		strb	r1, [r2, #1]
 252:Middlewares/Third_Party/AL94_USB_Composite/COMPOSITE/App/usbd_cdc_acm_if.c ****     pbuf[3] = (uint8_t)(Line_Coding[cdc_ch].bitrate >> 24);
 354              		.loc 1 252 5 is_stmt 1 view .LVU76
 252:Middlewares/Third_Party/AL94_USB_Composite/COMPOSITE/App/usbd_cdc_acm_if.c ****     pbuf[3] = (uint8_t)(Line_Coding[cdc_ch].bitrate >> 24);
 355              		.loc 1 252 44 is_stmt 0 view .LVU77
 356 004e 53F83010 		ldr	r1, [r3, r0, lsl #3]
 252:Middlewares/Third_Party/AL94_USB_Composite/COMPOSITE/App/usbd_cdc_acm_if.c ****     pbuf[3] = (uint8_t)(Line_Coding[cdc_ch].bitrate >> 24);
 357              		.loc 1 252 15 view .LVU78
 358 0052 C1F30741 		ubfx	r1, r1, #16, #8
 252:Middlewares/Third_Party/AL94_USB_Composite/COMPOSITE/App/usbd_cdc_acm_if.c ****     pbuf[3] = (uint8_t)(Line_Coding[cdc_ch].bitrate >> 24);
 359              		.loc 1 252 13 view .LVU79
 360 0056 9170     		strb	r1, [r2, #2]
 253:Middlewares/Third_Party/AL94_USB_Composite/COMPOSITE/App/usbd_cdc_acm_if.c ****     pbuf[4] = Line_Coding[cdc_ch].format;
 361              		.loc 1 253 5 is_stmt 1 view .LVU80
 253:Middlewares/Third_Party/AL94_USB_Composite/COMPOSITE/App/usbd_cdc_acm_if.c ****     pbuf[4] = Line_Coding[cdc_ch].format;
 362              		.loc 1 253 44 is_stmt 0 view .LVU81
 363 0058 53F83010 		ldr	r1, [r3, r0, lsl #3]
 253:Middlewares/Third_Party/AL94_USB_Composite/COMPOSITE/App/usbd_cdc_acm_if.c ****     pbuf[4] = Line_Coding[cdc_ch].format;
 364              		.loc 1 253 15 view .LVU82
 365 005c 090E     		lsrs	r1, r1, #24
 253:Middlewares/Third_Party/AL94_USB_Composite/COMPOSITE/App/usbd_cdc_acm_if.c ****     pbuf[4] = Line_Coding[cdc_ch].format;
 366              		.loc 1 253 13 view .LVU83
 367 005e D170     		strb	r1, [r2, #3]
 254:Middlewares/Third_Party/AL94_USB_Composite/COMPOSITE/App/usbd_cdc_acm_if.c ****     pbuf[5] = Line_Coding[cdc_ch].paritytype;
 368              		.loc 1 254 5 is_stmt 1 view .LVU84
 254:Middlewares/Third_Party/AL94_USB_Composite/COMPOSITE/App/usbd_cdc_acm_if.c ****     pbuf[5] = Line_Coding[cdc_ch].paritytype;
 369              		.loc 1 254 34 is_stmt 0 view .LVU85
 370 0060 03EBC003 		add	r3, r3, r0, lsl #3
 371 0064 1979     		ldrb	r1, [r3, #4]	@ zero_extendqisi2
 254:Middlewares/Third_Party/AL94_USB_Composite/COMPOSITE/App/usbd_cdc_acm_if.c ****     pbuf[5] = Line_Coding[cdc_ch].paritytype;
 372              		.loc 1 254 13 view .LVU86
 373 0066 1171     		strb	r1, [r2, #4]
 255:Middlewares/Third_Party/AL94_USB_Composite/COMPOSITE/App/usbd_cdc_acm_if.c ****     pbuf[6] = Line_Coding[cdc_ch].datatype;
 374              		.loc 1 255 5 is_stmt 1 view .LVU87
 255:Middlewares/Third_Party/AL94_USB_Composite/COMPOSITE/App/usbd_cdc_acm_if.c ****     pbuf[6] = Line_Coding[cdc_ch].datatype;
 375              		.loc 1 255 34 is_stmt 0 view .LVU88
 376 0068 5979     		ldrb	r1, [r3, #5]	@ zero_extendqisi2
 255:Middlewares/Third_Party/AL94_USB_Composite/COMPOSITE/App/usbd_cdc_acm_if.c ****     pbuf[6] = Line_Coding[cdc_ch].datatype;
 377              		.loc 1 255 13 view .LVU89
 378 006a 5171     		strb	r1, [r2, #5]
 256:Middlewares/Third_Party/AL94_USB_Composite/COMPOSITE/App/usbd_cdc_acm_if.c ****     break;
 379              		.loc 1 256 5 is_stmt 1 view .LVU90
 256:Middlewares/Third_Party/AL94_USB_Composite/COMPOSITE/App/usbd_cdc_acm_if.c ****     break;
 380              		.loc 1 256 34 is_stmt 0 view .LVU91
 381 006c 9B79     		ldrb	r3, [r3, #6]	@ zero_extendqisi2
 256:Middlewares/Third_Party/AL94_USB_Composite/COMPOSITE/App/usbd_cdc_acm_if.c ****     break;
 382              		.loc 1 256 13 view .LVU92
ARM GAS  /tmp/ccgmFeNy.s 			page 15


 383 006e 9371     		strb	r3, [r2, #6]
 257:Middlewares/Third_Party/AL94_USB_Composite/COMPOSITE/App/usbd_cdc_acm_if.c **** 
 384              		.loc 1 257 5 is_stmt 1 view .LVU93
 385 0070 CCE7     		b	.L29
 386              	.LVL35:
 387              	.L26:
 260:Middlewares/Third_Party/AL94_USB_Composite/COMPOSITE/App/usbd_cdc_acm_if.c ****       // Initialize the NyanOS for this session - Invalidates all other sessions
 388              		.loc 1 260 5 view .LVU94
 260:Middlewares/Third_Party/AL94_USB_Composite/COMPOSITE/App/usbd_cdc_acm_if.c ****       // Initialize the NyanOS for this session - Invalidates all other sessions
 389              		.loc 1 260 13 is_stmt 0 view .LVU95
 390 0072 1378     		ldrb	r3, [r2]	@ zero_extendqisi2
 391              	.LVL36:
 260:Middlewares/Third_Party/AL94_USB_Composite/COMPOSITE/App/usbd_cdc_acm_if.c ****       // Initialize the NyanOS for this session - Invalidates all other sessions
 392              		.loc 1 260 8 view .LVU96
 393 0074 13F0010F 		tst	r3, #1
 394 0078 C8D0     		beq	.L29
 202:Middlewares/Third_Party/AL94_USB_Composite/COMPOSITE/App/usbd_cdc_acm_if.c ****   
 395              		.loc 1 202 1 view .LVU97
 396 007a 10B5     		push	{r4, lr}
 397              	.LCFI5:
 398              		.cfi_def_cfa_offset 8
 399              		.cfi_offset 4, -8
 400              		.cfi_offset 14, -4
 262:Middlewares/Third_Party/AL94_USB_Composite/COMPOSITE/App/usbd_cdc_acm_if.c ****       nos.send_welcome_screen = true;
 401              		.loc 1 262 7 is_stmt 1 view .LVU98
 402 007c 044C     		ldr	r4, .L33+4
 403 007e 2046     		mov	r0, r4
 404              	.LVL37:
 262:Middlewares/Third_Party/AL94_USB_Composite/COMPOSITE/App/usbd_cdc_acm_if.c ****       nos.send_welcome_screen = true;
 405              		.loc 1 262 7 is_stmt 0 view .LVU99
 406 0080 FFF7FEFF 		bl	NyanOsInit
 407              	.LVL38:
 263:Middlewares/Third_Party/AL94_USB_Composite/COMPOSITE/App/usbd_cdc_acm_if.c ****     }
 408              		.loc 1 263 7 is_stmt 1 view .LVU100
 263:Middlewares/Third_Party/AL94_USB_Composite/COMPOSITE/App/usbd_cdc_acm_if.c ****     }
 409              		.loc 1 263 31 is_stmt 0 view .LVU101
 410 0084 0123     		movs	r3, #1
 411 0086 2370     		strb	r3, [r4]
 275:Middlewares/Third_Party/AL94_USB_Composite/COMPOSITE/App/usbd_cdc_acm_if.c ****   /* USER CODE END 5 */
 412              		.loc 1 275 3 is_stmt 1 view .LVU102
 277:Middlewares/Third_Party/AL94_USB_Composite/COMPOSITE/App/usbd_cdc_acm_if.c **** 
 413              		.loc 1 277 1 is_stmt 0 view .LVU103
 414 0088 0020     		movs	r0, #0
 415 008a 10BD     		pop	{r4, pc}
 416              	.L34:
 417              		.align	2
 418              	.L33:
 419 008c 00000000 		.word	.LANCHOR1
 420 0090 00000000 		.word	nos
 421              		.cfi_endproc
 422              	.LFE147:
 424              		.section	.text.CDC_Transmit,"ax",%progbits
 425              		.align	1
 426              		.global	CDC_Transmit
 427              		.syntax unified
 428              		.thumb
 429              		.thumb_func
ARM GAS  /tmp/ccgmFeNy.s 			page 16


 431              	CDC_Transmit:
 432              	.LVL39:
 433              	.LFB150:
 347:Middlewares/Third_Party/AL94_USB_Composite/COMPOSITE/App/usbd_cdc_acm_if.c **** 
 348:Middlewares/Third_Party/AL94_USB_Composite/COMPOSITE/App/usbd_cdc_acm_if.c **** /**
 349:Middlewares/Third_Party/AL94_USB_Composite/COMPOSITE/App/usbd_cdc_acm_if.c ****   * @brief  CDC_Transmit
 350:Middlewares/Third_Party/AL94_USB_Composite/COMPOSITE/App/usbd_cdc_acm_if.c ****   *         Data to send over USB IN endpoint are sent over CDC interface
 351:Middlewares/Third_Party/AL94_USB_Composite/COMPOSITE/App/usbd_cdc_acm_if.c ****   *         through this function.
 352:Middlewares/Third_Party/AL94_USB_Composite/COMPOSITE/App/usbd_cdc_acm_if.c ****   *         @note
 353:Middlewares/Third_Party/AL94_USB_Composite/COMPOSITE/App/usbd_cdc_acm_if.c ****   *
 354:Middlewares/Third_Party/AL94_USB_Composite/COMPOSITE/App/usbd_cdc_acm_if.c ****   *
 355:Middlewares/Third_Party/AL94_USB_Composite/COMPOSITE/App/usbd_cdc_acm_if.c ****   * @param  Buf: Buffer of data to be sent
 356:Middlewares/Third_Party/AL94_USB_Composite/COMPOSITE/App/usbd_cdc_acm_if.c ****   * @param  Len: Number of data to be sent (in bytes)
 357:Middlewares/Third_Party/AL94_USB_Composite/COMPOSITE/App/usbd_cdc_acm_if.c ****   * @retval USBD_OK if all operations are OK else USBD_FAIL or USBD_BUSY
 358:Middlewares/Third_Party/AL94_USB_Composite/COMPOSITE/App/usbd_cdc_acm_if.c ****   */
 359:Middlewares/Third_Party/AL94_USB_Composite/COMPOSITE/App/usbd_cdc_acm_if.c **** uint8_t CDC_Transmit(uint8_t cdc_ch, uint8_t *Buf, uint16_t Len)
 360:Middlewares/Third_Party/AL94_USB_Composite/COMPOSITE/App/usbd_cdc_acm_if.c **** {
 434              		.loc 1 360 1 is_stmt 1 view -0
 435              		.cfi_startproc
 436              		@ args = 0, pretend = 0, frame = 0
 437              		@ frame_needed = 0, uses_anonymous_args = 0
 438              		.loc 1 360 1 is_stmt 0 view .LVU105
 439 0000 38B5     		push	{r3, r4, r5, lr}
 440              	.LCFI6:
 441              		.cfi_def_cfa_offset 16
 442              		.cfi_offset 3, -16
 443              		.cfi_offset 4, -12
 444              		.cfi_offset 5, -8
 445              		.cfi_offset 14, -4
 446 0002 0446     		mov	r4, r0
 361:Middlewares/Third_Party/AL94_USB_Composite/COMPOSITE/App/usbd_cdc_acm_if.c ****   // Take a semaphore and lock up the TX buffer from sends until the CDC_TransmitCplt occours
 362:Middlewares/Third_Party/AL94_USB_Composite/COMPOSITE/App/usbd_cdc_acm_if.c ****   nos.tx_inflight = 1;
 447              		.loc 1 362 3 is_stmt 1 view .LVU106
 448              		.loc 1 362 19 is_stmt 0 view .LVU107
 449 0004 0C4B     		ldr	r3, .L40
 450 0006 0120     		movs	r0, #1
 451              	.LVL40:
 452              		.loc 1 362 19 view .LVU108
 453 0008 83F89300 		strb	r0, [r3, #147]
 363:Middlewares/Third_Party/AL94_USB_Composite/COMPOSITE/App/usbd_cdc_acm_if.c ****   uint8_t result = USBD_OK;
 454              		.loc 1 363 3 is_stmt 1 view .LVU109
 455              	.LVL41:
 364:Middlewares/Third_Party/AL94_USB_Composite/COMPOSITE/App/usbd_cdc_acm_if.c ****   /* USER CODE BEGIN 7 */
 365:Middlewares/Third_Party/AL94_USB_Composite/COMPOSITE/App/usbd_cdc_acm_if.c ****   extern USBD_CDC_ACM_HandleTypeDef CDC_ACM_Class_Data[];
 456              		.loc 1 365 3 view .LVU110
 366:Middlewares/Third_Party/AL94_USB_Composite/COMPOSITE/App/usbd_cdc_acm_if.c ****   USBD_CDC_ACM_HandleTypeDef *hcdc = NULL;
 457              		.loc 1 366 3 view .LVU111
 367:Middlewares/Third_Party/AL94_USB_Composite/COMPOSITE/App/usbd_cdc_acm_if.c ****   hcdc = &CDC_ACM_Class_Data[cdc_ch];
 458              		.loc 1 367 3 view .LVU112
 368:Middlewares/Third_Party/AL94_USB_Composite/COMPOSITE/App/usbd_cdc_acm_if.c ****   if (hcdc->TxState != 0)
 459              		.loc 1 368 3 view .LVU113
 460              		.loc 1 368 11 is_stmt 0 view .LVU114
 461 000c 0B48     		ldr	r0, .L40+4
 462 000e 4FF40773 		mov	r3, #540
 463 0012 03FB0400 		mla	r0, r3, r4, r0
 464              	.LVL42:
 465              		.loc 1 368 11 view .LVU115
ARM GAS  /tmp/ccgmFeNy.s 			page 17


 466 0016 D0F81432 		ldr	r3, [r0, #532]
 467              		.loc 1 368 6 view .LVU116
 468 001a 0BB1     		cbz	r3, .L39
 369:Middlewares/Third_Party/AL94_USB_Composite/COMPOSITE/App/usbd_cdc_acm_if.c ****   {
 370:Middlewares/Third_Party/AL94_USB_Composite/COMPOSITE/App/usbd_cdc_acm_if.c ****     return USBD_BUSY;
 469              		.loc 1 370 12 view .LVU117
 470 001c 0120     		movs	r0, #1
 471              	.LVL43:
 472              	.L36:
 371:Middlewares/Third_Party/AL94_USB_Composite/COMPOSITE/App/usbd_cdc_acm_if.c ****   }
 372:Middlewares/Third_Party/AL94_USB_Composite/COMPOSITE/App/usbd_cdc_acm_if.c ****   USBD_CDC_SetTxBuffer(cdc_ch, &hUsbDevice, Buf, Len);
 373:Middlewares/Third_Party/AL94_USB_Composite/COMPOSITE/App/usbd_cdc_acm_if.c ****   result = USBD_CDC_TransmitPacket(cdc_ch, &hUsbDevice);
 374:Middlewares/Third_Party/AL94_USB_Composite/COMPOSITE/App/usbd_cdc_acm_if.c ****   /* USER CODE END 7 */
 375:Middlewares/Third_Party/AL94_USB_Composite/COMPOSITE/App/usbd_cdc_acm_if.c ****   return result;
 376:Middlewares/Third_Party/AL94_USB_Composite/COMPOSITE/App/usbd_cdc_acm_if.c **** }
 473              		.loc 1 376 1 view .LVU118
 474 001e 38BD     		pop	{r3, r4, r5, pc}
 475              	.LVL44:
 476              	.L39:
 372:Middlewares/Third_Party/AL94_USB_Composite/COMPOSITE/App/usbd_cdc_acm_if.c ****   result = USBD_CDC_TransmitPacket(cdc_ch, &hUsbDevice);
 477              		.loc 1 372 3 is_stmt 1 view .LVU119
 478 0020 074D     		ldr	r5, .L40+8
 479 0022 1346     		mov	r3, r2
 480 0024 0A46     		mov	r2, r1
 481              	.LVL45:
 372:Middlewares/Third_Party/AL94_USB_Composite/COMPOSITE/App/usbd_cdc_acm_if.c ****   result = USBD_CDC_TransmitPacket(cdc_ch, &hUsbDevice);
 482              		.loc 1 372 3 is_stmt 0 view .LVU120
 483 0026 2946     		mov	r1, r5
 484              	.LVL46:
 372:Middlewares/Third_Party/AL94_USB_Composite/COMPOSITE/App/usbd_cdc_acm_if.c ****   result = USBD_CDC_TransmitPacket(cdc_ch, &hUsbDevice);
 485              		.loc 1 372 3 view .LVU121
 486 0028 2046     		mov	r0, r4
 487              	.LVL47:
 372:Middlewares/Third_Party/AL94_USB_Composite/COMPOSITE/App/usbd_cdc_acm_if.c ****   result = USBD_CDC_TransmitPacket(cdc_ch, &hUsbDevice);
 488              		.loc 1 372 3 view .LVU122
 489 002a FFF7FEFF 		bl	USBD_CDC_SetTxBuffer
 490              	.LVL48:
 373:Middlewares/Third_Party/AL94_USB_Composite/COMPOSITE/App/usbd_cdc_acm_if.c ****   /* USER CODE END 7 */
 491              		.loc 1 373 3 is_stmt 1 view .LVU123
 373:Middlewares/Third_Party/AL94_USB_Composite/COMPOSITE/App/usbd_cdc_acm_if.c ****   /* USER CODE END 7 */
 492              		.loc 1 373 12 is_stmt 0 view .LVU124
 493 002e 2946     		mov	r1, r5
 494 0030 2046     		mov	r0, r4
 495 0032 FFF7FEFF 		bl	USBD_CDC_TransmitPacket
 496              	.LVL49:
 375:Middlewares/Third_Party/AL94_USB_Composite/COMPOSITE/App/usbd_cdc_acm_if.c **** }
 497              		.loc 1 375 3 is_stmt 1 view .LVU125
 375:Middlewares/Third_Party/AL94_USB_Composite/COMPOSITE/App/usbd_cdc_acm_if.c **** }
 498              		.loc 1 375 10 is_stmt 0 view .LVU126
 499 0036 F2E7     		b	.L36
 500              	.L41:
 501              		.align	2
 502              	.L40:
 503 0038 00000000 		.word	nos
 504 003c 00000000 		.word	CDC_ACM_Class_Data
 505 0040 00000000 		.word	hUsbDevice
 506              		.cfi_endproc
ARM GAS  /tmp/ccgmFeNy.s 			page 18


 507              	.LFE150:
 509              		.global	USBD_CDC_ACM_fops
 510              		.global	Read_Index
 511              		.global	Write_Index
 512              		.global	Line_Coding
 513              		.global	TX_Buffer
 514              		.global	RX_Buffer
 515              		.section	.bss.Line_Coding,"aw",%nobits
 516              		.align	2
 517              		.set	.LANCHOR1,. + 0
 520              	Line_Coding:
 521 0000 00000000 		.space	8
 521      00000000 
 522              		.section	.bss.RX_Buffer,"aw",%nobits
 523              		.align	2
 524              		.set	.LANCHOR0,. + 0
 527              	RX_Buffer:
 528 0000 00000000 		.space	512
 528      00000000 
 528      00000000 
 528      00000000 
 528      00000000 
 529              		.section	.bss.Read_Index,"aw",%nobits
 530              		.align	2
 533              	Read_Index:
 534 0000 00000000 		.space	4
 535              		.section	.bss.TX_Buffer,"aw",%nobits
 536              		.align	2
 539              	TX_Buffer:
 540 0000 00000000 		.space	1024
 540      00000000 
 540      00000000 
 540      00000000 
 540      00000000 
 541              		.section	.bss.Write_Index,"aw",%nobits
 542              		.align	2
 545              	Write_Index:
 546 0000 00000000 		.space	4
 547              		.section	.data.USBD_CDC_ACM_fops,"aw"
 548              		.align	2
 551              	USBD_CDC_ACM_fops:
 552 0000 00000000 		.word	CDC_Init
 553 0004 00000000 		.word	CDC_DeInit
 554 0008 00000000 		.word	CDC_Control
 555 000c 00000000 		.word	CDC_Receive
 556 0010 00000000 		.word	CDC_TransmitCplt
 557              		.text
 558              	.Letext0:
 559              		.file 2 "/opt/gcc-arm-none-eabi-10.3-2021.10/arm-none-eabi/include/machine/_default_types.h"
 560              		.file 3 "/opt/gcc-arm-none-eabi-10.3-2021.10/lib/gcc/arm-none-eabi/10.3.1/include/stddef.h"
 561              		.file 4 "/opt/gcc-arm-none-eabi-10.3-2021.10/arm-none-eabi/include/sys/_stdint.h"
 562              		.file 5 "Drivers/CMSIS/Device/ST/STM32F7xx/Include/stm32f723xx.h"
 563              		.file 6 "Middlewares/Third_Party/AL94_USB_Composite/COMPOSITE/Core/Inc/usbd_def.h"
 564              		.file 7 "Drivers/STM32F7xx_HAL_Driver/Inc/stm32f7xx_hal_gpio.h"
 565              		.file 8 "Middlewares/Third_Party/AL94_USB_Composite/COMPOSITE/Class/CDC_ACM/Inc/usbd_cdc_acm.h"
 566              		.file 9 "Core/Inc/24xx_eeprom.h"
 567              		.file 10 "Core/Inc/nyan_bitcoin.h"
ARM GAS  /tmp/ccgmFeNy.s 			page 19


 568              		.file 11 "Core/Inc/nyan_os.h"
 569              		.file 12 "Middlewares/Third_Party/AL94_USB_Composite/COMPOSITE/App/usbd_cdc_acm_if.h"
 570              		.file 13 "/opt/gcc-arm-none-eabi-10.3-2021.10/arm-none-eabi/include/stdlib.h"
 571              		.file 14 "<built-in>"
ARM GAS  /tmp/ccgmFeNy.s 			page 20

