ARM GAS  /tmp/ccXMkua6.s 			page 1


   1              		.cpu cortex-m7
   2              		.arch armv7e-m
   3              		.fpu fpv5-sp-d16
   4              		.eabi_attribute 27, 1
   5              		.eabi_attribute 28, 1
   6              		.eabi_attribute 20, 1
   7              		.eabi_attribute 21, 1
   8              		.eabi_attribute 23, 3
   9              		.eabi_attribute 24, 1
  10              		.eabi_attribute 25, 1
  11              		.eabi_attribute 26, 1
  12              		.eabi_attribute 30, 1
  13              		.eabi_attribute 34, 1
  14              		.eabi_attribute 18, 4
  15              		.file	"usbd_composite.c"
  16              		.text
  17              	.Ltext0:
  18              		.cfi_sections	.debug_frame
  19              		.section	.text.USBD_COMPOSITE_Init,"ax",%progbits
  20              		.align	1
  21              		.syntax unified
  22              		.thumb
  23              		.thumb_func
  25              	USBD_COMPOSITE_Init:
  26              	.LVL0:
  27              	.LFB145:
  28              		.file 1 "Middlewares/Third_Party/AL94_USB_Composite/COMPOSITE/Class/COMPOSITE/Src/usbd_composite.c
   1:Middlewares/Third_Party/AL94_USB_Composite/COMPOSITE/Class/COMPOSITE/Src/usbd_composite.c **** /**
   2:Middlewares/Third_Party/AL94_USB_Composite/COMPOSITE/Class/COMPOSITE/Src/usbd_composite.c ****   ******************************************************************************
   3:Middlewares/Third_Party/AL94_USB_Composite/COMPOSITE/Class/COMPOSITE/Src/usbd_composite.c ****   * @file    usbd_composite.c
   4:Middlewares/Third_Party/AL94_USB_Composite/COMPOSITE/Class/COMPOSITE/Src/usbd_composite.c ****   * @author  MCD Application Team
   5:Middlewares/Third_Party/AL94_USB_Composite/COMPOSITE/Class/COMPOSITE/Src/usbd_composite.c ****   * @brief   This file provides the HID core functions.
   6:Middlewares/Third_Party/AL94_USB_Composite/COMPOSITE/Class/COMPOSITE/Src/usbd_composite.c ****   *
   7:Middlewares/Third_Party/AL94_USB_Composite/COMPOSITE/Class/COMPOSITE/Src/usbd_composite.c ****   * @verbatim
   8:Middlewares/Third_Party/AL94_USB_Composite/COMPOSITE/Class/COMPOSITE/Src/usbd_composite.c ****   *
   9:Middlewares/Third_Party/AL94_USB_Composite/COMPOSITE/Class/COMPOSITE/Src/usbd_composite.c ****   *          ===================================================================
  10:Middlewares/Third_Party/AL94_USB_Composite/COMPOSITE/Class/COMPOSITE/Src/usbd_composite.c ****   *                                COMPOSITE Class  Description
  11:Middlewares/Third_Party/AL94_USB_Composite/COMPOSITE/Class/COMPOSITE/Src/usbd_composite.c ****   *          ===================================================================
  12:Middlewares/Third_Party/AL94_USB_Composite/COMPOSITE/Class/COMPOSITE/Src/usbd_composite.c ****   *
  13:Middlewares/Third_Party/AL94_USB_Composite/COMPOSITE/Class/COMPOSITE/Src/usbd_composite.c ****   *
  14:Middlewares/Third_Party/AL94_USB_Composite/COMPOSITE/Class/COMPOSITE/Src/usbd_composite.c ****   *
  15:Middlewares/Third_Party/AL94_USB_Composite/COMPOSITE/Class/COMPOSITE/Src/usbd_composite.c ****   *
  16:Middlewares/Third_Party/AL94_USB_Composite/COMPOSITE/Class/COMPOSITE/Src/usbd_composite.c ****   *
  17:Middlewares/Third_Party/AL94_USB_Composite/COMPOSITE/Class/COMPOSITE/Src/usbd_composite.c ****   *
  18:Middlewares/Third_Party/AL94_USB_Composite/COMPOSITE/Class/COMPOSITE/Src/usbd_composite.c ****   * @note     In HS mode and when the DMA is used, all variables and data structures
  19:Middlewares/Third_Party/AL94_USB_Composite/COMPOSITE/Class/COMPOSITE/Src/usbd_composite.c ****   *           dealing with the DMA during the transaction process should be 32-bit aligned.
  20:Middlewares/Third_Party/AL94_USB_Composite/COMPOSITE/Class/COMPOSITE/Src/usbd_composite.c ****   *
  21:Middlewares/Third_Party/AL94_USB_Composite/COMPOSITE/Class/COMPOSITE/Src/usbd_composite.c ****   *
  22:Middlewares/Third_Party/AL94_USB_Composite/COMPOSITE/Class/COMPOSITE/Src/usbd_composite.c ****   *  @endverbatim
  23:Middlewares/Third_Party/AL94_USB_Composite/COMPOSITE/Class/COMPOSITE/Src/usbd_composite.c ****   *
  24:Middlewares/Third_Party/AL94_USB_Composite/COMPOSITE/Class/COMPOSITE/Src/usbd_composite.c ****   ******************************************************************************
  25:Middlewares/Third_Party/AL94_USB_Composite/COMPOSITE/Class/COMPOSITE/Src/usbd_composite.c ****   * @attention
  26:Middlewares/Third_Party/AL94_USB_Composite/COMPOSITE/Class/COMPOSITE/Src/usbd_composite.c ****   *
  27:Middlewares/Third_Party/AL94_USB_Composite/COMPOSITE/Class/COMPOSITE/Src/usbd_composite.c ****   * <h2><center>&copy; Copyright (c) 2015 STMicroelectronics.
  28:Middlewares/Third_Party/AL94_USB_Composite/COMPOSITE/Class/COMPOSITE/Src/usbd_composite.c ****   * All rights reserved.</center></h2>
  29:Middlewares/Third_Party/AL94_USB_Composite/COMPOSITE/Class/COMPOSITE/Src/usbd_composite.c ****   *
  30:Middlewares/Third_Party/AL94_USB_Composite/COMPOSITE/Class/COMPOSITE/Src/usbd_composite.c ****   * This software component is licensed by ST under Ultimate Liberty license
ARM GAS  /tmp/ccXMkua6.s 			page 2


  31:Middlewares/Third_Party/AL94_USB_Composite/COMPOSITE/Class/COMPOSITE/Src/usbd_composite.c ****   * SLA0044, the "License"; You may not use this file except in compliance with
  32:Middlewares/Third_Party/AL94_USB_Composite/COMPOSITE/Class/COMPOSITE/Src/usbd_composite.c ****   * the License. You may obtain a copy of the License at:
  33:Middlewares/Third_Party/AL94_USB_Composite/COMPOSITE/Class/COMPOSITE/Src/usbd_composite.c ****   *                      www.st.com/SLA0044
  34:Middlewares/Third_Party/AL94_USB_Composite/COMPOSITE/Class/COMPOSITE/Src/usbd_composite.c ****   *
  35:Middlewares/Third_Party/AL94_USB_Composite/COMPOSITE/Class/COMPOSITE/Src/usbd_composite.c ****   ******************************************************************************
  36:Middlewares/Third_Party/AL94_USB_Composite/COMPOSITE/Class/COMPOSITE/Src/usbd_composite.c ****   */
  37:Middlewares/Third_Party/AL94_USB_Composite/COMPOSITE/Class/COMPOSITE/Src/usbd_composite.c **** 
  38:Middlewares/Third_Party/AL94_USB_Composite/COMPOSITE/Class/COMPOSITE/Src/usbd_composite.c **** /* Includes ------------------------------------------------------------------*/
  39:Middlewares/Third_Party/AL94_USB_Composite/COMPOSITE/Class/COMPOSITE/Src/usbd_composite.c **** #include "usbd_composite.h"
  40:Middlewares/Third_Party/AL94_USB_Composite/COMPOSITE/Class/COMPOSITE/Src/usbd_composite.c **** #include "usbd_ctlreq.h"
  41:Middlewares/Third_Party/AL94_USB_Composite/COMPOSITE/Class/COMPOSITE/Src/usbd_composite.c **** 
  42:Middlewares/Third_Party/AL94_USB_Composite/COMPOSITE/Class/COMPOSITE/Src/usbd_composite.c **** /** @addtogroup STM32_USB_DEVICE_LIBRARY
  43:Middlewares/Third_Party/AL94_USB_Composite/COMPOSITE/Class/COMPOSITE/Src/usbd_composite.c ****   * @{
  44:Middlewares/Third_Party/AL94_USB_Composite/COMPOSITE/Class/COMPOSITE/Src/usbd_composite.c ****   */
  45:Middlewares/Third_Party/AL94_USB_Composite/COMPOSITE/Class/COMPOSITE/Src/usbd_composite.c **** 
  46:Middlewares/Third_Party/AL94_USB_Composite/COMPOSITE/Class/COMPOSITE/Src/usbd_composite.c **** /** @defgroup USBD_COMPOSITE
  47:Middlewares/Third_Party/AL94_USB_Composite/COMPOSITE/Class/COMPOSITE/Src/usbd_composite.c ****   * @brief usbd core module
  48:Middlewares/Third_Party/AL94_USB_Composite/COMPOSITE/Class/COMPOSITE/Src/usbd_composite.c ****   * @{
  49:Middlewares/Third_Party/AL94_USB_Composite/COMPOSITE/Class/COMPOSITE/Src/usbd_composite.c ****   */
  50:Middlewares/Third_Party/AL94_USB_Composite/COMPOSITE/Class/COMPOSITE/Src/usbd_composite.c **** 
  51:Middlewares/Third_Party/AL94_USB_Composite/COMPOSITE/Class/COMPOSITE/Src/usbd_composite.c **** /** @defgroup USBD_COMPOSITE_Private_TypesDefinitions
  52:Middlewares/Third_Party/AL94_USB_Composite/COMPOSITE/Class/COMPOSITE/Src/usbd_composite.c ****   * @{
  53:Middlewares/Third_Party/AL94_USB_Composite/COMPOSITE/Class/COMPOSITE/Src/usbd_composite.c ****   */
  54:Middlewares/Third_Party/AL94_USB_Composite/COMPOSITE/Class/COMPOSITE/Src/usbd_composite.c **** /**
  55:Middlewares/Third_Party/AL94_USB_Composite/COMPOSITE/Class/COMPOSITE/Src/usbd_composite.c ****   * @}
  56:Middlewares/Third_Party/AL94_USB_Composite/COMPOSITE/Class/COMPOSITE/Src/usbd_composite.c ****   */
  57:Middlewares/Third_Party/AL94_USB_Composite/COMPOSITE/Class/COMPOSITE/Src/usbd_composite.c **** 
  58:Middlewares/Third_Party/AL94_USB_Composite/COMPOSITE/Class/COMPOSITE/Src/usbd_composite.c **** /** @defgroup USBD_COMPOSITE_Private_Defines
  59:Middlewares/Third_Party/AL94_USB_Composite/COMPOSITE/Class/COMPOSITE/Src/usbd_composite.c ****   * @{
  60:Middlewares/Third_Party/AL94_USB_Composite/COMPOSITE/Class/COMPOSITE/Src/usbd_composite.c ****   */
  61:Middlewares/Third_Party/AL94_USB_Composite/COMPOSITE/Class/COMPOSITE/Src/usbd_composite.c **** 
  62:Middlewares/Third_Party/AL94_USB_Composite/COMPOSITE/Class/COMPOSITE/Src/usbd_composite.c **** /**
  63:Middlewares/Third_Party/AL94_USB_Composite/COMPOSITE/Class/COMPOSITE/Src/usbd_composite.c ****   * @}
  64:Middlewares/Third_Party/AL94_USB_Composite/COMPOSITE/Class/COMPOSITE/Src/usbd_composite.c ****   */
  65:Middlewares/Third_Party/AL94_USB_Composite/COMPOSITE/Class/COMPOSITE/Src/usbd_composite.c **** 
  66:Middlewares/Third_Party/AL94_USB_Composite/COMPOSITE/Class/COMPOSITE/Src/usbd_composite.c **** /** @defgroup USBD_COMPOSITE_Private_Macros
  67:Middlewares/Third_Party/AL94_USB_Composite/COMPOSITE/Class/COMPOSITE/Src/usbd_composite.c ****   * @{
  68:Middlewares/Third_Party/AL94_USB_Composite/COMPOSITE/Class/COMPOSITE/Src/usbd_composite.c ****   */
  69:Middlewares/Third_Party/AL94_USB_Composite/COMPOSITE/Class/COMPOSITE/Src/usbd_composite.c **** 
  70:Middlewares/Third_Party/AL94_USB_Composite/COMPOSITE/Class/COMPOSITE/Src/usbd_composite.c **** /**
  71:Middlewares/Third_Party/AL94_USB_Composite/COMPOSITE/Class/COMPOSITE/Src/usbd_composite.c ****   * @}
  72:Middlewares/Third_Party/AL94_USB_Composite/COMPOSITE/Class/COMPOSITE/Src/usbd_composite.c ****   */
  73:Middlewares/Third_Party/AL94_USB_Composite/COMPOSITE/Class/COMPOSITE/Src/usbd_composite.c **** 
  74:Middlewares/Third_Party/AL94_USB_Composite/COMPOSITE/Class/COMPOSITE/Src/usbd_composite.c **** /** @defgroup USBD_COMPOSITE_Private_FunctionPrototypes
  75:Middlewares/Third_Party/AL94_USB_Composite/COMPOSITE/Class/COMPOSITE/Src/usbd_composite.c ****   * @{
  76:Middlewares/Third_Party/AL94_USB_Composite/COMPOSITE/Class/COMPOSITE/Src/usbd_composite.c ****   */
  77:Middlewares/Third_Party/AL94_USB_Composite/COMPOSITE/Class/COMPOSITE/Src/usbd_composite.c **** 
  78:Middlewares/Third_Party/AL94_USB_Composite/COMPOSITE/Class/COMPOSITE/Src/usbd_composite.c **** static uint8_t USBD_COMPOSITE_Init(USBD_HandleTypeDef *pdev, uint8_t cfgidx);
  79:Middlewares/Third_Party/AL94_USB_Composite/COMPOSITE/Class/COMPOSITE/Src/usbd_composite.c **** static uint8_t USBD_COMPOSITE_DeInit(USBD_HandleTypeDef *pdev, uint8_t cfgidx);
  80:Middlewares/Third_Party/AL94_USB_Composite/COMPOSITE/Class/COMPOSITE/Src/usbd_composite.c **** static uint8_t USBD_COMPOSITE_Setup(USBD_HandleTypeDef *pdev, USBD_SetupReqTypedef *req);
  81:Middlewares/Third_Party/AL94_USB_Composite/COMPOSITE/Class/COMPOSITE/Src/usbd_composite.c **** static uint8_t USBD_COMPOSITE_DataIn(USBD_HandleTypeDef *pdev, uint8_t epnum);
  82:Middlewares/Third_Party/AL94_USB_Composite/COMPOSITE/Class/COMPOSITE/Src/usbd_composite.c **** static uint8_t USBD_COMPOSITE_DataOut(USBD_HandleTypeDef *pdev, uint8_t epnum);
  83:Middlewares/Third_Party/AL94_USB_Composite/COMPOSITE/Class/COMPOSITE/Src/usbd_composite.c **** static uint8_t USBD_COMPOSITE_EP0_RxReady(USBD_HandleTypeDef *pdev);
  84:Middlewares/Third_Party/AL94_USB_Composite/COMPOSITE/Class/COMPOSITE/Src/usbd_composite.c **** static uint8_t USBD_COMPOSITE_EP0_TxReady(USBD_HandleTypeDef *pdev);
  85:Middlewares/Third_Party/AL94_USB_Composite/COMPOSITE/Class/COMPOSITE/Src/usbd_composite.c **** static uint8_t USBD_COMPOSITE_SOF(USBD_HandleTypeDef *pdev);
  86:Middlewares/Third_Party/AL94_USB_Composite/COMPOSITE/Class/COMPOSITE/Src/usbd_composite.c **** static uint8_t USBD_COMPOSITE_IsoINIncomplete(USBD_HandleTypeDef *pdev, uint8_t epnum);
  87:Middlewares/Third_Party/AL94_USB_Composite/COMPOSITE/Class/COMPOSITE/Src/usbd_composite.c **** static uint8_t USBD_COMPOSITE_IsoOutIncomplete(USBD_HandleTypeDef *pdev, uint8_t epnum);
ARM GAS  /tmp/ccXMkua6.s 			page 3


  88:Middlewares/Third_Party/AL94_USB_Composite/COMPOSITE/Class/COMPOSITE/Src/usbd_composite.c **** 
  89:Middlewares/Third_Party/AL94_USB_Composite/COMPOSITE/Class/COMPOSITE/Src/usbd_composite.c **** static uint8_t *USBD_COMPOSITE_GetHSCfgDesc(uint16_t *length);
  90:Middlewares/Third_Party/AL94_USB_Composite/COMPOSITE/Class/COMPOSITE/Src/usbd_composite.c **** static uint8_t *USBD_COMPOSITE_GetFSCfgDesc(uint16_t *length);
  91:Middlewares/Third_Party/AL94_USB_Composite/COMPOSITE/Class/COMPOSITE/Src/usbd_composite.c **** static uint8_t *USBD_COMPOSITE_GetOtherSpeedCfgDesc(uint16_t *length);
  92:Middlewares/Third_Party/AL94_USB_Composite/COMPOSITE/Class/COMPOSITE/Src/usbd_composite.c **** static uint8_t *USBD_COMPOSITE_GetDeviceQualifierDesc(uint16_t *length);
  93:Middlewares/Third_Party/AL94_USB_Composite/COMPOSITE/Class/COMPOSITE/Src/usbd_composite.c **** static uint8_t *USBD_COMPOSITE_GetUsrStringDesc(USBD_HandleTypeDef *pdev, uint8_t index, uint16_t *
  94:Middlewares/Third_Party/AL94_USB_Composite/COMPOSITE/Class/COMPOSITE/Src/usbd_composite.c **** 
  95:Middlewares/Third_Party/AL94_USB_Composite/COMPOSITE/Class/COMPOSITE/Src/usbd_composite.c **** /**
  96:Middlewares/Third_Party/AL94_USB_Composite/COMPOSITE/Class/COMPOSITE/Src/usbd_composite.c ****   * @}
  97:Middlewares/Third_Party/AL94_USB_Composite/COMPOSITE/Class/COMPOSITE/Src/usbd_composite.c ****   */
  98:Middlewares/Third_Party/AL94_USB_Composite/COMPOSITE/Class/COMPOSITE/Src/usbd_composite.c **** 
  99:Middlewares/Third_Party/AL94_USB_Composite/COMPOSITE/Class/COMPOSITE/Src/usbd_composite.c **** /** @defgroup USBD_COMPOSITE_Private_Variables
 100:Middlewares/Third_Party/AL94_USB_Composite/COMPOSITE/Class/COMPOSITE/Src/usbd_composite.c ****   * @{
 101:Middlewares/Third_Party/AL94_USB_Composite/COMPOSITE/Class/COMPOSITE/Src/usbd_composite.c ****   */
 102:Middlewares/Third_Party/AL94_USB_Composite/COMPOSITE/Class/COMPOSITE/Src/usbd_composite.c **** 
 103:Middlewares/Third_Party/AL94_USB_Composite/COMPOSITE/Class/COMPOSITE/Src/usbd_composite.c **** USBD_ClassTypeDef USBD_COMPOSITE =
 104:Middlewares/Third_Party/AL94_USB_Composite/COMPOSITE/Class/COMPOSITE/Src/usbd_composite.c ****     {
 105:Middlewares/Third_Party/AL94_USB_Composite/COMPOSITE/Class/COMPOSITE/Src/usbd_composite.c ****         USBD_COMPOSITE_Init,
 106:Middlewares/Third_Party/AL94_USB_Composite/COMPOSITE/Class/COMPOSITE/Src/usbd_composite.c ****         USBD_COMPOSITE_DeInit,
 107:Middlewares/Third_Party/AL94_USB_Composite/COMPOSITE/Class/COMPOSITE/Src/usbd_composite.c ****         USBD_COMPOSITE_Setup,
 108:Middlewares/Third_Party/AL94_USB_Composite/COMPOSITE/Class/COMPOSITE/Src/usbd_composite.c ****         USBD_COMPOSITE_EP0_TxReady,
 109:Middlewares/Third_Party/AL94_USB_Composite/COMPOSITE/Class/COMPOSITE/Src/usbd_composite.c ****         USBD_COMPOSITE_EP0_RxReady,
 110:Middlewares/Third_Party/AL94_USB_Composite/COMPOSITE/Class/COMPOSITE/Src/usbd_composite.c ****         USBD_COMPOSITE_DataIn,
 111:Middlewares/Third_Party/AL94_USB_Composite/COMPOSITE/Class/COMPOSITE/Src/usbd_composite.c ****         USBD_COMPOSITE_DataOut,
 112:Middlewares/Third_Party/AL94_USB_Composite/COMPOSITE/Class/COMPOSITE/Src/usbd_composite.c ****         USBD_COMPOSITE_SOF,
 113:Middlewares/Third_Party/AL94_USB_Composite/COMPOSITE/Class/COMPOSITE/Src/usbd_composite.c ****         USBD_COMPOSITE_IsoINIncomplete,
 114:Middlewares/Third_Party/AL94_USB_Composite/COMPOSITE/Class/COMPOSITE/Src/usbd_composite.c ****         USBD_COMPOSITE_IsoOutIncomplete,
 115:Middlewares/Third_Party/AL94_USB_Composite/COMPOSITE/Class/COMPOSITE/Src/usbd_composite.c ****         USBD_COMPOSITE_GetHSCfgDesc,
 116:Middlewares/Third_Party/AL94_USB_Composite/COMPOSITE/Class/COMPOSITE/Src/usbd_composite.c ****         USBD_COMPOSITE_GetFSCfgDesc,
 117:Middlewares/Third_Party/AL94_USB_Composite/COMPOSITE/Class/COMPOSITE/Src/usbd_composite.c ****         USBD_COMPOSITE_GetOtherSpeedCfgDesc,
 118:Middlewares/Third_Party/AL94_USB_Composite/COMPOSITE/Class/COMPOSITE/Src/usbd_composite.c ****         USBD_COMPOSITE_GetDeviceQualifierDesc,
 119:Middlewares/Third_Party/AL94_USB_Composite/COMPOSITE/Class/COMPOSITE/Src/usbd_composite.c ****         USBD_COMPOSITE_GetUsrStringDesc};
 120:Middlewares/Third_Party/AL94_USB_Composite/COMPOSITE/Class/COMPOSITE/Src/usbd_composite.c **** 
 121:Middlewares/Third_Party/AL94_USB_Composite/COMPOSITE/Class/COMPOSITE/Src/usbd_composite.c **** typedef struct USBD_COMPOSITE_CFG_DESC_t
 122:Middlewares/Third_Party/AL94_USB_Composite/COMPOSITE/Class/COMPOSITE/Src/usbd_composite.c **** {
 123:Middlewares/Third_Party/AL94_USB_Composite/COMPOSITE/Class/COMPOSITE/Src/usbd_composite.c ****   uint8_t CONFIG_DESC[USB_CONF_DESC_SIZE];
 124:Middlewares/Third_Party/AL94_USB_Composite/COMPOSITE/Class/COMPOSITE/Src/usbd_composite.c **** #if (USBD_USE_CDC_RNDIS == 1)
 125:Middlewares/Third_Party/AL94_USB_Composite/COMPOSITE/Class/COMPOSITE/Src/usbd_composite.c ****   uint8_t USBD_CDC_RNDIS_DESC[CDC_RNDIS_CONFIG_DESC_SIZE - 0x09];
 126:Middlewares/Third_Party/AL94_USB_Composite/COMPOSITE/Class/COMPOSITE/Src/usbd_composite.c **** #endif
 127:Middlewares/Third_Party/AL94_USB_Composite/COMPOSITE/Class/COMPOSITE/Src/usbd_composite.c **** #if (USBD_USE_CDC_ECM == 1)
 128:Middlewares/Third_Party/AL94_USB_Composite/COMPOSITE/Class/COMPOSITE/Src/usbd_composite.c ****   uint8_t USBD_CDC_ECM_DESC[CDC_ECM_CONFIG_DESC_SIZE - 0x09];
 129:Middlewares/Third_Party/AL94_USB_Composite/COMPOSITE/Class/COMPOSITE/Src/usbd_composite.c **** #endif
 130:Middlewares/Third_Party/AL94_USB_Composite/COMPOSITE/Class/COMPOSITE/Src/usbd_composite.c **** #if (USBD_USE_HID_MOUSE == 1)
 131:Middlewares/Third_Party/AL94_USB_Composite/COMPOSITE/Class/COMPOSITE/Src/usbd_composite.c ****   uint8_t USBD_HID_MOUSE_DESC[USB_HID_CONFIG_DESC_SIZ - 0x09];
 132:Middlewares/Third_Party/AL94_USB_Composite/COMPOSITE/Class/COMPOSITE/Src/usbd_composite.c **** #endif
 133:Middlewares/Third_Party/AL94_USB_Composite/COMPOSITE/Class/COMPOSITE/Src/usbd_composite.c **** #if (USBD_USE_HID_KEYBOARD == 1)
 134:Middlewares/Third_Party/AL94_USB_Composite/COMPOSITE/Class/COMPOSITE/Src/usbd_composite.c ****   uint8_t USBD_HID_KEYBOARD_DESC[HID_KEYBOARD_CONFIG_DESC_SIZE - 0x09];
 135:Middlewares/Third_Party/AL94_USB_Composite/COMPOSITE/Class/COMPOSITE/Src/usbd_composite.c **** #endif
 136:Middlewares/Third_Party/AL94_USB_Composite/COMPOSITE/Class/COMPOSITE/Src/usbd_composite.c **** #if (USBD_USE_HID_CUSTOM == 1)
 137:Middlewares/Third_Party/AL94_USB_Composite/COMPOSITE/Class/COMPOSITE/Src/usbd_composite.c ****   uint8_t USBD_HID_CUSTOM_DESC[USB_CUSTOM_HID_CONFIG_DESC_SIZ - 0x09];
 138:Middlewares/Third_Party/AL94_USB_Composite/COMPOSITE/Class/COMPOSITE/Src/usbd_composite.c **** #endif
 139:Middlewares/Third_Party/AL94_USB_Composite/COMPOSITE/Class/COMPOSITE/Src/usbd_composite.c **** #if (USBD_USE_UAC_MIC == 1)
 140:Middlewares/Third_Party/AL94_USB_Composite/COMPOSITE/Class/COMPOSITE/Src/usbd_composite.c ****   uint8_t USBD_UAC_MIC_DESC[USBD_AUDIO_MIC_CONFIG_DESC_SIZE - 0x09];
 141:Middlewares/Third_Party/AL94_USB_Composite/COMPOSITE/Class/COMPOSITE/Src/usbd_composite.c **** #endif
 142:Middlewares/Third_Party/AL94_USB_Composite/COMPOSITE/Class/COMPOSITE/Src/usbd_composite.c **** #if (USBD_USE_UAC_SPKR == 1)
 143:Middlewares/Third_Party/AL94_USB_Composite/COMPOSITE/Class/COMPOSITE/Src/usbd_composite.c ****   uint8_t USBD_AUDIO_SPKR_DESC[USBD_AUDIO_SPKR_CONFIG_DESC_SIZE - 0x09];
 144:Middlewares/Third_Party/AL94_USB_Composite/COMPOSITE/Class/COMPOSITE/Src/usbd_composite.c **** #endif
ARM GAS  /tmp/ccXMkua6.s 			page 4


 145:Middlewares/Third_Party/AL94_USB_Composite/COMPOSITE/Class/COMPOSITE/Src/usbd_composite.c **** #if (USBD_USE_UVC == 1)
 146:Middlewares/Third_Party/AL94_USB_Composite/COMPOSITE/Class/COMPOSITE/Src/usbd_composite.c ****   uint8_t USBD_UVC_DESC[UVC_CONFIG_DESC_SIZE - 0x09];
 147:Middlewares/Third_Party/AL94_USB_Composite/COMPOSITE/Class/COMPOSITE/Src/usbd_composite.c **** #endif
 148:Middlewares/Third_Party/AL94_USB_Composite/COMPOSITE/Class/COMPOSITE/Src/usbd_composite.c **** #if (USBD_USE_MSC == 1)
 149:Middlewares/Third_Party/AL94_USB_Composite/COMPOSITE/Class/COMPOSITE/Src/usbd_composite.c ****   uint8_t USBD_MSC_DESC[USB_MSC_CONFIG_DESC_SIZ - 0x09];
 150:Middlewares/Third_Party/AL94_USB_Composite/COMPOSITE/Class/COMPOSITE/Src/usbd_composite.c **** #endif
 151:Middlewares/Third_Party/AL94_USB_Composite/COMPOSITE/Class/COMPOSITE/Src/usbd_composite.c **** #if (USBD_USE_DFU == 1)
 152:Middlewares/Third_Party/AL94_USB_Composite/COMPOSITE/Class/COMPOSITE/Src/usbd_composite.c ****   uint8_t USBD_DFU_DESC[USB_DFU_CONFIG_DESC_SIZ - 0x09];
 153:Middlewares/Third_Party/AL94_USB_Composite/COMPOSITE/Class/COMPOSITE/Src/usbd_composite.c **** #endif
 154:Middlewares/Third_Party/AL94_USB_Composite/COMPOSITE/Class/COMPOSITE/Src/usbd_composite.c **** #if (USBD_USE_PRNTR == 1)
 155:Middlewares/Third_Party/AL94_USB_Composite/COMPOSITE/Class/COMPOSITE/Src/usbd_composite.c ****   uint8_t USBD_PRNTR_DESC[USB_PRNT_CONFIG_DESC_SIZE - 0x09];
 156:Middlewares/Third_Party/AL94_USB_Composite/COMPOSITE/Class/COMPOSITE/Src/usbd_composite.c **** #endif
 157:Middlewares/Third_Party/AL94_USB_Composite/COMPOSITE/Class/COMPOSITE/Src/usbd_composite.c **** #if (USBD_USE_CDC_ACM == 1)
 158:Middlewares/Third_Party/AL94_USB_Composite/COMPOSITE/Class/COMPOSITE/Src/usbd_composite.c ****   uint8_t USBD_CDC_ACM_DESC[USB_CDC_CONFIG_DESC_SIZ - 0x09];
 159:Middlewares/Third_Party/AL94_USB_Composite/COMPOSITE/Class/COMPOSITE/Src/usbd_composite.c **** #endif
 160:Middlewares/Third_Party/AL94_USB_Composite/COMPOSITE/Class/COMPOSITE/Src/usbd_composite.c **** 
 161:Middlewares/Third_Party/AL94_USB_Composite/COMPOSITE/Class/COMPOSITE/Src/usbd_composite.c **** } __PACKED USBD_COMPOSITE_CFG_DESC_t;
 162:Middlewares/Third_Party/AL94_USB_Composite/COMPOSITE/Class/COMPOSITE/Src/usbd_composite.c **** 
 163:Middlewares/Third_Party/AL94_USB_Composite/COMPOSITE/Class/COMPOSITE/Src/usbd_composite.c **** #if defined(__ICCARM__) /*!< IAR Compiler */
 164:Middlewares/Third_Party/AL94_USB_Composite/COMPOSITE/Class/COMPOSITE/Src/usbd_composite.c **** #pragma data_alignment = 4
 165:Middlewares/Third_Party/AL94_USB_Composite/COMPOSITE/Class/COMPOSITE/Src/usbd_composite.c **** #endif
 166:Middlewares/Third_Party/AL94_USB_Composite/COMPOSITE/Class/COMPOSITE/Src/usbd_composite.c **** __ALIGN_BEGIN USBD_COMPOSITE_CFG_DESC_t USBD_COMPOSITE_FSCfgDesc, USBD_COMPOSITE_HSCfgDesc __ALIGN_
 167:Middlewares/Third_Party/AL94_USB_Composite/COMPOSITE/Class/COMPOSITE/Src/usbd_composite.c **** uint8_t USBD_Track_String_Index = (USBD_IDX_INTERFACE_STR + 1);
 168:Middlewares/Third_Party/AL94_USB_Composite/COMPOSITE/Class/COMPOSITE/Src/usbd_composite.c **** 
 169:Middlewares/Third_Party/AL94_USB_Composite/COMPOSITE/Class/COMPOSITE/Src/usbd_composite.c **** #if defined(__ICCARM__) /*!< IAR Compiler */
 170:Middlewares/Third_Party/AL94_USB_Composite/COMPOSITE/Class/COMPOSITE/Src/usbd_composite.c **** #pragma data_alignment = 4
 171:Middlewares/Third_Party/AL94_USB_Composite/COMPOSITE/Class/COMPOSITE/Src/usbd_composite.c **** #endif
 172:Middlewares/Third_Party/AL94_USB_Composite/COMPOSITE/Class/COMPOSITE/Src/usbd_composite.c **** /* USB Standard Device Descriptor */
 173:Middlewares/Third_Party/AL94_USB_Composite/COMPOSITE/Class/COMPOSITE/Src/usbd_composite.c **** __ALIGN_BEGIN static uint8_t USBD_COMPOSITE_DeviceQualifierDesc[USB_LEN_DEV_QUALIFIER_DESC] __ALIGN
 174:Middlewares/Third_Party/AL94_USB_Composite/COMPOSITE/Class/COMPOSITE/Src/usbd_composite.c ****     {
 175:Middlewares/Third_Party/AL94_USB_Composite/COMPOSITE/Class/COMPOSITE/Src/usbd_composite.c ****         USB_LEN_DEV_QUALIFIER_DESC,
 176:Middlewares/Third_Party/AL94_USB_Composite/COMPOSITE/Class/COMPOSITE/Src/usbd_composite.c ****         USB_DESC_TYPE_DEVICE_QUALIFIER,
 177:Middlewares/Third_Party/AL94_USB_Composite/COMPOSITE/Class/COMPOSITE/Src/usbd_composite.c ****         0x00,
 178:Middlewares/Third_Party/AL94_USB_Composite/COMPOSITE/Class/COMPOSITE/Src/usbd_composite.c ****         0x02,
 179:Middlewares/Third_Party/AL94_USB_Composite/COMPOSITE/Class/COMPOSITE/Src/usbd_composite.c ****         0xEF,
 180:Middlewares/Third_Party/AL94_USB_Composite/COMPOSITE/Class/COMPOSITE/Src/usbd_composite.c ****         0x02,
 181:Middlewares/Third_Party/AL94_USB_Composite/COMPOSITE/Class/COMPOSITE/Src/usbd_composite.c ****         0x01,
 182:Middlewares/Third_Party/AL94_USB_Composite/COMPOSITE/Class/COMPOSITE/Src/usbd_composite.c ****         0x40,
 183:Middlewares/Third_Party/AL94_USB_Composite/COMPOSITE/Class/COMPOSITE/Src/usbd_composite.c ****         0x01,
 184:Middlewares/Third_Party/AL94_USB_Composite/COMPOSITE/Class/COMPOSITE/Src/usbd_composite.c ****         0x00,
 185:Middlewares/Third_Party/AL94_USB_Composite/COMPOSITE/Class/COMPOSITE/Src/usbd_composite.c **** };
 186:Middlewares/Third_Party/AL94_USB_Composite/COMPOSITE/Class/COMPOSITE/Src/usbd_composite.c **** 
 187:Middlewares/Third_Party/AL94_USB_Composite/COMPOSITE/Class/COMPOSITE/Src/usbd_composite.c **** /**
 188:Middlewares/Third_Party/AL94_USB_Composite/COMPOSITE/Class/COMPOSITE/Src/usbd_composite.c ****   * @}
 189:Middlewares/Third_Party/AL94_USB_Composite/COMPOSITE/Class/COMPOSITE/Src/usbd_composite.c ****   */
 190:Middlewares/Third_Party/AL94_USB_Composite/COMPOSITE/Class/COMPOSITE/Src/usbd_composite.c **** 
 191:Middlewares/Third_Party/AL94_USB_Composite/COMPOSITE/Class/COMPOSITE/Src/usbd_composite.c **** /** @defgroup USBD_COMPOSITE_Private_Functions
 192:Middlewares/Third_Party/AL94_USB_Composite/COMPOSITE/Class/COMPOSITE/Src/usbd_composite.c ****   * @{
 193:Middlewares/Third_Party/AL94_USB_Composite/COMPOSITE/Class/COMPOSITE/Src/usbd_composite.c ****   */
 194:Middlewares/Third_Party/AL94_USB_Composite/COMPOSITE/Class/COMPOSITE/Src/usbd_composite.c **** 
 195:Middlewares/Third_Party/AL94_USB_Composite/COMPOSITE/Class/COMPOSITE/Src/usbd_composite.c **** /**
 196:Middlewares/Third_Party/AL94_USB_Composite/COMPOSITE/Class/COMPOSITE/Src/usbd_composite.c ****   * @brief  USBD_COMPOSITE_Init
 197:Middlewares/Third_Party/AL94_USB_Composite/COMPOSITE/Class/COMPOSITE/Src/usbd_composite.c ****   *         Initialize the COMPOSITE interface
 198:Middlewares/Third_Party/AL94_USB_Composite/COMPOSITE/Class/COMPOSITE/Src/usbd_composite.c ****   * @param  pdev: device instance
 199:Middlewares/Third_Party/AL94_USB_Composite/COMPOSITE/Class/COMPOSITE/Src/usbd_composite.c ****   * @param  cfgidx: Configuration index
 200:Middlewares/Third_Party/AL94_USB_Composite/COMPOSITE/Class/COMPOSITE/Src/usbd_composite.c ****   * @retval status
 201:Middlewares/Third_Party/AL94_USB_Composite/COMPOSITE/Class/COMPOSITE/Src/usbd_composite.c ****   */
ARM GAS  /tmp/ccXMkua6.s 			page 5


 202:Middlewares/Third_Party/AL94_USB_Composite/COMPOSITE/Class/COMPOSITE/Src/usbd_composite.c **** static uint8_t USBD_COMPOSITE_Init(USBD_HandleTypeDef *pdev, uint8_t cfgidx)
 203:Middlewares/Third_Party/AL94_USB_Composite/COMPOSITE/Class/COMPOSITE/Src/usbd_composite.c **** {
  29              		.loc 1 203 1 view -0
  30              		.cfi_startproc
  31              		@ args = 0, pretend = 0, frame = 0
  32              		@ frame_needed = 0, uses_anonymous_args = 0
  33              		.loc 1 203 1 is_stmt 0 view .LVU1
  34 0000 38B5     		push	{r3, r4, r5, lr}
  35              	.LCFI0:
  36              		.cfi_def_cfa_offset 16
  37              		.cfi_offset 3, -16
  38              		.cfi_offset 4, -12
  39              		.cfi_offset 5, -8
  40              		.cfi_offset 14, -4
  41 0002 0446     		mov	r4, r0
  42 0004 0D46     		mov	r5, r1
 204:Middlewares/Third_Party/AL94_USB_Composite/COMPOSITE/Class/COMPOSITE/Src/usbd_composite.c **** #if (USBD_USE_CDC_ACM == 1)
 205:Middlewares/Third_Party/AL94_USB_Composite/COMPOSITE/Class/COMPOSITE/Src/usbd_composite.c ****   USBD_CDC_ACM.Init(pdev, cfgidx);
  43              		.loc 1 205 3 is_stmt 1 view .LVU2
  44              		.loc 1 205 15 is_stmt 0 view .LVU3
  45 0006 054B     		ldr	r3, .L3
  46 0008 1B68     		ldr	r3, [r3]
  47              		.loc 1 205 3 view .LVU4
  48 000a 9847     		blx	r3
  49              	.LVL1:
 206:Middlewares/Third_Party/AL94_USB_Composite/COMPOSITE/Class/COMPOSITE/Src/usbd_composite.c **** #endif
 207:Middlewares/Third_Party/AL94_USB_Composite/COMPOSITE/Class/COMPOSITE/Src/usbd_composite.c **** #if (USBD_USE_CDC_ECM == 1)
 208:Middlewares/Third_Party/AL94_USB_Composite/COMPOSITE/Class/COMPOSITE/Src/usbd_composite.c ****   USBD_CDC_ECM.Init(pdev, cfgidx);
 209:Middlewares/Third_Party/AL94_USB_Composite/COMPOSITE/Class/COMPOSITE/Src/usbd_composite.c **** #endif
 210:Middlewares/Third_Party/AL94_USB_Composite/COMPOSITE/Class/COMPOSITE/Src/usbd_composite.c **** #if (USBD_USE_CDC_RNDIS == 1)
 211:Middlewares/Third_Party/AL94_USB_Composite/COMPOSITE/Class/COMPOSITE/Src/usbd_composite.c ****   USBD_CDC_RNDIS.Init(pdev, cfgidx);
 212:Middlewares/Third_Party/AL94_USB_Composite/COMPOSITE/Class/COMPOSITE/Src/usbd_composite.c **** #endif
 213:Middlewares/Third_Party/AL94_USB_Composite/COMPOSITE/Class/COMPOSITE/Src/usbd_composite.c **** #if (USBD_USE_HID_MOUSE == 1)
 214:Middlewares/Third_Party/AL94_USB_Composite/COMPOSITE/Class/COMPOSITE/Src/usbd_composite.c ****   USBD_HID_MOUSE.Init(pdev, cfgidx);
 215:Middlewares/Third_Party/AL94_USB_Composite/COMPOSITE/Class/COMPOSITE/Src/usbd_composite.c **** #endif
 216:Middlewares/Third_Party/AL94_USB_Composite/COMPOSITE/Class/COMPOSITE/Src/usbd_composite.c **** #if (USBD_USE_HID_KEYBOARD == 1)
 217:Middlewares/Third_Party/AL94_USB_Composite/COMPOSITE/Class/COMPOSITE/Src/usbd_composite.c ****   USBD_HID_KEYBOARD.Init(pdev, cfgidx);
  50              		.loc 1 217 3 is_stmt 1 view .LVU5
  51              		.loc 1 217 20 is_stmt 0 view .LVU6
  52 000c 044B     		ldr	r3, .L3+4
  53 000e 1B68     		ldr	r3, [r3]
  54              		.loc 1 217 3 view .LVU7
  55 0010 2946     		mov	r1, r5
  56 0012 2046     		mov	r0, r4
  57 0014 9847     		blx	r3
  58              	.LVL2:
 218:Middlewares/Third_Party/AL94_USB_Composite/COMPOSITE/Class/COMPOSITE/Src/usbd_composite.c **** #endif
 219:Middlewares/Third_Party/AL94_USB_Composite/COMPOSITE/Class/COMPOSITE/Src/usbd_composite.c **** #if (USBD_USE_HID_CUSTOM == 1)
 220:Middlewares/Third_Party/AL94_USB_Composite/COMPOSITE/Class/COMPOSITE/Src/usbd_composite.c ****   USBD_HID_CUSTOM.Init(pdev, cfgidx);
 221:Middlewares/Third_Party/AL94_USB_Composite/COMPOSITE/Class/COMPOSITE/Src/usbd_composite.c **** #endif
 222:Middlewares/Third_Party/AL94_USB_Composite/COMPOSITE/Class/COMPOSITE/Src/usbd_composite.c **** #if (USBD_USE_UAC_MIC == 1)
 223:Middlewares/Third_Party/AL94_USB_Composite/COMPOSITE/Class/COMPOSITE/Src/usbd_composite.c ****   USBD_AUDIO_MIC.Init(pdev, cfgidx);
 224:Middlewares/Third_Party/AL94_USB_Composite/COMPOSITE/Class/COMPOSITE/Src/usbd_composite.c **** #endif
 225:Middlewares/Third_Party/AL94_USB_Composite/COMPOSITE/Class/COMPOSITE/Src/usbd_composite.c **** #if (USBD_USE_UAC_SPKR == 1)
 226:Middlewares/Third_Party/AL94_USB_Composite/COMPOSITE/Class/COMPOSITE/Src/usbd_composite.c ****   USBD_AUDIO_SPKR.Init(pdev, cfgidx);
 227:Middlewares/Third_Party/AL94_USB_Composite/COMPOSITE/Class/COMPOSITE/Src/usbd_composite.c **** #endif
 228:Middlewares/Third_Party/AL94_USB_Composite/COMPOSITE/Class/COMPOSITE/Src/usbd_composite.c **** #if (USBD_USE_UVC == 1)
ARM GAS  /tmp/ccXMkua6.s 			page 6


 229:Middlewares/Third_Party/AL94_USB_Composite/COMPOSITE/Class/COMPOSITE/Src/usbd_composite.c ****   USBD_VIDEO.Init(pdev, cfgidx);
 230:Middlewares/Third_Party/AL94_USB_Composite/COMPOSITE/Class/COMPOSITE/Src/usbd_composite.c **** #endif
 231:Middlewares/Third_Party/AL94_USB_Composite/COMPOSITE/Class/COMPOSITE/Src/usbd_composite.c **** #if (USBD_USE_MSC == 1)
 232:Middlewares/Third_Party/AL94_USB_Composite/COMPOSITE/Class/COMPOSITE/Src/usbd_composite.c ****   USBD_MSC.Init(pdev, cfgidx);
 233:Middlewares/Third_Party/AL94_USB_Composite/COMPOSITE/Class/COMPOSITE/Src/usbd_composite.c **** #endif
 234:Middlewares/Third_Party/AL94_USB_Composite/COMPOSITE/Class/COMPOSITE/Src/usbd_composite.c **** #if (USBD_USE_DFU == 1)
 235:Middlewares/Third_Party/AL94_USB_Composite/COMPOSITE/Class/COMPOSITE/Src/usbd_composite.c ****   USBD_DFU.Init(pdev, cfgidx);
 236:Middlewares/Third_Party/AL94_USB_Composite/COMPOSITE/Class/COMPOSITE/Src/usbd_composite.c **** #endif
 237:Middlewares/Third_Party/AL94_USB_Composite/COMPOSITE/Class/COMPOSITE/Src/usbd_composite.c **** #if (USBD_USE_PRNTR == 1)
 238:Middlewares/Third_Party/AL94_USB_Composite/COMPOSITE/Class/COMPOSITE/Src/usbd_composite.c ****   USBD_PRNT.Init(pdev, cfgidx);
 239:Middlewares/Third_Party/AL94_USB_Composite/COMPOSITE/Class/COMPOSITE/Src/usbd_composite.c **** #endif
 240:Middlewares/Third_Party/AL94_USB_Composite/COMPOSITE/Class/COMPOSITE/Src/usbd_composite.c **** 
 241:Middlewares/Third_Party/AL94_USB_Composite/COMPOSITE/Class/COMPOSITE/Src/usbd_composite.c ****   return (uint8_t)USBD_OK;
  59              		.loc 1 241 3 is_stmt 1 view .LVU8
 242:Middlewares/Third_Party/AL94_USB_Composite/COMPOSITE/Class/COMPOSITE/Src/usbd_composite.c **** }
  60              		.loc 1 242 1 is_stmt 0 view .LVU9
  61 0016 0020     		movs	r0, #0
  62 0018 38BD     		pop	{r3, r4, r5, pc}
  63              	.LVL3:
  64              	.L4:
  65              		.loc 1 242 1 view .LVU10
  66 001a 00BF     		.align	2
  67              	.L3:
  68 001c 00000000 		.word	USBD_CDC_ACM
  69 0020 00000000 		.word	USBD_HID_KEYBOARD
  70              		.cfi_endproc
  71              	.LFE145:
  73              		.section	.text.USBD_COMPOSITE_DeInit,"ax",%progbits
  74              		.align	1
  75              		.syntax unified
  76              		.thumb
  77              		.thumb_func
  79              	USBD_COMPOSITE_DeInit:
  80              	.LVL4:
  81              	.LFB146:
 243:Middlewares/Third_Party/AL94_USB_Composite/COMPOSITE/Class/COMPOSITE/Src/usbd_composite.c **** 
 244:Middlewares/Third_Party/AL94_USB_Composite/COMPOSITE/Class/COMPOSITE/Src/usbd_composite.c **** /**
 245:Middlewares/Third_Party/AL94_USB_Composite/COMPOSITE/Class/COMPOSITE/Src/usbd_composite.c ****   * @brief  USBD_COMPOSITE_Init
 246:Middlewares/Third_Party/AL94_USB_Composite/COMPOSITE/Class/COMPOSITE/Src/usbd_composite.c ****   *         DeInitialize the COMPOSITE layer
 247:Middlewares/Third_Party/AL94_USB_Composite/COMPOSITE/Class/COMPOSITE/Src/usbd_composite.c ****   * @param  pdev: device instance
 248:Middlewares/Third_Party/AL94_USB_Composite/COMPOSITE/Class/COMPOSITE/Src/usbd_composite.c ****   * @param  cfgidx: Configuration index
 249:Middlewares/Third_Party/AL94_USB_Composite/COMPOSITE/Class/COMPOSITE/Src/usbd_composite.c ****   * @retval status
 250:Middlewares/Third_Party/AL94_USB_Composite/COMPOSITE/Class/COMPOSITE/Src/usbd_composite.c ****   */
 251:Middlewares/Third_Party/AL94_USB_Composite/COMPOSITE/Class/COMPOSITE/Src/usbd_composite.c **** static uint8_t USBD_COMPOSITE_DeInit(USBD_HandleTypeDef *pdev, uint8_t cfgidx)
 252:Middlewares/Third_Party/AL94_USB_Composite/COMPOSITE/Class/COMPOSITE/Src/usbd_composite.c **** {
  82              		.loc 1 252 1 is_stmt 1 view -0
  83              		.cfi_startproc
  84              		@ args = 0, pretend = 0, frame = 0
  85              		@ frame_needed = 0, uses_anonymous_args = 0
  86              		.loc 1 252 1 is_stmt 0 view .LVU12
  87 0000 38B5     		push	{r3, r4, r5, lr}
  88              	.LCFI1:
  89              		.cfi_def_cfa_offset 16
  90              		.cfi_offset 3, -16
  91              		.cfi_offset 4, -12
  92              		.cfi_offset 5, -8
  93              		.cfi_offset 14, -4
ARM GAS  /tmp/ccXMkua6.s 			page 7


  94 0002 0446     		mov	r4, r0
  95 0004 0D46     		mov	r5, r1
 253:Middlewares/Third_Party/AL94_USB_Composite/COMPOSITE/Class/COMPOSITE/Src/usbd_composite.c **** #if (USBD_USE_CDC_ACM == 1)
 254:Middlewares/Third_Party/AL94_USB_Composite/COMPOSITE/Class/COMPOSITE/Src/usbd_composite.c ****   USBD_CDC_ACM.DeInit(pdev, cfgidx);
  96              		.loc 1 254 3 is_stmt 1 view .LVU13
  97              		.loc 1 254 15 is_stmt 0 view .LVU14
  98 0006 054B     		ldr	r3, .L7
  99 0008 5B68     		ldr	r3, [r3, #4]
 100              		.loc 1 254 3 view .LVU15
 101 000a 9847     		blx	r3
 102              	.LVL5:
 255:Middlewares/Third_Party/AL94_USB_Composite/COMPOSITE/Class/COMPOSITE/Src/usbd_composite.c **** #endif
 256:Middlewares/Third_Party/AL94_USB_Composite/COMPOSITE/Class/COMPOSITE/Src/usbd_composite.c **** #if (USBD_USE_CDC_ECM == 1)
 257:Middlewares/Third_Party/AL94_USB_Composite/COMPOSITE/Class/COMPOSITE/Src/usbd_composite.c ****   USBD_CDC_ECM.DeInit(pdev, cfgidx);
 258:Middlewares/Third_Party/AL94_USB_Composite/COMPOSITE/Class/COMPOSITE/Src/usbd_composite.c **** #endif
 259:Middlewares/Third_Party/AL94_USB_Composite/COMPOSITE/Class/COMPOSITE/Src/usbd_composite.c **** #if (USBD_USE_CDC_RNDIS == 1)
 260:Middlewares/Third_Party/AL94_USB_Composite/COMPOSITE/Class/COMPOSITE/Src/usbd_composite.c ****   USBD_CDC_RNDIS.DeInit(pdev, cfgidx);
 261:Middlewares/Third_Party/AL94_USB_Composite/COMPOSITE/Class/COMPOSITE/Src/usbd_composite.c **** #endif
 262:Middlewares/Third_Party/AL94_USB_Composite/COMPOSITE/Class/COMPOSITE/Src/usbd_composite.c **** #if (USBD_USE_HID_MOUSE == 1)
 263:Middlewares/Third_Party/AL94_USB_Composite/COMPOSITE/Class/COMPOSITE/Src/usbd_composite.c ****   USBD_HID_MOUSE.DeInit(pdev, cfgidx);
 264:Middlewares/Third_Party/AL94_USB_Composite/COMPOSITE/Class/COMPOSITE/Src/usbd_composite.c **** #endif
 265:Middlewares/Third_Party/AL94_USB_Composite/COMPOSITE/Class/COMPOSITE/Src/usbd_composite.c **** #if (USBD_USE_HID_KEYBOARD == 1)
 266:Middlewares/Third_Party/AL94_USB_Composite/COMPOSITE/Class/COMPOSITE/Src/usbd_composite.c ****   USBD_HID_KEYBOARD.DeInit(pdev, cfgidx);
 103              		.loc 1 266 3 is_stmt 1 view .LVU16
 104              		.loc 1 266 20 is_stmt 0 view .LVU17
 105 000c 044B     		ldr	r3, .L7+4
 106 000e 5B68     		ldr	r3, [r3, #4]
 107              		.loc 1 266 3 view .LVU18
 108 0010 2946     		mov	r1, r5
 109 0012 2046     		mov	r0, r4
 110 0014 9847     		blx	r3
 111              	.LVL6:
 267:Middlewares/Third_Party/AL94_USB_Composite/COMPOSITE/Class/COMPOSITE/Src/usbd_composite.c **** #endif
 268:Middlewares/Third_Party/AL94_USB_Composite/COMPOSITE/Class/COMPOSITE/Src/usbd_composite.c **** #if (USBD_USE_HID_CUSTOM == 1)
 269:Middlewares/Third_Party/AL94_USB_Composite/COMPOSITE/Class/COMPOSITE/Src/usbd_composite.c ****   USBD_HID_CUSTOM.DeInit(pdev, cfgidx);
 270:Middlewares/Third_Party/AL94_USB_Composite/COMPOSITE/Class/COMPOSITE/Src/usbd_composite.c **** #endif
 271:Middlewares/Third_Party/AL94_USB_Composite/COMPOSITE/Class/COMPOSITE/Src/usbd_composite.c **** #if (USBD_USE_UAC_MIC == 1)
 272:Middlewares/Third_Party/AL94_USB_Composite/COMPOSITE/Class/COMPOSITE/Src/usbd_composite.c ****   USBD_AUDIO_MIC.DeInit(pdev, cfgidx);
 273:Middlewares/Third_Party/AL94_USB_Composite/COMPOSITE/Class/COMPOSITE/Src/usbd_composite.c **** #endif
 274:Middlewares/Third_Party/AL94_USB_Composite/COMPOSITE/Class/COMPOSITE/Src/usbd_composite.c **** #if (USBD_USE_UAC_SPKR == 1)
 275:Middlewares/Third_Party/AL94_USB_Composite/COMPOSITE/Class/COMPOSITE/Src/usbd_composite.c ****   USBD_AUDIO_SPKR.DeInit(pdev, cfgidx);
 276:Middlewares/Third_Party/AL94_USB_Composite/COMPOSITE/Class/COMPOSITE/Src/usbd_composite.c **** #endif
 277:Middlewares/Third_Party/AL94_USB_Composite/COMPOSITE/Class/COMPOSITE/Src/usbd_composite.c **** #if (USBD_USE_UVC == 1)
 278:Middlewares/Third_Party/AL94_USB_Composite/COMPOSITE/Class/COMPOSITE/Src/usbd_composite.c ****   USBD_VIDEO.DeInit(pdev, cfgidx);
 279:Middlewares/Third_Party/AL94_USB_Composite/COMPOSITE/Class/COMPOSITE/Src/usbd_composite.c **** #endif
 280:Middlewares/Third_Party/AL94_USB_Composite/COMPOSITE/Class/COMPOSITE/Src/usbd_composite.c **** #if (USBD_USE_MSC == 1)
 281:Middlewares/Third_Party/AL94_USB_Composite/COMPOSITE/Class/COMPOSITE/Src/usbd_composite.c ****   USBD_MSC.DeInit(pdev, cfgidx);
 282:Middlewares/Third_Party/AL94_USB_Composite/COMPOSITE/Class/COMPOSITE/Src/usbd_composite.c **** #endif
 283:Middlewares/Third_Party/AL94_USB_Composite/COMPOSITE/Class/COMPOSITE/Src/usbd_composite.c **** #if (USBD_USE_DFU == 1)
 284:Middlewares/Third_Party/AL94_USB_Composite/COMPOSITE/Class/COMPOSITE/Src/usbd_composite.c ****   USBD_DFU.DeInit(pdev, cfgidx);
 285:Middlewares/Third_Party/AL94_USB_Composite/COMPOSITE/Class/COMPOSITE/Src/usbd_composite.c **** #endif
 286:Middlewares/Third_Party/AL94_USB_Composite/COMPOSITE/Class/COMPOSITE/Src/usbd_composite.c **** #if (USBD_USE_PRNTR == 1)
 287:Middlewares/Third_Party/AL94_USB_Composite/COMPOSITE/Class/COMPOSITE/Src/usbd_composite.c ****   USBD_PRNT.DeInit(pdev, cfgidx);
 288:Middlewares/Third_Party/AL94_USB_Composite/COMPOSITE/Class/COMPOSITE/Src/usbd_composite.c **** #endif
 289:Middlewares/Third_Party/AL94_USB_Composite/COMPOSITE/Class/COMPOSITE/Src/usbd_composite.c **** 
 290:Middlewares/Third_Party/AL94_USB_Composite/COMPOSITE/Class/COMPOSITE/Src/usbd_composite.c ****   return (uint8_t)USBD_OK;
 112              		.loc 1 290 3 is_stmt 1 view .LVU19
ARM GAS  /tmp/ccXMkua6.s 			page 8


 291:Middlewares/Third_Party/AL94_USB_Composite/COMPOSITE/Class/COMPOSITE/Src/usbd_composite.c **** }
 113              		.loc 1 291 1 is_stmt 0 view .LVU20
 114 0016 0020     		movs	r0, #0
 115 0018 38BD     		pop	{r3, r4, r5, pc}
 116              	.LVL7:
 117              	.L8:
 118              		.loc 1 291 1 view .LVU21
 119 001a 00BF     		.align	2
 120              	.L7:
 121 001c 00000000 		.word	USBD_CDC_ACM
 122 0020 00000000 		.word	USBD_HID_KEYBOARD
 123              		.cfi_endproc
 124              	.LFE146:
 126              		.section	.text.USBD_COMPOSITE_Setup,"ax",%progbits
 127              		.align	1
 128              		.syntax unified
 129              		.thumb
 130              		.thumb_func
 132              	USBD_COMPOSITE_Setup:
 133              	.LVL8:
 134              	.LFB147:
 292:Middlewares/Third_Party/AL94_USB_Composite/COMPOSITE/Class/COMPOSITE/Src/usbd_composite.c **** 
 293:Middlewares/Third_Party/AL94_USB_Composite/COMPOSITE/Class/COMPOSITE/Src/usbd_composite.c **** /**
 294:Middlewares/Third_Party/AL94_USB_Composite/COMPOSITE/Class/COMPOSITE/Src/usbd_composite.c ****   * @brief  USBD_COMPOSITE_Setup
 295:Middlewares/Third_Party/AL94_USB_Composite/COMPOSITE/Class/COMPOSITE/Src/usbd_composite.c ****   *         Handle the COMPOSITE specific requests
 296:Middlewares/Third_Party/AL94_USB_Composite/COMPOSITE/Class/COMPOSITE/Src/usbd_composite.c ****   * @param  pdev: instance
 297:Middlewares/Third_Party/AL94_USB_Composite/COMPOSITE/Class/COMPOSITE/Src/usbd_composite.c ****   * @param  req: usb requests
 298:Middlewares/Third_Party/AL94_USB_Composite/COMPOSITE/Class/COMPOSITE/Src/usbd_composite.c ****   * @retval status
 299:Middlewares/Third_Party/AL94_USB_Composite/COMPOSITE/Class/COMPOSITE/Src/usbd_composite.c ****   */
 300:Middlewares/Third_Party/AL94_USB_Composite/COMPOSITE/Class/COMPOSITE/Src/usbd_composite.c **** static uint8_t USBD_COMPOSITE_Setup(USBD_HandleTypeDef *pdev,
 301:Middlewares/Third_Party/AL94_USB_Composite/COMPOSITE/Class/COMPOSITE/Src/usbd_composite.c ****                                     USBD_SetupReqTypedef *req)
 302:Middlewares/Third_Party/AL94_USB_Composite/COMPOSITE/Class/COMPOSITE/Src/usbd_composite.c **** {
 135              		.loc 1 302 1 is_stmt 1 view -0
 136              		.cfi_startproc
 137              		@ args = 0, pretend = 0, frame = 0
 138              		@ frame_needed = 0, uses_anonymous_args = 0
 139              		.loc 1 302 1 is_stmt 0 view .LVU23
 140 0000 10B5     		push	{r4, lr}
 141              	.LCFI2:
 142              		.cfi_def_cfa_offset 8
 143              		.cfi_offset 4, -8
 144              		.cfi_offset 14, -4
 303:Middlewares/Third_Party/AL94_USB_Composite/COMPOSITE/Class/COMPOSITE/Src/usbd_composite.c **** #if (USBD_USE_CDC_ACM == 1)
 304:Middlewares/Third_Party/AL94_USB_Composite/COMPOSITE/Class/COMPOSITE/Src/usbd_composite.c ****   for (uint8_t i = 0; i < USBD_CDC_ACM_COUNT; i++)
 145              		.loc 1 304 3 is_stmt 1 view .LVU24
 146              	.LBB2:
 147              		.loc 1 304 8 view .LVU25
 148              	.LVL9:
 149              		.loc 1 304 16 is_stmt 0 view .LVU26
 150 0002 0023     		movs	r3, #0
 151              	.LVL10:
 152              	.L10:
 153              		.loc 1 304 23 is_stmt 1 discriminator 1 view .LVU27
 154              		.loc 1 304 3 is_stmt 0 discriminator 1 view .LVU28
 155 0004 33B1     		cbz	r3, .L14
 156              	.LBE2:
 305:Middlewares/Third_Party/AL94_USB_Composite/COMPOSITE/Class/COMPOSITE/Src/usbd_composite.c ****   {
ARM GAS  /tmp/ccXMkua6.s 			page 9


 306:Middlewares/Third_Party/AL94_USB_Composite/COMPOSITE/Class/COMPOSITE/Src/usbd_composite.c ****     if (LOBYTE(req->wIndex) == CDC_CMD_ITF_NBR[i] || LOBYTE(req->wIndex) == CDC_COM_ITF_NBR[i])
 307:Middlewares/Third_Party/AL94_USB_Composite/COMPOSITE/Class/COMPOSITE/Src/usbd_composite.c ****     {
 308:Middlewares/Third_Party/AL94_USB_Composite/COMPOSITE/Class/COMPOSITE/Src/usbd_composite.c ****       return USBD_CDC_ACM.Setup(pdev, req);
 309:Middlewares/Third_Party/AL94_USB_Composite/COMPOSITE/Class/COMPOSITE/Src/usbd_composite.c ****     }
 310:Middlewares/Third_Party/AL94_USB_Composite/COMPOSITE/Class/COMPOSITE/Src/usbd_composite.c ****   }
 311:Middlewares/Third_Party/AL94_USB_Composite/COMPOSITE/Class/COMPOSITE/Src/usbd_composite.c **** #endif
 312:Middlewares/Third_Party/AL94_USB_Composite/COMPOSITE/Class/COMPOSITE/Src/usbd_composite.c **** #if (USBD_USE_CDC_ECM == 1)
 313:Middlewares/Third_Party/AL94_USB_Composite/COMPOSITE/Class/COMPOSITE/Src/usbd_composite.c ****   if (LOBYTE(req->wIndex) == CDC_ECM_CMD_ITF_NBR || LOBYTE(req->wIndex) == CDC_ECM_COM_ITF_NBR)
 314:Middlewares/Third_Party/AL94_USB_Composite/COMPOSITE/Class/COMPOSITE/Src/usbd_composite.c ****   {
 315:Middlewares/Third_Party/AL94_USB_Composite/COMPOSITE/Class/COMPOSITE/Src/usbd_composite.c ****     return USBD_CDC_ECM.Setup(pdev, req);
 316:Middlewares/Third_Party/AL94_USB_Composite/COMPOSITE/Class/COMPOSITE/Src/usbd_composite.c ****   }
 317:Middlewares/Third_Party/AL94_USB_Composite/COMPOSITE/Class/COMPOSITE/Src/usbd_composite.c **** #endif
 318:Middlewares/Third_Party/AL94_USB_Composite/COMPOSITE/Class/COMPOSITE/Src/usbd_composite.c **** #if (USBD_USE_CDC_RNDIS == 1)
 319:Middlewares/Third_Party/AL94_USB_Composite/COMPOSITE/Class/COMPOSITE/Src/usbd_composite.c ****   if (LOBYTE(req->wIndex) == CDC_RNDIS_CMD_ITF_NBR || LOBYTE(req->wIndex) == CDC_RNDIS_COM_ITF_NBR)
 320:Middlewares/Third_Party/AL94_USB_Composite/COMPOSITE/Class/COMPOSITE/Src/usbd_composite.c ****   {
 321:Middlewares/Third_Party/AL94_USB_Composite/COMPOSITE/Class/COMPOSITE/Src/usbd_composite.c ****     return USBD_CDC_RNDIS.Setup(pdev, req);
 322:Middlewares/Third_Party/AL94_USB_Composite/COMPOSITE/Class/COMPOSITE/Src/usbd_composite.c ****   }
 323:Middlewares/Third_Party/AL94_USB_Composite/COMPOSITE/Class/COMPOSITE/Src/usbd_composite.c **** #endif
 324:Middlewares/Third_Party/AL94_USB_Composite/COMPOSITE/Class/COMPOSITE/Src/usbd_composite.c **** #if (USBD_USE_HID_MOUSE == 1)
 325:Middlewares/Third_Party/AL94_USB_Composite/COMPOSITE/Class/COMPOSITE/Src/usbd_composite.c ****   if (LOBYTE(req->wIndex) == HID_MOUSE_ITF_NBR)
 326:Middlewares/Third_Party/AL94_USB_Composite/COMPOSITE/Class/COMPOSITE/Src/usbd_composite.c ****   {
 327:Middlewares/Third_Party/AL94_USB_Composite/COMPOSITE/Class/COMPOSITE/Src/usbd_composite.c ****     return USBD_HID_MOUSE.Setup(pdev, req);
 328:Middlewares/Third_Party/AL94_USB_Composite/COMPOSITE/Class/COMPOSITE/Src/usbd_composite.c ****   }
 329:Middlewares/Third_Party/AL94_USB_Composite/COMPOSITE/Class/COMPOSITE/Src/usbd_composite.c **** #endif
 330:Middlewares/Third_Party/AL94_USB_Composite/COMPOSITE/Class/COMPOSITE/Src/usbd_composite.c **** #if (USBD_USE_HID_KEYBOARD == 1)
 331:Middlewares/Third_Party/AL94_USB_Composite/COMPOSITE/Class/COMPOSITE/Src/usbd_composite.c ****   if (LOBYTE(req->wIndex) == HID_KEYBOARD_ITF_NBR)
 157              		.loc 1 331 3 is_stmt 1 view .LVU29
 158              		.loc 1 331 7 is_stmt 0 view .LVU30
 159 0006 0A79     		ldrb	r2, [r1, #4]	@ zero_extendqisi2
 160              		.loc 1 331 27 view .LVU31
 161 0008 0D4B     		ldr	r3, .L18
 162              	.LVL11:
 163              		.loc 1 331 27 view .LVU32
 164 000a 1B78     		ldrb	r3, [r3]	@ zero_extendqisi2
 165              		.loc 1 331 6 view .LVU33
 166 000c 9A42     		cmp	r2, r3
 167 000e 12D0     		beq	.L17
 332:Middlewares/Third_Party/AL94_USB_Composite/COMPOSITE/Class/COMPOSITE/Src/usbd_composite.c ****   {
 333:Middlewares/Third_Party/AL94_USB_Composite/COMPOSITE/Class/COMPOSITE/Src/usbd_composite.c ****     return USBD_HID_KEYBOARD.Setup(pdev, req);
 334:Middlewares/Third_Party/AL94_USB_Composite/COMPOSITE/Class/COMPOSITE/Src/usbd_composite.c ****   }
 335:Middlewares/Third_Party/AL94_USB_Composite/COMPOSITE/Class/COMPOSITE/Src/usbd_composite.c **** #endif
 336:Middlewares/Third_Party/AL94_USB_Composite/COMPOSITE/Class/COMPOSITE/Src/usbd_composite.c **** #if (USBD_USE_HID_CUSTOM == 1)
 337:Middlewares/Third_Party/AL94_USB_Composite/COMPOSITE/Class/COMPOSITE/Src/usbd_composite.c ****   if (LOBYTE(req->wIndex) == CUSTOM_HID_ITF_NBR)
 338:Middlewares/Third_Party/AL94_USB_Composite/COMPOSITE/Class/COMPOSITE/Src/usbd_composite.c ****   {
 339:Middlewares/Third_Party/AL94_USB_Composite/COMPOSITE/Class/COMPOSITE/Src/usbd_composite.c ****     return USBD_HID_CUSTOM.Setup(pdev, req);
 340:Middlewares/Third_Party/AL94_USB_Composite/COMPOSITE/Class/COMPOSITE/Src/usbd_composite.c ****   }
 341:Middlewares/Third_Party/AL94_USB_Composite/COMPOSITE/Class/COMPOSITE/Src/usbd_composite.c **** #endif
 342:Middlewares/Third_Party/AL94_USB_Composite/COMPOSITE/Class/COMPOSITE/Src/usbd_composite.c **** #if (USBD_USE_UAC_MIC == 1)
 343:Middlewares/Third_Party/AL94_USB_Composite/COMPOSITE/Class/COMPOSITE/Src/usbd_composite.c ****   if (LOBYTE(req->wIndex) == AUDIO_MIC_AC_ITF_NBR || LOBYTE(req->wIndex) == AUDIO_MIC_AS_ITF_NBR)
 344:Middlewares/Third_Party/AL94_USB_Composite/COMPOSITE/Class/COMPOSITE/Src/usbd_composite.c ****   {
 345:Middlewares/Third_Party/AL94_USB_Composite/COMPOSITE/Class/COMPOSITE/Src/usbd_composite.c ****     return USBD_AUDIO_MIC.Setup(pdev, req);
 346:Middlewares/Third_Party/AL94_USB_Composite/COMPOSITE/Class/COMPOSITE/Src/usbd_composite.c ****   }
 347:Middlewares/Third_Party/AL94_USB_Composite/COMPOSITE/Class/COMPOSITE/Src/usbd_composite.c **** #endif
 348:Middlewares/Third_Party/AL94_USB_Composite/COMPOSITE/Class/COMPOSITE/Src/usbd_composite.c **** #if (USBD_USE_UAC_SPKR == 1)
 349:Middlewares/Third_Party/AL94_USB_Composite/COMPOSITE/Class/COMPOSITE/Src/usbd_composite.c ****   if (LOBYTE(req->wIndex) == AUDIO_SPKR_AC_ITF_NBR || LOBYTE(req->wIndex) == AUDIO_SPKR_AS_ITF_NBR)
 350:Middlewares/Third_Party/AL94_USB_Composite/COMPOSITE/Class/COMPOSITE/Src/usbd_composite.c ****   {
 351:Middlewares/Third_Party/AL94_USB_Composite/COMPOSITE/Class/COMPOSITE/Src/usbd_composite.c ****     return USBD_AUDIO_SPKR.Setup(pdev, req);
ARM GAS  /tmp/ccXMkua6.s 			page 10


 352:Middlewares/Third_Party/AL94_USB_Composite/COMPOSITE/Class/COMPOSITE/Src/usbd_composite.c ****   }
 353:Middlewares/Third_Party/AL94_USB_Composite/COMPOSITE/Class/COMPOSITE/Src/usbd_composite.c **** #endif
 354:Middlewares/Third_Party/AL94_USB_Composite/COMPOSITE/Class/COMPOSITE/Src/usbd_composite.c **** #if (USBD_USE_UVC == 1)
 355:Middlewares/Third_Party/AL94_USB_Composite/COMPOSITE/Class/COMPOSITE/Src/usbd_composite.c ****   if (LOBYTE(req->wIndex) == UVC_VC_IF_NUM || LOBYTE(req->wIndex) == UVC_VS_IF_NUM)
 356:Middlewares/Third_Party/AL94_USB_Composite/COMPOSITE/Class/COMPOSITE/Src/usbd_composite.c ****   {
 357:Middlewares/Third_Party/AL94_USB_Composite/COMPOSITE/Class/COMPOSITE/Src/usbd_composite.c ****     return USBD_VIDEO.Setup(pdev, req);
 358:Middlewares/Third_Party/AL94_USB_Composite/COMPOSITE/Class/COMPOSITE/Src/usbd_composite.c ****   }
 359:Middlewares/Third_Party/AL94_USB_Composite/COMPOSITE/Class/COMPOSITE/Src/usbd_composite.c **** #endif
 360:Middlewares/Third_Party/AL94_USB_Composite/COMPOSITE/Class/COMPOSITE/Src/usbd_composite.c **** #if (USBD_USE_MSC == 1)
 361:Middlewares/Third_Party/AL94_USB_Composite/COMPOSITE/Class/COMPOSITE/Src/usbd_composite.c ****   if (LOBYTE(req->wIndex) == MSC_ITF_NBR)
 362:Middlewares/Third_Party/AL94_USB_Composite/COMPOSITE/Class/COMPOSITE/Src/usbd_composite.c ****   {
 363:Middlewares/Third_Party/AL94_USB_Composite/COMPOSITE/Class/COMPOSITE/Src/usbd_composite.c ****     return USBD_MSC.Setup(pdev, req);
 364:Middlewares/Third_Party/AL94_USB_Composite/COMPOSITE/Class/COMPOSITE/Src/usbd_composite.c ****   }
 365:Middlewares/Third_Party/AL94_USB_Composite/COMPOSITE/Class/COMPOSITE/Src/usbd_composite.c **** #endif
 366:Middlewares/Third_Party/AL94_USB_Composite/COMPOSITE/Class/COMPOSITE/Src/usbd_composite.c **** #if (USBD_USE_DFU == 1)
 367:Middlewares/Third_Party/AL94_USB_Composite/COMPOSITE/Class/COMPOSITE/Src/usbd_composite.c ****   if (LOBYTE(req->wIndex) == DFU_ITF_NBR)
 368:Middlewares/Third_Party/AL94_USB_Composite/COMPOSITE/Class/COMPOSITE/Src/usbd_composite.c ****   {
 369:Middlewares/Third_Party/AL94_USB_Composite/COMPOSITE/Class/COMPOSITE/Src/usbd_composite.c ****     return USBD_DFU.Setup(pdev, req);
 370:Middlewares/Third_Party/AL94_USB_Composite/COMPOSITE/Class/COMPOSITE/Src/usbd_composite.c ****   }
 371:Middlewares/Third_Party/AL94_USB_Composite/COMPOSITE/Class/COMPOSITE/Src/usbd_composite.c **** #endif
 372:Middlewares/Third_Party/AL94_USB_Composite/COMPOSITE/Class/COMPOSITE/Src/usbd_composite.c **** #if (USBD_USE_PRNTR == 1)
 373:Middlewares/Third_Party/AL94_USB_Composite/COMPOSITE/Class/COMPOSITE/Src/usbd_composite.c ****   if (LOBYTE(req->wIndex) == PRNT_ITF_NBR)
 374:Middlewares/Third_Party/AL94_USB_Composite/COMPOSITE/Class/COMPOSITE/Src/usbd_composite.c ****   {
 375:Middlewares/Third_Party/AL94_USB_Composite/COMPOSITE/Class/COMPOSITE/Src/usbd_composite.c ****     USBD_PRNT.Setup(pdev, req);
 376:Middlewares/Third_Party/AL94_USB_Composite/COMPOSITE/Class/COMPOSITE/Src/usbd_composite.c ****   }
 377:Middlewares/Third_Party/AL94_USB_Composite/COMPOSITE/Class/COMPOSITE/Src/usbd_composite.c **** #endif
 378:Middlewares/Third_Party/AL94_USB_Composite/COMPOSITE/Class/COMPOSITE/Src/usbd_composite.c **** 
 379:Middlewares/Third_Party/AL94_USB_Composite/COMPOSITE/Class/COMPOSITE/Src/usbd_composite.c ****   return USBD_FAIL;
 168              		.loc 1 379 10 view .LVU34
 169 0010 0320     		movs	r0, #3
 170              	.LVL12:
 171              	.L13:
 380:Middlewares/Third_Party/AL94_USB_Composite/COMPOSITE/Class/COMPOSITE/Src/usbd_composite.c **** }
 172              		.loc 1 380 1 view .LVU35
 173 0012 10BD     		pop	{r4, pc}
 174              	.LVL13:
 175              	.L14:
 176              	.LBB3:
 306:Middlewares/Third_Party/AL94_USB_Composite/COMPOSITE/Class/COMPOSITE/Src/usbd_composite.c ****     {
 177              		.loc 1 306 5 is_stmt 1 view .LVU36
 306:Middlewares/Third_Party/AL94_USB_Composite/COMPOSITE/Class/COMPOSITE/Src/usbd_composite.c ****     {
 178              		.loc 1 306 9 is_stmt 0 view .LVU37
 179 0014 0A79     		ldrb	r2, [r1, #4]	@ zero_extendqisi2
 306:Middlewares/Third_Party/AL94_USB_Composite/COMPOSITE/Class/COMPOSITE/Src/usbd_composite.c ****     {
 180              		.loc 1 306 47 view .LVU38
 181 0016 0B4C     		ldr	r4, .L18+4
 182 0018 14F803C0 		ldrb	ip, [r4, r3]	@ zero_extendqisi2
 306:Middlewares/Third_Party/AL94_USB_Composite/COMPOSITE/Class/COMPOSITE/Src/usbd_composite.c ****     {
 183              		.loc 1 306 8 view .LVU39
 184 001c 6245     		cmp	r2, ip
 185 001e 06D0     		beq	.L11
 306:Middlewares/Third_Party/AL94_USB_Composite/COMPOSITE/Class/COMPOSITE/Src/usbd_composite.c ****     {
 186              		.loc 1 306 92 discriminator 1 view .LVU40
 187 0020 094C     		ldr	r4, .L18+8
 188 0022 E45C     		ldrb	r4, [r4, r3]	@ zero_extendqisi2
 306:Middlewares/Third_Party/AL94_USB_Composite/COMPOSITE/Class/COMPOSITE/Src/usbd_composite.c ****     {
 189              		.loc 1 306 51 discriminator 1 view .LVU41
ARM GAS  /tmp/ccXMkua6.s 			page 11


 190 0024 A242     		cmp	r2, r4
 191 0026 02D0     		beq	.L11
 304:Middlewares/Third_Party/AL94_USB_Composite/COMPOSITE/Class/COMPOSITE/Src/usbd_composite.c ****   {
 192              		.loc 1 304 47 is_stmt 1 discriminator 2 view .LVU42
 304:Middlewares/Third_Party/AL94_USB_Composite/COMPOSITE/Class/COMPOSITE/Src/usbd_composite.c ****   {
 193              		.loc 1 304 48 is_stmt 0 discriminator 2 view .LVU43
 194 0028 0133     		adds	r3, r3, #1
 195              	.LVL14:
 304:Middlewares/Third_Party/AL94_USB_Composite/COMPOSITE/Class/COMPOSITE/Src/usbd_composite.c ****   {
 196              		.loc 1 304 48 discriminator 2 view .LVU44
 197 002a DBB2     		uxtb	r3, r3
 198              	.LVL15:
 304:Middlewares/Third_Party/AL94_USB_Composite/COMPOSITE/Class/COMPOSITE/Src/usbd_composite.c ****   {
 199              		.loc 1 304 48 discriminator 2 view .LVU45
 200 002c EAE7     		b	.L10
 201              	.L11:
 308:Middlewares/Third_Party/AL94_USB_Composite/COMPOSITE/Class/COMPOSITE/Src/usbd_composite.c ****     }
 202              		.loc 1 308 7 is_stmt 1 view .LVU46
 308:Middlewares/Third_Party/AL94_USB_Composite/COMPOSITE/Class/COMPOSITE/Src/usbd_composite.c ****     }
 203              		.loc 1 308 26 is_stmt 0 view .LVU47
 204 002e 074B     		ldr	r3, .L18+12
 205              	.LVL16:
 308:Middlewares/Third_Party/AL94_USB_Composite/COMPOSITE/Class/COMPOSITE/Src/usbd_composite.c ****     }
 206              		.loc 1 308 26 view .LVU48
 207 0030 9B68     		ldr	r3, [r3, #8]
 308:Middlewares/Third_Party/AL94_USB_Composite/COMPOSITE/Class/COMPOSITE/Src/usbd_composite.c ****     }
 208              		.loc 1 308 14 view .LVU49
 209 0032 9847     		blx	r3
 210              	.LVL17:
 308:Middlewares/Third_Party/AL94_USB_Composite/COMPOSITE/Class/COMPOSITE/Src/usbd_composite.c ****     }
 211              		.loc 1 308 14 view .LVU50
 212 0034 EDE7     		b	.L13
 213              	.LVL18:
 214              	.L17:
 308:Middlewares/Third_Party/AL94_USB_Composite/COMPOSITE/Class/COMPOSITE/Src/usbd_composite.c ****     }
 215              		.loc 1 308 14 view .LVU51
 216              	.LBE3:
 333:Middlewares/Third_Party/AL94_USB_Composite/COMPOSITE/Class/COMPOSITE/Src/usbd_composite.c ****   }
 217              		.loc 1 333 5 is_stmt 1 view .LVU52
 333:Middlewares/Third_Party/AL94_USB_Composite/COMPOSITE/Class/COMPOSITE/Src/usbd_composite.c ****   }
 218              		.loc 1 333 29 is_stmt 0 view .LVU53
 219 0036 064B     		ldr	r3, .L18+16
 220 0038 9B68     		ldr	r3, [r3, #8]
 333:Middlewares/Third_Party/AL94_USB_Composite/COMPOSITE/Class/COMPOSITE/Src/usbd_composite.c ****   }
 221              		.loc 1 333 12 view .LVU54
 222 003a 9847     		blx	r3
 223              	.LVL19:
 333:Middlewares/Third_Party/AL94_USB_Composite/COMPOSITE/Class/COMPOSITE/Src/usbd_composite.c ****   }
 224              		.loc 1 333 12 view .LVU55
 225 003c E9E7     		b	.L13
 226              	.L19:
 227 003e 00BF     		.align	2
 228              	.L18:
 229 0040 00000000 		.word	HID_KEYBOARD_ITF_NBR
 230 0044 00000000 		.word	CDC_CMD_ITF_NBR
 231 0048 00000000 		.word	CDC_COM_ITF_NBR
 232 004c 00000000 		.word	USBD_CDC_ACM
ARM GAS  /tmp/ccXMkua6.s 			page 12


 233 0050 00000000 		.word	USBD_HID_KEYBOARD
 234              		.cfi_endproc
 235              	.LFE147:
 237              		.section	.text.USBD_COMPOSITE_DataIn,"ax",%progbits
 238              		.align	1
 239              		.syntax unified
 240              		.thumb
 241              		.thumb_func
 243              	USBD_COMPOSITE_DataIn:
 244              	.LVL20:
 245              	.LFB148:
 381:Middlewares/Third_Party/AL94_USB_Composite/COMPOSITE/Class/COMPOSITE/Src/usbd_composite.c **** 
 382:Middlewares/Third_Party/AL94_USB_Composite/COMPOSITE/Class/COMPOSITE/Src/usbd_composite.c **** /**
 383:Middlewares/Third_Party/AL94_USB_Composite/COMPOSITE/Class/COMPOSITE/Src/usbd_composite.c ****   * @brief  USBD_COMPOSITE_DataIn
 384:Middlewares/Third_Party/AL94_USB_Composite/COMPOSITE/Class/COMPOSITE/Src/usbd_composite.c ****   *         handle data IN Stage
 385:Middlewares/Third_Party/AL94_USB_Composite/COMPOSITE/Class/COMPOSITE/Src/usbd_composite.c ****   * @param  pdev: device instance
 386:Middlewares/Third_Party/AL94_USB_Composite/COMPOSITE/Class/COMPOSITE/Src/usbd_composite.c ****   * @param  epnum: endpoint index
 387:Middlewares/Third_Party/AL94_USB_Composite/COMPOSITE/Class/COMPOSITE/Src/usbd_composite.c ****   * @retval status
 388:Middlewares/Third_Party/AL94_USB_Composite/COMPOSITE/Class/COMPOSITE/Src/usbd_composite.c ****   */
 389:Middlewares/Third_Party/AL94_USB_Composite/COMPOSITE/Class/COMPOSITE/Src/usbd_composite.c **** static uint8_t USBD_COMPOSITE_DataIn(USBD_HandleTypeDef *pdev, uint8_t epnum)
 390:Middlewares/Third_Party/AL94_USB_Composite/COMPOSITE/Class/COMPOSITE/Src/usbd_composite.c **** {
 246              		.loc 1 390 1 is_stmt 1 view -0
 247              		.cfi_startproc
 248              		@ args = 0, pretend = 0, frame = 0
 249              		@ frame_needed = 0, uses_anonymous_args = 0
 250              		.loc 1 390 1 is_stmt 0 view .LVU57
 251 0000 08B5     		push	{r3, lr}
 252              	.LCFI3:
 253              		.cfi_def_cfa_offset 8
 254              		.cfi_offset 3, -8
 255              		.cfi_offset 14, -4
 391:Middlewares/Third_Party/AL94_USB_Composite/COMPOSITE/Class/COMPOSITE/Src/usbd_composite.c **** #if (USBD_USE_CDC_ACM == 1)
 392:Middlewares/Third_Party/AL94_USB_Composite/COMPOSITE/Class/COMPOSITE/Src/usbd_composite.c ****   for (uint8_t i = 0; i < USBD_CDC_ACM_COUNT; i++)
 256              		.loc 1 392 3 is_stmt 1 view .LVU58
 257              	.LBB4:
 258              		.loc 1 392 8 view .LVU59
 259              	.LVL21:
 260              		.loc 1 392 16 is_stmt 0 view .LVU60
 261 0002 0023     		movs	r3, #0
 262              	.LVL22:
 263              	.L21:
 264              		.loc 1 392 23 is_stmt 1 discriminator 1 view .LVU61
 265              		.loc 1 392 3 is_stmt 0 discriminator 1 view .LVU62
 266 0004 3BB1     		cbz	r3, .L25
 267              	.LBE4:
 393:Middlewares/Third_Party/AL94_USB_Composite/COMPOSITE/Class/COMPOSITE/Src/usbd_composite.c ****   {
 394:Middlewares/Third_Party/AL94_USB_Composite/COMPOSITE/Class/COMPOSITE/Src/usbd_composite.c ****     if (epnum == (CDC_IN_EP[i] & 0x7F) || epnum == (CDC_CMD_EP[i] & 0x7F))
 395:Middlewares/Third_Party/AL94_USB_Composite/COMPOSITE/Class/COMPOSITE/Src/usbd_composite.c ****     {
 396:Middlewares/Third_Party/AL94_USB_Composite/COMPOSITE/Class/COMPOSITE/Src/usbd_composite.c ****       return USBD_CDC_ACM.DataIn(pdev, epnum);
 397:Middlewares/Third_Party/AL94_USB_Composite/COMPOSITE/Class/COMPOSITE/Src/usbd_composite.c ****     }
 398:Middlewares/Third_Party/AL94_USB_Composite/COMPOSITE/Class/COMPOSITE/Src/usbd_composite.c ****   }
 399:Middlewares/Third_Party/AL94_USB_Composite/COMPOSITE/Class/COMPOSITE/Src/usbd_composite.c **** #endif
 400:Middlewares/Third_Party/AL94_USB_Composite/COMPOSITE/Class/COMPOSITE/Src/usbd_composite.c **** #if (USBD_USE_CDC_ECM == 1)
 401:Middlewares/Third_Party/AL94_USB_Composite/COMPOSITE/Class/COMPOSITE/Src/usbd_composite.c ****   if (epnum == (CDC_ECM_IN_EP & 0x7F) || epnum == (CDC_ECM_CMD_EP & 0x7F))
 402:Middlewares/Third_Party/AL94_USB_Composite/COMPOSITE/Class/COMPOSITE/Src/usbd_composite.c ****   {
 403:Middlewares/Third_Party/AL94_USB_Composite/COMPOSITE/Class/COMPOSITE/Src/usbd_composite.c ****     return USBD_CDC_ECM.DataIn(pdev, epnum);
 404:Middlewares/Third_Party/AL94_USB_Composite/COMPOSITE/Class/COMPOSITE/Src/usbd_composite.c ****   }
ARM GAS  /tmp/ccXMkua6.s 			page 13


 405:Middlewares/Third_Party/AL94_USB_Composite/COMPOSITE/Class/COMPOSITE/Src/usbd_composite.c **** #endif
 406:Middlewares/Third_Party/AL94_USB_Composite/COMPOSITE/Class/COMPOSITE/Src/usbd_composite.c **** #if (USBD_USE_CDC_RNDIS == 1)
 407:Middlewares/Third_Party/AL94_USB_Composite/COMPOSITE/Class/COMPOSITE/Src/usbd_composite.c ****   if (epnum == (CDC_RNDIS_IN_EP & 0x7F) || epnum == (CDC_RNDIS_CMD_EP & 0x7F))
 408:Middlewares/Third_Party/AL94_USB_Composite/COMPOSITE/Class/COMPOSITE/Src/usbd_composite.c ****   {
 409:Middlewares/Third_Party/AL94_USB_Composite/COMPOSITE/Class/COMPOSITE/Src/usbd_composite.c ****     return USBD_CDC_RNDIS.DataIn(pdev, epnum);
 410:Middlewares/Third_Party/AL94_USB_Composite/COMPOSITE/Class/COMPOSITE/Src/usbd_composite.c ****   }
 411:Middlewares/Third_Party/AL94_USB_Composite/COMPOSITE/Class/COMPOSITE/Src/usbd_composite.c **** #endif
 412:Middlewares/Third_Party/AL94_USB_Composite/COMPOSITE/Class/COMPOSITE/Src/usbd_composite.c **** #if (USBD_USE_HID_MOUSE == 1)
 413:Middlewares/Third_Party/AL94_USB_Composite/COMPOSITE/Class/COMPOSITE/Src/usbd_composite.c ****   if (epnum == (HID_MOUSE_IN_EP & 0x7F))
 414:Middlewares/Third_Party/AL94_USB_Composite/COMPOSITE/Class/COMPOSITE/Src/usbd_composite.c ****   {
 415:Middlewares/Third_Party/AL94_USB_Composite/COMPOSITE/Class/COMPOSITE/Src/usbd_composite.c ****     return USBD_HID_MOUSE.DataIn(pdev, epnum);
 416:Middlewares/Third_Party/AL94_USB_Composite/COMPOSITE/Class/COMPOSITE/Src/usbd_composite.c ****   }
 417:Middlewares/Third_Party/AL94_USB_Composite/COMPOSITE/Class/COMPOSITE/Src/usbd_composite.c **** #endif
 418:Middlewares/Third_Party/AL94_USB_Composite/COMPOSITE/Class/COMPOSITE/Src/usbd_composite.c **** #if (USBD_USE_HID_KEYBOARD == 1)
 419:Middlewares/Third_Party/AL94_USB_Composite/COMPOSITE/Class/COMPOSITE/Src/usbd_composite.c ****   if (epnum == (HID_KEYBOARD_IN_EP & 0x7F))
 268              		.loc 1 419 3 is_stmt 1 view .LVU63
 269              		.loc 1 419 36 is_stmt 0 view .LVU64
 270 0006 0F4B     		ldr	r3, .L29
 271              	.LVL23:
 272              		.loc 1 419 36 view .LVU65
 273 0008 1B78     		ldrb	r3, [r3]	@ zero_extendqisi2
 274              		.loc 1 419 6 view .LVU66
 275 000a 03F07F03 		and	r3, r3, #127
 276 000e 8B42     		cmp	r3, r1
 277 0010 14D0     		beq	.L28
 420:Middlewares/Third_Party/AL94_USB_Composite/COMPOSITE/Class/COMPOSITE/Src/usbd_composite.c ****   {
 421:Middlewares/Third_Party/AL94_USB_Composite/COMPOSITE/Class/COMPOSITE/Src/usbd_composite.c ****     return USBD_HID_KEYBOARD.DataIn(pdev, epnum);
 422:Middlewares/Third_Party/AL94_USB_Composite/COMPOSITE/Class/COMPOSITE/Src/usbd_composite.c ****   }
 423:Middlewares/Third_Party/AL94_USB_Composite/COMPOSITE/Class/COMPOSITE/Src/usbd_composite.c **** #endif
 424:Middlewares/Third_Party/AL94_USB_Composite/COMPOSITE/Class/COMPOSITE/Src/usbd_composite.c **** #if (USBD_USE_HID_CUSTOM == 1)
 425:Middlewares/Third_Party/AL94_USB_Composite/COMPOSITE/Class/COMPOSITE/Src/usbd_composite.c ****   if (epnum == (CUSTOM_HID_IN_EP & 0x7F))
 426:Middlewares/Third_Party/AL94_USB_Composite/COMPOSITE/Class/COMPOSITE/Src/usbd_composite.c ****   {
 427:Middlewares/Third_Party/AL94_USB_Composite/COMPOSITE/Class/COMPOSITE/Src/usbd_composite.c ****     return USBD_HID_CUSTOM.DataIn(pdev, epnum);
 428:Middlewares/Third_Party/AL94_USB_Composite/COMPOSITE/Class/COMPOSITE/Src/usbd_composite.c ****   }
 429:Middlewares/Third_Party/AL94_USB_Composite/COMPOSITE/Class/COMPOSITE/Src/usbd_composite.c **** #endif
 430:Middlewares/Third_Party/AL94_USB_Composite/COMPOSITE/Class/COMPOSITE/Src/usbd_composite.c **** #if (USBD_USE_UAC_MIC == 1)
 431:Middlewares/Third_Party/AL94_USB_Composite/COMPOSITE/Class/COMPOSITE/Src/usbd_composite.c ****   if (epnum == (AUDIO_MIC_EP & 0x7F))
 432:Middlewares/Third_Party/AL94_USB_Composite/COMPOSITE/Class/COMPOSITE/Src/usbd_composite.c ****   {
 433:Middlewares/Third_Party/AL94_USB_Composite/COMPOSITE/Class/COMPOSITE/Src/usbd_composite.c ****     return USBD_AUDIO_MIC.DataIn(pdev, epnum);
 434:Middlewares/Third_Party/AL94_USB_Composite/COMPOSITE/Class/COMPOSITE/Src/usbd_composite.c ****   }
 435:Middlewares/Third_Party/AL94_USB_Composite/COMPOSITE/Class/COMPOSITE/Src/usbd_composite.c **** #endif
 436:Middlewares/Third_Party/AL94_USB_Composite/COMPOSITE/Class/COMPOSITE/Src/usbd_composite.c **** #if (USBD_USE_UAC_SPKR == 1)
 437:Middlewares/Third_Party/AL94_USB_Composite/COMPOSITE/Class/COMPOSITE/Src/usbd_composite.c **** #endif
 438:Middlewares/Third_Party/AL94_USB_Composite/COMPOSITE/Class/COMPOSITE/Src/usbd_composite.c **** #if (USBD_USE_UVC == 1)
 439:Middlewares/Third_Party/AL94_USB_Composite/COMPOSITE/Class/COMPOSITE/Src/usbd_composite.c ****   if (epnum == (UVC_IN_EP & 0x7F))
 440:Middlewares/Third_Party/AL94_USB_Composite/COMPOSITE/Class/COMPOSITE/Src/usbd_composite.c ****   {
 441:Middlewares/Third_Party/AL94_USB_Composite/COMPOSITE/Class/COMPOSITE/Src/usbd_composite.c ****     return USBD_VIDEO.DataIn(pdev, epnum);
 442:Middlewares/Third_Party/AL94_USB_Composite/COMPOSITE/Class/COMPOSITE/Src/usbd_composite.c ****   }
 443:Middlewares/Third_Party/AL94_USB_Composite/COMPOSITE/Class/COMPOSITE/Src/usbd_composite.c **** #endif
 444:Middlewares/Third_Party/AL94_USB_Composite/COMPOSITE/Class/COMPOSITE/Src/usbd_composite.c **** #if (USBD_USE_MSC == 1)
 445:Middlewares/Third_Party/AL94_USB_Composite/COMPOSITE/Class/COMPOSITE/Src/usbd_composite.c ****   if (epnum == (MSC_IN_EP & 0x7F))
 446:Middlewares/Third_Party/AL94_USB_Composite/COMPOSITE/Class/COMPOSITE/Src/usbd_composite.c ****   {
 447:Middlewares/Third_Party/AL94_USB_Composite/COMPOSITE/Class/COMPOSITE/Src/usbd_composite.c ****     return USBD_MSC.DataIn(pdev, epnum);
 448:Middlewares/Third_Party/AL94_USB_Composite/COMPOSITE/Class/COMPOSITE/Src/usbd_composite.c ****   }
 449:Middlewares/Third_Party/AL94_USB_Composite/COMPOSITE/Class/COMPOSITE/Src/usbd_composite.c **** #endif
 450:Middlewares/Third_Party/AL94_USB_Composite/COMPOSITE/Class/COMPOSITE/Src/usbd_composite.c **** #if (USBD_USE_DFU == 1)
 451:Middlewares/Third_Party/AL94_USB_Composite/COMPOSITE/Class/COMPOSITE/Src/usbd_composite.c **** #endif
ARM GAS  /tmp/ccXMkua6.s 			page 14


 452:Middlewares/Third_Party/AL94_USB_Composite/COMPOSITE/Class/COMPOSITE/Src/usbd_composite.c **** #if (USBD_USE_PRNTR == 1)
 453:Middlewares/Third_Party/AL94_USB_Composite/COMPOSITE/Class/COMPOSITE/Src/usbd_composite.c ****   if (epnum == (PRNT_IN_EP & 0x7F))
 454:Middlewares/Third_Party/AL94_USB_Composite/COMPOSITE/Class/COMPOSITE/Src/usbd_composite.c ****   {
 455:Middlewares/Third_Party/AL94_USB_Composite/COMPOSITE/Class/COMPOSITE/Src/usbd_composite.c ****     USBD_PRNT.DataIn(pdev, epnum);
 456:Middlewares/Third_Party/AL94_USB_Composite/COMPOSITE/Class/COMPOSITE/Src/usbd_composite.c ****   }
 457:Middlewares/Third_Party/AL94_USB_Composite/COMPOSITE/Class/COMPOSITE/Src/usbd_composite.c **** #endif
 458:Middlewares/Third_Party/AL94_USB_Composite/COMPOSITE/Class/COMPOSITE/Src/usbd_composite.c **** 
 459:Middlewares/Third_Party/AL94_USB_Composite/COMPOSITE/Class/COMPOSITE/Src/usbd_composite.c ****   return USBD_FAIL;
 278              		.loc 1 459 10 view .LVU67
 279 0012 0320     		movs	r0, #3
 280              	.LVL24:
 281              	.L24:
 460:Middlewares/Third_Party/AL94_USB_Composite/COMPOSITE/Class/COMPOSITE/Src/usbd_composite.c **** }
 282              		.loc 1 460 1 view .LVU68
 283 0014 08BD     		pop	{r3, pc}
 284              	.LVL25:
 285              	.L25:
 286              	.LBB5:
 394:Middlewares/Third_Party/AL94_USB_Composite/COMPOSITE/Class/COMPOSITE/Src/usbd_composite.c ****     {
 287              		.loc 1 394 5 is_stmt 1 view .LVU69
 394:Middlewares/Third_Party/AL94_USB_Composite/COMPOSITE/Class/COMPOSITE/Src/usbd_composite.c ****     {
 288              		.loc 1 394 28 is_stmt 0 view .LVU70
 289 0016 0C4A     		ldr	r2, .L29+4
 290 0018 D25C     		ldrb	r2, [r2, r3]	@ zero_extendqisi2
 394:Middlewares/Third_Party/AL94_USB_Composite/COMPOSITE/Class/COMPOSITE/Src/usbd_composite.c ****     {
 291              		.loc 1 394 8 view .LVU71
 292 001a 02F07F02 		and	r2, r2, #127
 293 001e 9142     		cmp	r1, r2
 294 0020 08D0     		beq	.L22
 394:Middlewares/Third_Party/AL94_USB_Composite/COMPOSITE/Class/COMPOSITE/Src/usbd_composite.c ****     {
 295              		.loc 1 394 63 discriminator 1 view .LVU72
 296 0022 0A4A     		ldr	r2, .L29+8
 297 0024 D25C     		ldrb	r2, [r2, r3]	@ zero_extendqisi2
 394:Middlewares/Third_Party/AL94_USB_Composite/COMPOSITE/Class/COMPOSITE/Src/usbd_composite.c ****     {
 298              		.loc 1 394 40 discriminator 1 view .LVU73
 299 0026 02F07F02 		and	r2, r2, #127
 300 002a 9142     		cmp	r1, r2
 301 002c 02D0     		beq	.L22
 392:Middlewares/Third_Party/AL94_USB_Composite/COMPOSITE/Class/COMPOSITE/Src/usbd_composite.c ****   {
 302              		.loc 1 392 47 is_stmt 1 discriminator 2 view .LVU74
 392:Middlewares/Third_Party/AL94_USB_Composite/COMPOSITE/Class/COMPOSITE/Src/usbd_composite.c ****   {
 303              		.loc 1 392 48 is_stmt 0 discriminator 2 view .LVU75
 304 002e 0133     		adds	r3, r3, #1
 305              	.LVL26:
 392:Middlewares/Third_Party/AL94_USB_Composite/COMPOSITE/Class/COMPOSITE/Src/usbd_composite.c ****   {
 306              		.loc 1 392 48 discriminator 2 view .LVU76
 307 0030 DBB2     		uxtb	r3, r3
 308              	.LVL27:
 392:Middlewares/Third_Party/AL94_USB_Composite/COMPOSITE/Class/COMPOSITE/Src/usbd_composite.c ****   {
 309              		.loc 1 392 48 discriminator 2 view .LVU77
 310 0032 E7E7     		b	.L21
 311              	.L22:
 396:Middlewares/Third_Party/AL94_USB_Composite/COMPOSITE/Class/COMPOSITE/Src/usbd_composite.c ****     }
 312              		.loc 1 396 7 is_stmt 1 view .LVU78
 396:Middlewares/Third_Party/AL94_USB_Composite/COMPOSITE/Class/COMPOSITE/Src/usbd_composite.c ****     }
 313              		.loc 1 396 26 is_stmt 0 view .LVU79
 314 0034 064B     		ldr	r3, .L29+12
ARM GAS  /tmp/ccXMkua6.s 			page 15


 315              	.LVL28:
 396:Middlewares/Third_Party/AL94_USB_Composite/COMPOSITE/Class/COMPOSITE/Src/usbd_composite.c ****     }
 316              		.loc 1 396 26 view .LVU80
 317 0036 5B69     		ldr	r3, [r3, #20]
 396:Middlewares/Third_Party/AL94_USB_Composite/COMPOSITE/Class/COMPOSITE/Src/usbd_composite.c ****     }
 318              		.loc 1 396 14 view .LVU81
 319 0038 9847     		blx	r3
 320              	.LVL29:
 396:Middlewares/Third_Party/AL94_USB_Composite/COMPOSITE/Class/COMPOSITE/Src/usbd_composite.c ****     }
 321              		.loc 1 396 14 view .LVU82
 322 003a EBE7     		b	.L24
 323              	.LVL30:
 324              	.L28:
 396:Middlewares/Third_Party/AL94_USB_Composite/COMPOSITE/Class/COMPOSITE/Src/usbd_composite.c ****     }
 325              		.loc 1 396 14 view .LVU83
 326              	.LBE5:
 421:Middlewares/Third_Party/AL94_USB_Composite/COMPOSITE/Class/COMPOSITE/Src/usbd_composite.c ****   }
 327              		.loc 1 421 5 is_stmt 1 view .LVU84
 421:Middlewares/Third_Party/AL94_USB_Composite/COMPOSITE/Class/COMPOSITE/Src/usbd_composite.c ****   }
 328              		.loc 1 421 29 is_stmt 0 view .LVU85
 329 003c 054B     		ldr	r3, .L29+16
 330 003e 5B69     		ldr	r3, [r3, #20]
 421:Middlewares/Third_Party/AL94_USB_Composite/COMPOSITE/Class/COMPOSITE/Src/usbd_composite.c ****   }
 331              		.loc 1 421 12 view .LVU86
 332 0040 9847     		blx	r3
 333              	.LVL31:
 421:Middlewares/Third_Party/AL94_USB_Composite/COMPOSITE/Class/COMPOSITE/Src/usbd_composite.c ****   }
 334              		.loc 1 421 12 view .LVU87
 335 0042 E7E7     		b	.L24
 336              	.L30:
 337              		.align	2
 338              	.L29:
 339 0044 00000000 		.word	HID_KEYBOARD_IN_EP
 340 0048 00000000 		.word	CDC_IN_EP
 341 004c 00000000 		.word	CDC_CMD_EP
 342 0050 00000000 		.word	USBD_CDC_ACM
 343 0054 00000000 		.word	USBD_HID_KEYBOARD
 344              		.cfi_endproc
 345              	.LFE148:
 347              		.section	.text.USBD_COMPOSITE_EP0_RxReady,"ax",%progbits
 348              		.align	1
 349              		.syntax unified
 350              		.thumb
 351              		.thumb_func
 353              	USBD_COMPOSITE_EP0_RxReady:
 354              	.LVL32:
 355              	.LFB149:
 461:Middlewares/Third_Party/AL94_USB_Composite/COMPOSITE/Class/COMPOSITE/Src/usbd_composite.c **** 
 462:Middlewares/Third_Party/AL94_USB_Composite/COMPOSITE/Class/COMPOSITE/Src/usbd_composite.c **** /**
 463:Middlewares/Third_Party/AL94_USB_Composite/COMPOSITE/Class/COMPOSITE/Src/usbd_composite.c ****   * @brief  USBD_COMPOSITE_EP0_RxReady
 464:Middlewares/Third_Party/AL94_USB_Composite/COMPOSITE/Class/COMPOSITE/Src/usbd_composite.c ****   *         handle EP0 Rx Ready event
 465:Middlewares/Third_Party/AL94_USB_Composite/COMPOSITE/Class/COMPOSITE/Src/usbd_composite.c ****   * @param  pdev: device instance
 466:Middlewares/Third_Party/AL94_USB_Composite/COMPOSITE/Class/COMPOSITE/Src/usbd_composite.c ****   * @retval status
 467:Middlewares/Third_Party/AL94_USB_Composite/COMPOSITE/Class/COMPOSITE/Src/usbd_composite.c ****   */
 468:Middlewares/Third_Party/AL94_USB_Composite/COMPOSITE/Class/COMPOSITE/Src/usbd_composite.c **** static uint8_t USBD_COMPOSITE_EP0_RxReady(USBD_HandleTypeDef *pdev)
 469:Middlewares/Third_Party/AL94_USB_Composite/COMPOSITE/Class/COMPOSITE/Src/usbd_composite.c **** {
 356              		.loc 1 469 1 is_stmt 1 view -0
ARM GAS  /tmp/ccXMkua6.s 			page 16


 357              		.cfi_startproc
 358              		@ args = 0, pretend = 0, frame = 0
 359              		@ frame_needed = 0, uses_anonymous_args = 0
 360              		.loc 1 469 1 is_stmt 0 view .LVU89
 361 0000 08B5     		push	{r3, lr}
 362              	.LCFI4:
 363              		.cfi_def_cfa_offset 8
 364              		.cfi_offset 3, -8
 365              		.cfi_offset 14, -4
 470:Middlewares/Third_Party/AL94_USB_Composite/COMPOSITE/Class/COMPOSITE/Src/usbd_composite.c **** #if (USBD_USE_CDC_ACM == 1)
 471:Middlewares/Third_Party/AL94_USB_Composite/COMPOSITE/Class/COMPOSITE/Src/usbd_composite.c ****   USBD_CDC_ACM.EP0_RxReady(pdev);
 366              		.loc 1 471 3 is_stmt 1 view .LVU90
 367              		.loc 1 471 15 is_stmt 0 view .LVU91
 368 0002 024B     		ldr	r3, .L33
 369 0004 1B69     		ldr	r3, [r3, #16]
 370              		.loc 1 471 3 view .LVU92
 371 0006 9847     		blx	r3
 372              	.LVL33:
 472:Middlewares/Third_Party/AL94_USB_Composite/COMPOSITE/Class/COMPOSITE/Src/usbd_composite.c **** #endif
 473:Middlewares/Third_Party/AL94_USB_Composite/COMPOSITE/Class/COMPOSITE/Src/usbd_composite.c **** #if (USBD_USE_CDC_ECM == 1)
 474:Middlewares/Third_Party/AL94_USB_Composite/COMPOSITE/Class/COMPOSITE/Src/usbd_composite.c ****   USBD_CDC_ECM.EP0_RxReady(pdev);
 475:Middlewares/Third_Party/AL94_USB_Composite/COMPOSITE/Class/COMPOSITE/Src/usbd_composite.c **** #endif
 476:Middlewares/Third_Party/AL94_USB_Composite/COMPOSITE/Class/COMPOSITE/Src/usbd_composite.c **** #if (USBD_USE_CDC_RNDIS == 1)
 477:Middlewares/Third_Party/AL94_USB_Composite/COMPOSITE/Class/COMPOSITE/Src/usbd_composite.c ****   USBD_CDC_RNDIS.EP0_RxReady(pdev);
 478:Middlewares/Third_Party/AL94_USB_Composite/COMPOSITE/Class/COMPOSITE/Src/usbd_composite.c **** #endif
 479:Middlewares/Third_Party/AL94_USB_Composite/COMPOSITE/Class/COMPOSITE/Src/usbd_composite.c **** #if (USBD_USE_HID_MOUSE == 1)
 480:Middlewares/Third_Party/AL94_USB_Composite/COMPOSITE/Class/COMPOSITE/Src/usbd_composite.c **** #endif
 481:Middlewares/Third_Party/AL94_USB_Composite/COMPOSITE/Class/COMPOSITE/Src/usbd_composite.c **** #if (USBD_USE_HID_KEYBOARD == 1)
 482:Middlewares/Third_Party/AL94_USB_Composite/COMPOSITE/Class/COMPOSITE/Src/usbd_composite.c **** #endif
 483:Middlewares/Third_Party/AL94_USB_Composite/COMPOSITE/Class/COMPOSITE/Src/usbd_composite.c **** #if (USBD_USE_HID_CUSTOM == 1)
 484:Middlewares/Third_Party/AL94_USB_Composite/COMPOSITE/Class/COMPOSITE/Src/usbd_composite.c ****   USBD_HID_CUSTOM.EP0_RxReady(pdev);
 485:Middlewares/Third_Party/AL94_USB_Composite/COMPOSITE/Class/COMPOSITE/Src/usbd_composite.c **** #endif
 486:Middlewares/Third_Party/AL94_USB_Composite/COMPOSITE/Class/COMPOSITE/Src/usbd_composite.c **** #if (USBD_USE_UAC_MIC == 1)
 487:Middlewares/Third_Party/AL94_USB_Composite/COMPOSITE/Class/COMPOSITE/Src/usbd_composite.c ****   USBD_AUDIO_MIC.EP0_RxReady(pdev);
 488:Middlewares/Third_Party/AL94_USB_Composite/COMPOSITE/Class/COMPOSITE/Src/usbd_composite.c **** #endif
 489:Middlewares/Third_Party/AL94_USB_Composite/COMPOSITE/Class/COMPOSITE/Src/usbd_composite.c **** #if (USBD_USE_UAC_SPKR == 1)
 490:Middlewares/Third_Party/AL94_USB_Composite/COMPOSITE/Class/COMPOSITE/Src/usbd_composite.c ****   USBD_AUDIO_SPKR.EP0_RxReady(pdev);
 491:Middlewares/Third_Party/AL94_USB_Composite/COMPOSITE/Class/COMPOSITE/Src/usbd_composite.c **** #endif
 492:Middlewares/Third_Party/AL94_USB_Composite/COMPOSITE/Class/COMPOSITE/Src/usbd_composite.c **** #if (USBD_USE_UVC == 1)
 493:Middlewares/Third_Party/AL94_USB_Composite/COMPOSITE/Class/COMPOSITE/Src/usbd_composite.c **** #endif
 494:Middlewares/Third_Party/AL94_USB_Composite/COMPOSITE/Class/COMPOSITE/Src/usbd_composite.c **** #if (USBD_USE_MSC == 1)
 495:Middlewares/Third_Party/AL94_USB_Composite/COMPOSITE/Class/COMPOSITE/Src/usbd_composite.c **** #endif
 496:Middlewares/Third_Party/AL94_USB_Composite/COMPOSITE/Class/COMPOSITE/Src/usbd_composite.c **** #if (USBD_USE_DFU == 1)
 497:Middlewares/Third_Party/AL94_USB_Composite/COMPOSITE/Class/COMPOSITE/Src/usbd_composite.c ****   USBD_DFU.EP0_RxReady(pdev);
 498:Middlewares/Third_Party/AL94_USB_Composite/COMPOSITE/Class/COMPOSITE/Src/usbd_composite.c **** #endif
 499:Middlewares/Third_Party/AL94_USB_Composite/COMPOSITE/Class/COMPOSITE/Src/usbd_composite.c **** #if (USBD_USE_PRNTR == 1)
 500:Middlewares/Third_Party/AL94_USB_Composite/COMPOSITE/Class/COMPOSITE/Src/usbd_composite.c **** #endif
 501:Middlewares/Third_Party/AL94_USB_Composite/COMPOSITE/Class/COMPOSITE/Src/usbd_composite.c **** 
 502:Middlewares/Third_Party/AL94_USB_Composite/COMPOSITE/Class/COMPOSITE/Src/usbd_composite.c ****   return (uint8_t)USBD_OK;
 373              		.loc 1 502 3 is_stmt 1 view .LVU93
 503:Middlewares/Third_Party/AL94_USB_Composite/COMPOSITE/Class/COMPOSITE/Src/usbd_composite.c **** }
 374              		.loc 1 503 1 is_stmt 0 view .LVU94
 375 0008 0020     		movs	r0, #0
 376 000a 08BD     		pop	{r3, pc}
 377              	.L34:
 378              		.align	2
 379              	.L33:
ARM GAS  /tmp/ccXMkua6.s 			page 17


 380 000c 00000000 		.word	USBD_CDC_ACM
 381              		.cfi_endproc
 382              	.LFE149:
 384              		.section	.text.USBD_COMPOSITE_EP0_TxReady,"ax",%progbits
 385              		.align	1
 386              		.syntax unified
 387              		.thumb
 388              		.thumb_func
 390              	USBD_COMPOSITE_EP0_TxReady:
 391              	.LVL34:
 392              	.LFB150:
 504:Middlewares/Third_Party/AL94_USB_Composite/COMPOSITE/Class/COMPOSITE/Src/usbd_composite.c **** 
 505:Middlewares/Third_Party/AL94_USB_Composite/COMPOSITE/Class/COMPOSITE/Src/usbd_composite.c **** /**
 506:Middlewares/Third_Party/AL94_USB_Composite/COMPOSITE/Class/COMPOSITE/Src/usbd_composite.c ****   * @brief  USBD_COMPOSITE_EP0_TxReady
 507:Middlewares/Third_Party/AL94_USB_Composite/COMPOSITE/Class/COMPOSITE/Src/usbd_composite.c ****   *         handle EP0 TRx Ready event
 508:Middlewares/Third_Party/AL94_USB_Composite/COMPOSITE/Class/COMPOSITE/Src/usbd_composite.c ****   * @param  pdev: device instance
 509:Middlewares/Third_Party/AL94_USB_Composite/COMPOSITE/Class/COMPOSITE/Src/usbd_composite.c ****   * @retval status
 510:Middlewares/Third_Party/AL94_USB_Composite/COMPOSITE/Class/COMPOSITE/Src/usbd_composite.c ****   */
 511:Middlewares/Third_Party/AL94_USB_Composite/COMPOSITE/Class/COMPOSITE/Src/usbd_composite.c **** static uint8_t USBD_COMPOSITE_EP0_TxReady(USBD_HandleTypeDef *pdev)
 512:Middlewares/Third_Party/AL94_USB_Composite/COMPOSITE/Class/COMPOSITE/Src/usbd_composite.c **** {
 393              		.loc 1 512 1 is_stmt 1 view -0
 394              		.cfi_startproc
 395              		@ args = 0, pretend = 0, frame = 0
 396              		@ frame_needed = 0, uses_anonymous_args = 0
 397              		@ link register save eliminated.
 513:Middlewares/Third_Party/AL94_USB_Composite/COMPOSITE/Class/COMPOSITE/Src/usbd_composite.c **** #if (USBD_USE_CDC_ACM == 1)
 514:Middlewares/Third_Party/AL94_USB_Composite/COMPOSITE/Class/COMPOSITE/Src/usbd_composite.c **** #endif
 515:Middlewares/Third_Party/AL94_USB_Composite/COMPOSITE/Class/COMPOSITE/Src/usbd_composite.c **** #if (USBD_USE_CDC_ECM == 1)
 516:Middlewares/Third_Party/AL94_USB_Composite/COMPOSITE/Class/COMPOSITE/Src/usbd_composite.c **** #endif
 517:Middlewares/Third_Party/AL94_USB_Composite/COMPOSITE/Class/COMPOSITE/Src/usbd_composite.c **** #if (USBD_USE_CDC_RNDIS == 1)
 518:Middlewares/Third_Party/AL94_USB_Composite/COMPOSITE/Class/COMPOSITE/Src/usbd_composite.c **** #endif
 519:Middlewares/Third_Party/AL94_USB_Composite/COMPOSITE/Class/COMPOSITE/Src/usbd_composite.c **** #if (USBD_USE_HID_MOUSE == 1)
 520:Middlewares/Third_Party/AL94_USB_Composite/COMPOSITE/Class/COMPOSITE/Src/usbd_composite.c **** #endif
 521:Middlewares/Third_Party/AL94_USB_Composite/COMPOSITE/Class/COMPOSITE/Src/usbd_composite.c **** #if (USBD_USE_HID_KEYBOARD == 1)
 522:Middlewares/Third_Party/AL94_USB_Composite/COMPOSITE/Class/COMPOSITE/Src/usbd_composite.c **** #endif
 523:Middlewares/Third_Party/AL94_USB_Composite/COMPOSITE/Class/COMPOSITE/Src/usbd_composite.c **** #if (USBD_USE_HID_CUSTOM == 1)
 524:Middlewares/Third_Party/AL94_USB_Composite/COMPOSITE/Class/COMPOSITE/Src/usbd_composite.c **** #endif
 525:Middlewares/Third_Party/AL94_USB_Composite/COMPOSITE/Class/COMPOSITE/Src/usbd_composite.c **** #if (USBD_USE_UAC_MIC == 1)
 526:Middlewares/Third_Party/AL94_USB_Composite/COMPOSITE/Class/COMPOSITE/Src/usbd_composite.c ****   USBD_AUDIO_MIC.EP0_TxSent(pdev);
 527:Middlewares/Third_Party/AL94_USB_Composite/COMPOSITE/Class/COMPOSITE/Src/usbd_composite.c **** #endif
 528:Middlewares/Third_Party/AL94_USB_Composite/COMPOSITE/Class/COMPOSITE/Src/usbd_composite.c **** #if (USBD_USE_UAC_SPKR == 1)
 529:Middlewares/Third_Party/AL94_USB_Composite/COMPOSITE/Class/COMPOSITE/Src/usbd_composite.c ****   USBD_AUDIO_SPKR.EP0_TxSent(pdev);
 530:Middlewares/Third_Party/AL94_USB_Composite/COMPOSITE/Class/COMPOSITE/Src/usbd_composite.c **** #endif
 531:Middlewares/Third_Party/AL94_USB_Composite/COMPOSITE/Class/COMPOSITE/Src/usbd_composite.c **** #if (USBD_USE_UVC == 1)
 532:Middlewares/Third_Party/AL94_USB_Composite/COMPOSITE/Class/COMPOSITE/Src/usbd_composite.c **** #endif
 533:Middlewares/Third_Party/AL94_USB_Composite/COMPOSITE/Class/COMPOSITE/Src/usbd_composite.c **** #if (USBD_USE_MSC == 1)
 534:Middlewares/Third_Party/AL94_USB_Composite/COMPOSITE/Class/COMPOSITE/Src/usbd_composite.c **** #endif
 535:Middlewares/Third_Party/AL94_USB_Composite/COMPOSITE/Class/COMPOSITE/Src/usbd_composite.c **** #if (USBD_USE_DFU == 1)
 536:Middlewares/Third_Party/AL94_USB_Composite/COMPOSITE/Class/COMPOSITE/Src/usbd_composite.c ****   USBD_DFU.EP0_TxSent(pdev);
 537:Middlewares/Third_Party/AL94_USB_Composite/COMPOSITE/Class/COMPOSITE/Src/usbd_composite.c **** #endif
 538:Middlewares/Third_Party/AL94_USB_Composite/COMPOSITE/Class/COMPOSITE/Src/usbd_composite.c **** #if (USBD_USE_PRNTR == 1)
 539:Middlewares/Third_Party/AL94_USB_Composite/COMPOSITE/Class/COMPOSITE/Src/usbd_composite.c **** #endif
 540:Middlewares/Third_Party/AL94_USB_Composite/COMPOSITE/Class/COMPOSITE/Src/usbd_composite.c **** 
 541:Middlewares/Third_Party/AL94_USB_Composite/COMPOSITE/Class/COMPOSITE/Src/usbd_composite.c ****   return (uint8_t)USBD_OK;
 398              		.loc 1 541 3 view .LVU96
 542:Middlewares/Third_Party/AL94_USB_Composite/COMPOSITE/Class/COMPOSITE/Src/usbd_composite.c **** }
 399              		.loc 1 542 1 is_stmt 0 view .LVU97
ARM GAS  /tmp/ccXMkua6.s 			page 18


 400 0000 0020     		movs	r0, #0
 401              	.LVL35:
 402              		.loc 1 542 1 view .LVU98
 403 0002 7047     		bx	lr
 404              		.cfi_endproc
 405              	.LFE150:
 407              		.section	.text.USBD_COMPOSITE_SOF,"ax",%progbits
 408              		.align	1
 409              		.syntax unified
 410              		.thumb
 411              		.thumb_func
 413              	USBD_COMPOSITE_SOF:
 414              	.LVL36:
 415              	.LFB151:
 543:Middlewares/Third_Party/AL94_USB_Composite/COMPOSITE/Class/COMPOSITE/Src/usbd_composite.c **** 
 544:Middlewares/Third_Party/AL94_USB_Composite/COMPOSITE/Class/COMPOSITE/Src/usbd_composite.c **** /**
 545:Middlewares/Third_Party/AL94_USB_Composite/COMPOSITE/Class/COMPOSITE/Src/usbd_composite.c ****   * @brief  USBD_COMPOSITE_SOF
 546:Middlewares/Third_Party/AL94_USB_Composite/COMPOSITE/Class/COMPOSITE/Src/usbd_composite.c ****   *         handle SOF event
 547:Middlewares/Third_Party/AL94_USB_Composite/COMPOSITE/Class/COMPOSITE/Src/usbd_composite.c ****   * @param  pdev: device instance
 548:Middlewares/Third_Party/AL94_USB_Composite/COMPOSITE/Class/COMPOSITE/Src/usbd_composite.c ****   * @retval status
 549:Middlewares/Third_Party/AL94_USB_Composite/COMPOSITE/Class/COMPOSITE/Src/usbd_composite.c ****   */
 550:Middlewares/Third_Party/AL94_USB_Composite/COMPOSITE/Class/COMPOSITE/Src/usbd_composite.c **** static uint8_t USBD_COMPOSITE_SOF(USBD_HandleTypeDef *pdev)
 551:Middlewares/Third_Party/AL94_USB_Composite/COMPOSITE/Class/COMPOSITE/Src/usbd_composite.c **** {
 416              		.loc 1 551 1 is_stmt 1 view -0
 417              		.cfi_startproc
 418              		@ args = 0, pretend = 0, frame = 0
 419              		@ frame_needed = 0, uses_anonymous_args = 0
 420              		@ link register save eliminated.
 552:Middlewares/Third_Party/AL94_USB_Composite/COMPOSITE/Class/COMPOSITE/Src/usbd_composite.c **** #if (USBD_USE_CDC_ACM == 1)
 553:Middlewares/Third_Party/AL94_USB_Composite/COMPOSITE/Class/COMPOSITE/Src/usbd_composite.c **** #endif
 554:Middlewares/Third_Party/AL94_USB_Composite/COMPOSITE/Class/COMPOSITE/Src/usbd_composite.c **** #if (USBD_USE_CDC_ECM == 1)
 555:Middlewares/Third_Party/AL94_USB_Composite/COMPOSITE/Class/COMPOSITE/Src/usbd_composite.c **** #endif
 556:Middlewares/Third_Party/AL94_USB_Composite/COMPOSITE/Class/COMPOSITE/Src/usbd_composite.c **** #if (USBD_USE_CDC_RNDIS == 1)
 557:Middlewares/Third_Party/AL94_USB_Composite/COMPOSITE/Class/COMPOSITE/Src/usbd_composite.c **** #endif
 558:Middlewares/Third_Party/AL94_USB_Composite/COMPOSITE/Class/COMPOSITE/Src/usbd_composite.c **** #if (USBD_USE_HID_MOUSE == 1)
 559:Middlewares/Third_Party/AL94_USB_Composite/COMPOSITE/Class/COMPOSITE/Src/usbd_composite.c **** #endif
 560:Middlewares/Third_Party/AL94_USB_Composite/COMPOSITE/Class/COMPOSITE/Src/usbd_composite.c **** #if (USBD_USE_HID_KEYBOARD == 1)
 561:Middlewares/Third_Party/AL94_USB_Composite/COMPOSITE/Class/COMPOSITE/Src/usbd_composite.c **** #endif
 562:Middlewares/Third_Party/AL94_USB_Composite/COMPOSITE/Class/COMPOSITE/Src/usbd_composite.c **** #if (USBD_USE_HID_CUSTOM == 1)
 563:Middlewares/Third_Party/AL94_USB_Composite/COMPOSITE/Class/COMPOSITE/Src/usbd_composite.c **** #endif
 564:Middlewares/Third_Party/AL94_USB_Composite/COMPOSITE/Class/COMPOSITE/Src/usbd_composite.c **** #if (USBD_USE_UAC_MIC == 1)
 565:Middlewares/Third_Party/AL94_USB_Composite/COMPOSITE/Class/COMPOSITE/Src/usbd_composite.c ****   USBD_AUDIO_MIC.SOF(pdev);
 566:Middlewares/Third_Party/AL94_USB_Composite/COMPOSITE/Class/COMPOSITE/Src/usbd_composite.c **** #endif
 567:Middlewares/Third_Party/AL94_USB_Composite/COMPOSITE/Class/COMPOSITE/Src/usbd_composite.c **** #if (USBD_USE_UAC_SPKR == 1)
 568:Middlewares/Third_Party/AL94_USB_Composite/COMPOSITE/Class/COMPOSITE/Src/usbd_composite.c ****   USBD_AUDIO_SPKR.SOF(pdev);
 569:Middlewares/Third_Party/AL94_USB_Composite/COMPOSITE/Class/COMPOSITE/Src/usbd_composite.c **** #endif
 570:Middlewares/Third_Party/AL94_USB_Composite/COMPOSITE/Class/COMPOSITE/Src/usbd_composite.c **** #if (USBD_USE_UVC == 1)
 571:Middlewares/Third_Party/AL94_USB_Composite/COMPOSITE/Class/COMPOSITE/Src/usbd_composite.c ****   USBD_VIDEO.SOF(pdev);
 572:Middlewares/Third_Party/AL94_USB_Composite/COMPOSITE/Class/COMPOSITE/Src/usbd_composite.c **** #endif
 573:Middlewares/Third_Party/AL94_USB_Composite/COMPOSITE/Class/COMPOSITE/Src/usbd_composite.c **** #if (USBD_USE_MSC == 1)
 574:Middlewares/Third_Party/AL94_USB_Composite/COMPOSITE/Class/COMPOSITE/Src/usbd_composite.c **** #endif
 575:Middlewares/Third_Party/AL94_USB_Composite/COMPOSITE/Class/COMPOSITE/Src/usbd_composite.c **** #if (USBD_USE_DFU == 1)
 576:Middlewares/Third_Party/AL94_USB_Composite/COMPOSITE/Class/COMPOSITE/Src/usbd_composite.c ****   USBD_DFU.SOF(pdev);
 577:Middlewares/Third_Party/AL94_USB_Composite/COMPOSITE/Class/COMPOSITE/Src/usbd_composite.c **** #endif
 578:Middlewares/Third_Party/AL94_USB_Composite/COMPOSITE/Class/COMPOSITE/Src/usbd_composite.c **** #if (USBD_USE_PRNTR == 1)
 579:Middlewares/Third_Party/AL94_USB_Composite/COMPOSITE/Class/COMPOSITE/Src/usbd_composite.c **** #endif
 580:Middlewares/Third_Party/AL94_USB_Composite/COMPOSITE/Class/COMPOSITE/Src/usbd_composite.c **** 
ARM GAS  /tmp/ccXMkua6.s 			page 19


 581:Middlewares/Third_Party/AL94_USB_Composite/COMPOSITE/Class/COMPOSITE/Src/usbd_composite.c ****   return (uint8_t)USBD_OK;
 421              		.loc 1 581 3 view .LVU100
 582:Middlewares/Third_Party/AL94_USB_Composite/COMPOSITE/Class/COMPOSITE/Src/usbd_composite.c **** }
 422              		.loc 1 582 1 is_stmt 0 view .LVU101
 423 0000 0020     		movs	r0, #0
 424              	.LVL37:
 425              		.loc 1 582 1 view .LVU102
 426 0002 7047     		bx	lr
 427              		.cfi_endproc
 428              	.LFE151:
 430              		.section	.text.USBD_COMPOSITE_IsoINIncomplete,"ax",%progbits
 431              		.align	1
 432              		.syntax unified
 433              		.thumb
 434              		.thumb_func
 436              	USBD_COMPOSITE_IsoINIncomplete:
 437              	.LVL38:
 438              	.LFB152:
 583:Middlewares/Third_Party/AL94_USB_Composite/COMPOSITE/Class/COMPOSITE/Src/usbd_composite.c **** 
 584:Middlewares/Third_Party/AL94_USB_Composite/COMPOSITE/Class/COMPOSITE/Src/usbd_composite.c **** /**
 585:Middlewares/Third_Party/AL94_USB_Composite/COMPOSITE/Class/COMPOSITE/Src/usbd_composite.c ****   * @brief  USBD_COMPOSITE_IsoINIncomplete
 586:Middlewares/Third_Party/AL94_USB_Composite/COMPOSITE/Class/COMPOSITE/Src/usbd_composite.c ****   *         handle data ISO IN Incomplete event
 587:Middlewares/Third_Party/AL94_USB_Composite/COMPOSITE/Class/COMPOSITE/Src/usbd_composite.c ****   * @param  pdev: device instance
 588:Middlewares/Third_Party/AL94_USB_Composite/COMPOSITE/Class/COMPOSITE/Src/usbd_composite.c ****   * @param  epnum: endpoint index
 589:Middlewares/Third_Party/AL94_USB_Composite/COMPOSITE/Class/COMPOSITE/Src/usbd_composite.c ****   * @retval status
 590:Middlewares/Third_Party/AL94_USB_Composite/COMPOSITE/Class/COMPOSITE/Src/usbd_composite.c ****   */
 591:Middlewares/Third_Party/AL94_USB_Composite/COMPOSITE/Class/COMPOSITE/Src/usbd_composite.c **** static uint8_t USBD_COMPOSITE_IsoINIncomplete(USBD_HandleTypeDef *pdev, uint8_t epnum)
 592:Middlewares/Third_Party/AL94_USB_Composite/COMPOSITE/Class/COMPOSITE/Src/usbd_composite.c **** {
 439              		.loc 1 592 1 is_stmt 1 view -0
 440              		.cfi_startproc
 441              		@ args = 0, pretend = 0, frame = 0
 442              		@ frame_needed = 0, uses_anonymous_args = 0
 443              		@ link register save eliminated.
 593:Middlewares/Third_Party/AL94_USB_Composite/COMPOSITE/Class/COMPOSITE/Src/usbd_composite.c **** #if (USBD_USE_CDC_ACM == 1)
 594:Middlewares/Third_Party/AL94_USB_Composite/COMPOSITE/Class/COMPOSITE/Src/usbd_composite.c **** #endif
 595:Middlewares/Third_Party/AL94_USB_Composite/COMPOSITE/Class/COMPOSITE/Src/usbd_composite.c **** #if (USBD_USE_CDC_ECM == 1)
 596:Middlewares/Third_Party/AL94_USB_Composite/COMPOSITE/Class/COMPOSITE/Src/usbd_composite.c **** #endif
 597:Middlewares/Third_Party/AL94_USB_Composite/COMPOSITE/Class/COMPOSITE/Src/usbd_composite.c **** #if (USBD_USE_CDC_RNDIS == 1)
 598:Middlewares/Third_Party/AL94_USB_Composite/COMPOSITE/Class/COMPOSITE/Src/usbd_composite.c **** #endif
 599:Middlewares/Third_Party/AL94_USB_Composite/COMPOSITE/Class/COMPOSITE/Src/usbd_composite.c **** #if (USBD_USE_HID_MOUSE == 1)
 600:Middlewares/Third_Party/AL94_USB_Composite/COMPOSITE/Class/COMPOSITE/Src/usbd_composite.c **** #endif
 601:Middlewares/Third_Party/AL94_USB_Composite/COMPOSITE/Class/COMPOSITE/Src/usbd_composite.c **** #if (USBD_USE_HID_KEYBOARD == 1)
 602:Middlewares/Third_Party/AL94_USB_Composite/COMPOSITE/Class/COMPOSITE/Src/usbd_composite.c **** #endif
 603:Middlewares/Third_Party/AL94_USB_Composite/COMPOSITE/Class/COMPOSITE/Src/usbd_composite.c **** #if (USBD_USE_HID_CUSTOM == 1)
 604:Middlewares/Third_Party/AL94_USB_Composite/COMPOSITE/Class/COMPOSITE/Src/usbd_composite.c **** #endif
 605:Middlewares/Third_Party/AL94_USB_Composite/COMPOSITE/Class/COMPOSITE/Src/usbd_composite.c **** #if (USBD_USE_UAC_MIC == 1)
 606:Middlewares/Third_Party/AL94_USB_Composite/COMPOSITE/Class/COMPOSITE/Src/usbd_composite.c ****   if (epnum == (AUDIO_MIC_EP & 0x7F))
 607:Middlewares/Third_Party/AL94_USB_Composite/COMPOSITE/Class/COMPOSITE/Src/usbd_composite.c ****   {
 608:Middlewares/Third_Party/AL94_USB_Composite/COMPOSITE/Class/COMPOSITE/Src/usbd_composite.c ****     USBD_AUDIO_MIC.IsoINIncomplete(pdev, epnum);
 609:Middlewares/Third_Party/AL94_USB_Composite/COMPOSITE/Class/COMPOSITE/Src/usbd_composite.c ****   }
 610:Middlewares/Third_Party/AL94_USB_Composite/COMPOSITE/Class/COMPOSITE/Src/usbd_composite.c **** #endif
 611:Middlewares/Third_Party/AL94_USB_Composite/COMPOSITE/Class/COMPOSITE/Src/usbd_composite.c **** #if (USBD_USE_UAC_SPKR == 1)
 612:Middlewares/Third_Party/AL94_USB_Composite/COMPOSITE/Class/COMPOSITE/Src/usbd_composite.c **** #endif
 613:Middlewares/Third_Party/AL94_USB_Composite/COMPOSITE/Class/COMPOSITE/Src/usbd_composite.c **** #if (USBD_USE_UVC == 1)
 614:Middlewares/Third_Party/AL94_USB_Composite/COMPOSITE/Class/COMPOSITE/Src/usbd_composite.c ****   if (epnum == (UVC_IN_EP & 0x7F))
 615:Middlewares/Third_Party/AL94_USB_Composite/COMPOSITE/Class/COMPOSITE/Src/usbd_composite.c ****   {
 616:Middlewares/Third_Party/AL94_USB_Composite/COMPOSITE/Class/COMPOSITE/Src/usbd_composite.c ****     USBD_VIDEO.IsoINIncomplete(pdev, epnum);
ARM GAS  /tmp/ccXMkua6.s 			page 20


 617:Middlewares/Third_Party/AL94_USB_Composite/COMPOSITE/Class/COMPOSITE/Src/usbd_composite.c ****   }
 618:Middlewares/Third_Party/AL94_USB_Composite/COMPOSITE/Class/COMPOSITE/Src/usbd_composite.c **** #endif
 619:Middlewares/Third_Party/AL94_USB_Composite/COMPOSITE/Class/COMPOSITE/Src/usbd_composite.c **** #if (USBD_USE_MSC == 1)
 620:Middlewares/Third_Party/AL94_USB_Composite/COMPOSITE/Class/COMPOSITE/Src/usbd_composite.c **** #endif
 621:Middlewares/Third_Party/AL94_USB_Composite/COMPOSITE/Class/COMPOSITE/Src/usbd_composite.c **** #if (USBD_USE_DFU == 1)
 622:Middlewares/Third_Party/AL94_USB_Composite/COMPOSITE/Class/COMPOSITE/Src/usbd_composite.c **** #endif
 623:Middlewares/Third_Party/AL94_USB_Composite/COMPOSITE/Class/COMPOSITE/Src/usbd_composite.c **** #if (USBD_USE_PRNTR == 1)
 624:Middlewares/Third_Party/AL94_USB_Composite/COMPOSITE/Class/COMPOSITE/Src/usbd_composite.c **** #endif
 625:Middlewares/Third_Party/AL94_USB_Composite/COMPOSITE/Class/COMPOSITE/Src/usbd_composite.c **** 
 626:Middlewares/Third_Party/AL94_USB_Composite/COMPOSITE/Class/COMPOSITE/Src/usbd_composite.c ****   return (uint8_t)USBD_OK;
 444              		.loc 1 626 3 view .LVU104
 627:Middlewares/Third_Party/AL94_USB_Composite/COMPOSITE/Class/COMPOSITE/Src/usbd_composite.c **** }
 445              		.loc 1 627 1 is_stmt 0 view .LVU105
 446 0000 0020     		movs	r0, #0
 447              	.LVL39:
 448              		.loc 1 627 1 view .LVU106
 449 0002 7047     		bx	lr
 450              		.cfi_endproc
 451              	.LFE152:
 453              		.section	.text.USBD_COMPOSITE_IsoOutIncomplete,"ax",%progbits
 454              		.align	1
 455              		.syntax unified
 456              		.thumb
 457              		.thumb_func
 459              	USBD_COMPOSITE_IsoOutIncomplete:
 460              	.LVL40:
 461              	.LFB153:
 628:Middlewares/Third_Party/AL94_USB_Composite/COMPOSITE/Class/COMPOSITE/Src/usbd_composite.c **** 
 629:Middlewares/Third_Party/AL94_USB_Composite/COMPOSITE/Class/COMPOSITE/Src/usbd_composite.c **** /**
 630:Middlewares/Third_Party/AL94_USB_Composite/COMPOSITE/Class/COMPOSITE/Src/usbd_composite.c ****   * @brief  USBD_COMPOSITE_IsoOutIncomplete
 631:Middlewares/Third_Party/AL94_USB_Composite/COMPOSITE/Class/COMPOSITE/Src/usbd_composite.c ****   *         handle data ISO OUT Incomplete event
 632:Middlewares/Third_Party/AL94_USB_Composite/COMPOSITE/Class/COMPOSITE/Src/usbd_composite.c ****   * @param  pdev: device instance
 633:Middlewares/Third_Party/AL94_USB_Composite/COMPOSITE/Class/COMPOSITE/Src/usbd_composite.c ****   * @param  epnum: endpoint index
 634:Middlewares/Third_Party/AL94_USB_Composite/COMPOSITE/Class/COMPOSITE/Src/usbd_composite.c ****   * @retval status
 635:Middlewares/Third_Party/AL94_USB_Composite/COMPOSITE/Class/COMPOSITE/Src/usbd_composite.c ****   */
 636:Middlewares/Third_Party/AL94_USB_Composite/COMPOSITE/Class/COMPOSITE/Src/usbd_composite.c **** static uint8_t USBD_COMPOSITE_IsoOutIncomplete(USBD_HandleTypeDef *pdev, uint8_t epnum)
 637:Middlewares/Third_Party/AL94_USB_Composite/COMPOSITE/Class/COMPOSITE/Src/usbd_composite.c **** {
 462              		.loc 1 637 1 is_stmt 1 view -0
 463              		.cfi_startproc
 464              		@ args = 0, pretend = 0, frame = 0
 465              		@ frame_needed = 0, uses_anonymous_args = 0
 466              		@ link register save eliminated.
 638:Middlewares/Third_Party/AL94_USB_Composite/COMPOSITE/Class/COMPOSITE/Src/usbd_composite.c **** #if (USBD_USE_CDC_ACM == 1)
 639:Middlewares/Third_Party/AL94_USB_Composite/COMPOSITE/Class/COMPOSITE/Src/usbd_composite.c **** #endif
 640:Middlewares/Third_Party/AL94_USB_Composite/COMPOSITE/Class/COMPOSITE/Src/usbd_composite.c **** #if (USBD_USE_CDC_ECM == 1)
 641:Middlewares/Third_Party/AL94_USB_Composite/COMPOSITE/Class/COMPOSITE/Src/usbd_composite.c **** #endif
 642:Middlewares/Third_Party/AL94_USB_Composite/COMPOSITE/Class/COMPOSITE/Src/usbd_composite.c **** #if (USBD_USE_CDC_RNDIS == 1)
 643:Middlewares/Third_Party/AL94_USB_Composite/COMPOSITE/Class/COMPOSITE/Src/usbd_composite.c **** #endif
 644:Middlewares/Third_Party/AL94_USB_Composite/COMPOSITE/Class/COMPOSITE/Src/usbd_composite.c **** #if (USBD_USE_HID_MOUSE == 1)
 645:Middlewares/Third_Party/AL94_USB_Composite/COMPOSITE/Class/COMPOSITE/Src/usbd_composite.c **** #endif
 646:Middlewares/Third_Party/AL94_USB_Composite/COMPOSITE/Class/COMPOSITE/Src/usbd_composite.c **** #if (USBD_USE_HID_KEYBOARD == 1)
 647:Middlewares/Third_Party/AL94_USB_Composite/COMPOSITE/Class/COMPOSITE/Src/usbd_composite.c **** #endif
 648:Middlewares/Third_Party/AL94_USB_Composite/COMPOSITE/Class/COMPOSITE/Src/usbd_composite.c **** #if (USBD_USE_HID_CUSTOM == 1)
 649:Middlewares/Third_Party/AL94_USB_Composite/COMPOSITE/Class/COMPOSITE/Src/usbd_composite.c **** #endif
 650:Middlewares/Third_Party/AL94_USB_Composite/COMPOSITE/Class/COMPOSITE/Src/usbd_composite.c **** #if (USBD_USE_UAC_MIC == 1)
 651:Middlewares/Third_Party/AL94_USB_Composite/COMPOSITE/Class/COMPOSITE/Src/usbd_composite.c **** #endif
 652:Middlewares/Third_Party/AL94_USB_Composite/COMPOSITE/Class/COMPOSITE/Src/usbd_composite.c **** #if (USBD_USE_UAC_SPKR == 1)
ARM GAS  /tmp/ccXMkua6.s 			page 21


 653:Middlewares/Third_Party/AL94_USB_Composite/COMPOSITE/Class/COMPOSITE/Src/usbd_composite.c ****   if (epnum == AUDIO_SPKR_EP)
 654:Middlewares/Third_Party/AL94_USB_Composite/COMPOSITE/Class/COMPOSITE/Src/usbd_composite.c ****   {
 655:Middlewares/Third_Party/AL94_USB_Composite/COMPOSITE/Class/COMPOSITE/Src/usbd_composite.c ****     USBD_AUDIO_SPKR.IsoOUTIncomplete(pdev, epnum);
 656:Middlewares/Third_Party/AL94_USB_Composite/COMPOSITE/Class/COMPOSITE/Src/usbd_composite.c ****   }
 657:Middlewares/Third_Party/AL94_USB_Composite/COMPOSITE/Class/COMPOSITE/Src/usbd_composite.c **** #endif
 658:Middlewares/Third_Party/AL94_USB_Composite/COMPOSITE/Class/COMPOSITE/Src/usbd_composite.c **** #if (USBD_USE_UVC == 1)
 659:Middlewares/Third_Party/AL94_USB_Composite/COMPOSITE/Class/COMPOSITE/Src/usbd_composite.c **** #endif
 660:Middlewares/Third_Party/AL94_USB_Composite/COMPOSITE/Class/COMPOSITE/Src/usbd_composite.c **** #if (USBD_USE_MSC == 1)
 661:Middlewares/Third_Party/AL94_USB_Composite/COMPOSITE/Class/COMPOSITE/Src/usbd_composite.c **** #endif
 662:Middlewares/Third_Party/AL94_USB_Composite/COMPOSITE/Class/COMPOSITE/Src/usbd_composite.c **** #if (USBD_USE_DFU == 1)
 663:Middlewares/Third_Party/AL94_USB_Composite/COMPOSITE/Class/COMPOSITE/Src/usbd_composite.c **** #endif
 664:Middlewares/Third_Party/AL94_USB_Composite/COMPOSITE/Class/COMPOSITE/Src/usbd_composite.c **** #if (USBD_USE_PRNTR == 1)
 665:Middlewares/Third_Party/AL94_USB_Composite/COMPOSITE/Class/COMPOSITE/Src/usbd_composite.c **** #endif
 666:Middlewares/Third_Party/AL94_USB_Composite/COMPOSITE/Class/COMPOSITE/Src/usbd_composite.c **** 
 667:Middlewares/Third_Party/AL94_USB_Composite/COMPOSITE/Class/COMPOSITE/Src/usbd_composite.c ****   return (uint8_t)USBD_OK;
 467              		.loc 1 667 3 view .LVU108
 668:Middlewares/Third_Party/AL94_USB_Composite/COMPOSITE/Class/COMPOSITE/Src/usbd_composite.c **** }
 468              		.loc 1 668 1 is_stmt 0 view .LVU109
 469 0000 0020     		movs	r0, #0
 470              	.LVL41:
 471              		.loc 1 668 1 view .LVU110
 472 0002 7047     		bx	lr
 473              		.cfi_endproc
 474              	.LFE153:
 476              		.section	.text.USBD_COMPOSITE_DataOut,"ax",%progbits
 477              		.align	1
 478              		.syntax unified
 479              		.thumb
 480              		.thumb_func
 482              	USBD_COMPOSITE_DataOut:
 483              	.LVL42:
 484              	.LFB154:
 669:Middlewares/Third_Party/AL94_USB_Composite/COMPOSITE/Class/COMPOSITE/Src/usbd_composite.c **** /**
 670:Middlewares/Third_Party/AL94_USB_Composite/COMPOSITE/Class/COMPOSITE/Src/usbd_composite.c ****   * @brief  USBD_COMPOSITE_DataOut
 671:Middlewares/Third_Party/AL94_USB_Composite/COMPOSITE/Class/COMPOSITE/Src/usbd_composite.c ****   *         handle data OUT Stage
 672:Middlewares/Third_Party/AL94_USB_Composite/COMPOSITE/Class/COMPOSITE/Src/usbd_composite.c ****   * @param  pdev: device instance
 673:Middlewares/Third_Party/AL94_USB_Composite/COMPOSITE/Class/COMPOSITE/Src/usbd_composite.c ****   * @param  epnum: endpoint index
 674:Middlewares/Third_Party/AL94_USB_Composite/COMPOSITE/Class/COMPOSITE/Src/usbd_composite.c ****   * @retval status
 675:Middlewares/Third_Party/AL94_USB_Composite/COMPOSITE/Class/COMPOSITE/Src/usbd_composite.c ****   */
 676:Middlewares/Third_Party/AL94_USB_Composite/COMPOSITE/Class/COMPOSITE/Src/usbd_composite.c **** static uint8_t USBD_COMPOSITE_DataOut(USBD_HandleTypeDef *pdev, uint8_t epnum)
 677:Middlewares/Third_Party/AL94_USB_Composite/COMPOSITE/Class/COMPOSITE/Src/usbd_composite.c **** {
 485              		.loc 1 677 1 is_stmt 1 view -0
 486              		.cfi_startproc
 487              		@ args = 0, pretend = 0, frame = 0
 488              		@ frame_needed = 0, uses_anonymous_args = 0
 489              		.loc 1 677 1 is_stmt 0 view .LVU112
 490 0000 08B5     		push	{r3, lr}
 491              	.LCFI5:
 492              		.cfi_def_cfa_offset 8
 493              		.cfi_offset 3, -8
 494              		.cfi_offset 14, -4
 678:Middlewares/Third_Party/AL94_USB_Composite/COMPOSITE/Class/COMPOSITE/Src/usbd_composite.c **** #if (USBD_USE_CDC_ACM == 1)
 679:Middlewares/Third_Party/AL94_USB_Composite/COMPOSITE/Class/COMPOSITE/Src/usbd_composite.c ****   for (uint8_t i = 0; i < USBD_CDC_ACM_COUNT; i++)
 495              		.loc 1 679 3 is_stmt 1 view .LVU113
 496              	.LBB6:
 497              		.loc 1 679 8 view .LVU114
 498              	.LVL43:
ARM GAS  /tmp/ccXMkua6.s 			page 22


 499              		.loc 1 679 16 is_stmt 0 view .LVU115
 500 0002 0023     		movs	r3, #0
 501              	.LVL44:
 502              	.L40:
 503              		.loc 1 679 23 is_stmt 1 discriminator 1 view .LVU116
 504              		.loc 1 679 3 is_stmt 0 discriminator 1 view .LVU117
 505 0004 0BB1     		cbz	r3, .L43
 506              	.LBE6:
 680:Middlewares/Third_Party/AL94_USB_Composite/COMPOSITE/Class/COMPOSITE/Src/usbd_composite.c ****   {
 681:Middlewares/Third_Party/AL94_USB_Composite/COMPOSITE/Class/COMPOSITE/Src/usbd_composite.c ****     if (epnum == CDC_OUT_EP[i])
 682:Middlewares/Third_Party/AL94_USB_Composite/COMPOSITE/Class/COMPOSITE/Src/usbd_composite.c ****     {
 683:Middlewares/Third_Party/AL94_USB_Composite/COMPOSITE/Class/COMPOSITE/Src/usbd_composite.c ****       return USBD_CDC_ACM.DataOut(pdev, epnum);
 684:Middlewares/Third_Party/AL94_USB_Composite/COMPOSITE/Class/COMPOSITE/Src/usbd_composite.c ****     }
 685:Middlewares/Third_Party/AL94_USB_Composite/COMPOSITE/Class/COMPOSITE/Src/usbd_composite.c ****   }
 686:Middlewares/Third_Party/AL94_USB_Composite/COMPOSITE/Class/COMPOSITE/Src/usbd_composite.c **** #endif
 687:Middlewares/Third_Party/AL94_USB_Composite/COMPOSITE/Class/COMPOSITE/Src/usbd_composite.c **** #if (USBD_USE_CDC_ECM == 1)
 688:Middlewares/Third_Party/AL94_USB_Composite/COMPOSITE/Class/COMPOSITE/Src/usbd_composite.c ****   if (epnum == CDC_ECM_OUT_EP)
 689:Middlewares/Third_Party/AL94_USB_Composite/COMPOSITE/Class/COMPOSITE/Src/usbd_composite.c ****   {
 690:Middlewares/Third_Party/AL94_USB_Composite/COMPOSITE/Class/COMPOSITE/Src/usbd_composite.c ****     return USBD_CDC_ECM.DataOut(pdev, epnum);
 691:Middlewares/Third_Party/AL94_USB_Composite/COMPOSITE/Class/COMPOSITE/Src/usbd_composite.c ****   }
 692:Middlewares/Third_Party/AL94_USB_Composite/COMPOSITE/Class/COMPOSITE/Src/usbd_composite.c **** #endif
 693:Middlewares/Third_Party/AL94_USB_Composite/COMPOSITE/Class/COMPOSITE/Src/usbd_composite.c **** #if (USBD_USE_CDC_RNDIS == 1)
 694:Middlewares/Third_Party/AL94_USB_Composite/COMPOSITE/Class/COMPOSITE/Src/usbd_composite.c ****   if (epnum == CDC_RNDIS_OUT_EP)
 695:Middlewares/Third_Party/AL94_USB_Composite/COMPOSITE/Class/COMPOSITE/Src/usbd_composite.c ****   {
 696:Middlewares/Third_Party/AL94_USB_Composite/COMPOSITE/Class/COMPOSITE/Src/usbd_composite.c ****     return USBD_CDC_RNDIS.DataOut(pdev, epnum);
 697:Middlewares/Third_Party/AL94_USB_Composite/COMPOSITE/Class/COMPOSITE/Src/usbd_composite.c ****   }
 698:Middlewares/Third_Party/AL94_USB_Composite/COMPOSITE/Class/COMPOSITE/Src/usbd_composite.c **** #endif
 699:Middlewares/Third_Party/AL94_USB_Composite/COMPOSITE/Class/COMPOSITE/Src/usbd_composite.c **** #if (USBD_USE_HID_MOUSE == 1)
 700:Middlewares/Third_Party/AL94_USB_Composite/COMPOSITE/Class/COMPOSITE/Src/usbd_composite.c **** #endif
 701:Middlewares/Third_Party/AL94_USB_Composite/COMPOSITE/Class/COMPOSITE/Src/usbd_composite.c **** #if (USBD_USE_HID_KEYBOARD == 1)
 702:Middlewares/Third_Party/AL94_USB_Composite/COMPOSITE/Class/COMPOSITE/Src/usbd_composite.c **** #endif
 703:Middlewares/Third_Party/AL94_USB_Composite/COMPOSITE/Class/COMPOSITE/Src/usbd_composite.c **** #if (USBD_USE_HID_CUSTOM == 1)
 704:Middlewares/Third_Party/AL94_USB_Composite/COMPOSITE/Class/COMPOSITE/Src/usbd_composite.c ****   if (epnum == CUSTOM_HID_OUT_EP)
 705:Middlewares/Third_Party/AL94_USB_Composite/COMPOSITE/Class/COMPOSITE/Src/usbd_composite.c ****   {
 706:Middlewares/Third_Party/AL94_USB_Composite/COMPOSITE/Class/COMPOSITE/Src/usbd_composite.c ****     return USBD_HID_CUSTOM.DataOut(pdev, epnum);
 707:Middlewares/Third_Party/AL94_USB_Composite/COMPOSITE/Class/COMPOSITE/Src/usbd_composite.c ****   }
 708:Middlewares/Third_Party/AL94_USB_Composite/COMPOSITE/Class/COMPOSITE/Src/usbd_composite.c **** #endif
 709:Middlewares/Third_Party/AL94_USB_Composite/COMPOSITE/Class/COMPOSITE/Src/usbd_composite.c **** #if (USBD_USE_UAC_MIC == 1)
 710:Middlewares/Third_Party/AL94_USB_Composite/COMPOSITE/Class/COMPOSITE/Src/usbd_composite.c **** #endif
 711:Middlewares/Third_Party/AL94_USB_Composite/COMPOSITE/Class/COMPOSITE/Src/usbd_composite.c **** #if (USBD_USE_UAC_SPKR == 1)
 712:Middlewares/Third_Party/AL94_USB_Composite/COMPOSITE/Class/COMPOSITE/Src/usbd_composite.c ****   if (epnum == AUDIO_SPKR_EP)
 713:Middlewares/Third_Party/AL94_USB_Composite/COMPOSITE/Class/COMPOSITE/Src/usbd_composite.c ****   {
 714:Middlewares/Third_Party/AL94_USB_Composite/COMPOSITE/Class/COMPOSITE/Src/usbd_composite.c ****     return USBD_AUDIO_SPKR.DataOut(pdev, epnum);
 715:Middlewares/Third_Party/AL94_USB_Composite/COMPOSITE/Class/COMPOSITE/Src/usbd_composite.c ****   }
 716:Middlewares/Third_Party/AL94_USB_Composite/COMPOSITE/Class/COMPOSITE/Src/usbd_composite.c **** #endif
 717:Middlewares/Third_Party/AL94_USB_Composite/COMPOSITE/Class/COMPOSITE/Src/usbd_composite.c **** #if (USBD_USE_UVC == 1)
 718:Middlewares/Third_Party/AL94_USB_Composite/COMPOSITE/Class/COMPOSITE/Src/usbd_composite.c **** #endif
 719:Middlewares/Third_Party/AL94_USB_Composite/COMPOSITE/Class/COMPOSITE/Src/usbd_composite.c **** #if (USBD_USE_MSC == 1)
 720:Middlewares/Third_Party/AL94_USB_Composite/COMPOSITE/Class/COMPOSITE/Src/usbd_composite.c ****   if (epnum == MSC_OUT_EP)
 721:Middlewares/Third_Party/AL94_USB_Composite/COMPOSITE/Class/COMPOSITE/Src/usbd_composite.c ****   {
 722:Middlewares/Third_Party/AL94_USB_Composite/COMPOSITE/Class/COMPOSITE/Src/usbd_composite.c ****     return USBD_MSC.DataOut(pdev, epnum);
 723:Middlewares/Third_Party/AL94_USB_Composite/COMPOSITE/Class/COMPOSITE/Src/usbd_composite.c ****   }
 724:Middlewares/Third_Party/AL94_USB_Composite/COMPOSITE/Class/COMPOSITE/Src/usbd_composite.c **** #endif
 725:Middlewares/Third_Party/AL94_USB_Composite/COMPOSITE/Class/COMPOSITE/Src/usbd_composite.c **** #if (USBD_USE_DFU == 1)
 726:Middlewares/Third_Party/AL94_USB_Composite/COMPOSITE/Class/COMPOSITE/Src/usbd_composite.c **** #endif
 727:Middlewares/Third_Party/AL94_USB_Composite/COMPOSITE/Class/COMPOSITE/Src/usbd_composite.c **** #if (USBD_USE_PRNTR == 1)
 728:Middlewares/Third_Party/AL94_USB_Composite/COMPOSITE/Class/COMPOSITE/Src/usbd_composite.c ****   if (epnum == PRNT_OUT_EP)
ARM GAS  /tmp/ccXMkua6.s 			page 23


 729:Middlewares/Third_Party/AL94_USB_Composite/COMPOSITE/Class/COMPOSITE/Src/usbd_composite.c ****   {
 730:Middlewares/Third_Party/AL94_USB_Composite/COMPOSITE/Class/COMPOSITE/Src/usbd_composite.c ****     USBD_PRNT.DataOut(pdev, epnum);
 731:Middlewares/Third_Party/AL94_USB_Composite/COMPOSITE/Class/COMPOSITE/Src/usbd_composite.c ****   }
 732:Middlewares/Third_Party/AL94_USB_Composite/COMPOSITE/Class/COMPOSITE/Src/usbd_composite.c **** #endif
 733:Middlewares/Third_Party/AL94_USB_Composite/COMPOSITE/Class/COMPOSITE/Src/usbd_composite.c **** 
 734:Middlewares/Third_Party/AL94_USB_Composite/COMPOSITE/Class/COMPOSITE/Src/usbd_composite.c ****   return USBD_FAIL;
 507              		.loc 1 734 10 view .LVU118
 508 0006 0320     		movs	r0, #3
 509              	.LVL45:
 510              	.L42:
 735:Middlewares/Third_Party/AL94_USB_Composite/COMPOSITE/Class/COMPOSITE/Src/usbd_composite.c **** }
 511              		.loc 1 735 1 view .LVU119
 512 0008 08BD     		pop	{r3, pc}
 513              	.LVL46:
 514              	.L43:
 515              	.LBB7:
 681:Middlewares/Third_Party/AL94_USB_Composite/COMPOSITE/Class/COMPOSITE/Src/usbd_composite.c ****     {
 516              		.loc 1 681 5 is_stmt 1 view .LVU120
 681:Middlewares/Third_Party/AL94_USB_Composite/COMPOSITE/Class/COMPOSITE/Src/usbd_composite.c ****     {
 517              		.loc 1 681 28 is_stmt 0 view .LVU121
 518 000a 054A     		ldr	r2, .L46
 519 000c D25C     		ldrb	r2, [r2, r3]	@ zero_extendqisi2
 681:Middlewares/Third_Party/AL94_USB_Composite/COMPOSITE/Class/COMPOSITE/Src/usbd_composite.c ****     {
 520              		.loc 1 681 8 view .LVU122
 521 000e 8A42     		cmp	r2, r1
 522 0010 02D0     		beq	.L45
 679:Middlewares/Third_Party/AL94_USB_Composite/COMPOSITE/Class/COMPOSITE/Src/usbd_composite.c ****   {
 523              		.loc 1 679 47 is_stmt 1 discriminator 2 view .LVU123
 679:Middlewares/Third_Party/AL94_USB_Composite/COMPOSITE/Class/COMPOSITE/Src/usbd_composite.c ****   {
 524              		.loc 1 679 48 is_stmt 0 discriminator 2 view .LVU124
 525 0012 0133     		adds	r3, r3, #1
 526              	.LVL47:
 679:Middlewares/Third_Party/AL94_USB_Composite/COMPOSITE/Class/COMPOSITE/Src/usbd_composite.c ****   {
 527              		.loc 1 679 48 discriminator 2 view .LVU125
 528 0014 DBB2     		uxtb	r3, r3
 529              	.LVL48:
 679:Middlewares/Third_Party/AL94_USB_Composite/COMPOSITE/Class/COMPOSITE/Src/usbd_composite.c ****   {
 530              		.loc 1 679 48 discriminator 2 view .LVU126
 531 0016 F5E7     		b	.L40
 532              	.L45:
 683:Middlewares/Third_Party/AL94_USB_Composite/COMPOSITE/Class/COMPOSITE/Src/usbd_composite.c ****     }
 533              		.loc 1 683 7 is_stmt 1 view .LVU127
 683:Middlewares/Third_Party/AL94_USB_Composite/COMPOSITE/Class/COMPOSITE/Src/usbd_composite.c ****     }
 534              		.loc 1 683 26 is_stmt 0 view .LVU128
 535 0018 024B     		ldr	r3, .L46+4
 536              	.LVL49:
 683:Middlewares/Third_Party/AL94_USB_Composite/COMPOSITE/Class/COMPOSITE/Src/usbd_composite.c ****     }
 537              		.loc 1 683 26 view .LVU129
 538 001a 9B69     		ldr	r3, [r3, #24]
 683:Middlewares/Third_Party/AL94_USB_Composite/COMPOSITE/Class/COMPOSITE/Src/usbd_composite.c ****     }
 539              		.loc 1 683 14 view .LVU130
 540 001c 9847     		blx	r3
 541              	.LVL50:
 683:Middlewares/Third_Party/AL94_USB_Composite/COMPOSITE/Class/COMPOSITE/Src/usbd_composite.c ****     }
 542              		.loc 1 683 14 view .LVU131
 543 001e F3E7     		b	.L42
 544              	.L47:
ARM GAS  /tmp/ccXMkua6.s 			page 24


 545              		.align	2
 546              	.L46:
 547 0020 00000000 		.word	CDC_OUT_EP
 548 0024 00000000 		.word	USBD_CDC_ACM
 549              	.LBE7:
 550              		.cfi_endproc
 551              	.LFE154:
 553              		.section	.text.USBD_COMPOSITE_GetHSCfgDesc,"ax",%progbits
 554              		.align	1
 555              		.syntax unified
 556              		.thumb
 557              		.thumb_func
 559              	USBD_COMPOSITE_GetHSCfgDesc:
 560              	.LVL51:
 561              	.LFB155:
 736:Middlewares/Third_Party/AL94_USB_Composite/COMPOSITE/Class/COMPOSITE/Src/usbd_composite.c **** 
 737:Middlewares/Third_Party/AL94_USB_Composite/COMPOSITE/Class/COMPOSITE/Src/usbd_composite.c **** /**
 738:Middlewares/Third_Party/AL94_USB_Composite/COMPOSITE/Class/COMPOSITE/Src/usbd_composite.c ****   * @brief  USBD_COMPOSITE_GetHSCfgDesc
 739:Middlewares/Third_Party/AL94_USB_Composite/COMPOSITE/Class/COMPOSITE/Src/usbd_composite.c ****   *         return configuration descriptor
 740:Middlewares/Third_Party/AL94_USB_Composite/COMPOSITE/Class/COMPOSITE/Src/usbd_composite.c ****   * @param  length : pointer data length
 741:Middlewares/Third_Party/AL94_USB_Composite/COMPOSITE/Class/COMPOSITE/Src/usbd_composite.c ****   * @retval pointer to descriptor buffer
 742:Middlewares/Third_Party/AL94_USB_Composite/COMPOSITE/Class/COMPOSITE/Src/usbd_composite.c ****   */
 743:Middlewares/Third_Party/AL94_USB_Composite/COMPOSITE/Class/COMPOSITE/Src/usbd_composite.c **** static uint8_t *USBD_COMPOSITE_GetHSCfgDesc(uint16_t *length)
 744:Middlewares/Third_Party/AL94_USB_Composite/COMPOSITE/Class/COMPOSITE/Src/usbd_composite.c **** {
 562              		.loc 1 744 1 is_stmt 1 view -0
 563              		.cfi_startproc
 564              		@ args = 0, pretend = 0, frame = 0
 565              		@ frame_needed = 0, uses_anonymous_args = 0
 566              		@ link register save eliminated.
 745:Middlewares/Third_Party/AL94_USB_Composite/COMPOSITE/Class/COMPOSITE/Src/usbd_composite.c ****   *length = (uint16_t)sizeof(USBD_COMPOSITE_HSCfgDesc);
 567              		.loc 1 745 3 view .LVU133
 568              		.loc 1 745 11 is_stmt 0 view .LVU134
 569 0000 6423     		movs	r3, #100
 570 0002 0380     		strh	r3, [r0]	@ movhi
 746:Middlewares/Third_Party/AL94_USB_Composite/COMPOSITE/Class/COMPOSITE/Src/usbd_composite.c ****   return (uint8_t *)&USBD_COMPOSITE_HSCfgDesc;
 571              		.loc 1 746 3 is_stmt 1 view .LVU135
 747:Middlewares/Third_Party/AL94_USB_Composite/COMPOSITE/Class/COMPOSITE/Src/usbd_composite.c **** }
 572              		.loc 1 747 1 is_stmt 0 view .LVU136
 573 0004 0048     		ldr	r0, .L49
 574              	.LVL52:
 575              		.loc 1 747 1 view .LVU137
 576 0006 7047     		bx	lr
 577              	.L50:
 578              		.align	2
 579              	.L49:
 580 0008 00000000 		.word	.LANCHOR0
 581              		.cfi_endproc
 582              	.LFE155:
 584              		.section	.text.USBD_COMPOSITE_GetFSCfgDesc,"ax",%progbits
 585              		.align	1
 586              		.syntax unified
 587              		.thumb
 588              		.thumb_func
 590              	USBD_COMPOSITE_GetFSCfgDesc:
 591              	.LVL53:
 592              	.LFB156:
 748:Middlewares/Third_Party/AL94_USB_Composite/COMPOSITE/Class/COMPOSITE/Src/usbd_composite.c **** 
ARM GAS  /tmp/ccXMkua6.s 			page 25


 749:Middlewares/Third_Party/AL94_USB_Composite/COMPOSITE/Class/COMPOSITE/Src/usbd_composite.c **** /**
 750:Middlewares/Third_Party/AL94_USB_Composite/COMPOSITE/Class/COMPOSITE/Src/usbd_composite.c ****   * @brief  USBD_COMPOSITE_GetFSCfgDesc
 751:Middlewares/Third_Party/AL94_USB_Composite/COMPOSITE/Class/COMPOSITE/Src/usbd_composite.c ****   *         return configuration descriptor
 752:Middlewares/Third_Party/AL94_USB_Composite/COMPOSITE/Class/COMPOSITE/Src/usbd_composite.c ****   * @param  length : pointer data length
 753:Middlewares/Third_Party/AL94_USB_Composite/COMPOSITE/Class/COMPOSITE/Src/usbd_composite.c ****   * @retval pointer to descriptor buffer
 754:Middlewares/Third_Party/AL94_USB_Composite/COMPOSITE/Class/COMPOSITE/Src/usbd_composite.c ****   */
 755:Middlewares/Third_Party/AL94_USB_Composite/COMPOSITE/Class/COMPOSITE/Src/usbd_composite.c **** static uint8_t *USBD_COMPOSITE_GetFSCfgDesc(uint16_t *length)
 756:Middlewares/Third_Party/AL94_USB_Composite/COMPOSITE/Class/COMPOSITE/Src/usbd_composite.c **** {
 593              		.loc 1 756 1 is_stmt 1 view -0
 594              		.cfi_startproc
 595              		@ args = 0, pretend = 0, frame = 0
 596              		@ frame_needed = 0, uses_anonymous_args = 0
 597              		@ link register save eliminated.
 757:Middlewares/Third_Party/AL94_USB_Composite/COMPOSITE/Class/COMPOSITE/Src/usbd_composite.c ****   *length = (uint16_t)sizeof(USBD_COMPOSITE_FSCfgDesc);
 598              		.loc 1 757 3 view .LVU139
 599              		.loc 1 757 11 is_stmt 0 view .LVU140
 600 0000 6423     		movs	r3, #100
 601 0002 0380     		strh	r3, [r0]	@ movhi
 758:Middlewares/Third_Party/AL94_USB_Composite/COMPOSITE/Class/COMPOSITE/Src/usbd_composite.c ****   return (uint8_t *)&USBD_COMPOSITE_FSCfgDesc;
 602              		.loc 1 758 3 is_stmt 1 view .LVU141
 759:Middlewares/Third_Party/AL94_USB_Composite/COMPOSITE/Class/COMPOSITE/Src/usbd_composite.c **** }
 603              		.loc 1 759 1 is_stmt 0 view .LVU142
 604 0004 0048     		ldr	r0, .L52
 605              	.LVL54:
 606              		.loc 1 759 1 view .LVU143
 607 0006 7047     		bx	lr
 608              	.L53:
 609              		.align	2
 610              	.L52:
 611 0008 00000000 		.word	.LANCHOR1
 612              		.cfi_endproc
 613              	.LFE156:
 615              		.section	.text.USBD_COMPOSITE_GetOtherSpeedCfgDesc,"ax",%progbits
 616              		.align	1
 617              		.syntax unified
 618              		.thumb
 619              		.thumb_func
 621              	USBD_COMPOSITE_GetOtherSpeedCfgDesc:
 622              	.LVL55:
 623              	.LFB157:
 760:Middlewares/Third_Party/AL94_USB_Composite/COMPOSITE/Class/COMPOSITE/Src/usbd_composite.c **** 
 761:Middlewares/Third_Party/AL94_USB_Composite/COMPOSITE/Class/COMPOSITE/Src/usbd_composite.c **** /**
 762:Middlewares/Third_Party/AL94_USB_Composite/COMPOSITE/Class/COMPOSITE/Src/usbd_composite.c ****   * @brief  USBD_COMPOSITE_GetOtherSpeedCfgDesc
 763:Middlewares/Third_Party/AL94_USB_Composite/COMPOSITE/Class/COMPOSITE/Src/usbd_composite.c ****   *         return configuration descriptor
 764:Middlewares/Third_Party/AL94_USB_Composite/COMPOSITE/Class/COMPOSITE/Src/usbd_composite.c ****   * @param  length : pointer data length
 765:Middlewares/Third_Party/AL94_USB_Composite/COMPOSITE/Class/COMPOSITE/Src/usbd_composite.c ****   * @retval pointer to descriptor buffer
 766:Middlewares/Third_Party/AL94_USB_Composite/COMPOSITE/Class/COMPOSITE/Src/usbd_composite.c ****   */
 767:Middlewares/Third_Party/AL94_USB_Composite/COMPOSITE/Class/COMPOSITE/Src/usbd_composite.c **** static uint8_t *USBD_COMPOSITE_GetOtherSpeedCfgDesc(uint16_t *length)
 768:Middlewares/Third_Party/AL94_USB_Composite/COMPOSITE/Class/COMPOSITE/Src/usbd_composite.c **** {
 624              		.loc 1 768 1 is_stmt 1 view -0
 625              		.cfi_startproc
 626              		@ args = 0, pretend = 0, frame = 0
 627              		@ frame_needed = 0, uses_anonymous_args = 0
 628              		@ link register save eliminated.
 769:Middlewares/Third_Party/AL94_USB_Composite/COMPOSITE/Class/COMPOSITE/Src/usbd_composite.c **** #if (USBD_USE_HS == 1)
 770:Middlewares/Third_Party/AL94_USB_Composite/COMPOSITE/Class/COMPOSITE/Src/usbd_composite.c ****   *length = (uint16_t)sizeof(USBD_COMPOSITE_FSCfgDesc);
 629              		.loc 1 770 3 view .LVU145
ARM GAS  /tmp/ccXMkua6.s 			page 26


 630              		.loc 1 770 11 is_stmt 0 view .LVU146
 631 0000 6423     		movs	r3, #100
 632 0002 0380     		strh	r3, [r0]	@ movhi
 771:Middlewares/Third_Party/AL94_USB_Composite/COMPOSITE/Class/COMPOSITE/Src/usbd_composite.c ****   return (uint8_t *)&USBD_COMPOSITE_FSCfgDesc;
 633              		.loc 1 771 3 is_stmt 1 view .LVU147
 772:Middlewares/Third_Party/AL94_USB_Composite/COMPOSITE/Class/COMPOSITE/Src/usbd_composite.c **** #else
 773:Middlewares/Third_Party/AL94_USB_Composite/COMPOSITE/Class/COMPOSITE/Src/usbd_composite.c ****   *length = (uint16_t)sizeof(USBD_COMPOSITE_HSCfgDesc);
 774:Middlewares/Third_Party/AL94_USB_Composite/COMPOSITE/Class/COMPOSITE/Src/usbd_composite.c ****   return (uint8_t *)&USBD_COMPOSITE_HSCfgDesc;
 775:Middlewares/Third_Party/AL94_USB_Composite/COMPOSITE/Class/COMPOSITE/Src/usbd_composite.c **** #endif
 776:Middlewares/Third_Party/AL94_USB_Composite/COMPOSITE/Class/COMPOSITE/Src/usbd_composite.c **** }
 634              		.loc 1 776 1 is_stmt 0 view .LVU148
 635 0004 0048     		ldr	r0, .L55
 636              	.LVL56:
 637              		.loc 1 776 1 view .LVU149
 638 0006 7047     		bx	lr
 639              	.L56:
 640              		.align	2
 641              	.L55:
 642 0008 00000000 		.word	.LANCHOR1
 643              		.cfi_endproc
 644              	.LFE157:
 646              		.section	.text.USBD_COMPOSITE_GetDeviceQualifierDesc,"ax",%progbits
 647              		.align	1
 648              		.syntax unified
 649              		.thumb
 650              		.thumb_func
 652              	USBD_COMPOSITE_GetDeviceQualifierDesc:
 653              	.LVL57:
 654              	.LFB158:
 777:Middlewares/Third_Party/AL94_USB_Composite/COMPOSITE/Class/COMPOSITE/Src/usbd_composite.c **** 
 778:Middlewares/Third_Party/AL94_USB_Composite/COMPOSITE/Class/COMPOSITE/Src/usbd_composite.c **** /**
 779:Middlewares/Third_Party/AL94_USB_Composite/COMPOSITE/Class/COMPOSITE/Src/usbd_composite.c ****   * @brief  DeviceQualifierDescriptor
 780:Middlewares/Third_Party/AL94_USB_Composite/COMPOSITE/Class/COMPOSITE/Src/usbd_composite.c ****   *         return Device Qualifier descriptor
 781:Middlewares/Third_Party/AL94_USB_Composite/COMPOSITE/Class/COMPOSITE/Src/usbd_composite.c ****   * @param  length : pointer data length
 782:Middlewares/Third_Party/AL94_USB_Composite/COMPOSITE/Class/COMPOSITE/Src/usbd_composite.c ****   * @retval pointer to descriptor buffer
 783:Middlewares/Third_Party/AL94_USB_Composite/COMPOSITE/Class/COMPOSITE/Src/usbd_composite.c ****   */
 784:Middlewares/Third_Party/AL94_USB_Composite/COMPOSITE/Class/COMPOSITE/Src/usbd_composite.c **** uint8_t *USBD_COMPOSITE_GetDeviceQualifierDesc(uint16_t *length)
 785:Middlewares/Third_Party/AL94_USB_Composite/COMPOSITE/Class/COMPOSITE/Src/usbd_composite.c **** {
 655              		.loc 1 785 1 is_stmt 1 view -0
 656              		.cfi_startproc
 657              		@ args = 0, pretend = 0, frame = 0
 658              		@ frame_needed = 0, uses_anonymous_args = 0
 659              		@ link register save eliminated.
 786:Middlewares/Third_Party/AL94_USB_Composite/COMPOSITE/Class/COMPOSITE/Src/usbd_composite.c ****   *length = (uint16_t)sizeof(USBD_COMPOSITE_DeviceQualifierDesc);
 660              		.loc 1 786 3 view .LVU151
 661              		.loc 1 786 11 is_stmt 0 view .LVU152
 662 0000 0A23     		movs	r3, #10
 663 0002 0380     		strh	r3, [r0]	@ movhi
 787:Middlewares/Third_Party/AL94_USB_Composite/COMPOSITE/Class/COMPOSITE/Src/usbd_composite.c ****   return USBD_COMPOSITE_DeviceQualifierDesc;
 664              		.loc 1 787 3 is_stmt 1 view .LVU153
 788:Middlewares/Third_Party/AL94_USB_Composite/COMPOSITE/Class/COMPOSITE/Src/usbd_composite.c **** }
 665              		.loc 1 788 1 is_stmt 0 view .LVU154
 666 0004 0048     		ldr	r0, .L58
 667              	.LVL58:
 668              		.loc 1 788 1 view .LVU155
 669 0006 7047     		bx	lr
 670              	.L59:
ARM GAS  /tmp/ccXMkua6.s 			page 27


 671              		.align	2
 672              	.L58:
 673 0008 00000000 		.word	.LANCHOR2
 674              		.cfi_endproc
 675              	.LFE158:
 677              		.section	.rodata.USBD_COMPOSITE_GetUsrStringDesc.str1.4,"aMS",%progbits,1
 678              		.align	2
 679              	.LC0:
 680 0000 53544D33 		.ascii	"STM32 CDC ACM%d\000"
 680      32204344 
 680      43204143 
 680      4D256400 
 681              		.align	2
 682              	.LC1:
 683 0010 53544D33 		.ascii	"STM32 USB KEYBOARD\000"
 683      32205553 
 683      42204B45 
 683      59424F41 
 683      524400
 684              		.section	.text.USBD_COMPOSITE_GetUsrStringDesc,"ax",%progbits
 685              		.align	1
 686              		.syntax unified
 687              		.thumb
 688              		.thumb_func
 690              	USBD_COMPOSITE_GetUsrStringDesc:
 691              	.LVL59:
 692              	.LFB159:
 789:Middlewares/Third_Party/AL94_USB_Composite/COMPOSITE/Class/COMPOSITE/Src/usbd_composite.c **** 
 790:Middlewares/Third_Party/AL94_USB_Composite/COMPOSITE/Class/COMPOSITE/Src/usbd_composite.c **** /**
 791:Middlewares/Third_Party/AL94_USB_Composite/COMPOSITE/Class/COMPOSITE/Src/usbd_composite.c ****   * @brief  USBD_COMPOSITE_GetUsrStringDesc
 792:Middlewares/Third_Party/AL94_USB_Composite/COMPOSITE/Class/COMPOSITE/Src/usbd_composite.c ****   *         Manages the transfer of memory interfaces string descriptors.
 793:Middlewares/Third_Party/AL94_USB_Composite/COMPOSITE/Class/COMPOSITE/Src/usbd_composite.c ****   * @param  speed : current device speed
 794:Middlewares/Third_Party/AL94_USB_Composite/COMPOSITE/Class/COMPOSITE/Src/usbd_composite.c ****   * @param  index: descriptor index
 795:Middlewares/Third_Party/AL94_USB_Composite/COMPOSITE/Class/COMPOSITE/Src/usbd_composite.c ****   * @param  length : pointer data length
 796:Middlewares/Third_Party/AL94_USB_Composite/COMPOSITE/Class/COMPOSITE/Src/usbd_composite.c ****   * @retval pointer to the descriptor table or NULL if the descriptor is not supported.
 797:Middlewares/Third_Party/AL94_USB_Composite/COMPOSITE/Class/COMPOSITE/Src/usbd_composite.c ****   */
 798:Middlewares/Third_Party/AL94_USB_Composite/COMPOSITE/Class/COMPOSITE/Src/usbd_composite.c **** #if (USBD_SUPPORT_USER_STRING_DESC == 1U)
 799:Middlewares/Third_Party/AL94_USB_Composite/COMPOSITE/Class/COMPOSITE/Src/usbd_composite.c **** static uint8_t *USBD_COMPOSITE_GetUsrStringDesc(USBD_HandleTypeDef *pdev, uint8_t index, uint16_t *
 800:Middlewares/Third_Party/AL94_USB_Composite/COMPOSITE/Class/COMPOSITE/Src/usbd_composite.c **** {
 693              		.loc 1 800 1 is_stmt 1 view -0
 694              		.cfi_startproc
 695              		@ args = 0, pretend = 0, frame = 16
 696              		@ frame_needed = 0, uses_anonymous_args = 0
 801:Middlewares/Third_Party/AL94_USB_Composite/COMPOSITE/Class/COMPOSITE/Src/usbd_composite.c ****   static uint8_t USBD_StrDesc[64];
 697              		.loc 1 801 3 view .LVU157
 802:Middlewares/Third_Party/AL94_USB_Composite/COMPOSITE/Class/COMPOSITE/Src/usbd_composite.c **** 
 803:Middlewares/Third_Party/AL94_USB_Composite/COMPOSITE/Class/COMPOSITE/Src/usbd_composite.c ****   /* Check if the requested string interface is supported */
 804:Middlewares/Third_Party/AL94_USB_Composite/COMPOSITE/Class/COMPOSITE/Src/usbd_composite.c ****   if (index <= USBD_Track_String_Index)
 698              		.loc 1 804 3 view .LVU158
 699              		.loc 1 804 13 is_stmt 0 view .LVU159
 700 0000 184B     		ldr	r3, .L73
 701 0002 1B78     		ldrb	r3, [r3]	@ zero_extendqisi2
 702              		.loc 1 804 6 view .LVU160
 703 0004 8B42     		cmp	r3, r1
 704 0006 2AD3     		bcc	.L66
 800:Middlewares/Third_Party/AL94_USB_Composite/COMPOSITE/Class/COMPOSITE/Src/usbd_composite.c ****   static uint8_t USBD_StrDesc[64];
 705              		.loc 1 800 1 view .LVU161
ARM GAS  /tmp/ccXMkua6.s 			page 28


 706 0008 70B5     		push	{r4, r5, r6, lr}
 707              	.LCFI6:
 708              		.cfi_def_cfa_offset 16
 709              		.cfi_offset 4, -16
 710              		.cfi_offset 5, -12
 711              		.cfi_offset 6, -8
 712              		.cfi_offset 14, -4
 713 000a 84B0     		sub	sp, sp, #16
 714              	.LCFI7:
 715              		.cfi_def_cfa_offset 32
 716 000c 0D46     		mov	r5, r1
 717 000e 1646     		mov	r6, r2
 718              	.LBB8:
 805:Middlewares/Third_Party/AL94_USB_Composite/COMPOSITE/Class/COMPOSITE/Src/usbd_composite.c ****   {
 806:Middlewares/Third_Party/AL94_USB_Composite/COMPOSITE/Class/COMPOSITE/Src/usbd_composite.c **** #if (USBD_USE_CDC_ACM == 1)
 807:Middlewares/Third_Party/AL94_USB_Composite/COMPOSITE/Class/COMPOSITE/Src/usbd_composite.c ****     char str_buffer[16] = "";
 719              		.loc 1 807 5 is_stmt 1 view .LVU162
 720              		.loc 1 807 10 is_stmt 0 view .LVU163
 721 0010 0024     		movs	r4, #0
 722 0012 0094     		str	r4, [sp]
 723 0014 0194     		str	r4, [sp, #4]
 724 0016 0294     		str	r4, [sp, #8]
 725 0018 0394     		str	r4, [sp, #12]
 808:Middlewares/Third_Party/AL94_USB_Composite/COMPOSITE/Class/COMPOSITE/Src/usbd_composite.c ****     for (uint8_t i = 0; i < USBD_CDC_ACM_COUNT; i++)
 726              		.loc 1 808 5 is_stmt 1 view .LVU164
 727              	.LBB9:
 728              		.loc 1 808 10 view .LVU165
 729              	.LVL60:
 730              		.loc 1 808 5 is_stmt 0 view .LVU166
 731 001a 05E0     		b	.L62
 732              	.LVL61:
 733              	.L64:
 809:Middlewares/Third_Party/AL94_USB_Composite/COMPOSITE/Class/COMPOSITE/Src/usbd_composite.c ****     {
 810:Middlewares/Third_Party/AL94_USB_Composite/COMPOSITE/Class/COMPOSITE/Src/usbd_composite.c ****       if (index == CDC_STR_DESC_IDX[i])
 734              		.loc 1 810 7 is_stmt 1 view .LVU167
 735              		.loc 1 810 36 is_stmt 0 view .LVU168
 736 001c 124B     		ldr	r3, .L73+4
 737 001e 1B5D     		ldrb	r3, [r3, r4]	@ zero_extendqisi2
 738              		.loc 1 810 10 view .LVU169
 739 0020 AB42     		cmp	r3, r5
 740 0022 0AD0     		beq	.L71
 741              	.L63:
 808:Middlewares/Third_Party/AL94_USB_Composite/COMPOSITE/Class/COMPOSITE/Src/usbd_composite.c ****     for (uint8_t i = 0; i < USBD_CDC_ACM_COUNT; i++)
 742              		.loc 1 808 49 is_stmt 1 discriminator 2 view .LVU170
 808:Middlewares/Third_Party/AL94_USB_Composite/COMPOSITE/Class/COMPOSITE/Src/usbd_composite.c ****     for (uint8_t i = 0; i < USBD_CDC_ACM_COUNT; i++)
 743              		.loc 1 808 50 is_stmt 0 discriminator 2 view .LVU171
 744 0024 0134     		adds	r4, r4, #1
 745              	.LVL62:
 808:Middlewares/Third_Party/AL94_USB_Composite/COMPOSITE/Class/COMPOSITE/Src/usbd_composite.c ****     for (uint8_t i = 0; i < USBD_CDC_ACM_COUNT; i++)
 746              		.loc 1 808 50 discriminator 2 view .LVU172
 747 0026 E4B2     		uxtb	r4, r4
 748              	.LVL63:
 749              	.L62:
 808:Middlewares/Third_Party/AL94_USB_Composite/COMPOSITE/Class/COMPOSITE/Src/usbd_composite.c ****     for (uint8_t i = 0; i < USBD_CDC_ACM_COUNT; i++)
 750              		.loc 1 808 25 is_stmt 1 discriminator 1 view .LVU173
 808:Middlewares/Third_Party/AL94_USB_Composite/COMPOSITE/Class/COMPOSITE/Src/usbd_composite.c ****     for (uint8_t i = 0; i < USBD_CDC_ACM_COUNT; i++)
 751              		.loc 1 808 5 is_stmt 0 discriminator 1 view .LVU174
ARM GAS  /tmp/ccXMkua6.s 			page 29


 752 0028 002C     		cmp	r4, #0
 753 002a F7D0     		beq	.L64
 754              	.LBE9:
 811:Middlewares/Third_Party/AL94_USB_Composite/COMPOSITE/Class/COMPOSITE/Src/usbd_composite.c ****       {
 812:Middlewares/Third_Party/AL94_USB_Composite/COMPOSITE/Class/COMPOSITE/Src/usbd_composite.c ****         snprintf(str_buffer, sizeof(str_buffer), CDC_ACM_STR_DESC, i);
 813:Middlewares/Third_Party/AL94_USB_Composite/COMPOSITE/Class/COMPOSITE/Src/usbd_composite.c ****         USBD_GetString((uint8_t *)str_buffer, USBD_StrDesc, length);
 814:Middlewares/Third_Party/AL94_USB_Composite/COMPOSITE/Class/COMPOSITE/Src/usbd_composite.c ****       }
 815:Middlewares/Third_Party/AL94_USB_Composite/COMPOSITE/Class/COMPOSITE/Src/usbd_composite.c ****     }
 816:Middlewares/Third_Party/AL94_USB_Composite/COMPOSITE/Class/COMPOSITE/Src/usbd_composite.c **** #endif
 817:Middlewares/Third_Party/AL94_USB_Composite/COMPOSITE/Class/COMPOSITE/Src/usbd_composite.c **** #if (USBD_USE_CDC_ECM == 1)
 818:Middlewares/Third_Party/AL94_USB_Composite/COMPOSITE/Class/COMPOSITE/Src/usbd_composite.c ****     if (index == CDC_ECM_STR_DESC_IDX)
 819:Middlewares/Third_Party/AL94_USB_Composite/COMPOSITE/Class/COMPOSITE/Src/usbd_composite.c ****     {
 820:Middlewares/Third_Party/AL94_USB_Composite/COMPOSITE/Class/COMPOSITE/Src/usbd_composite.c ****       USBD_GetString((uint8_t *)CDC_ECM_STR_DESC, USBD_StrDesc, length);
 821:Middlewares/Third_Party/AL94_USB_Composite/COMPOSITE/Class/COMPOSITE/Src/usbd_composite.c ****     }
 822:Middlewares/Third_Party/AL94_USB_Composite/COMPOSITE/Class/COMPOSITE/Src/usbd_composite.c **** #endif
 823:Middlewares/Third_Party/AL94_USB_Composite/COMPOSITE/Class/COMPOSITE/Src/usbd_composite.c **** #if (USBD_USE_CDC_RNDIS == 1)
 824:Middlewares/Third_Party/AL94_USB_Composite/COMPOSITE/Class/COMPOSITE/Src/usbd_composite.c ****     if (index == CDC_RNDIS_STR_DESC_IDX)
 825:Middlewares/Third_Party/AL94_USB_Composite/COMPOSITE/Class/COMPOSITE/Src/usbd_composite.c ****     {
 826:Middlewares/Third_Party/AL94_USB_Composite/COMPOSITE/Class/COMPOSITE/Src/usbd_composite.c ****       USBD_GetString((uint8_t *)CDC_RNDIS_STR_DESC, USBD_StrDesc, length);
 827:Middlewares/Third_Party/AL94_USB_Composite/COMPOSITE/Class/COMPOSITE/Src/usbd_composite.c ****     }
 828:Middlewares/Third_Party/AL94_USB_Composite/COMPOSITE/Class/COMPOSITE/Src/usbd_composite.c **** #endif
 829:Middlewares/Third_Party/AL94_USB_Composite/COMPOSITE/Class/COMPOSITE/Src/usbd_composite.c **** #if (USBD_USE_HID_MOUSE == 1)
 830:Middlewares/Third_Party/AL94_USB_Composite/COMPOSITE/Class/COMPOSITE/Src/usbd_composite.c ****     if (index == HID_MOUSE_STR_DESC_IDX)
 831:Middlewares/Third_Party/AL94_USB_Composite/COMPOSITE/Class/COMPOSITE/Src/usbd_composite.c ****     {
 832:Middlewares/Third_Party/AL94_USB_Composite/COMPOSITE/Class/COMPOSITE/Src/usbd_composite.c ****       USBD_GetString((uint8_t *)HID_MOUSE_STR_DESC, USBD_StrDesc, length);
 833:Middlewares/Third_Party/AL94_USB_Composite/COMPOSITE/Class/COMPOSITE/Src/usbd_composite.c ****     }
 834:Middlewares/Third_Party/AL94_USB_Composite/COMPOSITE/Class/COMPOSITE/Src/usbd_composite.c **** #endif
 835:Middlewares/Third_Party/AL94_USB_Composite/COMPOSITE/Class/COMPOSITE/Src/usbd_composite.c **** #if (USBD_USE_HID_KEYBOARD == 1)
 836:Middlewares/Third_Party/AL94_USB_Composite/COMPOSITE/Class/COMPOSITE/Src/usbd_composite.c ****     if (index == HID_KEYBOARD_STR_DESC_IDX)
 755              		.loc 1 836 5 is_stmt 1 view .LVU175
 756              		.loc 1 836 15 is_stmt 0 view .LVU176
 757 002c 0F4B     		ldr	r3, .L73+8
 758 002e 1B78     		ldrb	r3, [r3]	@ zero_extendqisi2
 759              		.loc 1 836 8 view .LVU177
 760 0030 AB42     		cmp	r3, r5
 761 0032 0ED0     		beq	.L72
 762              	.L65:
 837:Middlewares/Third_Party/AL94_USB_Composite/COMPOSITE/Class/COMPOSITE/Src/usbd_composite.c ****     {
 838:Middlewares/Third_Party/AL94_USB_Composite/COMPOSITE/Class/COMPOSITE/Src/usbd_composite.c ****       USBD_GetString((uint8_t *)HID_KEYBOARD_STR_DESC, USBD_StrDesc, length);
 839:Middlewares/Third_Party/AL94_USB_Composite/COMPOSITE/Class/COMPOSITE/Src/usbd_composite.c ****     }
 840:Middlewares/Third_Party/AL94_USB_Composite/COMPOSITE/Class/COMPOSITE/Src/usbd_composite.c **** #endif
 841:Middlewares/Third_Party/AL94_USB_Composite/COMPOSITE/Class/COMPOSITE/Src/usbd_composite.c **** #if (USBD_USE_HID_CUSTOM == 1)
 842:Middlewares/Third_Party/AL94_USB_Composite/COMPOSITE/Class/COMPOSITE/Src/usbd_composite.c ****     if (index == CUSTOM_HID_STR_DESC_IDX)
 843:Middlewares/Third_Party/AL94_USB_Composite/COMPOSITE/Class/COMPOSITE/Src/usbd_composite.c ****     {
 844:Middlewares/Third_Party/AL94_USB_Composite/COMPOSITE/Class/COMPOSITE/Src/usbd_composite.c ****       USBD_GetString((uint8_t *)CUSTOM_HID_STR_DESC, USBD_StrDesc, length);
 845:Middlewares/Third_Party/AL94_USB_Composite/COMPOSITE/Class/COMPOSITE/Src/usbd_composite.c ****     }
 846:Middlewares/Third_Party/AL94_USB_Composite/COMPOSITE/Class/COMPOSITE/Src/usbd_composite.c **** #endif
 847:Middlewares/Third_Party/AL94_USB_Composite/COMPOSITE/Class/COMPOSITE/Src/usbd_composite.c **** #if (USBD_USE_UAC_MIC == 1)
 848:Middlewares/Third_Party/AL94_USB_Composite/COMPOSITE/Class/COMPOSITE/Src/usbd_composite.c ****     if (index == AUDIO_MIC_STR_DESC_IDX)
 849:Middlewares/Third_Party/AL94_USB_Composite/COMPOSITE/Class/COMPOSITE/Src/usbd_composite.c ****     {
 850:Middlewares/Third_Party/AL94_USB_Composite/COMPOSITE/Class/COMPOSITE/Src/usbd_composite.c ****       USBD_GetString((uint8_t *)AUDIO_MIC_STR_DESC, USBD_StrDesc, length);
 851:Middlewares/Third_Party/AL94_USB_Composite/COMPOSITE/Class/COMPOSITE/Src/usbd_composite.c ****     }
 852:Middlewares/Third_Party/AL94_USB_Composite/COMPOSITE/Class/COMPOSITE/Src/usbd_composite.c **** #endif
 853:Middlewares/Third_Party/AL94_USB_Composite/COMPOSITE/Class/COMPOSITE/Src/usbd_composite.c **** #if (USBD_USE_UAC_SPKR == 1)
 854:Middlewares/Third_Party/AL94_USB_Composite/COMPOSITE/Class/COMPOSITE/Src/usbd_composite.c ****     if (index == AUDIO_SPKR_STR_DESC_IDX)
 855:Middlewares/Third_Party/AL94_USB_Composite/COMPOSITE/Class/COMPOSITE/Src/usbd_composite.c ****     {
 856:Middlewares/Third_Party/AL94_USB_Composite/COMPOSITE/Class/COMPOSITE/Src/usbd_composite.c ****       USBD_GetString((uint8_t *)AUDIO_SPKR_STR_DESC, USBD_StrDesc, length);
ARM GAS  /tmp/ccXMkua6.s 			page 30


 857:Middlewares/Third_Party/AL94_USB_Composite/COMPOSITE/Class/COMPOSITE/Src/usbd_composite.c ****     }
 858:Middlewares/Third_Party/AL94_USB_Composite/COMPOSITE/Class/COMPOSITE/Src/usbd_composite.c **** #endif
 859:Middlewares/Third_Party/AL94_USB_Composite/COMPOSITE/Class/COMPOSITE/Src/usbd_composite.c **** #if (USBD_USE_UVC == 1)
 860:Middlewares/Third_Party/AL94_USB_Composite/COMPOSITE/Class/COMPOSITE/Src/usbd_composite.c ****     if (index == UVC_STR_DESC_IDX)
 861:Middlewares/Third_Party/AL94_USB_Composite/COMPOSITE/Class/COMPOSITE/Src/usbd_composite.c ****     {
 862:Middlewares/Third_Party/AL94_USB_Composite/COMPOSITE/Class/COMPOSITE/Src/usbd_composite.c ****       USBD_GetString((uint8_t *)UVC_STR_DESC, USBD_StrDesc, length);
 863:Middlewares/Third_Party/AL94_USB_Composite/COMPOSITE/Class/COMPOSITE/Src/usbd_composite.c ****     }
 864:Middlewares/Third_Party/AL94_USB_Composite/COMPOSITE/Class/COMPOSITE/Src/usbd_composite.c **** #endif
 865:Middlewares/Third_Party/AL94_USB_Composite/COMPOSITE/Class/COMPOSITE/Src/usbd_composite.c **** #if (USBD_USE_MSC == 1)
 866:Middlewares/Third_Party/AL94_USB_Composite/COMPOSITE/Class/COMPOSITE/Src/usbd_composite.c ****     if (index == MSC_BOT_STR_DESC_IDX)
 867:Middlewares/Third_Party/AL94_USB_Composite/COMPOSITE/Class/COMPOSITE/Src/usbd_composite.c ****     {
 868:Middlewares/Third_Party/AL94_USB_Composite/COMPOSITE/Class/COMPOSITE/Src/usbd_composite.c ****       USBD_GetString((uint8_t *)MSC_BOT_STR_DESC, USBD_StrDesc, length);
 869:Middlewares/Third_Party/AL94_USB_Composite/COMPOSITE/Class/COMPOSITE/Src/usbd_composite.c ****     }
 870:Middlewares/Third_Party/AL94_USB_Composite/COMPOSITE/Class/COMPOSITE/Src/usbd_composite.c **** #endif
 871:Middlewares/Third_Party/AL94_USB_Composite/COMPOSITE/Class/COMPOSITE/Src/usbd_composite.c **** #if (USBD_USE_DFU == 1)
 872:Middlewares/Third_Party/AL94_USB_Composite/COMPOSITE/Class/COMPOSITE/Src/usbd_composite.c ****     if (index == DFU_STR_DESC_IDX)
 873:Middlewares/Third_Party/AL94_USB_Composite/COMPOSITE/Class/COMPOSITE/Src/usbd_composite.c ****     {
 874:Middlewares/Third_Party/AL94_USB_Composite/COMPOSITE/Class/COMPOSITE/Src/usbd_composite.c ****       USBD_GetString((uint8_t *)DFU_STR_DESC, USBD_StrDesc, length);
 875:Middlewares/Third_Party/AL94_USB_Composite/COMPOSITE/Class/COMPOSITE/Src/usbd_composite.c ****     }
 876:Middlewares/Third_Party/AL94_USB_Composite/COMPOSITE/Class/COMPOSITE/Src/usbd_composite.c **** #endif
 877:Middlewares/Third_Party/AL94_USB_Composite/COMPOSITE/Class/COMPOSITE/Src/usbd_composite.c **** #if (USBD_USE_PRNTR == 1)
 878:Middlewares/Third_Party/AL94_USB_Composite/COMPOSITE/Class/COMPOSITE/Src/usbd_composite.c ****     if (index == PRINTER_STR_DESC_IDX)
 879:Middlewares/Third_Party/AL94_USB_Composite/COMPOSITE/Class/COMPOSITE/Src/usbd_composite.c ****     {
 880:Middlewares/Third_Party/AL94_USB_Composite/COMPOSITE/Class/COMPOSITE/Src/usbd_composite.c ****       USBD_GetString((uint8_t *)PRNT_STR_DESC, USBD_StrDesc, length);
 881:Middlewares/Third_Party/AL94_USB_Composite/COMPOSITE/Class/COMPOSITE/Src/usbd_composite.c ****     }
 882:Middlewares/Third_Party/AL94_USB_Composite/COMPOSITE/Class/COMPOSITE/Src/usbd_composite.c **** #endif
 883:Middlewares/Third_Party/AL94_USB_Composite/COMPOSITE/Class/COMPOSITE/Src/usbd_composite.c ****     return USBD_StrDesc;
 763              		.loc 1 883 5 is_stmt 1 view .LVU178
 764              		.loc 1 883 12 is_stmt 0 view .LVU179
 765 0034 0E48     		ldr	r0, .L73+12
 766              	.LBE8:
 884:Middlewares/Third_Party/AL94_USB_Composite/COMPOSITE/Class/COMPOSITE/Src/usbd_composite.c ****   }
 885:Middlewares/Third_Party/AL94_USB_Composite/COMPOSITE/Class/COMPOSITE/Src/usbd_composite.c ****   else
 886:Middlewares/Third_Party/AL94_USB_Composite/COMPOSITE/Class/COMPOSITE/Src/usbd_composite.c ****   {
 887:Middlewares/Third_Party/AL94_USB_Composite/COMPOSITE/Class/COMPOSITE/Src/usbd_composite.c ****     /* Not supported Interface Descriptor index */
 888:Middlewares/Third_Party/AL94_USB_Composite/COMPOSITE/Class/COMPOSITE/Src/usbd_composite.c ****     return NULL;
 889:Middlewares/Third_Party/AL94_USB_Composite/COMPOSITE/Class/COMPOSITE/Src/usbd_composite.c ****   }
 890:Middlewares/Third_Party/AL94_USB_Composite/COMPOSITE/Class/COMPOSITE/Src/usbd_composite.c **** }
 767              		.loc 1 890 1 view .LVU180
 768 0036 04B0     		add	sp, sp, #16
 769              	.LCFI8:
 770              		.cfi_remember_state
 771              		.cfi_def_cfa_offset 16
 772              		@ sp needed
 773 0038 70BD     		pop	{r4, r5, r6, pc}
 774              	.LVL64:
 775              	.L71:
 776              	.LCFI9:
 777              		.cfi_restore_state
 778              	.LBB11:
 779              	.LBB10:
 812:Middlewares/Third_Party/AL94_USB_Composite/COMPOSITE/Class/COMPOSITE/Src/usbd_composite.c ****         USBD_GetString((uint8_t *)str_buffer, USBD_StrDesc, length);
 780              		.loc 1 812 9 is_stmt 1 view .LVU181
 781 003a 2346     		mov	r3, r4
 782 003c 0D4A     		ldr	r2, .L73+16
 783 003e 1021     		movs	r1, #16
 784 0040 6846     		mov	r0, sp
ARM GAS  /tmp/ccXMkua6.s 			page 31


 785 0042 FFF7FEFF 		bl	snprintf
 786              	.LVL65:
 813:Middlewares/Third_Party/AL94_USB_Composite/COMPOSITE/Class/COMPOSITE/Src/usbd_composite.c ****       }
 787              		.loc 1 813 9 view .LVU182
 788 0046 3246     		mov	r2, r6
 789 0048 0949     		ldr	r1, .L73+12
 790 004a 6846     		mov	r0, sp
 791 004c FFF7FEFF 		bl	USBD_GetString
 792              	.LVL66:
 793 0050 E8E7     		b	.L63
 794              	.L72:
 813:Middlewares/Third_Party/AL94_USB_Composite/COMPOSITE/Class/COMPOSITE/Src/usbd_composite.c ****       }
 795              		.loc 1 813 9 is_stmt 0 view .LVU183
 796              	.LBE10:
 838:Middlewares/Third_Party/AL94_USB_Composite/COMPOSITE/Class/COMPOSITE/Src/usbd_composite.c ****     }
 797              		.loc 1 838 7 is_stmt 1 view .LVU184
 798 0052 3246     		mov	r2, r6
 799 0054 0649     		ldr	r1, .L73+12
 800 0056 0848     		ldr	r0, .L73+20
 801 0058 FFF7FEFF 		bl	USBD_GetString
 802              	.LVL67:
 803 005c EAE7     		b	.L65
 804              	.LVL68:
 805              	.L66:
 806              	.LCFI10:
 807              		.cfi_def_cfa_offset 0
 808              		.cfi_restore 4
 809              		.cfi_restore 5
 810              		.cfi_restore 6
 811              		.cfi_restore 14
 838:Middlewares/Third_Party/AL94_USB_Composite/COMPOSITE/Class/COMPOSITE/Src/usbd_composite.c ****     }
 812              		.loc 1 838 7 is_stmt 0 view .LVU185
 813              	.LBE11:
 888:Middlewares/Third_Party/AL94_USB_Composite/COMPOSITE/Class/COMPOSITE/Src/usbd_composite.c ****   }
 814              		.loc 1 888 12 view .LVU186
 815 005e 0020     		movs	r0, #0
 816              	.LVL69:
 817              		.loc 1 890 1 view .LVU187
 818 0060 7047     		bx	lr
 819              	.L74:
 820 0062 00BF     		.align	2
 821              	.L73:
 822 0064 00000000 		.word	.LANCHOR4
 823 0068 00000000 		.word	CDC_STR_DESC_IDX
 824 006c 00000000 		.word	HID_KEYBOARD_STR_DESC_IDX
 825 0070 00000000 		.word	.LANCHOR3
 826 0074 00000000 		.word	.LC0
 827 0078 10000000 		.word	.LC1
 828              		.cfi_endproc
 829              	.LFE159:
 831              		.section	.text.USBD_COMPOSITE_Mount_Class,"ax",%progbits
 832              		.align	1
 833              		.global	USBD_COMPOSITE_Mount_Class
 834              		.syntax unified
 835              		.thumb
 836              		.thumb_func
 838              	USBD_COMPOSITE_Mount_Class:
ARM GAS  /tmp/ccXMkua6.s 			page 32


 839              	.LFB160:
 891:Middlewares/Third_Party/AL94_USB_Composite/COMPOSITE/Class/COMPOSITE/Src/usbd_composite.c **** #endif
 892:Middlewares/Third_Party/AL94_USB_Composite/COMPOSITE/Class/COMPOSITE/Src/usbd_composite.c **** 
 893:Middlewares/Third_Party/AL94_USB_Composite/COMPOSITE/Class/COMPOSITE/Src/usbd_composite.c **** void USBD_COMPOSITE_Mount_Class(void)
 894:Middlewares/Third_Party/AL94_USB_Composite/COMPOSITE/Class/COMPOSITE/Src/usbd_composite.c **** {
 840              		.loc 1 894 1 is_stmt 1 view -0
 841              		.cfi_startproc
 842              		@ args = 0, pretend = 0, frame = 8
 843              		@ frame_needed = 0, uses_anonymous_args = 0
 844 0000 2DE9F04F 		push	{r4, r5, r6, r7, r8, r9, r10, fp, lr}
 845              	.LCFI11:
 846              		.cfi_def_cfa_offset 36
 847              		.cfi_offset 4, -36
 848              		.cfi_offset 5, -32
 849              		.cfi_offset 6, -28
 850              		.cfi_offset 7, -24
 851              		.cfi_offset 8, -20
 852              		.cfi_offset 9, -16
 853              		.cfi_offset 10, -12
 854              		.cfi_offset 11, -8
 855              		.cfi_offset 14, -4
 856 0004 87B0     		sub	sp, sp, #28
 857              	.LCFI12:
 858              		.cfi_def_cfa_offset 64
 895:Middlewares/Third_Party/AL94_USB_Composite/COMPOSITE/Class/COMPOSITE/Src/usbd_composite.c ****   uint16_t len = 0;
 859              		.loc 1 895 3 view .LVU189
 860              		.loc 1 895 12 is_stmt 0 view .LVU190
 861 0006 0027     		movs	r7, #0
 862 0008 ADF81670 		strh	r7, [sp, #22]	@ movhi
 896:Middlewares/Third_Party/AL94_USB_Composite/COMPOSITE/Class/COMPOSITE/Src/usbd_composite.c ****   uint8_t *ptr = NULL;
 863              		.loc 1 896 3 is_stmt 1 view .LVU191
 864              	.LVL70:
 897:Middlewares/Third_Party/AL94_USB_Composite/COMPOSITE/Class/COMPOSITE/Src/usbd_composite.c **** 
 898:Middlewares/Third_Party/AL94_USB_Composite/COMPOSITE/Class/COMPOSITE/Src/usbd_composite.c ****   uint8_t in_ep_track = 0x81;
 865              		.loc 1 898 3 view .LVU192
 899:Middlewares/Third_Party/AL94_USB_Composite/COMPOSITE/Class/COMPOSITE/Src/usbd_composite.c ****   uint8_t out_ep_track = 0x01;
 866              		.loc 1 899 3 view .LVU193
 900:Middlewares/Third_Party/AL94_USB_Composite/COMPOSITE/Class/COMPOSITE/Src/usbd_composite.c ****   uint8_t interface_no_track = 0x00;
 867              		.loc 1 900 3 view .LVU194
 901:Middlewares/Third_Party/AL94_USB_Composite/COMPOSITE/Class/COMPOSITE/Src/usbd_composite.c **** 
 902:Middlewares/Third_Party/AL94_USB_Composite/COMPOSITE/Class/COMPOSITE/Src/usbd_composite.c **** #if (USBD_USE_CDC_RNDIS == 1)
 903:Middlewares/Third_Party/AL94_USB_Composite/COMPOSITE/Class/COMPOSITE/Src/usbd_composite.c ****   ptr = USBD_CDC_RNDIS.GetFSConfigDescriptor(&len);
 904:Middlewares/Third_Party/AL94_USB_Composite/COMPOSITE/Class/COMPOSITE/Src/usbd_composite.c ****   USBD_Update_CDC_RNDIS_DESC(ptr,
 905:Middlewares/Third_Party/AL94_USB_Composite/COMPOSITE/Class/COMPOSITE/Src/usbd_composite.c ****                              interface_no_track,
 906:Middlewares/Third_Party/AL94_USB_Composite/COMPOSITE/Class/COMPOSITE/Src/usbd_composite.c ****                              interface_no_track + 1,
 907:Middlewares/Third_Party/AL94_USB_Composite/COMPOSITE/Class/COMPOSITE/Src/usbd_composite.c ****                              in_ep_track,
 908:Middlewares/Third_Party/AL94_USB_Composite/COMPOSITE/Class/COMPOSITE/Src/usbd_composite.c ****                              in_ep_track + 1,
 909:Middlewares/Third_Party/AL94_USB_Composite/COMPOSITE/Class/COMPOSITE/Src/usbd_composite.c ****                              out_ep_track,
 910:Middlewares/Third_Party/AL94_USB_Composite/COMPOSITE/Class/COMPOSITE/Src/usbd_composite.c ****                              USBD_Track_String_Index);
 911:Middlewares/Third_Party/AL94_USB_Composite/COMPOSITE/Class/COMPOSITE/Src/usbd_composite.c ****   memcpy(USBD_COMPOSITE_FSCfgDesc.USBD_CDC_RNDIS_DESC, ptr + 0x09, len - 0x09);
 912:Middlewares/Third_Party/AL94_USB_Composite/COMPOSITE/Class/COMPOSITE/Src/usbd_composite.c **** 
 913:Middlewares/Third_Party/AL94_USB_Composite/COMPOSITE/Class/COMPOSITE/Src/usbd_composite.c ****   ptr = USBD_CDC_RNDIS.GetHSConfigDescriptor(&len);
 914:Middlewares/Third_Party/AL94_USB_Composite/COMPOSITE/Class/COMPOSITE/Src/usbd_composite.c ****   USBD_Update_CDC_RNDIS_DESC(ptr,
 915:Middlewares/Third_Party/AL94_USB_Composite/COMPOSITE/Class/COMPOSITE/Src/usbd_composite.c ****                              interface_no_track,
 916:Middlewares/Third_Party/AL94_USB_Composite/COMPOSITE/Class/COMPOSITE/Src/usbd_composite.c ****                              interface_no_track + 1,
 917:Middlewares/Third_Party/AL94_USB_Composite/COMPOSITE/Class/COMPOSITE/Src/usbd_composite.c ****                              in_ep_track,
 918:Middlewares/Third_Party/AL94_USB_Composite/COMPOSITE/Class/COMPOSITE/Src/usbd_composite.c ****                              in_ep_track + 1,
ARM GAS  /tmp/ccXMkua6.s 			page 33


 919:Middlewares/Third_Party/AL94_USB_Composite/COMPOSITE/Class/COMPOSITE/Src/usbd_composite.c ****                              out_ep_track,
 920:Middlewares/Third_Party/AL94_USB_Composite/COMPOSITE/Class/COMPOSITE/Src/usbd_composite.c ****                              USBD_Track_String_Index);
 921:Middlewares/Third_Party/AL94_USB_Composite/COMPOSITE/Class/COMPOSITE/Src/usbd_composite.c ****   memcpy(USBD_COMPOSITE_HSCfgDesc.USBD_CDC_RNDIS_DESC, ptr + 0x09, len - 0x09);
 922:Middlewares/Third_Party/AL94_USB_Composite/COMPOSITE/Class/COMPOSITE/Src/usbd_composite.c **** 
 923:Middlewares/Third_Party/AL94_USB_Composite/COMPOSITE/Class/COMPOSITE/Src/usbd_composite.c ****   in_ep_track += 2;
 924:Middlewares/Third_Party/AL94_USB_Composite/COMPOSITE/Class/COMPOSITE/Src/usbd_composite.c ****   out_ep_track += 1;
 925:Middlewares/Third_Party/AL94_USB_Composite/COMPOSITE/Class/COMPOSITE/Src/usbd_composite.c ****   interface_no_track += 2;
 926:Middlewares/Third_Party/AL94_USB_Composite/COMPOSITE/Class/COMPOSITE/Src/usbd_composite.c ****   USBD_Track_String_Index += 1;
 927:Middlewares/Third_Party/AL94_USB_Composite/COMPOSITE/Class/COMPOSITE/Src/usbd_composite.c **** #endif
 928:Middlewares/Third_Party/AL94_USB_Composite/COMPOSITE/Class/COMPOSITE/Src/usbd_composite.c **** 
 929:Middlewares/Third_Party/AL94_USB_Composite/COMPOSITE/Class/COMPOSITE/Src/usbd_composite.c **** #if (USBD_USE_CDC_ECM == 1)
 930:Middlewares/Third_Party/AL94_USB_Composite/COMPOSITE/Class/COMPOSITE/Src/usbd_composite.c ****   ptr = USBD_CDC_ECM.GetFSConfigDescriptor(&len);
 931:Middlewares/Third_Party/AL94_USB_Composite/COMPOSITE/Class/COMPOSITE/Src/usbd_composite.c ****   USBD_Update_CDC_ECM_DESC(ptr,
 932:Middlewares/Third_Party/AL94_USB_Composite/COMPOSITE/Class/COMPOSITE/Src/usbd_composite.c ****                            interface_no_track,
 933:Middlewares/Third_Party/AL94_USB_Composite/COMPOSITE/Class/COMPOSITE/Src/usbd_composite.c ****                            interface_no_track + 1,
 934:Middlewares/Third_Party/AL94_USB_Composite/COMPOSITE/Class/COMPOSITE/Src/usbd_composite.c ****                            in_ep_track,
 935:Middlewares/Third_Party/AL94_USB_Composite/COMPOSITE/Class/COMPOSITE/Src/usbd_composite.c ****                            in_ep_track + 1,
 936:Middlewares/Third_Party/AL94_USB_Composite/COMPOSITE/Class/COMPOSITE/Src/usbd_composite.c ****                            out_ep_track,
 937:Middlewares/Third_Party/AL94_USB_Composite/COMPOSITE/Class/COMPOSITE/Src/usbd_composite.c ****                            USBD_Track_String_Index);
 938:Middlewares/Third_Party/AL94_USB_Composite/COMPOSITE/Class/COMPOSITE/Src/usbd_composite.c ****   memcpy(USBD_COMPOSITE_FSCfgDesc.USBD_CDC_ECM_DESC, ptr + 0x09, len - 0x09);
 939:Middlewares/Third_Party/AL94_USB_Composite/COMPOSITE/Class/COMPOSITE/Src/usbd_composite.c **** 
 940:Middlewares/Third_Party/AL94_USB_Composite/COMPOSITE/Class/COMPOSITE/Src/usbd_composite.c ****   ptr = USBD_CDC_ECM.GetHSConfigDescriptor(&len);
 941:Middlewares/Third_Party/AL94_USB_Composite/COMPOSITE/Class/COMPOSITE/Src/usbd_composite.c ****   USBD_Update_CDC_ECM_DESC(ptr,
 942:Middlewares/Third_Party/AL94_USB_Composite/COMPOSITE/Class/COMPOSITE/Src/usbd_composite.c ****                            interface_no_track,
 943:Middlewares/Third_Party/AL94_USB_Composite/COMPOSITE/Class/COMPOSITE/Src/usbd_composite.c ****                            interface_no_track + 1,
 944:Middlewares/Third_Party/AL94_USB_Composite/COMPOSITE/Class/COMPOSITE/Src/usbd_composite.c ****                            in_ep_track,
 945:Middlewares/Third_Party/AL94_USB_Composite/COMPOSITE/Class/COMPOSITE/Src/usbd_composite.c ****                            in_ep_track + 1,
 946:Middlewares/Third_Party/AL94_USB_Composite/COMPOSITE/Class/COMPOSITE/Src/usbd_composite.c ****                            out_ep_track,
 947:Middlewares/Third_Party/AL94_USB_Composite/COMPOSITE/Class/COMPOSITE/Src/usbd_composite.c ****                            USBD_Track_String_Index);
 948:Middlewares/Third_Party/AL94_USB_Composite/COMPOSITE/Class/COMPOSITE/Src/usbd_composite.c ****   memcpy(USBD_COMPOSITE_HSCfgDesc.USBD_CDC_ECM_DESC, ptr + 0x09, len - 0x09);
 949:Middlewares/Third_Party/AL94_USB_Composite/COMPOSITE/Class/COMPOSITE/Src/usbd_composite.c **** 
 950:Middlewares/Third_Party/AL94_USB_Composite/COMPOSITE/Class/COMPOSITE/Src/usbd_composite.c ****   in_ep_track += 2;
 951:Middlewares/Third_Party/AL94_USB_Composite/COMPOSITE/Class/COMPOSITE/Src/usbd_composite.c ****   out_ep_track += 1;
 952:Middlewares/Third_Party/AL94_USB_Composite/COMPOSITE/Class/COMPOSITE/Src/usbd_composite.c ****   interface_no_track += 2;
 953:Middlewares/Third_Party/AL94_USB_Composite/COMPOSITE/Class/COMPOSITE/Src/usbd_composite.c ****   USBD_Track_String_Index += 1;
 954:Middlewares/Third_Party/AL94_USB_Composite/COMPOSITE/Class/COMPOSITE/Src/usbd_composite.c **** #endif
 955:Middlewares/Third_Party/AL94_USB_Composite/COMPOSITE/Class/COMPOSITE/Src/usbd_composite.c **** 
 956:Middlewares/Third_Party/AL94_USB_Composite/COMPOSITE/Class/COMPOSITE/Src/usbd_composite.c **** #if (USBD_USE_HID_MOUSE == 1)
 957:Middlewares/Third_Party/AL94_USB_Composite/COMPOSITE/Class/COMPOSITE/Src/usbd_composite.c ****   ptr = USBD_HID_MOUSE.GetFSConfigDescriptor(&len);
 958:Middlewares/Third_Party/AL94_USB_Composite/COMPOSITE/Class/COMPOSITE/Src/usbd_composite.c ****   USBD_Update_HID_Mouse_DESC(ptr, interface_no_track, in_ep_track, USBD_Track_String_Index);
 959:Middlewares/Third_Party/AL94_USB_Composite/COMPOSITE/Class/COMPOSITE/Src/usbd_composite.c ****   memcpy(USBD_COMPOSITE_FSCfgDesc.USBD_HID_MOUSE_DESC, ptr + 0x09, len - 0x09);
 960:Middlewares/Third_Party/AL94_USB_Composite/COMPOSITE/Class/COMPOSITE/Src/usbd_composite.c **** 
 961:Middlewares/Third_Party/AL94_USB_Composite/COMPOSITE/Class/COMPOSITE/Src/usbd_composite.c ****   ptr = USBD_HID_MOUSE.GetHSConfigDescriptor(&len);
 962:Middlewares/Third_Party/AL94_USB_Composite/COMPOSITE/Class/COMPOSITE/Src/usbd_composite.c ****   USBD_Update_HID_Mouse_DESC(ptr, interface_no_track, in_ep_track, USBD_Track_String_Index);
 963:Middlewares/Third_Party/AL94_USB_Composite/COMPOSITE/Class/COMPOSITE/Src/usbd_composite.c ****   memcpy(USBD_COMPOSITE_HSCfgDesc.USBD_HID_MOUSE_DESC, ptr + 0x09, len - 0x09);
 964:Middlewares/Third_Party/AL94_USB_Composite/COMPOSITE/Class/COMPOSITE/Src/usbd_composite.c **** 
 965:Middlewares/Third_Party/AL94_USB_Composite/COMPOSITE/Class/COMPOSITE/Src/usbd_composite.c ****   in_ep_track += 1;
 966:Middlewares/Third_Party/AL94_USB_Composite/COMPOSITE/Class/COMPOSITE/Src/usbd_composite.c ****   interface_no_track += 1;
 967:Middlewares/Third_Party/AL94_USB_Composite/COMPOSITE/Class/COMPOSITE/Src/usbd_composite.c ****   USBD_Track_String_Index += 1;
 968:Middlewares/Third_Party/AL94_USB_Composite/COMPOSITE/Class/COMPOSITE/Src/usbd_composite.c **** #endif
 969:Middlewares/Third_Party/AL94_USB_Composite/COMPOSITE/Class/COMPOSITE/Src/usbd_composite.c **** 
 970:Middlewares/Third_Party/AL94_USB_Composite/COMPOSITE/Class/COMPOSITE/Src/usbd_composite.c **** #if (USBD_USE_HID_KEYBOARD == 1)
 971:Middlewares/Third_Party/AL94_USB_Composite/COMPOSITE/Class/COMPOSITE/Src/usbd_composite.c ****   ptr = USBD_HID_KEYBOARD.GetFSConfigDescriptor(&len);
 868              		.loc 1 971 3 view .LVU195
 869              		.loc 1 971 26 is_stmt 0 view .LVU196
 870 000c DFF82481 		ldr	r8, .L77+12
 871 0010 D8F82C30 		ldr	r3, [r8, #44]
ARM GAS  /tmp/ccXMkua6.s 			page 34


 872              		.loc 1 971 9 view .LVU197
 873 0014 0DF11600 		add	r0, sp, #22
 874 0018 9847     		blx	r3
 875              	.LVL71:
 876 001a 0546     		mov	r5, r0
 877              	.LVL72:
 972:Middlewares/Third_Party/AL94_USB_Composite/COMPOSITE/Class/COMPOSITE/Src/usbd_composite.c ****   USBD_Update_HID_KBD_DESC(ptr, interface_no_track, in_ep_track, USBD_Track_String_Index);
 878              		.loc 1 972 3 is_stmt 1 view .LVU198
 879 001c 424E     		ldr	r6, .L77
 880 001e 3378     		ldrb	r3, [r6]	@ zero_extendqisi2
 881 0020 8122     		movs	r2, #129
 882 0022 3946     		mov	r1, r7
 883 0024 FFF7FEFF 		bl	USBD_Update_HID_KBD_DESC
 884              	.LVL73:
 973:Middlewares/Third_Party/AL94_USB_Composite/COMPOSITE/Class/COMPOSITE/Src/usbd_composite.c ****   memcpy(USBD_COMPOSITE_FSCfgDesc.USBD_HID_KEYBOARD_DESC, ptr + 0x09, len - 0x09);
 885              		.loc 1 973 3 view .LVU199
 886              		.loc 1 973 75 is_stmt 0 view .LVU200
 887 0028 BDF81620 		ldrh	r2, [sp, #22]
 888              		.loc 1 973 3 view .LVU201
 889 002c 3F4C     		ldr	r4, .L77+4
 890 002e 093A     		subs	r2, r2, #9
 891 0030 05F10901 		add	r1, r5, #9
 892 0034 04F10900 		add	r0, r4, #9
 893 0038 FFF7FEFF 		bl	memcpy
 894              	.LVL74:
 974:Middlewares/Third_Party/AL94_USB_Composite/COMPOSITE/Class/COMPOSITE/Src/usbd_composite.c **** 
 975:Middlewares/Third_Party/AL94_USB_Composite/COMPOSITE/Class/COMPOSITE/Src/usbd_composite.c ****   ptr = USBD_HID_KEYBOARD.GetHSConfigDescriptor(&len);
 895              		.loc 1 975 3 is_stmt 1 view .LVU202
 896              		.loc 1 975 26 is_stmt 0 view .LVU203
 897 003c D8F82830 		ldr	r3, [r8, #40]
 898              		.loc 1 975 9 view .LVU204
 899 0040 0DF11600 		add	r0, sp, #22
 900 0044 9847     		blx	r3
 901              	.LVL75:
 902 0046 8046     		mov	r8, r0
 903              	.LVL76:
 976:Middlewares/Third_Party/AL94_USB_Composite/COMPOSITE/Class/COMPOSITE/Src/usbd_composite.c ****   USBD_Update_HID_KBD_DESC(ptr, interface_no_track, in_ep_track, USBD_Track_String_Index);
 904              		.loc 1 976 3 is_stmt 1 view .LVU205
 905 0048 3378     		ldrb	r3, [r6]	@ zero_extendqisi2
 906 004a 8122     		movs	r2, #129
 907 004c 3946     		mov	r1, r7
 908 004e FFF7FEFF 		bl	USBD_Update_HID_KBD_DESC
 909              	.LVL77:
 977:Middlewares/Third_Party/AL94_USB_Composite/COMPOSITE/Class/COMPOSITE/Src/usbd_composite.c ****   memcpy(USBD_COMPOSITE_HSCfgDesc.USBD_HID_KEYBOARD_DESC, ptr + 0x09, len - 0x09);
 910              		.loc 1 977 3 view .LVU206
 911              		.loc 1 977 75 is_stmt 0 view .LVU207
 912 0052 BDF81620 		ldrh	r2, [sp, #22]
 913              		.loc 1 977 3 view .LVU208
 914 0056 364D     		ldr	r5, .L77+8
 915 0058 093A     		subs	r2, r2, #9
 916 005a 08F10901 		add	r1, r8, #9
 917 005e 05F10900 		add	r0, r5, #9
 918 0062 FFF7FEFF 		bl	memcpy
 919              	.LVL78:
 978:Middlewares/Third_Party/AL94_USB_Composite/COMPOSITE/Class/COMPOSITE/Src/usbd_composite.c **** 
 979:Middlewares/Third_Party/AL94_USB_Composite/COMPOSITE/Class/COMPOSITE/Src/usbd_composite.c ****   in_ep_track += 1;
 920              		.loc 1 979 3 is_stmt 1 view .LVU209
ARM GAS  /tmp/ccXMkua6.s 			page 35


 980:Middlewares/Third_Party/AL94_USB_Composite/COMPOSITE/Class/COMPOSITE/Src/usbd_composite.c ****   interface_no_track += 1;
 921              		.loc 1 980 3 view .LVU210
 981:Middlewares/Third_Party/AL94_USB_Composite/COMPOSITE/Class/COMPOSITE/Src/usbd_composite.c ****   USBD_Track_String_Index += 1;
 922              		.loc 1 981 3 view .LVU211
 923              		.loc 1 981 27 is_stmt 0 view .LVU212
 924 0066 3378     		ldrb	r3, [r6]	@ zero_extendqisi2
 925 0068 0133     		adds	r3, r3, #1
 926 006a 3370     		strb	r3, [r6]
 982:Middlewares/Third_Party/AL94_USB_Composite/COMPOSITE/Class/COMPOSITE/Src/usbd_composite.c **** #endif
 983:Middlewares/Third_Party/AL94_USB_Composite/COMPOSITE/Class/COMPOSITE/Src/usbd_composite.c **** 
 984:Middlewares/Third_Party/AL94_USB_Composite/COMPOSITE/Class/COMPOSITE/Src/usbd_composite.c **** #if (USBD_USE_HID_CUSTOM == 1)
 985:Middlewares/Third_Party/AL94_USB_Composite/COMPOSITE/Class/COMPOSITE/Src/usbd_composite.c ****   ptr = USBD_HID_CUSTOM.GetFSConfigDescriptor(&len);
 986:Middlewares/Third_Party/AL94_USB_Composite/COMPOSITE/Class/COMPOSITE/Src/usbd_composite.c ****   USBD_Update_HID_Custom_DESC(ptr, interface_no_track, in_ep_track, out_ep_track, USBD_Track_String
 987:Middlewares/Third_Party/AL94_USB_Composite/COMPOSITE/Class/COMPOSITE/Src/usbd_composite.c ****   memcpy(USBD_COMPOSITE_FSCfgDesc.USBD_HID_CUSTOM_DESC, ptr + 0x09, len - 0x09);
 988:Middlewares/Third_Party/AL94_USB_Composite/COMPOSITE/Class/COMPOSITE/Src/usbd_composite.c **** 
 989:Middlewares/Third_Party/AL94_USB_Composite/COMPOSITE/Class/COMPOSITE/Src/usbd_composite.c ****   ptr = USBD_HID_CUSTOM.GetHSConfigDescriptor(&len);
 990:Middlewares/Third_Party/AL94_USB_Composite/COMPOSITE/Class/COMPOSITE/Src/usbd_composite.c ****   USBD_Update_HID_Custom_DESC(ptr, interface_no_track, in_ep_track, out_ep_track, USBD_Track_String
 991:Middlewares/Third_Party/AL94_USB_Composite/COMPOSITE/Class/COMPOSITE/Src/usbd_composite.c ****   memcpy(USBD_COMPOSITE_HSCfgDesc.USBD_HID_CUSTOM_DESC, ptr + 0x09, len - 0x09);
 992:Middlewares/Third_Party/AL94_USB_Composite/COMPOSITE/Class/COMPOSITE/Src/usbd_composite.c **** 
 993:Middlewares/Third_Party/AL94_USB_Composite/COMPOSITE/Class/COMPOSITE/Src/usbd_composite.c ****   in_ep_track += 1;
 994:Middlewares/Third_Party/AL94_USB_Composite/COMPOSITE/Class/COMPOSITE/Src/usbd_composite.c ****   out_ep_track += 1;
 995:Middlewares/Third_Party/AL94_USB_Composite/COMPOSITE/Class/COMPOSITE/Src/usbd_composite.c ****   interface_no_track += 1;
 996:Middlewares/Third_Party/AL94_USB_Composite/COMPOSITE/Class/COMPOSITE/Src/usbd_composite.c ****   USBD_Track_String_Index += 1;
 997:Middlewares/Third_Party/AL94_USB_Composite/COMPOSITE/Class/COMPOSITE/Src/usbd_composite.c **** #endif
 998:Middlewares/Third_Party/AL94_USB_Composite/COMPOSITE/Class/COMPOSITE/Src/usbd_composite.c **** 
 999:Middlewares/Third_Party/AL94_USB_Composite/COMPOSITE/Class/COMPOSITE/Src/usbd_composite.c **** #if (USBD_USE_UAC_MIC == 1)
1000:Middlewares/Third_Party/AL94_USB_Composite/COMPOSITE/Class/COMPOSITE/Src/usbd_composite.c ****   ptr = USBD_AUDIO_MIC.GetFSConfigDescriptor(&len);
1001:Middlewares/Third_Party/AL94_USB_Composite/COMPOSITE/Class/COMPOSITE/Src/usbd_composite.c ****   USBD_Update_Audio_MIC_DESC(ptr,
1002:Middlewares/Third_Party/AL94_USB_Composite/COMPOSITE/Class/COMPOSITE/Src/usbd_composite.c ****                              interface_no_track,
1003:Middlewares/Third_Party/AL94_USB_Composite/COMPOSITE/Class/COMPOSITE/Src/usbd_composite.c ****                              interface_no_track + 1,
1004:Middlewares/Third_Party/AL94_USB_Composite/COMPOSITE/Class/COMPOSITE/Src/usbd_composite.c ****                              in_ep_track,
1005:Middlewares/Third_Party/AL94_USB_Composite/COMPOSITE/Class/COMPOSITE/Src/usbd_composite.c ****                              USBD_Track_String_Index);
1006:Middlewares/Third_Party/AL94_USB_Composite/COMPOSITE/Class/COMPOSITE/Src/usbd_composite.c ****   memcpy(USBD_COMPOSITE_FSCfgDesc.USBD_UAC_MIC_DESC, ptr + 0x09, len - 0x09);
1007:Middlewares/Third_Party/AL94_USB_Composite/COMPOSITE/Class/COMPOSITE/Src/usbd_composite.c **** 
1008:Middlewares/Third_Party/AL94_USB_Composite/COMPOSITE/Class/COMPOSITE/Src/usbd_composite.c ****   ptr = USBD_AUDIO_MIC.GetHSConfigDescriptor(&len);
1009:Middlewares/Third_Party/AL94_USB_Composite/COMPOSITE/Class/COMPOSITE/Src/usbd_composite.c ****   USBD_Update_Audio_MIC_DESC(ptr,
1010:Middlewares/Third_Party/AL94_USB_Composite/COMPOSITE/Class/COMPOSITE/Src/usbd_composite.c ****                              interface_no_track,
1011:Middlewares/Third_Party/AL94_USB_Composite/COMPOSITE/Class/COMPOSITE/Src/usbd_composite.c ****                              interface_no_track + 1,
1012:Middlewares/Third_Party/AL94_USB_Composite/COMPOSITE/Class/COMPOSITE/Src/usbd_composite.c ****                              in_ep_track,
1013:Middlewares/Third_Party/AL94_USB_Composite/COMPOSITE/Class/COMPOSITE/Src/usbd_composite.c ****                              USBD_Track_String_Index);
1014:Middlewares/Third_Party/AL94_USB_Composite/COMPOSITE/Class/COMPOSITE/Src/usbd_composite.c **** 
1015:Middlewares/Third_Party/AL94_USB_Composite/COMPOSITE/Class/COMPOSITE/Src/usbd_composite.c ****   memcpy(USBD_COMPOSITE_HSCfgDesc.USBD_UAC_MIC_DESC, ptr + 0x09, len - 0x09);
1016:Middlewares/Third_Party/AL94_USB_Composite/COMPOSITE/Class/COMPOSITE/Src/usbd_composite.c ****   in_ep_track += 1;
1017:Middlewares/Third_Party/AL94_USB_Composite/COMPOSITE/Class/COMPOSITE/Src/usbd_composite.c ****   interface_no_track += 2;
1018:Middlewares/Third_Party/AL94_USB_Composite/COMPOSITE/Class/COMPOSITE/Src/usbd_composite.c ****   USBD_Track_String_Index += 1;
1019:Middlewares/Third_Party/AL94_USB_Composite/COMPOSITE/Class/COMPOSITE/Src/usbd_composite.c **** #endif
1020:Middlewares/Third_Party/AL94_USB_Composite/COMPOSITE/Class/COMPOSITE/Src/usbd_composite.c **** 
1021:Middlewares/Third_Party/AL94_USB_Composite/COMPOSITE/Class/COMPOSITE/Src/usbd_composite.c **** #if (USBD_USE_UAC_SPKR == 1)
1022:Middlewares/Third_Party/AL94_USB_Composite/COMPOSITE/Class/COMPOSITE/Src/usbd_composite.c ****   ptr = USBD_AUDIO_SPKR.GetFSConfigDescriptor(&len);
1023:Middlewares/Third_Party/AL94_USB_Composite/COMPOSITE/Class/COMPOSITE/Src/usbd_composite.c ****   USBD_Update_Audio_SPKR_DESC(ptr, interface_no_track, interface_no_track + 1, out_ep_track, USBD_T
1024:Middlewares/Third_Party/AL94_USB_Composite/COMPOSITE/Class/COMPOSITE/Src/usbd_composite.c ****   memcpy(USBD_COMPOSITE_FSCfgDesc.USBD_AUDIO_SPKR_DESC, ptr + 0x09, len - 0x09);
1025:Middlewares/Third_Party/AL94_USB_Composite/COMPOSITE/Class/COMPOSITE/Src/usbd_composite.c **** 
1026:Middlewares/Third_Party/AL94_USB_Composite/COMPOSITE/Class/COMPOSITE/Src/usbd_composite.c ****   ptr = USBD_AUDIO_SPKR.GetHSConfigDescriptor(&len);
1027:Middlewares/Third_Party/AL94_USB_Composite/COMPOSITE/Class/COMPOSITE/Src/usbd_composite.c ****   USBD_Update_Audio_SPKR_DESC(ptr, interface_no_track, interface_no_track + 1, out_ep_track, USBD_T
1028:Middlewares/Third_Party/AL94_USB_Composite/COMPOSITE/Class/COMPOSITE/Src/usbd_composite.c ****   memcpy(USBD_COMPOSITE_HSCfgDesc.USBD_AUDIO_SPKR_DESC, ptr + 0x09, len - 0x09);
1029:Middlewares/Third_Party/AL94_USB_Composite/COMPOSITE/Class/COMPOSITE/Src/usbd_composite.c **** 
1030:Middlewares/Third_Party/AL94_USB_Composite/COMPOSITE/Class/COMPOSITE/Src/usbd_composite.c ****   out_ep_track += 1;
ARM GAS  /tmp/ccXMkua6.s 			page 36


1031:Middlewares/Third_Party/AL94_USB_Composite/COMPOSITE/Class/COMPOSITE/Src/usbd_composite.c ****   interface_no_track += 2;
1032:Middlewares/Third_Party/AL94_USB_Composite/COMPOSITE/Class/COMPOSITE/Src/usbd_composite.c ****   USBD_Track_String_Index += 1;
1033:Middlewares/Third_Party/AL94_USB_Composite/COMPOSITE/Class/COMPOSITE/Src/usbd_composite.c **** #endif
1034:Middlewares/Third_Party/AL94_USB_Composite/COMPOSITE/Class/COMPOSITE/Src/usbd_composite.c **** 
1035:Middlewares/Third_Party/AL94_USB_Composite/COMPOSITE/Class/COMPOSITE/Src/usbd_composite.c **** #if (USBD_USE_UVC == 1)
1036:Middlewares/Third_Party/AL94_USB_Composite/COMPOSITE/Class/COMPOSITE/Src/usbd_composite.c ****   ptr = USBD_VIDEO.GetFSConfigDescriptor(&len);
1037:Middlewares/Third_Party/AL94_USB_Composite/COMPOSITE/Class/COMPOSITE/Src/usbd_composite.c ****   USBD_Update_UVC_DESC(ptr, interface_no_track, interface_no_track + 1, in_ep_track, USBD_Track_Str
1038:Middlewares/Third_Party/AL94_USB_Composite/COMPOSITE/Class/COMPOSITE/Src/usbd_composite.c ****   memcpy(USBD_COMPOSITE_FSCfgDesc.USBD_UVC_DESC, ptr + 0x09, len - 0x09);
1039:Middlewares/Third_Party/AL94_USB_Composite/COMPOSITE/Class/COMPOSITE/Src/usbd_composite.c **** 
1040:Middlewares/Third_Party/AL94_USB_Composite/COMPOSITE/Class/COMPOSITE/Src/usbd_composite.c ****   ptr = USBD_VIDEO.GetHSConfigDescriptor(&len);
1041:Middlewares/Third_Party/AL94_USB_Composite/COMPOSITE/Class/COMPOSITE/Src/usbd_composite.c ****   USBD_Update_UVC_DESC(ptr, interface_no_track, interface_no_track + 1, in_ep_track, USBD_Track_Str
1042:Middlewares/Third_Party/AL94_USB_Composite/COMPOSITE/Class/COMPOSITE/Src/usbd_composite.c ****   memcpy(USBD_COMPOSITE_HSCfgDesc.USBD_UVC_DESC, ptr + 0x09, len - 0x09);
1043:Middlewares/Third_Party/AL94_USB_Composite/COMPOSITE/Class/COMPOSITE/Src/usbd_composite.c **** 
1044:Middlewares/Third_Party/AL94_USB_Composite/COMPOSITE/Class/COMPOSITE/Src/usbd_composite.c ****   in_ep_track += 1;
1045:Middlewares/Third_Party/AL94_USB_Composite/COMPOSITE/Class/COMPOSITE/Src/usbd_composite.c ****   interface_no_track += 2;
1046:Middlewares/Third_Party/AL94_USB_Composite/COMPOSITE/Class/COMPOSITE/Src/usbd_composite.c ****   USBD_Track_String_Index += 1;
1047:Middlewares/Third_Party/AL94_USB_Composite/COMPOSITE/Class/COMPOSITE/Src/usbd_composite.c **** #endif
1048:Middlewares/Third_Party/AL94_USB_Composite/COMPOSITE/Class/COMPOSITE/Src/usbd_composite.c **** 
1049:Middlewares/Third_Party/AL94_USB_Composite/COMPOSITE/Class/COMPOSITE/Src/usbd_composite.c **** #if (USBD_USE_MSC == 1)
1050:Middlewares/Third_Party/AL94_USB_Composite/COMPOSITE/Class/COMPOSITE/Src/usbd_composite.c ****   ptr = USBD_MSC.GetFSConfigDescriptor(&len);
1051:Middlewares/Third_Party/AL94_USB_Composite/COMPOSITE/Class/COMPOSITE/Src/usbd_composite.c ****   USBD_Update_MSC_DESC(ptr, interface_no_track, in_ep_track, out_ep_track, USBD_Track_String_Index)
1052:Middlewares/Third_Party/AL94_USB_Composite/COMPOSITE/Class/COMPOSITE/Src/usbd_composite.c ****   memcpy(USBD_COMPOSITE_FSCfgDesc.USBD_MSC_DESC, ptr + 0x09, len - 0x09);
1053:Middlewares/Third_Party/AL94_USB_Composite/COMPOSITE/Class/COMPOSITE/Src/usbd_composite.c **** 
1054:Middlewares/Third_Party/AL94_USB_Composite/COMPOSITE/Class/COMPOSITE/Src/usbd_composite.c ****   ptr = USBD_MSC.GetHSConfigDescriptor(&len);
1055:Middlewares/Third_Party/AL94_USB_Composite/COMPOSITE/Class/COMPOSITE/Src/usbd_composite.c ****   USBD_Update_MSC_DESC(ptr, interface_no_track, in_ep_track, out_ep_track, USBD_Track_String_Index)
1056:Middlewares/Third_Party/AL94_USB_Composite/COMPOSITE/Class/COMPOSITE/Src/usbd_composite.c ****   memcpy(USBD_COMPOSITE_HSCfgDesc.USBD_MSC_DESC, ptr + 0x09, len - 0x09);
1057:Middlewares/Third_Party/AL94_USB_Composite/COMPOSITE/Class/COMPOSITE/Src/usbd_composite.c **** 
1058:Middlewares/Third_Party/AL94_USB_Composite/COMPOSITE/Class/COMPOSITE/Src/usbd_composite.c ****   in_ep_track += 1;
1059:Middlewares/Third_Party/AL94_USB_Composite/COMPOSITE/Class/COMPOSITE/Src/usbd_composite.c ****   out_ep_track += 1;
1060:Middlewares/Third_Party/AL94_USB_Composite/COMPOSITE/Class/COMPOSITE/Src/usbd_composite.c ****   interface_no_track += 1;
1061:Middlewares/Third_Party/AL94_USB_Composite/COMPOSITE/Class/COMPOSITE/Src/usbd_composite.c ****   USBD_Track_String_Index += 1;
1062:Middlewares/Third_Party/AL94_USB_Composite/COMPOSITE/Class/COMPOSITE/Src/usbd_composite.c **** #endif
1063:Middlewares/Third_Party/AL94_USB_Composite/COMPOSITE/Class/COMPOSITE/Src/usbd_composite.c **** 
1064:Middlewares/Third_Party/AL94_USB_Composite/COMPOSITE/Class/COMPOSITE/Src/usbd_composite.c **** #if (USBD_USE_DFU == 1)
1065:Middlewares/Third_Party/AL94_USB_Composite/COMPOSITE/Class/COMPOSITE/Src/usbd_composite.c ****   ptr = USBD_DFU.GetFSConfigDescriptor(&len);
1066:Middlewares/Third_Party/AL94_USB_Composite/COMPOSITE/Class/COMPOSITE/Src/usbd_composite.c ****   USBD_Update_DFU_DESC(ptr, interface_no_track, USBD_Track_String_Index);
1067:Middlewares/Third_Party/AL94_USB_Composite/COMPOSITE/Class/COMPOSITE/Src/usbd_composite.c ****   memcpy(USBD_COMPOSITE_FSCfgDesc.USBD_DFU_DESC, ptr + 0x09, len - 0x09);
1068:Middlewares/Third_Party/AL94_USB_Composite/COMPOSITE/Class/COMPOSITE/Src/usbd_composite.c **** 
1069:Middlewares/Third_Party/AL94_USB_Composite/COMPOSITE/Class/COMPOSITE/Src/usbd_composite.c ****   ptr = USBD_DFU.GetHSConfigDescriptor(&len);
1070:Middlewares/Third_Party/AL94_USB_Composite/COMPOSITE/Class/COMPOSITE/Src/usbd_composite.c ****   USBD_Update_DFU_DESC(ptr, interface_no_track, USBD_Track_String_Index);
1071:Middlewares/Third_Party/AL94_USB_Composite/COMPOSITE/Class/COMPOSITE/Src/usbd_composite.c ****   memcpy(USBD_COMPOSITE_HSCfgDesc.USBD_DFU_DESC, ptr + 0x09, len - 0x09);
1072:Middlewares/Third_Party/AL94_USB_Composite/COMPOSITE/Class/COMPOSITE/Src/usbd_composite.c **** 
1073:Middlewares/Third_Party/AL94_USB_Composite/COMPOSITE/Class/COMPOSITE/Src/usbd_composite.c ****   interface_no_track += USBD_DFU_MAX_ITF_NUM;
1074:Middlewares/Third_Party/AL94_USB_Composite/COMPOSITE/Class/COMPOSITE/Src/usbd_composite.c ****   USBD_Track_String_Index += USBD_DFU_MAX_ITF_NUM;
1075:Middlewares/Third_Party/AL94_USB_Composite/COMPOSITE/Class/COMPOSITE/Src/usbd_composite.c **** #endif
1076:Middlewares/Third_Party/AL94_USB_Composite/COMPOSITE/Class/COMPOSITE/Src/usbd_composite.c **** 
1077:Middlewares/Third_Party/AL94_USB_Composite/COMPOSITE/Class/COMPOSITE/Src/usbd_composite.c **** #if (USBD_USE_PRNTR == 1)
1078:Middlewares/Third_Party/AL94_USB_Composite/COMPOSITE/Class/COMPOSITE/Src/usbd_composite.c ****   ptr = USBD_PRNT.GetFSConfigDescriptor(&len);
1079:Middlewares/Third_Party/AL94_USB_Composite/COMPOSITE/Class/COMPOSITE/Src/usbd_composite.c ****   USBD_Update_PRNT_DESC(ptr, interface_no_track, in_ep_track, out_ep_track, USBD_Track_String_Index
1080:Middlewares/Third_Party/AL94_USB_Composite/COMPOSITE/Class/COMPOSITE/Src/usbd_composite.c ****   memcpy(USBD_COMPOSITE_FSCfgDesc.USBD_PRNTR_DESC, ptr + 0x09, len - 0x09);
1081:Middlewares/Third_Party/AL94_USB_Composite/COMPOSITE/Class/COMPOSITE/Src/usbd_composite.c **** 
1082:Middlewares/Third_Party/AL94_USB_Composite/COMPOSITE/Class/COMPOSITE/Src/usbd_composite.c ****   ptr = USBD_PRNT.GetHSConfigDescriptor(&len);
1083:Middlewares/Third_Party/AL94_USB_Composite/COMPOSITE/Class/COMPOSITE/Src/usbd_composite.c ****   USBD_Update_PRNT_DESC(ptr, interface_no_track, in_ep_track, out_ep_track, USBD_Track_String_Index
1084:Middlewares/Third_Party/AL94_USB_Composite/COMPOSITE/Class/COMPOSITE/Src/usbd_composite.c ****   memcpy(USBD_COMPOSITE_HSCfgDesc.USBD_PRNTR_DESC, ptr + 0x09, len - 0x09);
1085:Middlewares/Third_Party/AL94_USB_Composite/COMPOSITE/Class/COMPOSITE/Src/usbd_composite.c ****   
1086:Middlewares/Third_Party/AL94_USB_Composite/COMPOSITE/Class/COMPOSITE/Src/usbd_composite.c ****   in_ep_track += 1;
1087:Middlewares/Third_Party/AL94_USB_Composite/COMPOSITE/Class/COMPOSITE/Src/usbd_composite.c ****   out_ep_track += 1;
ARM GAS  /tmp/ccXMkua6.s 			page 37


1088:Middlewares/Third_Party/AL94_USB_Composite/COMPOSITE/Class/COMPOSITE/Src/usbd_composite.c ****   interface_no_track += 1;
1089:Middlewares/Third_Party/AL94_USB_Composite/COMPOSITE/Class/COMPOSITE/Src/usbd_composite.c ****   USBD_Track_String_Index += 1;
1090:Middlewares/Third_Party/AL94_USB_Composite/COMPOSITE/Class/COMPOSITE/Src/usbd_composite.c **** #endif
1091:Middlewares/Third_Party/AL94_USB_Composite/COMPOSITE/Class/COMPOSITE/Src/usbd_composite.c **** 
1092:Middlewares/Third_Party/AL94_USB_Composite/COMPOSITE/Class/COMPOSITE/Src/usbd_composite.c **** #if (USBD_USE_CDC_ACM == 1)
1093:Middlewares/Third_Party/AL94_USB_Composite/COMPOSITE/Class/COMPOSITE/Src/usbd_composite.c ****   ptr = USBD_CDC_ACM.GetFSConfigDescriptor(&len);
 927              		.loc 1 1093 3 is_stmt 1 view .LVU213
 928              		.loc 1 1093 21 is_stmt 0 view .LVU214
 929 006c DFF8C8B0 		ldr	fp, .L77+16
 930 0070 DBF82C30 		ldr	r3, [fp, #44]
 931              		.loc 1 1093 9 view .LVU215
 932 0074 0DF11600 		add	r0, sp, #22
 933 0078 9847     		blx	r3
 934              	.LVL79:
 935 007a 8146     		mov	r9, r0
 936              	.LVL80:
1094:Middlewares/Third_Party/AL94_USB_Composite/COMPOSITE/Class/COMPOSITE/Src/usbd_composite.c ****   USBD_Update_CDC_ACM_DESC(ptr,
 937              		.loc 1 1094 3 is_stmt 1 view .LVU216
 938 007c 3378     		ldrb	r3, [r6]	@ zero_extendqisi2
 939 007e 0293     		str	r3, [sp, #8]
 940 0080 4FF00108 		mov	r8, #1
 941 0084 CDF80480 		str	r8, [sp, #4]
 942 0088 4FF0830A 		mov	r10, #131
 943 008c CDF800A0 		str	r10, [sp]
 944 0090 8223     		movs	r3, #130
 945 0092 0222     		movs	r2, #2
 946 0094 4146     		mov	r1, r8
 947 0096 FFF7FEFF 		bl	USBD_Update_CDC_ACM_DESC
 948              	.LVL81:
1095:Middlewares/Third_Party/AL94_USB_Composite/COMPOSITE/Class/COMPOSITE/Src/usbd_composite.c ****                            interface_no_track,
1096:Middlewares/Third_Party/AL94_USB_Composite/COMPOSITE/Class/COMPOSITE/Src/usbd_composite.c ****                            interface_no_track + 1,
1097:Middlewares/Third_Party/AL94_USB_Composite/COMPOSITE/Class/COMPOSITE/Src/usbd_composite.c ****                            in_ep_track,
1098:Middlewares/Third_Party/AL94_USB_Composite/COMPOSITE/Class/COMPOSITE/Src/usbd_composite.c ****                            in_ep_track + 1,
1099:Middlewares/Third_Party/AL94_USB_Composite/COMPOSITE/Class/COMPOSITE/Src/usbd_composite.c ****                            out_ep_track,
1100:Middlewares/Third_Party/AL94_USB_Composite/COMPOSITE/Class/COMPOSITE/Src/usbd_composite.c ****                            USBD_Track_String_Index);
1101:Middlewares/Third_Party/AL94_USB_Composite/COMPOSITE/Class/COMPOSITE/Src/usbd_composite.c ****   memcpy(USBD_COMPOSITE_FSCfgDesc.USBD_CDC_ACM_DESC, ptr + 0x09, len - 0x09);
 949              		.loc 1 1101 3 view .LVU217
 950              		.loc 1 1101 70 is_stmt 0 view .LVU218
 951 009a BDF81620 		ldrh	r2, [sp, #22]
 952              		.loc 1 1101 3 view .LVU219
 953 009e 093A     		subs	r2, r2, #9
 954 00a0 09F10901 		add	r1, r9, #9
 955 00a4 04F12200 		add	r0, r4, #34
 956 00a8 FFF7FEFF 		bl	memcpy
 957              	.LVL82:
1102:Middlewares/Third_Party/AL94_USB_Composite/COMPOSITE/Class/COMPOSITE/Src/usbd_composite.c **** 
1103:Middlewares/Third_Party/AL94_USB_Composite/COMPOSITE/Class/COMPOSITE/Src/usbd_composite.c ****   ptr = USBD_CDC_ACM.GetHSConfigDescriptor(&len);
 958              		.loc 1 1103 3 is_stmt 1 view .LVU220
 959              		.loc 1 1103 21 is_stmt 0 view .LVU221
 960 00ac DBF82830 		ldr	r3, [fp, #40]
 961              		.loc 1 1103 9 view .LVU222
 962 00b0 0DF11600 		add	r0, sp, #22
 963 00b4 9847     		blx	r3
 964              	.LVL83:
 965 00b6 8146     		mov	r9, r0
 966              	.LVL84:
1104:Middlewares/Third_Party/AL94_USB_Composite/COMPOSITE/Class/COMPOSITE/Src/usbd_composite.c ****   USBD_Update_CDC_ACM_DESC(ptr,
ARM GAS  /tmp/ccXMkua6.s 			page 38


 967              		.loc 1 1104 3 is_stmt 1 view .LVU223
 968 00b8 3378     		ldrb	r3, [r6]	@ zero_extendqisi2
 969 00ba 0293     		str	r3, [sp, #8]
 970 00bc CDF80480 		str	r8, [sp, #4]
 971 00c0 CDF800A0 		str	r10, [sp]
 972 00c4 8223     		movs	r3, #130
 973 00c6 0222     		movs	r2, #2
 974 00c8 4146     		mov	r1, r8
 975 00ca FFF7FEFF 		bl	USBD_Update_CDC_ACM_DESC
 976              	.LVL85:
1105:Middlewares/Third_Party/AL94_USB_Composite/COMPOSITE/Class/COMPOSITE/Src/usbd_composite.c ****                            interface_no_track,
1106:Middlewares/Third_Party/AL94_USB_Composite/COMPOSITE/Class/COMPOSITE/Src/usbd_composite.c ****                            interface_no_track + 1,
1107:Middlewares/Third_Party/AL94_USB_Composite/COMPOSITE/Class/COMPOSITE/Src/usbd_composite.c ****                            in_ep_track,
1108:Middlewares/Third_Party/AL94_USB_Composite/COMPOSITE/Class/COMPOSITE/Src/usbd_composite.c ****                            in_ep_track + 1,
1109:Middlewares/Third_Party/AL94_USB_Composite/COMPOSITE/Class/COMPOSITE/Src/usbd_composite.c ****                            out_ep_track,
1110:Middlewares/Third_Party/AL94_USB_Composite/COMPOSITE/Class/COMPOSITE/Src/usbd_composite.c ****                            USBD_Track_String_Index);
1111:Middlewares/Third_Party/AL94_USB_Composite/COMPOSITE/Class/COMPOSITE/Src/usbd_composite.c ****   memcpy(USBD_COMPOSITE_HSCfgDesc.USBD_CDC_ACM_DESC, ptr + 0x09, len - 0x09);
 977              		.loc 1 1111 3 view .LVU224
 978              		.loc 1 1111 70 is_stmt 0 view .LVU225
 979 00ce BDF81620 		ldrh	r2, [sp, #22]
 980              		.loc 1 1111 3 view .LVU226
 981 00d2 093A     		subs	r2, r2, #9
 982 00d4 09F10901 		add	r1, r9, #9
 983 00d8 05F12200 		add	r0, r5, #34
 984 00dc FFF7FEFF 		bl	memcpy
 985              	.LVL86:
1112:Middlewares/Third_Party/AL94_USB_Composite/COMPOSITE/Class/COMPOSITE/Src/usbd_composite.c **** 
1113:Middlewares/Third_Party/AL94_USB_Composite/COMPOSITE/Class/COMPOSITE/Src/usbd_composite.c ****   in_ep_track += 2 * USBD_CDC_ACM_COUNT;
 986              		.loc 1 1113 3 is_stmt 1 view .LVU227
1114:Middlewares/Third_Party/AL94_USB_Composite/COMPOSITE/Class/COMPOSITE/Src/usbd_composite.c ****   out_ep_track += 1 * USBD_CDC_ACM_COUNT;
 987              		.loc 1 1114 3 view .LVU228
1115:Middlewares/Third_Party/AL94_USB_Composite/COMPOSITE/Class/COMPOSITE/Src/usbd_composite.c ****   interface_no_track += 2 * USBD_CDC_ACM_COUNT;
 988              		.loc 1 1115 3 view .LVU229
1116:Middlewares/Third_Party/AL94_USB_Composite/COMPOSITE/Class/COMPOSITE/Src/usbd_composite.c ****   USBD_Track_String_Index += USBD_CDC_ACM_COUNT;
 989              		.loc 1 1116 3 view .LVU230
 990              		.loc 1 1116 27 is_stmt 0 view .LVU231
 991 00e0 3378     		ldrb	r3, [r6]	@ zero_extendqisi2
 992 00e2 4344     		add	r3, r3, r8
 993 00e4 3370     		strb	r3, [r6]
1117:Middlewares/Third_Party/AL94_USB_Composite/COMPOSITE/Class/COMPOSITE/Src/usbd_composite.c **** #endif
1118:Middlewares/Third_Party/AL94_USB_Composite/COMPOSITE/Class/COMPOSITE/Src/usbd_composite.c **** 
1119:Middlewares/Third_Party/AL94_USB_Composite/COMPOSITE/Class/COMPOSITE/Src/usbd_composite.c ****   uint16_t CFG_SIZE = sizeof(USBD_COMPOSITE_CFG_DESC_t);
 994              		.loc 1 1119 3 is_stmt 1 view .LVU232
 995              	.LVL87:
1120:Middlewares/Third_Party/AL94_USB_Composite/COMPOSITE/Class/COMPOSITE/Src/usbd_composite.c ****   ptr = USBD_COMPOSITE_HSCfgDesc.CONFIG_DESC;
 996              		.loc 1 1120 3 view .LVU233
1121:Middlewares/Third_Party/AL94_USB_Composite/COMPOSITE/Class/COMPOSITE/Src/usbd_composite.c ****   /* Configuration Descriptor */
1122:Middlewares/Third_Party/AL94_USB_Composite/COMPOSITE/Class/COMPOSITE/Src/usbd_composite.c ****   ptr[0] = 0x09;                        /* bLength: Configuration Descriptor size */
 997              		.loc 1 1122 3 view .LVU234
 998              		.loc 1 1122 10 is_stmt 0 view .LVU235
 999 00e6 4FF0090C 		mov	ip, #9
 1000 00ea 85F800C0 		strb	ip, [r5]
1123:Middlewares/Third_Party/AL94_USB_Composite/COMPOSITE/Class/COMPOSITE/Src/usbd_composite.c ****   ptr[1] = USB_DESC_TYPE_CONFIGURATION; /* bDescriptorType: Configuration */
 1001              		.loc 1 1123 3 is_stmt 1 view .LVU236
 1002              		.loc 1 1123 10 is_stmt 0 view .LVU237
 1003 00ee 0226     		movs	r6, #2
 1004 00f0 6E70     		strb	r6, [r5, #1]
ARM GAS  /tmp/ccXMkua6.s 			page 39


1124:Middlewares/Third_Party/AL94_USB_Composite/COMPOSITE/Class/COMPOSITE/Src/usbd_composite.c ****   ptr[2] = LOBYTE(CFG_SIZE);            /* wTotalLength:no of returned bytes */
 1005              		.loc 1 1124 3 is_stmt 1 view .LVU238
 1006              		.loc 1 1124 10 is_stmt 0 view .LVU239
 1007 00f2 6420     		movs	r0, #100
 1008 00f4 A870     		strb	r0, [r5, #2]
1125:Middlewares/Third_Party/AL94_USB_Composite/COMPOSITE/Class/COMPOSITE/Src/usbd_composite.c ****   ptr[3] = HIBYTE(CFG_SIZE);
 1009              		.loc 1 1125 3 is_stmt 1 view .LVU240
 1010              		.loc 1 1125 10 is_stmt 0 view .LVU241
 1011 00f6 EF70     		strb	r7, [r5, #3]
1126:Middlewares/Third_Party/AL94_USB_Composite/COMPOSITE/Class/COMPOSITE/Src/usbd_composite.c ****   ptr[4] = interface_no_track; /* bNumInterfaces: 2 interface */
 1012              		.loc 1 1126 3 is_stmt 1 view .LVU242
 1013              		.loc 1 1126 10 is_stmt 0 view .LVU243
 1014 00f8 0321     		movs	r1, #3
 1015 00fa 2971     		strb	r1, [r5, #4]
1127:Middlewares/Third_Party/AL94_USB_Composite/COMPOSITE/Class/COMPOSITE/Src/usbd_composite.c ****   ptr[5] = 0x01;               /* bConfigurationValue: Configuration value */
 1016              		.loc 1 1127 3 is_stmt 1 view .LVU244
 1017              		.loc 1 1127 10 is_stmt 0 view .LVU245
 1018 00fc 85F80580 		strb	r8, [r5, #5]
1128:Middlewares/Third_Party/AL94_USB_Composite/COMPOSITE/Class/COMPOSITE/Src/usbd_composite.c ****   ptr[6] = 0x00;               /* iConfiguration: Index of string descriptor describing the configu
 1019              		.loc 1 1128 3 is_stmt 1 view .LVU246
 1020              		.loc 1 1128 10 is_stmt 0 view .LVU247
 1021 0100 AF71     		strb	r7, [r5, #6]
1129:Middlewares/Third_Party/AL94_USB_Composite/COMPOSITE/Class/COMPOSITE/Src/usbd_composite.c **** #if (USBD_SELF_POWERED == 1U)
1130:Middlewares/Third_Party/AL94_USB_Composite/COMPOSITE/Class/COMPOSITE/Src/usbd_composite.c ****   ptr[7] = 0xC0; /* bmAttributes: Bus Powered according to user configuration */
 1022              		.loc 1 1130 3 is_stmt 1 view .LVU248
 1023              		.loc 1 1130 10 is_stmt 0 view .LVU249
 1024 0102 C022     		movs	r2, #192
 1025 0104 EA71     		strb	r2, [r5, #7]
1131:Middlewares/Third_Party/AL94_USB_Composite/COMPOSITE/Class/COMPOSITE/Src/usbd_composite.c **** #else
1132:Middlewares/Third_Party/AL94_USB_Composite/COMPOSITE/Class/COMPOSITE/Src/usbd_composite.c ****   ptr[7] = 0x80; /* bmAttributes: Bus Powered according to user configuration */
1133:Middlewares/Third_Party/AL94_USB_Composite/COMPOSITE/Class/COMPOSITE/Src/usbd_composite.c **** #endif
1134:Middlewares/Third_Party/AL94_USB_Composite/COMPOSITE/Class/COMPOSITE/Src/usbd_composite.c ****   ptr[8] = USBD_MAX_POWER; /* MaxPower 100 mA */
 1026              		.loc 1 1134 3 is_stmt 1 view .LVU250
 1027              		.loc 1 1134 10 is_stmt 0 view .LVU251
 1028 0106 3223     		movs	r3, #50
 1029 0108 2B72     		strb	r3, [r5, #8]
1135:Middlewares/Third_Party/AL94_USB_Composite/COMPOSITE/Class/COMPOSITE/Src/usbd_composite.c **** 
1136:Middlewares/Third_Party/AL94_USB_Composite/COMPOSITE/Class/COMPOSITE/Src/usbd_composite.c ****   ptr = USBD_COMPOSITE_FSCfgDesc.CONFIG_DESC;
 1030              		.loc 1 1136 3 is_stmt 1 view .LVU252
 1031              	.LVL88:
1137:Middlewares/Third_Party/AL94_USB_Composite/COMPOSITE/Class/COMPOSITE/Src/usbd_composite.c ****   /* Configuration Descriptor */
1138:Middlewares/Third_Party/AL94_USB_Composite/COMPOSITE/Class/COMPOSITE/Src/usbd_composite.c ****   ptr[0] = 0x09;                        /* bLength: Configuration Descriptor size */
 1032              		.loc 1 1138 3 view .LVU253
 1033              		.loc 1 1138 10 is_stmt 0 view .LVU254
 1034 010a 84F800C0 		strb	ip, [r4]
1139:Middlewares/Third_Party/AL94_USB_Composite/COMPOSITE/Class/COMPOSITE/Src/usbd_composite.c ****   ptr[1] = USB_DESC_TYPE_CONFIGURATION; /* bDescriptorType: Configuration */
 1035              		.loc 1 1139 3 is_stmt 1 view .LVU255
 1036              		.loc 1 1139 10 is_stmt 0 view .LVU256
 1037 010e 6670     		strb	r6, [r4, #1]
1140:Middlewares/Third_Party/AL94_USB_Composite/COMPOSITE/Class/COMPOSITE/Src/usbd_composite.c ****   ptr[2] = LOBYTE(CFG_SIZE);            /* wTotalLength:no of returned bytes */
 1038              		.loc 1 1140 3 is_stmt 1 view .LVU257
 1039              		.loc 1 1140 10 is_stmt 0 view .LVU258
 1040 0110 A070     		strb	r0, [r4, #2]
1141:Middlewares/Third_Party/AL94_USB_Composite/COMPOSITE/Class/COMPOSITE/Src/usbd_composite.c ****   ptr[3] = HIBYTE(CFG_SIZE);
 1041              		.loc 1 1141 3 is_stmt 1 view .LVU259
 1042              		.loc 1 1141 10 is_stmt 0 view .LVU260
 1043 0112 E770     		strb	r7, [r4, #3]
ARM GAS  /tmp/ccXMkua6.s 			page 40


1142:Middlewares/Third_Party/AL94_USB_Composite/COMPOSITE/Class/COMPOSITE/Src/usbd_composite.c ****   ptr[4] = interface_no_track; /* bNumInterfaces: 2 interface */
 1044              		.loc 1 1142 3 is_stmt 1 view .LVU261
 1045              		.loc 1 1142 10 is_stmt 0 view .LVU262
 1046 0114 2171     		strb	r1, [r4, #4]
1143:Middlewares/Third_Party/AL94_USB_Composite/COMPOSITE/Class/COMPOSITE/Src/usbd_composite.c ****   ptr[5] = 0x01;               /* bConfigurationValue: Configuration value */
 1047              		.loc 1 1143 3 is_stmt 1 view .LVU263
 1048              		.loc 1 1143 10 is_stmt 0 view .LVU264
 1049 0116 84F80580 		strb	r8, [r4, #5]
1144:Middlewares/Third_Party/AL94_USB_Composite/COMPOSITE/Class/COMPOSITE/Src/usbd_composite.c ****   ptr[6] = 0x00;               /* iConfiguration: Index of string descriptor describing the configu
 1050              		.loc 1 1144 3 is_stmt 1 view .LVU265
 1051              		.loc 1 1144 10 is_stmt 0 view .LVU266
 1052 011a A771     		strb	r7, [r4, #6]
1145:Middlewares/Third_Party/AL94_USB_Composite/COMPOSITE/Class/COMPOSITE/Src/usbd_composite.c **** #if (USBD_SELF_POWERED == 1U)
1146:Middlewares/Third_Party/AL94_USB_Composite/COMPOSITE/Class/COMPOSITE/Src/usbd_composite.c ****   ptr[7] = 0xC0; /* bmAttributes: Bus Powered according to user configuration */
 1053              		.loc 1 1146 3 is_stmt 1 view .LVU267
 1054              		.loc 1 1146 10 is_stmt 0 view .LVU268
 1055 011c E271     		strb	r2, [r4, #7]
1147:Middlewares/Third_Party/AL94_USB_Composite/COMPOSITE/Class/COMPOSITE/Src/usbd_composite.c **** #else
1148:Middlewares/Third_Party/AL94_USB_Composite/COMPOSITE/Class/COMPOSITE/Src/usbd_composite.c ****   ptr[7] = 0x80; /* bmAttributes: Bus Powered according to user configuration */
1149:Middlewares/Third_Party/AL94_USB_Composite/COMPOSITE/Class/COMPOSITE/Src/usbd_composite.c **** #endif
1150:Middlewares/Third_Party/AL94_USB_Composite/COMPOSITE/Class/COMPOSITE/Src/usbd_composite.c ****   ptr[8] = USBD_MAX_POWER; /* MaxPower 100 mA */
 1056              		.loc 1 1150 3 is_stmt 1 view .LVU269
 1057              		.loc 1 1150 10 is_stmt 0 view .LVU270
 1058 011e 2372     		strb	r3, [r4, #8]
1151:Middlewares/Third_Party/AL94_USB_Composite/COMPOSITE/Class/COMPOSITE/Src/usbd_composite.c **** 
1152:Middlewares/Third_Party/AL94_USB_Composite/COMPOSITE/Class/COMPOSITE/Src/usbd_composite.c ****   (void)out_ep_track;
 1059              		.loc 1 1152 3 is_stmt 1 view .LVU271
1153:Middlewares/Third_Party/AL94_USB_Composite/COMPOSITE/Class/COMPOSITE/Src/usbd_composite.c ****   (void)in_ep_track;
 1060              		.loc 1 1153 3 view .LVU272
1154:Middlewares/Third_Party/AL94_USB_Composite/COMPOSITE/Class/COMPOSITE/Src/usbd_composite.c **** }
 1061              		.loc 1 1154 1 is_stmt 0 view .LVU273
 1062 0120 07B0     		add	sp, sp, #28
 1063              	.LCFI13:
 1064              		.cfi_def_cfa_offset 36
 1065              		@ sp needed
 1066 0122 BDE8F08F 		pop	{r4, r5, r6, r7, r8, r9, r10, fp, pc}
 1067              	.L78:
 1068 0126 00BF     		.align	2
 1069              	.L77:
 1070 0128 00000000 		.word	.LANCHOR4
 1071 012c 00000000 		.word	.LANCHOR1
 1072 0130 00000000 		.word	.LANCHOR0
 1073 0134 00000000 		.word	USBD_HID_KEYBOARD
 1074 0138 00000000 		.word	USBD_CDC_ACM
 1075              		.cfi_endproc
 1076              	.LFE160:
 1078              		.global	USBD_Track_String_Index
 1079              		.global	USBD_COMPOSITE_HSCfgDesc
 1080              		.global	USBD_COMPOSITE_FSCfgDesc
 1081              		.global	USBD_COMPOSITE
 1082              		.section	.bss.USBD_COMPOSITE_FSCfgDesc,"aw",%nobits
 1083              		.align	2
 1084              		.set	.LANCHOR1,. + 0
 1087              	USBD_COMPOSITE_FSCfgDesc:
 1088 0000 00000000 		.space	100
 1088      00000000 
 1088      00000000 
ARM GAS  /tmp/ccXMkua6.s 			page 41


 1088      00000000 
 1088      00000000 
 1089              		.section	.bss.USBD_COMPOSITE_HSCfgDesc,"aw",%nobits
 1090              		.align	2
 1091              		.set	.LANCHOR0,. + 0
 1094              	USBD_COMPOSITE_HSCfgDesc:
 1095 0000 00000000 		.space	100
 1095      00000000 
 1095      00000000 
 1095      00000000 
 1095      00000000 
 1096              		.section	.bss.USBD_StrDesc.0,"aw",%nobits
 1097              		.align	2
 1098              		.set	.LANCHOR3,. + 0
 1101              	USBD_StrDesc.0:
 1102 0000 00000000 		.space	64
 1102      00000000 
 1102      00000000 
 1102      00000000 
 1102      00000000 
 1103              		.section	.data.USBD_COMPOSITE,"aw"
 1104              		.align	2
 1107              	USBD_COMPOSITE:
 1108 0000 00000000 		.word	USBD_COMPOSITE_Init
 1109 0004 00000000 		.word	USBD_COMPOSITE_DeInit
 1110 0008 00000000 		.word	USBD_COMPOSITE_Setup
 1111 000c 00000000 		.word	USBD_COMPOSITE_EP0_TxReady
 1112 0010 00000000 		.word	USBD_COMPOSITE_EP0_RxReady
 1113 0014 00000000 		.word	USBD_COMPOSITE_DataIn
 1114 0018 00000000 		.word	USBD_COMPOSITE_DataOut
 1115 001c 00000000 		.word	USBD_COMPOSITE_SOF
 1116 0020 00000000 		.word	USBD_COMPOSITE_IsoINIncomplete
 1117 0024 00000000 		.word	USBD_COMPOSITE_IsoOutIncomplete
 1118 0028 00000000 		.word	USBD_COMPOSITE_GetHSCfgDesc
 1119 002c 00000000 		.word	USBD_COMPOSITE_GetFSCfgDesc
 1120 0030 00000000 		.word	USBD_COMPOSITE_GetOtherSpeedCfgDesc
 1121 0034 00000000 		.word	USBD_COMPOSITE_GetDeviceQualifierDesc
 1122 0038 00000000 		.word	USBD_COMPOSITE_GetUsrStringDesc
 1123              		.section	.data.USBD_COMPOSITE_DeviceQualifierDesc,"aw"
 1124              		.align	2
 1125              		.set	.LANCHOR2,. + 0
 1128              	USBD_COMPOSITE_DeviceQualifierDesc:
 1129 0000 0A060002 		.ascii	"\012\006\000\002\357\002\001@\001\000"
 1129      EF020140 
 1129      0100
 1130              		.section	.data.USBD_Track_String_Index,"aw"
 1131              		.set	.LANCHOR4,. + 0
 1134              	USBD_Track_String_Index:
 1135 0000 06       		.byte	6
 1136              		.text
 1137              	.Letext0:
 1138              		.file 2 "/opt/gcc-arm-none-eabi-10.3-2021.10/arm-none-eabi/include/machine/_default_types.h"
 1139              		.file 3 "/opt/gcc-arm-none-eabi-10.3-2021.10/arm-none-eabi/include/sys/_stdint.h"
 1140              		.file 4 "Middlewares/Third_Party/AL94_USB_Composite/COMPOSITE/Core/Inc/usbd_def.h"
 1141              		.file 5 "Middlewares/Third_Party/AL94_USB_Composite/COMPOSITE/Class/CDC_ACM/Inc/usbd_cdc_acm.h"
 1142              		.file 6 "Middlewares/Third_Party/AL94_USB_Composite/COMPOSITE/Class/HID_KEYBOARD/Inc/usbd_hid_keyb
 1143              		.file 7 "Middlewares/Third_Party/AL94_USB_Composite/COMPOSITE/Class/COMPOSITE/Inc/usbd_composite.h
ARM GAS  /tmp/ccXMkua6.s 			page 42


 1144              		.file 8 "/opt/gcc-arm-none-eabi-10.3-2021.10/arm-none-eabi/include/stdio.h"
 1145              		.file 9 "Middlewares/Third_Party/AL94_USB_Composite/COMPOSITE/Core/Inc/usbd_ctlreq.h"
 1146              		.file 10 "<built-in>"
ARM GAS  /tmp/ccXMkua6.s 			page 43

