ARM GAS  /tmp/ccXVBrPs.s 			page 1


   1              		.cpu cortex-m7
   2              		.arch armv7e-m
   3              		.fpu fpv5-sp-d16
   4              		.eabi_attribute 27, 1
   5              		.eabi_attribute 28, 1
   6              		.eabi_attribute 20, 1
   7              		.eabi_attribute 21, 1
   8              		.eabi_attribute 23, 3
   9              		.eabi_attribute 24, 1
  10              		.eabi_attribute 25, 1
  11              		.eabi_attribute 26, 1
  12              		.eabi_attribute 30, 1
  13              		.eabi_attribute 34, 1
  14              		.eabi_attribute 18, 4
  15              		.file	"usbd_conf.c"
  16              		.text
  17              	.Ltext0:
  18              		.cfi_sections	.debug_frame
  19              		.section	.text.HAL_PCDEx_SetTxFiFoInBytes,"ax",%progbits
  20              		.align	1
  21              		.global	HAL_PCDEx_SetTxFiFoInBytes
  22              		.syntax unified
  23              		.thumb
  24              		.thumb_func
  26              	HAL_PCDEx_SetTxFiFoInBytes:
  27              	.LVL0:
  28              	.LFB145:
  29              		.file 1 "Middlewares/Third_Party/AL94_USB_Composite/COMPOSITE/Target/usbd_conf.c"
   1:Middlewares/Third_Party/AL94_USB_Composite/COMPOSITE/Target/usbd_conf.c **** /* USER CODE BEGIN Header */
   2:Middlewares/Third_Party/AL94_USB_Composite/COMPOSITE/Target/usbd_conf.c **** /**
   3:Middlewares/Third_Party/AL94_USB_Composite/COMPOSITE/Target/usbd_conf.c ****   ******************************************************************************
   4:Middlewares/Third_Party/AL94_USB_Composite/COMPOSITE/Target/usbd_conf.c ****   * @file           : Target/usbd_conf.c
   5:Middlewares/Third_Party/AL94_USB_Composite/COMPOSITE/Target/usbd_conf.c ****   * @version        : v1.0_Cube
   6:Middlewares/Third_Party/AL94_USB_Composite/COMPOSITE/Target/usbd_conf.c ****   * @brief          : This file implements the board support package for the USB device library
   7:Middlewares/Third_Party/AL94_USB_Composite/COMPOSITE/Target/usbd_conf.c ****   ******************************************************************************
   8:Middlewares/Third_Party/AL94_USB_Composite/COMPOSITE/Target/usbd_conf.c ****   * @attention
   9:Middlewares/Third_Party/AL94_USB_Composite/COMPOSITE/Target/usbd_conf.c ****   *
  10:Middlewares/Third_Party/AL94_USB_Composite/COMPOSITE/Target/usbd_conf.c ****   * <h2><center>&copy; Copyright (c) 2021 STMicroelectronics.
  11:Middlewares/Third_Party/AL94_USB_Composite/COMPOSITE/Target/usbd_conf.c ****   * All rights reserved.</center></h2>
  12:Middlewares/Third_Party/AL94_USB_Composite/COMPOSITE/Target/usbd_conf.c ****   *
  13:Middlewares/Third_Party/AL94_USB_Composite/COMPOSITE/Target/usbd_conf.c ****   * This software component is licensed by ST under Ultimate Liberty license
  14:Middlewares/Third_Party/AL94_USB_Composite/COMPOSITE/Target/usbd_conf.c ****   * SLA0044, the "License"; You may not use this file except in compliance with
  15:Middlewares/Third_Party/AL94_USB_Composite/COMPOSITE/Target/usbd_conf.c ****   * the License. You may obtain a copy of the License at:
  16:Middlewares/Third_Party/AL94_USB_Composite/COMPOSITE/Target/usbd_conf.c ****   *                             www.st.com/SLA0044
  17:Middlewares/Third_Party/AL94_USB_Composite/COMPOSITE/Target/usbd_conf.c ****   *
  18:Middlewares/Third_Party/AL94_USB_Composite/COMPOSITE/Target/usbd_conf.c ****   ******************************************************************************
  19:Middlewares/Third_Party/AL94_USB_Composite/COMPOSITE/Target/usbd_conf.c ****   */
  20:Middlewares/Third_Party/AL94_USB_Composite/COMPOSITE/Target/usbd_conf.c **** /* USER CODE END Header */
  21:Middlewares/Third_Party/AL94_USB_Composite/COMPOSITE/Target/usbd_conf.c **** 
  22:Middlewares/Third_Party/AL94_USB_Composite/COMPOSITE/Target/usbd_conf.c **** /* Includes ------------------------------------------------------------------*/
  23:Middlewares/Third_Party/AL94_USB_Composite/COMPOSITE/Target/usbd_conf.c **** #include "usbd_def.h"
  24:Middlewares/Third_Party/AL94_USB_Composite/COMPOSITE/Target/usbd_conf.c **** #include "usbd_core.h"
  25:Middlewares/Third_Party/AL94_USB_Composite/COMPOSITE/Target/usbd_conf.c **** 
  26:Middlewares/Third_Party/AL94_USB_Composite/COMPOSITE/Target/usbd_conf.c **** /* USER CODE BEGIN Includes */
  27:Middlewares/Third_Party/AL94_USB_Composite/COMPOSITE/Target/usbd_conf.c **** #include "usbd_composite.h"
  28:Middlewares/Third_Party/AL94_USB_Composite/COMPOSITE/Target/usbd_conf.c **** #if (STM32F1_DEVICE) /** for STM32F1 or similar */
  29:Middlewares/Third_Party/AL94_USB_Composite/COMPOSITE/Target/usbd_conf.c **** #include "usb.h"
ARM GAS  /tmp/ccXVBrPs.s 			page 2


  30:Middlewares/Third_Party/AL94_USB_Composite/COMPOSITE/Target/usbd_conf.c **** #else
  31:Middlewares/Third_Party/AL94_USB_Composite/COMPOSITE/Target/usbd_conf.c **** #include "usb_otg.h"
  32:Middlewares/Third_Party/AL94_USB_Composite/COMPOSITE/Target/usbd_conf.c **** #endif
  33:Middlewares/Third_Party/AL94_USB_Composite/COMPOSITE/Target/usbd_conf.c **** /* USER CODE END Includes */
  34:Middlewares/Third_Party/AL94_USB_Composite/COMPOSITE/Target/usbd_conf.c **** 
  35:Middlewares/Third_Party/AL94_USB_Composite/COMPOSITE/Target/usbd_conf.c **** /* Private typedef -----------------------------------------------------------*/
  36:Middlewares/Third_Party/AL94_USB_Composite/COMPOSITE/Target/usbd_conf.c **** /* Private define ------------------------------------------------------------*/
  37:Middlewares/Third_Party/AL94_USB_Composite/COMPOSITE/Target/usbd_conf.c **** /* Private macro -------------------------------------------------------------*/
  38:Middlewares/Third_Party/AL94_USB_Composite/COMPOSITE/Target/usbd_conf.c **** 
  39:Middlewares/Third_Party/AL94_USB_Composite/COMPOSITE/Target/usbd_conf.c **** /* USER CODE BEGIN PV */
  40:Middlewares/Third_Party/AL94_USB_Composite/COMPOSITE/Target/usbd_conf.c **** /* Private variables ---------------------------------------------------------*/
  41:Middlewares/Third_Party/AL94_USB_Composite/COMPOSITE/Target/usbd_conf.c **** 
  42:Middlewares/Third_Party/AL94_USB_Composite/COMPOSITE/Target/usbd_conf.c **** /* USER CODE END PV */
  43:Middlewares/Third_Party/AL94_USB_Composite/COMPOSITE/Target/usbd_conf.c **** PCD_HandleTypeDef *hpcd_USB_OTG_PTR;
  44:Middlewares/Third_Party/AL94_USB_Composite/COMPOSITE/Target/usbd_conf.c **** void Error_Handler(void);
  45:Middlewares/Third_Party/AL94_USB_Composite/COMPOSITE/Target/usbd_conf.c **** 
  46:Middlewares/Third_Party/AL94_USB_Composite/COMPOSITE/Target/usbd_conf.c **** /* External functions --------------------------------------------------------*/
  47:Middlewares/Third_Party/AL94_USB_Composite/COMPOSITE/Target/usbd_conf.c **** 
  48:Middlewares/Third_Party/AL94_USB_Composite/COMPOSITE/Target/usbd_conf.c **** /* USER CODE BEGIN 0 */
  49:Middlewares/Third_Party/AL94_USB_Composite/COMPOSITE/Target/usbd_conf.c **** 
  50:Middlewares/Third_Party/AL94_USB_Composite/COMPOSITE/Target/usbd_conf.c **** /* USER CODE END 0 */
  51:Middlewares/Third_Party/AL94_USB_Composite/COMPOSITE/Target/usbd_conf.c **** 
  52:Middlewares/Third_Party/AL94_USB_Composite/COMPOSITE/Target/usbd_conf.c **** /* USER CODE BEGIN PFP */
  53:Middlewares/Third_Party/AL94_USB_Composite/COMPOSITE/Target/usbd_conf.c **** /* Private function prototypes -----------------------------------------------*/
  54:Middlewares/Third_Party/AL94_USB_Composite/COMPOSITE/Target/usbd_conf.c **** USBD_StatusTypeDef USBD_Get_USB_Status(HAL_StatusTypeDef hal_status);
  55:Middlewares/Third_Party/AL94_USB_Composite/COMPOSITE/Target/usbd_conf.c **** HAL_StatusTypeDef HAL_PCDEx_SetTxFiFoInBytes(PCD_HandleTypeDef *hpcd, uint8_t fifo, uint16_t size);
  56:Middlewares/Third_Party/AL94_USB_Composite/COMPOSITE/Target/usbd_conf.c **** HAL_StatusTypeDef HAL_PCDEx_SetRxFiFoInBytes(PCD_HandleTypeDef *hpcd, uint16_t size);
  57:Middlewares/Third_Party/AL94_USB_Composite/COMPOSITE/Target/usbd_conf.c **** /* USER CODE END PFP */
  58:Middlewares/Third_Party/AL94_USB_Composite/COMPOSITE/Target/usbd_conf.c **** 
  59:Middlewares/Third_Party/AL94_USB_Composite/COMPOSITE/Target/usbd_conf.c **** /* Private functions ---------------------------------------------------------*/
  60:Middlewares/Third_Party/AL94_USB_Composite/COMPOSITE/Target/usbd_conf.c **** 
  61:Middlewares/Third_Party/AL94_USB_Composite/COMPOSITE/Target/usbd_conf.c **** /* USER CODE BEGIN 1 */
  62:Middlewares/Third_Party/AL94_USB_Composite/COMPOSITE/Target/usbd_conf.c **** #if(!STM32F1_DEVICE)
  63:Middlewares/Third_Party/AL94_USB_Composite/COMPOSITE/Target/usbd_conf.c **** HAL_StatusTypeDef HAL_PCDEx_SetTxFiFoInBytes(PCD_HandleTypeDef *hpcd, uint8_t fifo, uint16_t size)
  64:Middlewares/Third_Party/AL94_USB_Composite/COMPOSITE/Target/usbd_conf.c **** {
  30              		.loc 1 64 1 view -0
  31              		.cfi_startproc
  32              		@ args = 0, pretend = 0, frame = 0
  33              		@ frame_needed = 0, uses_anonymous_args = 0
  34              		.loc 1 64 1 is_stmt 0 view .LVU1
  35 0000 08B5     		push	{r3, lr}
  36              	.LCFI0:
  37              		.cfi_def_cfa_offset 8
  38              		.cfi_offset 3, -8
  39              		.cfi_offset 14, -4
  65:Middlewares/Third_Party/AL94_USB_Composite/COMPOSITE/Target/usbd_conf.c **** 	return HAL_PCDEx_SetTxFiFo(hpcd, fifo, (size/4));
  40              		.loc 1 65 2 is_stmt 1 view .LVU2
  41              		.loc 1 65 9 is_stmt 0 view .LVU3
  42 0002 9208     		lsrs	r2, r2, #2
  43              	.LVL1:
  44              		.loc 1 65 9 view .LVU4
  45 0004 FFF7FEFF 		bl	HAL_PCDEx_SetTxFiFo
  46              	.LVL2:
  66:Middlewares/Third_Party/AL94_USB_Composite/COMPOSITE/Target/usbd_conf.c **** }
  47              		.loc 1 66 1 view .LVU5
  48 0008 08BD     		pop	{r3, pc}
  49              		.cfi_endproc
ARM GAS  /tmp/ccXVBrPs.s 			page 3


  50              	.LFE145:
  52              		.section	.text.HAL_PCDEx_SetRxFiFoInBytes,"ax",%progbits
  53              		.align	1
  54              		.global	HAL_PCDEx_SetRxFiFoInBytes
  55              		.syntax unified
  56              		.thumb
  57              		.thumb_func
  59              	HAL_PCDEx_SetRxFiFoInBytes:
  60              	.LVL3:
  61              	.LFB146:
  67:Middlewares/Third_Party/AL94_USB_Composite/COMPOSITE/Target/usbd_conf.c **** 
  68:Middlewares/Third_Party/AL94_USB_Composite/COMPOSITE/Target/usbd_conf.c **** HAL_StatusTypeDef HAL_PCDEx_SetRxFiFoInBytes(PCD_HandleTypeDef *hpcd, uint16_t size)
  69:Middlewares/Third_Party/AL94_USB_Composite/COMPOSITE/Target/usbd_conf.c **** {
  62              		.loc 1 69 1 is_stmt 1 view -0
  63              		.cfi_startproc
  64              		@ args = 0, pretend = 0, frame = 0
  65              		@ frame_needed = 0, uses_anonymous_args = 0
  66              		.loc 1 69 1 is_stmt 0 view .LVU7
  67 0000 08B5     		push	{r3, lr}
  68              	.LCFI1:
  69              		.cfi_def_cfa_offset 8
  70              		.cfi_offset 3, -8
  71              		.cfi_offset 14, -4
  70:Middlewares/Third_Party/AL94_USB_Composite/COMPOSITE/Target/usbd_conf.c **** 	return HAL_PCDEx_SetRxFiFo(hpcd, (size/4));
  72              		.loc 1 70 2 is_stmt 1 view .LVU8
  73              		.loc 1 70 9 is_stmt 0 view .LVU9
  74 0002 8908     		lsrs	r1, r1, #2
  75              	.LVL4:
  76              		.loc 1 70 9 view .LVU10
  77 0004 FFF7FEFF 		bl	HAL_PCDEx_SetRxFiFo
  78              	.LVL5:
  71:Middlewares/Third_Party/AL94_USB_Composite/COMPOSITE/Target/usbd_conf.c **** }
  79              		.loc 1 71 1 view .LVU11
  80 0008 08BD     		pop	{r3, pc}
  81              		.cfi_endproc
  82              	.LFE146:
  84              		.section	.text.HAL_PCD_MspInit,"ax",%progbits
  85              		.align	1
  86              		.weak	HAL_PCD_MspInit
  87              		.syntax unified
  88              		.thumb
  89              		.thumb_func
  91              	HAL_PCD_MspInit:
  92              	.LVL6:
  93              	.LFB147:
  72:Middlewares/Third_Party/AL94_USB_Composite/COMPOSITE/Target/usbd_conf.c **** #endif
  73:Middlewares/Third_Party/AL94_USB_Composite/COMPOSITE/Target/usbd_conf.c **** /* USER CODE END 1 */
  74:Middlewares/Third_Party/AL94_USB_Composite/COMPOSITE/Target/usbd_conf.c **** 
  75:Middlewares/Third_Party/AL94_USB_Composite/COMPOSITE/Target/usbd_conf.c **** /*******************************************************************************
  76:Middlewares/Third_Party/AL94_USB_Composite/COMPOSITE/Target/usbd_conf.c ****                        LL Driver Callbacks (PCD -> USB Device Library)
  77:Middlewares/Third_Party/AL94_USB_Composite/COMPOSITE/Target/usbd_conf.c **** *******************************************************************************/
  78:Middlewares/Third_Party/AL94_USB_Composite/COMPOSITE/Target/usbd_conf.c **** /* MSP Init */
  79:Middlewares/Third_Party/AL94_USB_Composite/COMPOSITE/Target/usbd_conf.c **** 
  80:Middlewares/Third_Party/AL94_USB_Composite/COMPOSITE/Target/usbd_conf.c **** __weak void HAL_PCD_MspInit(PCD_HandleTypeDef *pcdHandle)
  81:Middlewares/Third_Party/AL94_USB_Composite/COMPOSITE/Target/usbd_conf.c **** {
  94              		.loc 1 81 1 is_stmt 1 view -0
  95              		.cfi_startproc
ARM GAS  /tmp/ccXVBrPs.s 			page 4


  96              		@ args = 0, pretend = 0, frame = 0
  97              		@ frame_needed = 0, uses_anonymous_args = 0
  98              		@ link register save eliminated.
  82:Middlewares/Third_Party/AL94_USB_Composite/COMPOSITE/Target/usbd_conf.c ****     /* @see usb_otg.c or usb.c for (STM32F1 or similar) generated by cube **/
  83:Middlewares/Third_Party/AL94_USB_Composite/COMPOSITE/Target/usbd_conf.c **** }
  99              		.loc 1 83 1 view .LVU13
 100 0000 7047     		bx	lr
 101              		.cfi_endproc
 102              	.LFE147:
 104              		.section	.text.HAL_PCD_MspDeInit,"ax",%progbits
 105              		.align	1
 106              		.weak	HAL_PCD_MspDeInit
 107              		.syntax unified
 108              		.thumb
 109              		.thumb_func
 111              	HAL_PCD_MspDeInit:
 112              	.LVL7:
 113              	.LFB148:
  84:Middlewares/Third_Party/AL94_USB_Composite/COMPOSITE/Target/usbd_conf.c **** 
  85:Middlewares/Third_Party/AL94_USB_Composite/COMPOSITE/Target/usbd_conf.c **** __weak void HAL_PCD_MspDeInit(PCD_HandleTypeDef *pcdHandle)
  86:Middlewares/Third_Party/AL94_USB_Composite/COMPOSITE/Target/usbd_conf.c **** {
 114              		.loc 1 86 1 view -0
 115              		.cfi_startproc
 116              		@ args = 0, pretend = 0, frame = 0
 117              		@ frame_needed = 0, uses_anonymous_args = 0
 118              		@ link register save eliminated.
  87:Middlewares/Third_Party/AL94_USB_Composite/COMPOSITE/Target/usbd_conf.c ****     /* @see usb_otg.c or usb.c for (STM32F1 or similar) generated by cube **/
  88:Middlewares/Third_Party/AL94_USB_Composite/COMPOSITE/Target/usbd_conf.c **** }
 119              		.loc 1 88 1 view .LVU15
 120 0000 7047     		bx	lr
 121              		.cfi_endproc
 122              	.LFE148:
 124              		.section	.text.HAL_PCD_SetupStageCallback,"ax",%progbits
 125              		.align	1
 126              		.global	HAL_PCD_SetupStageCallback
 127              		.syntax unified
 128              		.thumb
 129              		.thumb_func
 131              	HAL_PCD_SetupStageCallback:
 132              	.LVL8:
 133              	.LFB149:
  89:Middlewares/Third_Party/AL94_USB_Composite/COMPOSITE/Target/usbd_conf.c **** 
  90:Middlewares/Third_Party/AL94_USB_Composite/COMPOSITE/Target/usbd_conf.c **** /**
  91:Middlewares/Third_Party/AL94_USB_Composite/COMPOSITE/Target/usbd_conf.c ****   * @brief  Setup stage callback
  92:Middlewares/Third_Party/AL94_USB_Composite/COMPOSITE/Target/usbd_conf.c ****   * @param  hpcd: PCD handle
  93:Middlewares/Third_Party/AL94_USB_Composite/COMPOSITE/Target/usbd_conf.c ****   * @retval None
  94:Middlewares/Third_Party/AL94_USB_Composite/COMPOSITE/Target/usbd_conf.c ****   */
  95:Middlewares/Third_Party/AL94_USB_Composite/COMPOSITE/Target/usbd_conf.c **** #if (USE_HAL_PCD_REGISTER_CALLBACKS == 1U)
  96:Middlewares/Third_Party/AL94_USB_Composite/COMPOSITE/Target/usbd_conf.c **** static void PCD_SetupStageCallback(PCD_HandleTypeDef *hpcd)
  97:Middlewares/Third_Party/AL94_USB_Composite/COMPOSITE/Target/usbd_conf.c **** #else
  98:Middlewares/Third_Party/AL94_USB_Composite/COMPOSITE/Target/usbd_conf.c **** void HAL_PCD_SetupStageCallback(PCD_HandleTypeDef *hpcd)
  99:Middlewares/Third_Party/AL94_USB_Composite/COMPOSITE/Target/usbd_conf.c **** #endif /* USE_HAL_PCD_REGISTER_CALLBACKS */
 100:Middlewares/Third_Party/AL94_USB_Composite/COMPOSITE/Target/usbd_conf.c **** {
 134              		.loc 1 100 1 view -0
 135              		.cfi_startproc
 136              		@ args = 0, pretend = 0, frame = 0
 137              		@ frame_needed = 0, uses_anonymous_args = 0
ARM GAS  /tmp/ccXVBrPs.s 			page 5


 138              		.loc 1 100 1 is_stmt 0 view .LVU17
 139 0000 08B5     		push	{r3, lr}
 140              	.LCFI2:
 141              		.cfi_def_cfa_offset 8
 142              		.cfi_offset 3, -8
 143              		.cfi_offset 14, -4
 101:Middlewares/Third_Party/AL94_USB_Composite/COMPOSITE/Target/usbd_conf.c ****   USBD_LL_SetupStage((USBD_HandleTypeDef *)hpcd->pData, (uint8_t *)hpcd->Setup);
 144              		.loc 1 101 3 is_stmt 1 view .LVU18
 145 0002 00F2C441 		addw	r1, r0, #1220
 146 0006 D0F80405 		ldr	r0, [r0, #1284]
 147              	.LVL9:
 148              		.loc 1 101 3 is_stmt 0 view .LVU19
 149 000a FFF7FEFF 		bl	USBD_LL_SetupStage
 150              	.LVL10:
 102:Middlewares/Third_Party/AL94_USB_Composite/COMPOSITE/Target/usbd_conf.c **** }
 151              		.loc 1 102 1 view .LVU20
 152 000e 08BD     		pop	{r3, pc}
 153              		.cfi_endproc
 154              	.LFE149:
 156              		.section	.text.HAL_PCD_DataOutStageCallback,"ax",%progbits
 157              		.align	1
 158              		.global	HAL_PCD_DataOutStageCallback
 159              		.syntax unified
 160              		.thumb
 161              		.thumb_func
 163              	HAL_PCD_DataOutStageCallback:
 164              	.LVL11:
 165              	.LFB150:
 103:Middlewares/Third_Party/AL94_USB_Composite/COMPOSITE/Target/usbd_conf.c **** 
 104:Middlewares/Third_Party/AL94_USB_Composite/COMPOSITE/Target/usbd_conf.c **** /**
 105:Middlewares/Third_Party/AL94_USB_Composite/COMPOSITE/Target/usbd_conf.c ****   * @brief  Data Out stage callback.
 106:Middlewares/Third_Party/AL94_USB_Composite/COMPOSITE/Target/usbd_conf.c ****   * @param  hpcd: PCD handle
 107:Middlewares/Third_Party/AL94_USB_Composite/COMPOSITE/Target/usbd_conf.c ****   * @param  epnum: Endpoint number
 108:Middlewares/Third_Party/AL94_USB_Composite/COMPOSITE/Target/usbd_conf.c ****   * @retval None
 109:Middlewares/Third_Party/AL94_USB_Composite/COMPOSITE/Target/usbd_conf.c ****   */
 110:Middlewares/Third_Party/AL94_USB_Composite/COMPOSITE/Target/usbd_conf.c **** #if (USE_HAL_PCD_REGISTER_CALLBACKS == 1U)
 111:Middlewares/Third_Party/AL94_USB_Composite/COMPOSITE/Target/usbd_conf.c **** static void PCD_DataOutStageCallback(PCD_HandleTypeDef *hpcd, uint8_t epnum)
 112:Middlewares/Third_Party/AL94_USB_Composite/COMPOSITE/Target/usbd_conf.c **** #else
 113:Middlewares/Third_Party/AL94_USB_Composite/COMPOSITE/Target/usbd_conf.c **** void HAL_PCD_DataOutStageCallback(PCD_HandleTypeDef *hpcd, uint8_t epnum)
 114:Middlewares/Third_Party/AL94_USB_Composite/COMPOSITE/Target/usbd_conf.c **** #endif /* USE_HAL_PCD_REGISTER_CALLBACKS */
 115:Middlewares/Third_Party/AL94_USB_Composite/COMPOSITE/Target/usbd_conf.c **** {
 166              		.loc 1 115 1 is_stmt 1 view -0
 167              		.cfi_startproc
 168              		@ args = 0, pretend = 0, frame = 0
 169              		@ frame_needed = 0, uses_anonymous_args = 0
 170              		.loc 1 115 1 is_stmt 0 view .LVU22
 171 0000 08B5     		push	{r3, lr}
 172              	.LCFI3:
 173              		.cfi_def_cfa_offset 8
 174              		.cfi_offset 3, -8
 175              		.cfi_offset 14, -4
 116:Middlewares/Third_Party/AL94_USB_Composite/COMPOSITE/Target/usbd_conf.c ****   USBD_LL_DataOutStage((USBD_HandleTypeDef *)hpcd->pData, epnum, hpcd->OUT_ep[epnum].xfer_buff);
 176              		.loc 1 116 3 is_stmt 1 view .LVU23
 177 0002 01EBC103 		add	r3, r1, r1, lsl #3
 178 0006 00EB8303 		add	r3, r0, r3, lsl #2
 179 000a D3F88C22 		ldr	r2, [r3, #652]
 180 000e D0F80405 		ldr	r0, [r0, #1284]
ARM GAS  /tmp/ccXVBrPs.s 			page 6


 181              	.LVL12:
 182              		.loc 1 116 3 is_stmt 0 view .LVU24
 183 0012 FFF7FEFF 		bl	USBD_LL_DataOutStage
 184              	.LVL13:
 117:Middlewares/Third_Party/AL94_USB_Composite/COMPOSITE/Target/usbd_conf.c **** }
 185              		.loc 1 117 1 view .LVU25
 186 0016 08BD     		pop	{r3, pc}
 187              		.cfi_endproc
 188              	.LFE150:
 190              		.section	.text.HAL_PCD_DataInStageCallback,"ax",%progbits
 191              		.align	1
 192              		.global	HAL_PCD_DataInStageCallback
 193              		.syntax unified
 194              		.thumb
 195              		.thumb_func
 197              	HAL_PCD_DataInStageCallback:
 198              	.LVL14:
 199              	.LFB151:
 118:Middlewares/Third_Party/AL94_USB_Composite/COMPOSITE/Target/usbd_conf.c **** 
 119:Middlewares/Third_Party/AL94_USB_Composite/COMPOSITE/Target/usbd_conf.c **** /**
 120:Middlewares/Third_Party/AL94_USB_Composite/COMPOSITE/Target/usbd_conf.c ****   * @brief  Data In stage callback.
 121:Middlewares/Third_Party/AL94_USB_Composite/COMPOSITE/Target/usbd_conf.c ****   * @param  hpcd: PCD handle
 122:Middlewares/Third_Party/AL94_USB_Composite/COMPOSITE/Target/usbd_conf.c ****   * @param  epnum: Endpoint number
 123:Middlewares/Third_Party/AL94_USB_Composite/COMPOSITE/Target/usbd_conf.c ****   * @retval None
 124:Middlewares/Third_Party/AL94_USB_Composite/COMPOSITE/Target/usbd_conf.c ****   */
 125:Middlewares/Third_Party/AL94_USB_Composite/COMPOSITE/Target/usbd_conf.c **** #if (USE_HAL_PCD_REGISTER_CALLBACKS == 1U)
 126:Middlewares/Third_Party/AL94_USB_Composite/COMPOSITE/Target/usbd_conf.c **** static void PCD_DataInStageCallback(PCD_HandleTypeDef *hpcd, uint8_t epnum)
 127:Middlewares/Third_Party/AL94_USB_Composite/COMPOSITE/Target/usbd_conf.c **** #else
 128:Middlewares/Third_Party/AL94_USB_Composite/COMPOSITE/Target/usbd_conf.c **** void HAL_PCD_DataInStageCallback(PCD_HandleTypeDef *hpcd, uint8_t epnum)
 129:Middlewares/Third_Party/AL94_USB_Composite/COMPOSITE/Target/usbd_conf.c **** #endif /* USE_HAL_PCD_REGISTER_CALLBACKS */
 130:Middlewares/Third_Party/AL94_USB_Composite/COMPOSITE/Target/usbd_conf.c **** {
 200              		.loc 1 130 1 is_stmt 1 view -0
 201              		.cfi_startproc
 202              		@ args = 0, pretend = 0, frame = 0
 203              		@ frame_needed = 0, uses_anonymous_args = 0
 204              		.loc 1 130 1 is_stmt 0 view .LVU27
 205 0000 08B5     		push	{r3, lr}
 206              	.LCFI4:
 207              		.cfi_def_cfa_offset 8
 208              		.cfi_offset 3, -8
 209              		.cfi_offset 14, -4
 131:Middlewares/Third_Party/AL94_USB_Composite/COMPOSITE/Target/usbd_conf.c ****   USBD_LL_DataInStage((USBD_HandleTypeDef *)hpcd->pData, epnum, hpcd->IN_ep[epnum].xfer_buff);
 210              		.loc 1 131 3 is_stmt 1 view .LVU28
 211 0002 01EBC103 		add	r3, r1, r1, lsl #3
 212 0006 00EB8303 		add	r3, r0, r3, lsl #2
 213 000a DA6C     		ldr	r2, [r3, #76]
 214 000c D0F80405 		ldr	r0, [r0, #1284]
 215              	.LVL15:
 216              		.loc 1 131 3 is_stmt 0 view .LVU29
 217 0010 FFF7FEFF 		bl	USBD_LL_DataInStage
 218              	.LVL16:
 132:Middlewares/Third_Party/AL94_USB_Composite/COMPOSITE/Target/usbd_conf.c **** }
 219              		.loc 1 132 1 view .LVU30
 220 0014 08BD     		pop	{r3, pc}
 221              		.cfi_endproc
 222              	.LFE151:
 224              		.section	.text.HAL_PCD_SOFCallback,"ax",%progbits
ARM GAS  /tmp/ccXVBrPs.s 			page 7


 225              		.align	1
 226              		.global	HAL_PCD_SOFCallback
 227              		.syntax unified
 228              		.thumb
 229              		.thumb_func
 231              	HAL_PCD_SOFCallback:
 232              	.LVL17:
 233              	.LFB152:
 133:Middlewares/Third_Party/AL94_USB_Composite/COMPOSITE/Target/usbd_conf.c **** 
 134:Middlewares/Third_Party/AL94_USB_Composite/COMPOSITE/Target/usbd_conf.c **** /**
 135:Middlewares/Third_Party/AL94_USB_Composite/COMPOSITE/Target/usbd_conf.c ****   * @brief  SOF callback.
 136:Middlewares/Third_Party/AL94_USB_Composite/COMPOSITE/Target/usbd_conf.c ****   * @param  hpcd: PCD handle
 137:Middlewares/Third_Party/AL94_USB_Composite/COMPOSITE/Target/usbd_conf.c ****   * @retval None
 138:Middlewares/Third_Party/AL94_USB_Composite/COMPOSITE/Target/usbd_conf.c ****   */
 139:Middlewares/Third_Party/AL94_USB_Composite/COMPOSITE/Target/usbd_conf.c **** #if (USE_HAL_PCD_REGISTER_CALLBACKS == 1U)
 140:Middlewares/Third_Party/AL94_USB_Composite/COMPOSITE/Target/usbd_conf.c **** static void PCD_SOFCallback(PCD_HandleTypeDef *hpcd)
 141:Middlewares/Third_Party/AL94_USB_Composite/COMPOSITE/Target/usbd_conf.c **** #else
 142:Middlewares/Third_Party/AL94_USB_Composite/COMPOSITE/Target/usbd_conf.c **** void HAL_PCD_SOFCallback(PCD_HandleTypeDef *hpcd)
 143:Middlewares/Third_Party/AL94_USB_Composite/COMPOSITE/Target/usbd_conf.c **** #endif /* USE_HAL_PCD_REGISTER_CALLBACKS */
 144:Middlewares/Third_Party/AL94_USB_Composite/COMPOSITE/Target/usbd_conf.c **** {
 234              		.loc 1 144 1 is_stmt 1 view -0
 235              		.cfi_startproc
 236              		@ args = 0, pretend = 0, frame = 0
 237              		@ frame_needed = 0, uses_anonymous_args = 0
 238              		.loc 1 144 1 is_stmt 0 view .LVU32
 239 0000 08B5     		push	{r3, lr}
 240              	.LCFI5:
 241              		.cfi_def_cfa_offset 8
 242              		.cfi_offset 3, -8
 243              		.cfi_offset 14, -4
 145:Middlewares/Third_Party/AL94_USB_Composite/COMPOSITE/Target/usbd_conf.c ****   USBD_LL_SOF((USBD_HandleTypeDef *)hpcd->pData);
 244              		.loc 1 145 3 is_stmt 1 view .LVU33
 245 0002 D0F80405 		ldr	r0, [r0, #1284]
 246              	.LVL18:
 247              		.loc 1 145 3 is_stmt 0 view .LVU34
 248 0006 FFF7FEFF 		bl	USBD_LL_SOF
 249              	.LVL19:
 146:Middlewares/Third_Party/AL94_USB_Composite/COMPOSITE/Target/usbd_conf.c **** }
 250              		.loc 1 146 1 view .LVU35
 251 000a 08BD     		pop	{r3, pc}
 252              		.cfi_endproc
 253              	.LFE152:
 255              		.section	.text.HAL_PCD_ResetCallback,"ax",%progbits
 256              		.align	1
 257              		.global	HAL_PCD_ResetCallback
 258              		.syntax unified
 259              		.thumb
 260              		.thumb_func
 262              	HAL_PCD_ResetCallback:
 263              	.LVL20:
 264              	.LFB153:
 147:Middlewares/Third_Party/AL94_USB_Composite/COMPOSITE/Target/usbd_conf.c **** 
 148:Middlewares/Third_Party/AL94_USB_Composite/COMPOSITE/Target/usbd_conf.c **** /**
 149:Middlewares/Third_Party/AL94_USB_Composite/COMPOSITE/Target/usbd_conf.c ****   * @brief  Reset callback.
 150:Middlewares/Third_Party/AL94_USB_Composite/COMPOSITE/Target/usbd_conf.c ****   * @param  hpcd: PCD handle
 151:Middlewares/Third_Party/AL94_USB_Composite/COMPOSITE/Target/usbd_conf.c ****   * @retval None
 152:Middlewares/Third_Party/AL94_USB_Composite/COMPOSITE/Target/usbd_conf.c ****   */
ARM GAS  /tmp/ccXVBrPs.s 			page 8


 153:Middlewares/Third_Party/AL94_USB_Composite/COMPOSITE/Target/usbd_conf.c **** #if (USE_HAL_PCD_REGISTER_CALLBACKS == 1U)
 154:Middlewares/Third_Party/AL94_USB_Composite/COMPOSITE/Target/usbd_conf.c **** static void PCD_ResetCallback(PCD_HandleTypeDef *hpcd)
 155:Middlewares/Third_Party/AL94_USB_Composite/COMPOSITE/Target/usbd_conf.c **** #else
 156:Middlewares/Third_Party/AL94_USB_Composite/COMPOSITE/Target/usbd_conf.c **** void HAL_PCD_ResetCallback(PCD_HandleTypeDef *hpcd)
 157:Middlewares/Third_Party/AL94_USB_Composite/COMPOSITE/Target/usbd_conf.c **** #endif /* USE_HAL_PCD_REGISTER_CALLBACKS */
 158:Middlewares/Third_Party/AL94_USB_Composite/COMPOSITE/Target/usbd_conf.c **** {
 265              		.loc 1 158 1 is_stmt 1 view -0
 266              		.cfi_startproc
 267              		@ args = 0, pretend = 0, frame = 0
 268              		@ frame_needed = 0, uses_anonymous_args = 0
 269              		.loc 1 158 1 is_stmt 0 view .LVU37
 270 0000 10B5     		push	{r4, lr}
 271              	.LCFI6:
 272              		.cfi_def_cfa_offset 8
 273              		.cfi_offset 4, -8
 274              		.cfi_offset 14, -4
 275 0002 0446     		mov	r4, r0
 159:Middlewares/Third_Party/AL94_USB_Composite/COMPOSITE/Target/usbd_conf.c ****   USBD_SpeedTypeDef speed = USBD_SPEED_FULL;
 276              		.loc 1 159 3 is_stmt 1 view .LVU38
 277              	.LVL21:
 160:Middlewares/Third_Party/AL94_USB_Composite/COMPOSITE/Target/usbd_conf.c **** 
 161:Middlewares/Third_Party/AL94_USB_Composite/COMPOSITE/Target/usbd_conf.c ****   if (hpcd->Init.speed == PCD_SPEED_FULL)
 278              		.loc 1 161 3 view .LVU39
 279              		.loc 1 161 17 is_stmt 0 view .LVU40
 280 0004 C368     		ldr	r3, [r0, #12]
 281              		.loc 1 161 6 view .LVU41
 282 0006 022B     		cmp	r3, #2
 283 0008 0ED0     		beq	.L17
 162:Middlewares/Third_Party/AL94_USB_Composite/COMPOSITE/Target/usbd_conf.c ****   {
 163:Middlewares/Third_Party/AL94_USB_Composite/COMPOSITE/Target/usbd_conf.c ****     speed = USBD_SPEED_FULL; 
 164:Middlewares/Third_Party/AL94_USB_Composite/COMPOSITE/Target/usbd_conf.c ****   }
 165:Middlewares/Third_Party/AL94_USB_Composite/COMPOSITE/Target/usbd_conf.c ****   #if(!STM32F1_DEVICE)
 166:Middlewares/Third_Party/AL94_USB_Composite/COMPOSITE/Target/usbd_conf.c ****   else if (hpcd->Init.speed == PCD_SPEED_HIGH)
 284              		.loc 1 166 8 is_stmt 1 view .LVU42
 285              		.loc 1 166 11 is_stmt 0 view .LVU43
 286 000a 4BB9     		cbnz	r3, .L20
 167:Middlewares/Third_Party/AL94_USB_Composite/COMPOSITE/Target/usbd_conf.c ****   {
 168:Middlewares/Third_Party/AL94_USB_Composite/COMPOSITE/Target/usbd_conf.c ****     speed = USBD_SPEED_HIGH;
 287              		.loc 1 168 11 view .LVU44
 288 000c 0021     		movs	r1, #0
 289              	.LVL22:
 290              	.L16:
 169:Middlewares/Third_Party/AL94_USB_Composite/COMPOSITE/Target/usbd_conf.c ****   }
 170:Middlewares/Third_Party/AL94_USB_Composite/COMPOSITE/Target/usbd_conf.c ****   #endif
 171:Middlewares/Third_Party/AL94_USB_Composite/COMPOSITE/Target/usbd_conf.c ****   else
 172:Middlewares/Third_Party/AL94_USB_Composite/COMPOSITE/Target/usbd_conf.c ****   {
 173:Middlewares/Third_Party/AL94_USB_Composite/COMPOSITE/Target/usbd_conf.c ****     Error_Handler();
 174:Middlewares/Third_Party/AL94_USB_Composite/COMPOSITE/Target/usbd_conf.c ****   }
 175:Middlewares/Third_Party/AL94_USB_Composite/COMPOSITE/Target/usbd_conf.c ****   /* Set Speed. */
 176:Middlewares/Third_Party/AL94_USB_Composite/COMPOSITE/Target/usbd_conf.c ****   USBD_LL_SetSpeed((USBD_HandleTypeDef *)hpcd->pData, speed);
 291              		.loc 1 176 3 is_stmt 1 view .LVU45
 292 000e D4F80405 		ldr	r0, [r4, #1284]
 293 0012 FFF7FEFF 		bl	USBD_LL_SetSpeed
 294              	.LVL23:
 177:Middlewares/Third_Party/AL94_USB_Composite/COMPOSITE/Target/usbd_conf.c **** 
 178:Middlewares/Third_Party/AL94_USB_Composite/COMPOSITE/Target/usbd_conf.c ****   /* Reset Device. */
 179:Middlewares/Third_Party/AL94_USB_Composite/COMPOSITE/Target/usbd_conf.c ****   USBD_LL_Reset((USBD_HandleTypeDef *)hpcd->pData);
ARM GAS  /tmp/ccXVBrPs.s 			page 9


 295              		.loc 1 179 3 view .LVU46
 296 0016 D4F80405 		ldr	r0, [r4, #1284]
 297 001a FFF7FEFF 		bl	USBD_LL_Reset
 298              	.LVL24:
 180:Middlewares/Third_Party/AL94_USB_Composite/COMPOSITE/Target/usbd_conf.c **** }
 299              		.loc 1 180 1 is_stmt 0 view .LVU47
 300 001e 10BD     		pop	{r4, pc}
 301              	.LVL25:
 302              	.L20:
 173:Middlewares/Third_Party/AL94_USB_Composite/COMPOSITE/Target/usbd_conf.c ****   }
 303              		.loc 1 173 5 is_stmt 1 view .LVU48
 304 0020 FFF7FEFF 		bl	Error_Handler
 305              	.LVL26:
 159:Middlewares/Third_Party/AL94_USB_Composite/COMPOSITE/Target/usbd_conf.c **** 
 306              		.loc 1 159 21 is_stmt 0 view .LVU49
 307 0024 0121     		movs	r1, #1
 308 0026 F2E7     		b	.L16
 309              	.LVL27:
 310              	.L17:
 163:Middlewares/Third_Party/AL94_USB_Composite/COMPOSITE/Target/usbd_conf.c ****   }
 311              		.loc 1 163 11 view .LVU50
 312 0028 0121     		movs	r1, #1
 313 002a F0E7     		b	.L16
 314              		.cfi_endproc
 315              	.LFE153:
 317              		.section	.text.HAL_PCD_SuspendCallback,"ax",%progbits
 318              		.align	1
 319              		.global	HAL_PCD_SuspendCallback
 320              		.syntax unified
 321              		.thumb
 322              		.thumb_func
 324              	HAL_PCD_SuspendCallback:
 325              	.LVL28:
 326              	.LFB154:
 181:Middlewares/Third_Party/AL94_USB_Composite/COMPOSITE/Target/usbd_conf.c **** 
 182:Middlewares/Third_Party/AL94_USB_Composite/COMPOSITE/Target/usbd_conf.c **** /**
 183:Middlewares/Third_Party/AL94_USB_Composite/COMPOSITE/Target/usbd_conf.c ****   * @brief  Suspend callback.
 184:Middlewares/Third_Party/AL94_USB_Composite/COMPOSITE/Target/usbd_conf.c ****   * When Low power mode is enabled the debug cannot be used (IAR, Keil doesn't support it)
 185:Middlewares/Third_Party/AL94_USB_Composite/COMPOSITE/Target/usbd_conf.c ****   * @param  hpcd: PCD handle
 186:Middlewares/Third_Party/AL94_USB_Composite/COMPOSITE/Target/usbd_conf.c ****   * @retval None
 187:Middlewares/Third_Party/AL94_USB_Composite/COMPOSITE/Target/usbd_conf.c ****   */
 188:Middlewares/Third_Party/AL94_USB_Composite/COMPOSITE/Target/usbd_conf.c **** #if (USE_HAL_PCD_REGISTER_CALLBACKS == 1U)
 189:Middlewares/Third_Party/AL94_USB_Composite/COMPOSITE/Target/usbd_conf.c **** static void PCD_SuspendCallback(PCD_HandleTypeDef *hpcd)
 190:Middlewares/Third_Party/AL94_USB_Composite/COMPOSITE/Target/usbd_conf.c **** #else
 191:Middlewares/Third_Party/AL94_USB_Composite/COMPOSITE/Target/usbd_conf.c **** void HAL_PCD_SuspendCallback(PCD_HandleTypeDef *hpcd)
 192:Middlewares/Third_Party/AL94_USB_Composite/COMPOSITE/Target/usbd_conf.c **** #endif /* USE_HAL_PCD_REGISTER_CALLBACKS */
 193:Middlewares/Third_Party/AL94_USB_Composite/COMPOSITE/Target/usbd_conf.c **** {
 327              		.loc 1 193 1 is_stmt 1 view -0
 328              		.cfi_startproc
 329              		@ args = 0, pretend = 0, frame = 0
 330              		@ frame_needed = 0, uses_anonymous_args = 0
 331              		.loc 1 193 1 is_stmt 0 view .LVU52
 332 0000 10B5     		push	{r4, lr}
 333              	.LCFI7:
 334              		.cfi_def_cfa_offset 8
 335              		.cfi_offset 4, -8
 336              		.cfi_offset 14, -4
ARM GAS  /tmp/ccXVBrPs.s 			page 10


 337 0002 0446     		mov	r4, r0
 194:Middlewares/Third_Party/AL94_USB_Composite/COMPOSITE/Target/usbd_conf.c ****   /* Inform USB library that core enters in suspend Mode. */
 195:Middlewares/Third_Party/AL94_USB_Composite/COMPOSITE/Target/usbd_conf.c ****   USBD_LL_Suspend((USBD_HandleTypeDef *)hpcd->pData);
 338              		.loc 1 195 3 is_stmt 1 view .LVU53
 339 0004 D0F80405 		ldr	r0, [r0, #1284]
 340              	.LVL29:
 341              		.loc 1 195 3 is_stmt 0 view .LVU54
 342 0008 FFF7FEFF 		bl	USBD_LL_Suspend
 343              	.LVL30:
 196:Middlewares/Third_Party/AL94_USB_Composite/COMPOSITE/Target/usbd_conf.c **** #if (!STM32F1_DEVICE)
 197:Middlewares/Third_Party/AL94_USB_Composite/COMPOSITE/Target/usbd_conf.c ****   __HAL_PCD_GATE_PHYCLOCK(hpcd);
 344              		.loc 1 197 3 is_stmt 1 view .LVU55
 345 000c 2268     		ldr	r2, [r4]
 346 000e D2F8003E 		ldr	r3, [r2, #3584]
 347 0012 43F00103 		orr	r3, r3, #1
 348 0016 C2F8003E 		str	r3, [r2, #3584]
 198:Middlewares/Third_Party/AL94_USB_Composite/COMPOSITE/Target/usbd_conf.c ****   /* Enter in STOP mode. */
 199:Middlewares/Third_Party/AL94_USB_Composite/COMPOSITE/Target/usbd_conf.c ****   /* USER CODE BEGIN 2 */
 200:Middlewares/Third_Party/AL94_USB_Composite/COMPOSITE/Target/usbd_conf.c ****   if (hpcd->Init.low_power_enable)
 349              		.loc 1 200 3 view .LVU56
 350              		.loc 1 200 17 is_stmt 0 view .LVU57
 351 001a 236A     		ldr	r3, [r4, #32]
 352              		.loc 1 200 6 view .LVU58
 353 001c 23B1     		cbz	r3, .L21
 201:Middlewares/Third_Party/AL94_USB_Composite/COMPOSITE/Target/usbd_conf.c ****   {
 202:Middlewares/Third_Party/AL94_USB_Composite/COMPOSITE/Target/usbd_conf.c ****     /* Set SLEEPDEEP bit and SleepOnExit of Cortex System Control Register. */
 203:Middlewares/Third_Party/AL94_USB_Composite/COMPOSITE/Target/usbd_conf.c ****     SCB->SCR |= (uint32_t)((uint32_t)(SCB_SCR_SLEEPDEEP_Msk | SCB_SCR_SLEEPONEXIT_Msk));
 354              		.loc 1 203 5 is_stmt 1 view .LVU59
 355              		.loc 1 203 14 is_stmt 0 view .LVU60
 356 001e 034A     		ldr	r2, .L24
 357 0020 1369     		ldr	r3, [r2, #16]
 358 0022 43F00603 		orr	r3, r3, #6
 359 0026 1361     		str	r3, [r2, #16]
 360              	.L21:
 204:Middlewares/Third_Party/AL94_USB_Composite/COMPOSITE/Target/usbd_conf.c ****   }
 205:Middlewares/Third_Party/AL94_USB_Composite/COMPOSITE/Target/usbd_conf.c **** #endif
 206:Middlewares/Third_Party/AL94_USB_Composite/COMPOSITE/Target/usbd_conf.c ****   /* USER CODE END 2 */
 207:Middlewares/Third_Party/AL94_USB_Composite/COMPOSITE/Target/usbd_conf.c **** }
 361              		.loc 1 207 1 view .LVU61
 362 0028 10BD     		pop	{r4, pc}
 363              	.LVL31:
 364              	.L25:
 365              		.loc 1 207 1 view .LVU62
 366 002a 00BF     		.align	2
 367              	.L24:
 368 002c 00ED00E0 		.word	-536810240
 369              		.cfi_endproc
 370              	.LFE154:
 372              		.section	.text.HAL_PCD_ResumeCallback,"ax",%progbits
 373              		.align	1
 374              		.global	HAL_PCD_ResumeCallback
 375              		.syntax unified
 376              		.thumb
 377              		.thumb_func
 379              	HAL_PCD_ResumeCallback:
 380              	.LVL32:
 381              	.LFB155:
ARM GAS  /tmp/ccXVBrPs.s 			page 11


 208:Middlewares/Third_Party/AL94_USB_Composite/COMPOSITE/Target/usbd_conf.c **** 
 209:Middlewares/Third_Party/AL94_USB_Composite/COMPOSITE/Target/usbd_conf.c **** /**
 210:Middlewares/Third_Party/AL94_USB_Composite/COMPOSITE/Target/usbd_conf.c ****   * @brief  Resume callback.
 211:Middlewares/Third_Party/AL94_USB_Composite/COMPOSITE/Target/usbd_conf.c ****   * When Low power mode is enabled the debug cannot be used (IAR, Keil doesn't support it)
 212:Middlewares/Third_Party/AL94_USB_Composite/COMPOSITE/Target/usbd_conf.c ****   * @param  hpcd: PCD handle
 213:Middlewares/Third_Party/AL94_USB_Composite/COMPOSITE/Target/usbd_conf.c ****   * @retval None
 214:Middlewares/Third_Party/AL94_USB_Composite/COMPOSITE/Target/usbd_conf.c ****   */
 215:Middlewares/Third_Party/AL94_USB_Composite/COMPOSITE/Target/usbd_conf.c **** #if (USE_HAL_PCD_REGISTER_CALLBACKS == 1U)
 216:Middlewares/Third_Party/AL94_USB_Composite/COMPOSITE/Target/usbd_conf.c **** static void PCD_ResumeCallback(PCD_HandleTypeDef *hpcd)
 217:Middlewares/Third_Party/AL94_USB_Composite/COMPOSITE/Target/usbd_conf.c **** #else
 218:Middlewares/Third_Party/AL94_USB_Composite/COMPOSITE/Target/usbd_conf.c **** void HAL_PCD_ResumeCallback(PCD_HandleTypeDef *hpcd)
 219:Middlewares/Third_Party/AL94_USB_Composite/COMPOSITE/Target/usbd_conf.c **** #endif /* USE_HAL_PCD_REGISTER_CALLBACKS */
 220:Middlewares/Third_Party/AL94_USB_Composite/COMPOSITE/Target/usbd_conf.c **** {
 382              		.loc 1 220 1 is_stmt 1 view -0
 383              		.cfi_startproc
 384              		@ args = 0, pretend = 0, frame = 0
 385              		@ frame_needed = 0, uses_anonymous_args = 0
 386              		.loc 1 220 1 is_stmt 0 view .LVU64
 387 0000 08B5     		push	{r3, lr}
 388              	.LCFI8:
 389              		.cfi_def_cfa_offset 8
 390              		.cfi_offset 3, -8
 391              		.cfi_offset 14, -4
 221:Middlewares/Third_Party/AL94_USB_Composite/COMPOSITE/Target/usbd_conf.c ****   /* USER CODE BEGIN 3 */
 222:Middlewares/Third_Party/AL94_USB_Composite/COMPOSITE/Target/usbd_conf.c **** 
 223:Middlewares/Third_Party/AL94_USB_Composite/COMPOSITE/Target/usbd_conf.c ****   /* USER CODE END 3 */
 224:Middlewares/Third_Party/AL94_USB_Composite/COMPOSITE/Target/usbd_conf.c ****   USBD_LL_Resume((USBD_HandleTypeDef *)hpcd->pData);
 392              		.loc 1 224 3 is_stmt 1 view .LVU65
 393 0002 D0F80405 		ldr	r0, [r0, #1284]
 394              	.LVL33:
 395              		.loc 1 224 3 is_stmt 0 view .LVU66
 396 0006 FFF7FEFF 		bl	USBD_LL_Resume
 397              	.LVL34:
 225:Middlewares/Third_Party/AL94_USB_Composite/COMPOSITE/Target/usbd_conf.c **** }
 398              		.loc 1 225 1 view .LVU67
 399 000a 08BD     		pop	{r3, pc}
 400              		.cfi_endproc
 401              	.LFE155:
 403              		.section	.text.HAL_PCD_ISOOUTIncompleteCallback,"ax",%progbits
 404              		.align	1
 405              		.global	HAL_PCD_ISOOUTIncompleteCallback
 406              		.syntax unified
 407              		.thumb
 408              		.thumb_func
 410              	HAL_PCD_ISOOUTIncompleteCallback:
 411              	.LVL35:
 412              	.LFB156:
 226:Middlewares/Third_Party/AL94_USB_Composite/COMPOSITE/Target/usbd_conf.c **** 
 227:Middlewares/Third_Party/AL94_USB_Composite/COMPOSITE/Target/usbd_conf.c **** /**
 228:Middlewares/Third_Party/AL94_USB_Composite/COMPOSITE/Target/usbd_conf.c ****   * @brief  ISOOUTIncomplete callback.
 229:Middlewares/Third_Party/AL94_USB_Composite/COMPOSITE/Target/usbd_conf.c ****   * @param  hpcd: PCD handle
 230:Middlewares/Third_Party/AL94_USB_Composite/COMPOSITE/Target/usbd_conf.c ****   * @param  epnum: Endpoint number
 231:Middlewares/Third_Party/AL94_USB_Composite/COMPOSITE/Target/usbd_conf.c ****   * @retval None
 232:Middlewares/Third_Party/AL94_USB_Composite/COMPOSITE/Target/usbd_conf.c ****   */
 233:Middlewares/Third_Party/AL94_USB_Composite/COMPOSITE/Target/usbd_conf.c **** #if (USE_HAL_PCD_REGISTER_CALLBACKS == 1U)
 234:Middlewares/Third_Party/AL94_USB_Composite/COMPOSITE/Target/usbd_conf.c **** static void PCD_ISOOUTIncompleteCallback(PCD_HandleTypeDef *hpcd, uint8_t epnum)
 235:Middlewares/Third_Party/AL94_USB_Composite/COMPOSITE/Target/usbd_conf.c **** #else
ARM GAS  /tmp/ccXVBrPs.s 			page 12


 236:Middlewares/Third_Party/AL94_USB_Composite/COMPOSITE/Target/usbd_conf.c **** void HAL_PCD_ISOOUTIncompleteCallback(PCD_HandleTypeDef *hpcd, uint8_t epnum)
 237:Middlewares/Third_Party/AL94_USB_Composite/COMPOSITE/Target/usbd_conf.c **** #endif /* USE_HAL_PCD_REGISTER_CALLBACKS */
 238:Middlewares/Third_Party/AL94_USB_Composite/COMPOSITE/Target/usbd_conf.c **** {
 413              		.loc 1 238 1 is_stmt 1 view -0
 414              		.cfi_startproc
 415              		@ args = 0, pretend = 0, frame = 0
 416              		@ frame_needed = 0, uses_anonymous_args = 0
 417              		.loc 1 238 1 is_stmt 0 view .LVU69
 418 0000 08B5     		push	{r3, lr}
 419              	.LCFI9:
 420              		.cfi_def_cfa_offset 8
 421              		.cfi_offset 3, -8
 422              		.cfi_offset 14, -4
 239:Middlewares/Third_Party/AL94_USB_Composite/COMPOSITE/Target/usbd_conf.c ****   USBD_LL_IsoOUTIncomplete((USBD_HandleTypeDef *)hpcd->pData, epnum);
 423              		.loc 1 239 3 is_stmt 1 view .LVU70
 424 0002 D0F80405 		ldr	r0, [r0, #1284]
 425              	.LVL36:
 426              		.loc 1 239 3 is_stmt 0 view .LVU71
 427 0006 FFF7FEFF 		bl	USBD_LL_IsoOUTIncomplete
 428              	.LVL37:
 240:Middlewares/Third_Party/AL94_USB_Composite/COMPOSITE/Target/usbd_conf.c **** }
 429              		.loc 1 240 1 view .LVU72
 430 000a 08BD     		pop	{r3, pc}
 431              		.cfi_endproc
 432              	.LFE156:
 434              		.section	.text.HAL_PCD_ISOINIncompleteCallback,"ax",%progbits
 435              		.align	1
 436              		.global	HAL_PCD_ISOINIncompleteCallback
 437              		.syntax unified
 438              		.thumb
 439              		.thumb_func
 441              	HAL_PCD_ISOINIncompleteCallback:
 442              	.LVL38:
 443              	.LFB157:
 241:Middlewares/Third_Party/AL94_USB_Composite/COMPOSITE/Target/usbd_conf.c **** 
 242:Middlewares/Third_Party/AL94_USB_Composite/COMPOSITE/Target/usbd_conf.c **** /**
 243:Middlewares/Third_Party/AL94_USB_Composite/COMPOSITE/Target/usbd_conf.c ****   * @brief  ISOINIncomplete callback.
 244:Middlewares/Third_Party/AL94_USB_Composite/COMPOSITE/Target/usbd_conf.c ****   * @param  hpcd: PCD handle
 245:Middlewares/Third_Party/AL94_USB_Composite/COMPOSITE/Target/usbd_conf.c ****   * @param  epnum: Endpoint number
 246:Middlewares/Third_Party/AL94_USB_Composite/COMPOSITE/Target/usbd_conf.c ****   * @retval None
 247:Middlewares/Third_Party/AL94_USB_Composite/COMPOSITE/Target/usbd_conf.c ****   */
 248:Middlewares/Third_Party/AL94_USB_Composite/COMPOSITE/Target/usbd_conf.c **** #if (USE_HAL_PCD_REGISTER_CALLBACKS == 1U)
 249:Middlewares/Third_Party/AL94_USB_Composite/COMPOSITE/Target/usbd_conf.c **** static void PCD_ISOINIncompleteCallback(PCD_HandleTypeDef *hpcd, uint8_t epnum)
 250:Middlewares/Third_Party/AL94_USB_Composite/COMPOSITE/Target/usbd_conf.c **** #else
 251:Middlewares/Third_Party/AL94_USB_Composite/COMPOSITE/Target/usbd_conf.c **** void HAL_PCD_ISOINIncompleteCallback(PCD_HandleTypeDef *hpcd, uint8_t epnum)
 252:Middlewares/Third_Party/AL94_USB_Composite/COMPOSITE/Target/usbd_conf.c **** #endif /* USE_HAL_PCD_REGISTER_CALLBACKS */
 253:Middlewares/Third_Party/AL94_USB_Composite/COMPOSITE/Target/usbd_conf.c **** {
 444              		.loc 1 253 1 is_stmt 1 view -0
 445              		.cfi_startproc
 446              		@ args = 0, pretend = 0, frame = 0
 447              		@ frame_needed = 0, uses_anonymous_args = 0
 448              		.loc 1 253 1 is_stmt 0 view .LVU74
 449 0000 08B5     		push	{r3, lr}
 450              	.LCFI10:
 451              		.cfi_def_cfa_offset 8
 452              		.cfi_offset 3, -8
 453              		.cfi_offset 14, -4
ARM GAS  /tmp/ccXVBrPs.s 			page 13


 254:Middlewares/Third_Party/AL94_USB_Composite/COMPOSITE/Target/usbd_conf.c ****   USBD_LL_IsoINIncomplete((USBD_HandleTypeDef *)hpcd->pData, epnum);
 454              		.loc 1 254 3 is_stmt 1 view .LVU75
 455 0002 D0F80405 		ldr	r0, [r0, #1284]
 456              	.LVL39:
 457              		.loc 1 254 3 is_stmt 0 view .LVU76
 458 0006 FFF7FEFF 		bl	USBD_LL_IsoINIncomplete
 459              	.LVL40:
 255:Middlewares/Third_Party/AL94_USB_Composite/COMPOSITE/Target/usbd_conf.c **** }
 460              		.loc 1 255 1 view .LVU77
 461 000a 08BD     		pop	{r3, pc}
 462              		.cfi_endproc
 463              	.LFE157:
 465              		.section	.text.HAL_PCD_ConnectCallback,"ax",%progbits
 466              		.align	1
 467              		.global	HAL_PCD_ConnectCallback
 468              		.syntax unified
 469              		.thumb
 470              		.thumb_func
 472              	HAL_PCD_ConnectCallback:
 473              	.LVL41:
 474              	.LFB158:
 256:Middlewares/Third_Party/AL94_USB_Composite/COMPOSITE/Target/usbd_conf.c **** 
 257:Middlewares/Third_Party/AL94_USB_Composite/COMPOSITE/Target/usbd_conf.c **** /**
 258:Middlewares/Third_Party/AL94_USB_Composite/COMPOSITE/Target/usbd_conf.c ****   * @brief  Connect callback.
 259:Middlewares/Third_Party/AL94_USB_Composite/COMPOSITE/Target/usbd_conf.c ****   * @param  hpcd: PCD handle
 260:Middlewares/Third_Party/AL94_USB_Composite/COMPOSITE/Target/usbd_conf.c ****   * @retval None
 261:Middlewares/Third_Party/AL94_USB_Composite/COMPOSITE/Target/usbd_conf.c ****   */
 262:Middlewares/Third_Party/AL94_USB_Composite/COMPOSITE/Target/usbd_conf.c **** #if (USE_HAL_PCD_REGISTER_CALLBACKS == 1U)
 263:Middlewares/Third_Party/AL94_USB_Composite/COMPOSITE/Target/usbd_conf.c **** static void PCD_ConnectCallback(PCD_HandleTypeDef *hpcd)
 264:Middlewares/Third_Party/AL94_USB_Composite/COMPOSITE/Target/usbd_conf.c **** #else
 265:Middlewares/Third_Party/AL94_USB_Composite/COMPOSITE/Target/usbd_conf.c **** void HAL_PCD_ConnectCallback(PCD_HandleTypeDef *hpcd)
 266:Middlewares/Third_Party/AL94_USB_Composite/COMPOSITE/Target/usbd_conf.c **** #endif /* USE_HAL_PCD_REGISTER_CALLBACKS */
 267:Middlewares/Third_Party/AL94_USB_Composite/COMPOSITE/Target/usbd_conf.c **** {
 475              		.loc 1 267 1 is_stmt 1 view -0
 476              		.cfi_startproc
 477              		@ args = 0, pretend = 0, frame = 0
 478              		@ frame_needed = 0, uses_anonymous_args = 0
 479              		.loc 1 267 1 is_stmt 0 view .LVU79
 480 0000 08B5     		push	{r3, lr}
 481              	.LCFI11:
 482              		.cfi_def_cfa_offset 8
 483              		.cfi_offset 3, -8
 484              		.cfi_offset 14, -4
 268:Middlewares/Third_Party/AL94_USB_Composite/COMPOSITE/Target/usbd_conf.c ****   USBD_LL_DevConnected((USBD_HandleTypeDef *)hpcd->pData);
 485              		.loc 1 268 3 is_stmt 1 view .LVU80
 486 0002 D0F80405 		ldr	r0, [r0, #1284]
 487              	.LVL42:
 488              		.loc 1 268 3 is_stmt 0 view .LVU81
 489 0006 FFF7FEFF 		bl	USBD_LL_DevConnected
 490              	.LVL43:
 269:Middlewares/Third_Party/AL94_USB_Composite/COMPOSITE/Target/usbd_conf.c **** }
 491              		.loc 1 269 1 view .LVU82
 492 000a 08BD     		pop	{r3, pc}
 493              		.cfi_endproc
 494              	.LFE158:
 496              		.section	.text.HAL_PCD_DisconnectCallback,"ax",%progbits
 497              		.align	1
ARM GAS  /tmp/ccXVBrPs.s 			page 14


 498              		.global	HAL_PCD_DisconnectCallback
 499              		.syntax unified
 500              		.thumb
 501              		.thumb_func
 503              	HAL_PCD_DisconnectCallback:
 504              	.LVL44:
 505              	.LFB159:
 270:Middlewares/Third_Party/AL94_USB_Composite/COMPOSITE/Target/usbd_conf.c **** 
 271:Middlewares/Third_Party/AL94_USB_Composite/COMPOSITE/Target/usbd_conf.c **** /**
 272:Middlewares/Third_Party/AL94_USB_Composite/COMPOSITE/Target/usbd_conf.c ****   * @brief  Disconnect callback.
 273:Middlewares/Third_Party/AL94_USB_Composite/COMPOSITE/Target/usbd_conf.c ****   * @param  hpcd: PCD handle
 274:Middlewares/Third_Party/AL94_USB_Composite/COMPOSITE/Target/usbd_conf.c ****   * @retval None
 275:Middlewares/Third_Party/AL94_USB_Composite/COMPOSITE/Target/usbd_conf.c ****   */
 276:Middlewares/Third_Party/AL94_USB_Composite/COMPOSITE/Target/usbd_conf.c **** #if (USE_HAL_PCD_REGISTER_CALLBACKS == 1U)
 277:Middlewares/Third_Party/AL94_USB_Composite/COMPOSITE/Target/usbd_conf.c **** static void PCD_DisconnectCallback(PCD_HandleTypeDef *hpcd)
 278:Middlewares/Third_Party/AL94_USB_Composite/COMPOSITE/Target/usbd_conf.c **** #else
 279:Middlewares/Third_Party/AL94_USB_Composite/COMPOSITE/Target/usbd_conf.c **** void HAL_PCD_DisconnectCallback(PCD_HandleTypeDef *hpcd)
 280:Middlewares/Third_Party/AL94_USB_Composite/COMPOSITE/Target/usbd_conf.c **** #endif /* USE_HAL_PCD_REGISTER_CALLBACKS */
 281:Middlewares/Third_Party/AL94_USB_Composite/COMPOSITE/Target/usbd_conf.c **** {
 506              		.loc 1 281 1 is_stmt 1 view -0
 507              		.cfi_startproc
 508              		@ args = 0, pretend = 0, frame = 0
 509              		@ frame_needed = 0, uses_anonymous_args = 0
 510              		.loc 1 281 1 is_stmt 0 view .LVU84
 511 0000 08B5     		push	{r3, lr}
 512              	.LCFI12:
 513              		.cfi_def_cfa_offset 8
 514              		.cfi_offset 3, -8
 515              		.cfi_offset 14, -4
 282:Middlewares/Third_Party/AL94_USB_Composite/COMPOSITE/Target/usbd_conf.c ****   USBD_LL_DevDisconnected((USBD_HandleTypeDef *)hpcd->pData);
 516              		.loc 1 282 3 is_stmt 1 view .LVU85
 517 0002 D0F80405 		ldr	r0, [r0, #1284]
 518              	.LVL45:
 519              		.loc 1 282 3 is_stmt 0 view .LVU86
 520 0006 FFF7FEFF 		bl	USBD_LL_DevDisconnected
 521              	.LVL46:
 283:Middlewares/Third_Party/AL94_USB_Composite/COMPOSITE/Target/usbd_conf.c **** }
 522              		.loc 1 283 1 view .LVU87
 523 000a 08BD     		pop	{r3, pc}
 524              		.cfi_endproc
 525              	.LFE159:
 527              		.section	.text.USBD_LL_Init,"ax",%progbits
 528              		.align	1
 529              		.global	USBD_LL_Init
 530              		.syntax unified
 531              		.thumb
 532              		.thumb_func
 534              	USBD_LL_Init:
 535              	.LVL47:
 536              	.LFB160:
 284:Middlewares/Third_Party/AL94_USB_Composite/COMPOSITE/Target/usbd_conf.c **** 
 285:Middlewares/Third_Party/AL94_USB_Composite/COMPOSITE/Target/usbd_conf.c **** /*******************************************************************************
 286:Middlewares/Third_Party/AL94_USB_Composite/COMPOSITE/Target/usbd_conf.c ****                        LL Driver Interface (USB Device Library --> PCD)
 287:Middlewares/Third_Party/AL94_USB_Composite/COMPOSITE/Target/usbd_conf.c **** *******************************************************************************/
 288:Middlewares/Third_Party/AL94_USB_Composite/COMPOSITE/Target/usbd_conf.c **** 
 289:Middlewares/Third_Party/AL94_USB_Composite/COMPOSITE/Target/usbd_conf.c **** /**
 290:Middlewares/Third_Party/AL94_USB_Composite/COMPOSITE/Target/usbd_conf.c ****   * @brief  Initializes the low level portion of the device driver.
ARM GAS  /tmp/ccXVBrPs.s 			page 15


 291:Middlewares/Third_Party/AL94_USB_Composite/COMPOSITE/Target/usbd_conf.c ****   * @param  pdev: Device handle
 292:Middlewares/Third_Party/AL94_USB_Composite/COMPOSITE/Target/usbd_conf.c ****   * @retval USBD status
 293:Middlewares/Third_Party/AL94_USB_Composite/COMPOSITE/Target/usbd_conf.c ****   */
 294:Middlewares/Third_Party/AL94_USB_Composite/COMPOSITE/Target/usbd_conf.c **** USBD_StatusTypeDef USBD_LL_Init(USBD_HandleTypeDef *pdev)
 295:Middlewares/Third_Party/AL94_USB_Composite/COMPOSITE/Target/usbd_conf.c **** {
 537              		.loc 1 295 1 is_stmt 1 view -0
 538              		.cfi_startproc
 539              		@ args = 0, pretend = 0, frame = 0
 540              		@ frame_needed = 0, uses_anonymous_args = 0
 541              		.loc 1 295 1 is_stmt 0 view .LVU89
 542 0000 38B5     		push	{r3, r4, r5, lr}
 543              	.LCFI13:
 544              		.cfi_def_cfa_offset 16
 545              		.cfi_offset 3, -16
 546              		.cfi_offset 4, -12
 547              		.cfi_offset 5, -8
 548              		.cfi_offset 14, -4
 296:Middlewares/Third_Party/AL94_USB_Composite/COMPOSITE/Target/usbd_conf.c **** #if (USBD_USE_HS == 1)
 297:Middlewares/Third_Party/AL94_USB_Composite/COMPOSITE/Target/usbd_conf.c ****   /** HIGH SPEED USB */
 298:Middlewares/Third_Party/AL94_USB_Composite/COMPOSITE/Target/usbd_conf.c ****   hpcd_USB_OTG_PTR = &hpcd_USB_OTG_HS;
 549              		.loc 1 298 3 is_stmt 1 view .LVU90
 550              		.loc 1 298 20 is_stmt 0 view .LVU91
 551 0002 1B4B     		ldr	r3, .L42
 552 0004 1B4A     		ldr	r2, .L42+4
 553 0006 1A60     		str	r2, [r3]
 299:Middlewares/Third_Party/AL94_USB_Composite/COMPOSITE/Target/usbd_conf.c **** 
 300:Middlewares/Third_Party/AL94_USB_Composite/COMPOSITE/Target/usbd_conf.c ****   if (pdev->id == DEVICE_HS)
 554              		.loc 1 300 3 is_stmt 1 view .LVU92
 555              		.loc 1 300 11 is_stmt 0 view .LVU93
 556 0008 0378     		ldrb	r3, [r0]	@ zero_extendqisi2
 557              		.loc 1 300 6 view .LVU94
 558 000a 012B     		cmp	r3, #1
 559 000c 01D0     		beq	.L41
 560              	.LVL48:
 561              	.L37:
 301:Middlewares/Third_Party/AL94_USB_Composite/COMPOSITE/Target/usbd_conf.c ****   {
 302:Middlewares/Third_Party/AL94_USB_Composite/COMPOSITE/Target/usbd_conf.c ****     /* Link the driver to the stack. */
 303:Middlewares/Third_Party/AL94_USB_Composite/COMPOSITE/Target/usbd_conf.c ****     hpcd_USB_OTG_PTR->pData = pdev;
 304:Middlewares/Third_Party/AL94_USB_Composite/COMPOSITE/Target/usbd_conf.c ****     pdev->pData = hpcd_USB_OTG_PTR;
 305:Middlewares/Third_Party/AL94_USB_Composite/COMPOSITE/Target/usbd_conf.c **** 
 306:Middlewares/Third_Party/AL94_USB_Composite/COMPOSITE/Target/usbd_conf.c ****     /* @see HAL_PCD_Init() usb_otg.c generated by cube **/
 307:Middlewares/Third_Party/AL94_USB_Composite/COMPOSITE/Target/usbd_conf.c **** 
 308:Middlewares/Third_Party/AL94_USB_Composite/COMPOSITE/Target/usbd_conf.c ****     HAL_PCDEx_SetRxFiFoInBytes(hpcd_USB_OTG_PTR, 1024);
 309:Middlewares/Third_Party/AL94_USB_Composite/COMPOSITE/Target/usbd_conf.c **** 
 310:Middlewares/Third_Party/AL94_USB_Composite/COMPOSITE/Target/usbd_conf.c ****     HAL_PCDEx_SetTxFiFoInBytes(hpcd_USB_OTG_PTR, 0, 64); // EP0 IN
 311:Middlewares/Third_Party/AL94_USB_Composite/COMPOSITE/Target/usbd_conf.c **** 
 312:Middlewares/Third_Party/AL94_USB_Composite/COMPOSITE/Target/usbd_conf.c **** #if (USBD_USE_CDC_RNDIS == 1)
 313:Middlewares/Third_Party/AL94_USB_Composite/COMPOSITE/Target/usbd_conf.c ****     HAL_PCDEx_SetTxFiFoInBytes(hpcd_USB_OTG_PTR, (CDC_RNDIS_IN_EP & 0x7F), 128);
 314:Middlewares/Third_Party/AL94_USB_Composite/COMPOSITE/Target/usbd_conf.c ****     HAL_PCDEx_SetTxFiFoInBytes(hpcd_USB_OTG_PTR, (CDC_RNDIS_CMD_EP & 0x7F), 64);
 315:Middlewares/Third_Party/AL94_USB_Composite/COMPOSITE/Target/usbd_conf.c **** #endif
 316:Middlewares/Third_Party/AL94_USB_Composite/COMPOSITE/Target/usbd_conf.c **** #if (USBD_USE_CDC_ECM == 1)
 317:Middlewares/Third_Party/AL94_USB_Composite/COMPOSITE/Target/usbd_conf.c ****     HAL_PCDEx_SetTxFiFoInBytes(hpcd_USB_OTG_PTR, (CDC_ECM_IN_EP & 0x7F), 128);
 318:Middlewares/Third_Party/AL94_USB_Composite/COMPOSITE/Target/usbd_conf.c ****     HAL_PCDEx_SetTxFiFoInBytes(hpcd_USB_OTG_PTR, (CDC_ECM_CMD_EP & 0x7F), 64);
 319:Middlewares/Third_Party/AL94_USB_Composite/COMPOSITE/Target/usbd_conf.c **** #endif
 320:Middlewares/Third_Party/AL94_USB_Composite/COMPOSITE/Target/usbd_conf.c **** #if (USBD_USE_HID_MOUSE == 1)
 321:Middlewares/Third_Party/AL94_USB_Composite/COMPOSITE/Target/usbd_conf.c ****     HAL_PCDEx_SetTxFiFoInBytes(hpcd_USB_OTG_PTR, (HID_MOUSE_IN_EP & 0x7F), 64);
 322:Middlewares/Third_Party/AL94_USB_Composite/COMPOSITE/Target/usbd_conf.c **** #endif
ARM GAS  /tmp/ccXVBrPs.s 			page 16


 323:Middlewares/Third_Party/AL94_USB_Composite/COMPOSITE/Target/usbd_conf.c **** #if (USBD_USE_HID_KEYBOARD == 1)
 324:Middlewares/Third_Party/AL94_USB_Composite/COMPOSITE/Target/usbd_conf.c ****     HAL_PCDEx_SetTxFiFoInBytes(hpcd_USB_OTG_PTR, (HID_KEYBOARD_IN_EP & 0x7F), 64);
 325:Middlewares/Third_Party/AL94_USB_Composite/COMPOSITE/Target/usbd_conf.c **** #endif
 326:Middlewares/Third_Party/AL94_USB_Composite/COMPOSITE/Target/usbd_conf.c **** #if (USBD_USE_HID_CUSTOM == 1)
 327:Middlewares/Third_Party/AL94_USB_Composite/COMPOSITE/Target/usbd_conf.c ****     HAL_PCDEx_SetTxFiFoInBytes(hpcd_USB_OTG_PTR, (CUSTOM_HID_IN_EP & 0x7F), 64);
 328:Middlewares/Third_Party/AL94_USB_Composite/COMPOSITE/Target/usbd_conf.c **** #endif
 329:Middlewares/Third_Party/AL94_USB_Composite/COMPOSITE/Target/usbd_conf.c **** #if (USBD_USE_UAC_MIC == 1)
 330:Middlewares/Third_Party/AL94_USB_Composite/COMPOSITE/Target/usbd_conf.c ****     HAL_PCDEx_SetTxFiFoInBytes(hpcd_USB_OTG_PTR, (AUDIO_MIC_EP & 0x7F), 128);
 331:Middlewares/Third_Party/AL94_USB_Composite/COMPOSITE/Target/usbd_conf.c **** #endif
 332:Middlewares/Third_Party/AL94_USB_Composite/COMPOSITE/Target/usbd_conf.c **** #if (USBD_USE_UAC_SPKR == 1)
 333:Middlewares/Third_Party/AL94_USB_Composite/COMPOSITE/Target/usbd_conf.c **** #endif
 334:Middlewares/Third_Party/AL94_USB_Composite/COMPOSITE/Target/usbd_conf.c **** #if (USBD_USE_UVC == 1)
 335:Middlewares/Third_Party/AL94_USB_Composite/COMPOSITE/Target/usbd_conf.c ****     HAL_PCDEx_SetTxFiFoInBytes(hpcd_USB_OTG_PTR, (UVC_IN_EP & 0x7F), 128);
 336:Middlewares/Third_Party/AL94_USB_Composite/COMPOSITE/Target/usbd_conf.c **** #endif
 337:Middlewares/Third_Party/AL94_USB_Composite/COMPOSITE/Target/usbd_conf.c **** #if (USBD_USE_MSC == 1)
 338:Middlewares/Third_Party/AL94_USB_Composite/COMPOSITE/Target/usbd_conf.c ****     HAL_PCDEx_SetTxFiFoInBytes(hpcd_USB_OTG_PTR, (MSC_IN_EP & 0x7F), 128);
 339:Middlewares/Third_Party/AL94_USB_Composite/COMPOSITE/Target/usbd_conf.c **** #endif
 340:Middlewares/Third_Party/AL94_USB_Composite/COMPOSITE/Target/usbd_conf.c **** #if (USBD_USE_DFU == 1)
 341:Middlewares/Third_Party/AL94_USB_Composite/COMPOSITE/Target/usbd_conf.c **** #endif
 342:Middlewares/Third_Party/AL94_USB_Composite/COMPOSITE/Target/usbd_conf.c **** #if (USBD_USE_PRNTR == 1)
 343:Middlewares/Third_Party/AL94_USB_Composite/COMPOSITE/Target/usbd_conf.c ****     HAL_PCDEx_SetTxFiFoInBytes(hpcd_USB_OTG_PTR, (PRNT_IN_EP & 0x7F), 128);
 344:Middlewares/Third_Party/AL94_USB_Composite/COMPOSITE/Target/usbd_conf.c **** #endif
 345:Middlewares/Third_Party/AL94_USB_Composite/COMPOSITE/Target/usbd_conf.c **** #if (USBD_USE_CDC_ACM == 1)
 346:Middlewares/Third_Party/AL94_USB_Composite/COMPOSITE/Target/usbd_conf.c ****     for (uint8_t i = 0; i < USBD_CDC_ACM_COUNT; i++)
 347:Middlewares/Third_Party/AL94_USB_Composite/COMPOSITE/Target/usbd_conf.c ****     {
 348:Middlewares/Third_Party/AL94_USB_Composite/COMPOSITE/Target/usbd_conf.c ****       HAL_PCDEx_SetTxFiFoInBytes(hpcd_USB_OTG_PTR, (CDC_IN_EP[i] & 0x7F), 128);
 349:Middlewares/Third_Party/AL94_USB_Composite/COMPOSITE/Target/usbd_conf.c ****       HAL_PCDEx_SetTxFiFoInBytes(hpcd_USB_OTG_PTR, (CDC_CMD_EP[i] & 0x7F), 64);
 350:Middlewares/Third_Party/AL94_USB_Composite/COMPOSITE/Target/usbd_conf.c ****     }
 351:Middlewares/Third_Party/AL94_USB_Composite/COMPOSITE/Target/usbd_conf.c **** #endif
 352:Middlewares/Third_Party/AL94_USB_Composite/COMPOSITE/Target/usbd_conf.c ****   }
 353:Middlewares/Third_Party/AL94_USB_Composite/COMPOSITE/Target/usbd_conf.c **** #else
 354:Middlewares/Third_Party/AL94_USB_Composite/COMPOSITE/Target/usbd_conf.c ****   /**FULL SPEED USB */
 355:Middlewares/Third_Party/AL94_USB_Composite/COMPOSITE/Target/usbd_conf.c **** #if (STM32F1_DEVICE) /** for STM32F1 or similar */
 356:Middlewares/Third_Party/AL94_USB_Composite/COMPOSITE/Target/usbd_conf.c ****   hpcd_USB_OTG_PTR = &hpcd_USB_FS;  /** hpcd_USB_FS or hpcd_USB_OTG_FS*/
 357:Middlewares/Third_Party/AL94_USB_Composite/COMPOSITE/Target/usbd_conf.c **** #else
 358:Middlewares/Third_Party/AL94_USB_Composite/COMPOSITE/Target/usbd_conf.c ****   hpcd_USB_OTG_PTR = &hpcd_USB_OTG_FS;  /** hpcd_USB_FS or hpcd_USB_OTG_FS*/
 359:Middlewares/Third_Party/AL94_USB_Composite/COMPOSITE/Target/usbd_conf.c **** #endif
 360:Middlewares/Third_Party/AL94_USB_Composite/COMPOSITE/Target/usbd_conf.c **** 
 361:Middlewares/Third_Party/AL94_USB_Composite/COMPOSITE/Target/usbd_conf.c ****   if (pdev->id == DEVICE_FS)
 362:Middlewares/Third_Party/AL94_USB_Composite/COMPOSITE/Target/usbd_conf.c ****   {
 363:Middlewares/Third_Party/AL94_USB_Composite/COMPOSITE/Target/usbd_conf.c ****     /* Link the driver to the stack. */
 364:Middlewares/Third_Party/AL94_USB_Composite/COMPOSITE/Target/usbd_conf.c ****     hpcd_USB_OTG_PTR->pData = pdev;
 365:Middlewares/Third_Party/AL94_USB_Composite/COMPOSITE/Target/usbd_conf.c ****     pdev->pData = hpcd_USB_OTG_PTR;
 366:Middlewares/Third_Party/AL94_USB_Composite/COMPOSITE/Target/usbd_conf.c **** 
 367:Middlewares/Third_Party/AL94_USB_Composite/COMPOSITE/Target/usbd_conf.c ****     /* @see HAL_PCD_Init() usb_otg.c generated by cube **/
 368:Middlewares/Third_Party/AL94_USB_Composite/COMPOSITE/Target/usbd_conf.c **** 
 369:Middlewares/Third_Party/AL94_USB_Composite/COMPOSITE/Target/usbd_conf.c **** #if (STM32F1_DEVICE)
 370:Middlewares/Third_Party/AL94_USB_Composite/COMPOSITE/Target/usbd_conf.c ****     /** Device is F1 or similar or if HAL_PCDEx_PMAConfig() is used by HAL driver */
 371:Middlewares/Third_Party/AL94_USB_Composite/COMPOSITE/Target/usbd_conf.c ****     uint16_t pma_track = 0x40; /** PMA offset*/
 372:Middlewares/Third_Party/AL94_USB_Composite/COMPOSITE/Target/usbd_conf.c **** 
 373:Middlewares/Third_Party/AL94_USB_Composite/COMPOSITE/Target/usbd_conf.c ****     HAL_PCDEx_PMAConfig((PCD_HandleTypeDef *)pdev->pData, 0x00, PCD_SNG_BUF, pma_track);
 374:Middlewares/Third_Party/AL94_USB_Composite/COMPOSITE/Target/usbd_conf.c ****     pma_track += 0x40;
 375:Middlewares/Third_Party/AL94_USB_Composite/COMPOSITE/Target/usbd_conf.c **** 
 376:Middlewares/Third_Party/AL94_USB_Composite/COMPOSITE/Target/usbd_conf.c ****     HAL_PCDEx_PMAConfig((PCD_HandleTypeDef *)pdev->pData, 0x80, PCD_SNG_BUF, pma_track);
 377:Middlewares/Third_Party/AL94_USB_Composite/COMPOSITE/Target/usbd_conf.c ****     pma_track += 0x40;
 378:Middlewares/Third_Party/AL94_USB_Composite/COMPOSITE/Target/usbd_conf.c **** 
 379:Middlewares/Third_Party/AL94_USB_Composite/COMPOSITE/Target/usbd_conf.c **** #if (USBD_USE_CDC_RNDIS == 1)
ARM GAS  /tmp/ccXVBrPs.s 			page 17


 380:Middlewares/Third_Party/AL94_USB_Composite/COMPOSITE/Target/usbd_conf.c ****     HAL_PCDEx_PMAConfig((PCD_HandleTypeDef *)pdev->pData, CDC_RNDIS_IN_EP, PCD_SNG_BUF, pma_track);
 381:Middlewares/Third_Party/AL94_USB_Composite/COMPOSITE/Target/usbd_conf.c ****     pma_track += 128;
 382:Middlewares/Third_Party/AL94_USB_Composite/COMPOSITE/Target/usbd_conf.c ****     HAL_PCDEx_PMAConfig((PCD_HandleTypeDef *)pdev->pData, CDC_RNDIS_OUT_EP, PCD_SNG_BUF, pma_track)
 383:Middlewares/Third_Party/AL94_USB_Composite/COMPOSITE/Target/usbd_conf.c ****     pma_track += 128;
 384:Middlewares/Third_Party/AL94_USB_Composite/COMPOSITE/Target/usbd_conf.c ****     HAL_PCDEx_PMAConfig((PCD_HandleTypeDef *)pdev->pData, CDC_RNDIS_CMD_EP, PCD_SNG_BUF, pma_track)
 385:Middlewares/Third_Party/AL94_USB_Composite/COMPOSITE/Target/usbd_conf.c ****     pma_track += 8;
 386:Middlewares/Third_Party/AL94_USB_Composite/COMPOSITE/Target/usbd_conf.c **** #endif
 387:Middlewares/Third_Party/AL94_USB_Composite/COMPOSITE/Target/usbd_conf.c **** #if (USBD_USE_CDC_ECM == 1)
 388:Middlewares/Third_Party/AL94_USB_Composite/COMPOSITE/Target/usbd_conf.c ****     HAL_PCDEx_PMAConfig((PCD_HandleTypeDef *)pdev->pData, CDC_ECM_IN_EP, PCD_SNG_BUF, pma_track);
 389:Middlewares/Third_Party/AL94_USB_Composite/COMPOSITE/Target/usbd_conf.c ****     pma_track += 48;
 390:Middlewares/Third_Party/AL94_USB_Composite/COMPOSITE/Target/usbd_conf.c ****     HAL_PCDEx_PMAConfig((PCD_HandleTypeDef *)pdev->pData, CDC_ECM_OUT_EP, PCD_SNG_BUF, pma_track);
 391:Middlewares/Third_Party/AL94_USB_Composite/COMPOSITE/Target/usbd_conf.c ****     pma_track += 48;
 392:Middlewares/Third_Party/AL94_USB_Composite/COMPOSITE/Target/usbd_conf.c ****     HAL_PCDEx_PMAConfig((PCD_HandleTypeDef *)pdev->pData, CDC_ECM_CMD_EP, PCD_SNG_BUF, pma_track);
 393:Middlewares/Third_Party/AL94_USB_Composite/COMPOSITE/Target/usbd_conf.c ****     pma_track += 8;
 394:Middlewares/Third_Party/AL94_USB_Composite/COMPOSITE/Target/usbd_conf.c **** #endif
 395:Middlewares/Third_Party/AL94_USB_Composite/COMPOSITE/Target/usbd_conf.c **** #if (USBD_USE_HID_MOUSE == 1)
 396:Middlewares/Third_Party/AL94_USB_Composite/COMPOSITE/Target/usbd_conf.c ****     HAL_PCDEx_PMAConfig((PCD_HandleTypeDef *)pdev->pData, HID_MOUSE_IN_EP, PCD_SNG_BUF, pma_track);
 397:Middlewares/Third_Party/AL94_USB_Composite/COMPOSITE/Target/usbd_conf.c ****     pma_track += 8;
 398:Middlewares/Third_Party/AL94_USB_Composite/COMPOSITE/Target/usbd_conf.c **** #endif
 399:Middlewares/Third_Party/AL94_USB_Composite/COMPOSITE/Target/usbd_conf.c **** #if (USBD_USE_HID_KEYBOARD == 1)
 400:Middlewares/Third_Party/AL94_USB_Composite/COMPOSITE/Target/usbd_conf.c ****     HAL_PCDEx_PMAConfig((PCD_HandleTypeDef *)pdev->pData, HID_KEYBOARD_IN_EP, PCD_SNG_BUF, pma_trac
 401:Middlewares/Third_Party/AL94_USB_Composite/COMPOSITE/Target/usbd_conf.c ****     pma_track += 8;
 402:Middlewares/Third_Party/AL94_USB_Composite/COMPOSITE/Target/usbd_conf.c **** #endif
 403:Middlewares/Third_Party/AL94_USB_Composite/COMPOSITE/Target/usbd_conf.c **** #if (USBD_USE_HID_CUSTOM == 1)
 404:Middlewares/Third_Party/AL94_USB_Composite/COMPOSITE/Target/usbd_conf.c ****     HAL_PCDEx_PMAConfig((PCD_HandleTypeDef *)pdev->pData, CUSTOM_HID_IN_EP, PCD_SNG_BUF, pma_track)
 405:Middlewares/Third_Party/AL94_USB_Composite/COMPOSITE/Target/usbd_conf.c ****     pma_track += 8;
 406:Middlewares/Third_Party/AL94_USB_Composite/COMPOSITE/Target/usbd_conf.c ****     HAL_PCDEx_PMAConfig((PCD_HandleTypeDef *)pdev->pData, CUSTOM_HID_OUT_EP, PCD_SNG_BUF, pma_track
 407:Middlewares/Third_Party/AL94_USB_Composite/COMPOSITE/Target/usbd_conf.c ****     pma_track += 8;
 408:Middlewares/Third_Party/AL94_USB_Composite/COMPOSITE/Target/usbd_conf.c **** #endif
 409:Middlewares/Third_Party/AL94_USB_Composite/COMPOSITE/Target/usbd_conf.c **** #if (USBD_USE_UAC_MIC == 1)
 410:Middlewares/Third_Party/AL94_USB_Composite/COMPOSITE/Target/usbd_conf.c ****     HAL_PCDEx_PMAConfig((PCD_HandleTypeDef *)pdev->pData, AUDIO_MIC_EP, PCD_SNG_BUF, pma_track);
 411:Middlewares/Third_Party/AL94_USB_Composite/COMPOSITE/Target/usbd_conf.c ****     pma_track += 128;
 412:Middlewares/Third_Party/AL94_USB_Composite/COMPOSITE/Target/usbd_conf.c **** #endif
 413:Middlewares/Third_Party/AL94_USB_Composite/COMPOSITE/Target/usbd_conf.c **** #if (USBD_USE_UAC_SPKR == 1)
 414:Middlewares/Third_Party/AL94_USB_Composite/COMPOSITE/Target/usbd_conf.c ****     HAL_PCDEx_PMAConfig((PCD_HandleTypeDef *)pdev->pData, AUDIO_SPKR_EP, PCD_SNG_BUF, pma_track);
 415:Middlewares/Third_Party/AL94_USB_Composite/COMPOSITE/Target/usbd_conf.c ****     pma_track += 128;
 416:Middlewares/Third_Party/AL94_USB_Composite/COMPOSITE/Target/usbd_conf.c **** #endif
 417:Middlewares/Third_Party/AL94_USB_Composite/COMPOSITE/Target/usbd_conf.c **** #if (USBD_USE_UVC == 1)
 418:Middlewares/Third_Party/AL94_USB_Composite/COMPOSITE/Target/usbd_conf.c ****     HAL_PCDEx_PMAConfig((PCD_HandleTypeDef *)pdev->pData, UVC_IN_EP, PCD_SNG_BUF, pma_track);
 419:Middlewares/Third_Party/AL94_USB_Composite/COMPOSITE/Target/usbd_conf.c ****     pma_track += 128;
 420:Middlewares/Third_Party/AL94_USB_Composite/COMPOSITE/Target/usbd_conf.c **** #endif
 421:Middlewares/Third_Party/AL94_USB_Composite/COMPOSITE/Target/usbd_conf.c **** #if (USBD_USE_MSC == 1)
 422:Middlewares/Third_Party/AL94_USB_Composite/COMPOSITE/Target/usbd_conf.c ****     HAL_PCDEx_PMAConfig((PCD_HandleTypeDef *)pdev->pData, MSC_IN_EP, PCD_SNG_BUF, pma_track);
 423:Middlewares/Third_Party/AL94_USB_Composite/COMPOSITE/Target/usbd_conf.c ****     pma_track += 128;
 424:Middlewares/Third_Party/AL94_USB_Composite/COMPOSITE/Target/usbd_conf.c ****     HAL_PCDEx_PMAConfig((PCD_HandleTypeDef *)pdev->pData, MSC_OUT_EP, PCD_SNG_BUF, pma_track);
 425:Middlewares/Third_Party/AL94_USB_Composite/COMPOSITE/Target/usbd_conf.c ****     pma_track += 128;
 426:Middlewares/Third_Party/AL94_USB_Composite/COMPOSITE/Target/usbd_conf.c **** #endif
 427:Middlewares/Third_Party/AL94_USB_Composite/COMPOSITE/Target/usbd_conf.c **** #if (USBD_USE_DFU == 1)
 428:Middlewares/Third_Party/AL94_USB_Composite/COMPOSITE/Target/usbd_conf.c **** #endif
 429:Middlewares/Third_Party/AL94_USB_Composite/COMPOSITE/Target/usbd_conf.c **** #if (USBD_USE_PRNTR == 1)
 430:Middlewares/Third_Party/AL94_USB_Composite/COMPOSITE/Target/usbd_conf.c ****     HAL_PCDEx_PMAConfig((PCD_HandleTypeDef *)pdev->pData, PRNT_IN_EP, PCD_SNG_BUF, pma_track);
 431:Middlewares/Third_Party/AL94_USB_Composite/COMPOSITE/Target/usbd_conf.c ****     pma_track += 128;
 432:Middlewares/Third_Party/AL94_USB_Composite/COMPOSITE/Target/usbd_conf.c ****     HAL_PCDEx_PMAConfig((PCD_HandleTypeDef *)pdev->pData, PRNT_OUT_EP, PCD_SNG_BUF, pma_track);
 433:Middlewares/Third_Party/AL94_USB_Composite/COMPOSITE/Target/usbd_conf.c ****     pma_track += 128;
 434:Middlewares/Third_Party/AL94_USB_Composite/COMPOSITE/Target/usbd_conf.c **** #endif
 435:Middlewares/Third_Party/AL94_USB_Composite/COMPOSITE/Target/usbd_conf.c **** #if (USBD_USE_CDC_ACM == 1)
 436:Middlewares/Third_Party/AL94_USB_Composite/COMPOSITE/Target/usbd_conf.c ****     for (uint8_t i = 0; i < USBD_CDC_ACM_COUNT; i++)
ARM GAS  /tmp/ccXVBrPs.s 			page 18


 437:Middlewares/Third_Party/AL94_USB_Composite/COMPOSITE/Target/usbd_conf.c ****     {
 438:Middlewares/Third_Party/AL94_USB_Composite/COMPOSITE/Target/usbd_conf.c ****       HAL_PCDEx_PMAConfig((PCD_HandleTypeDef *)pdev->pData, CDC_IN_EP[i], PCD_SNG_BUF, pma_track);
 439:Middlewares/Third_Party/AL94_USB_Composite/COMPOSITE/Target/usbd_conf.c ****       pma_track += 48;
 440:Middlewares/Third_Party/AL94_USB_Composite/COMPOSITE/Target/usbd_conf.c **** 
 441:Middlewares/Third_Party/AL94_USB_Composite/COMPOSITE/Target/usbd_conf.c ****       HAL_PCDEx_PMAConfig((PCD_HandleTypeDef *)pdev->pData, CDC_OUT_EP[i], PCD_SNG_BUF, pma_track);
 442:Middlewares/Third_Party/AL94_USB_Composite/COMPOSITE/Target/usbd_conf.c ****       pma_track += 48;
 443:Middlewares/Third_Party/AL94_USB_Composite/COMPOSITE/Target/usbd_conf.c **** 
 444:Middlewares/Third_Party/AL94_USB_Composite/COMPOSITE/Target/usbd_conf.c ****       HAL_PCDEx_PMAConfig((PCD_HandleTypeDef *)pdev->pData, CDC_CMD_EP[i], PCD_SNG_BUF, pma_track);
 445:Middlewares/Third_Party/AL94_USB_Composite/COMPOSITE/Target/usbd_conf.c ****       pma_track += 8;
 446:Middlewares/Third_Party/AL94_USB_Composite/COMPOSITE/Target/usbd_conf.c ****     }
 447:Middlewares/Third_Party/AL94_USB_Composite/COMPOSITE/Target/usbd_conf.c **** #endif
 448:Middlewares/Third_Party/AL94_USB_Composite/COMPOSITE/Target/usbd_conf.c **** #else /** if HAL_PCDEx_SetRxFiFo() is used by HAL driver */
 449:Middlewares/Third_Party/AL94_USB_Composite/COMPOSITE/Target/usbd_conf.c **** 
 450:Middlewares/Third_Party/AL94_USB_Composite/COMPOSITE/Target/usbd_conf.c ****     HAL_PCDEx_SetRxFiFoInBytes(hpcd_USB_OTG_PTR, 512); // ALL OUT EP Buffer
 451:Middlewares/Third_Party/AL94_USB_Composite/COMPOSITE/Target/usbd_conf.c **** 
 452:Middlewares/Third_Party/AL94_USB_Composite/COMPOSITE/Target/usbd_conf.c ****     HAL_PCDEx_SetTxFiFoInBytes(hpcd_USB_OTG_PTR, 0, 64); // EP0 IN
 453:Middlewares/Third_Party/AL94_USB_Composite/COMPOSITE/Target/usbd_conf.c **** 
 454:Middlewares/Third_Party/AL94_USB_Composite/COMPOSITE/Target/usbd_conf.c **** #if (USBD_USE_CDC_RNDIS == 1)
 455:Middlewares/Third_Party/AL94_USB_Composite/COMPOSITE/Target/usbd_conf.c ****     HAL_PCDEx_SetTxFiFoInBytes(hpcd_USB_OTG_PTR, (CDC_RNDIS_IN_EP & 0x7F), 128);
 456:Middlewares/Third_Party/AL94_USB_Composite/COMPOSITE/Target/usbd_conf.c ****     HAL_PCDEx_SetTxFiFoInBytes(hpcd_USB_OTG_PTR, (CDC_RNDIS_CMD_EP & 0x7F), 64);
 457:Middlewares/Third_Party/AL94_USB_Composite/COMPOSITE/Target/usbd_conf.c **** #endif
 458:Middlewares/Third_Party/AL94_USB_Composite/COMPOSITE/Target/usbd_conf.c **** 
 459:Middlewares/Third_Party/AL94_USB_Composite/COMPOSITE/Target/usbd_conf.c **** #if (USBD_USE_CDC_ECM == 1)
 460:Middlewares/Third_Party/AL94_USB_Composite/COMPOSITE/Target/usbd_conf.c ****     HAL_PCDEx_SetTxFiFoInBytes(hpcd_USB_OTG_PTR, (CDC_ECM_IN_EP & 0x7F), 128);
 461:Middlewares/Third_Party/AL94_USB_Composite/COMPOSITE/Target/usbd_conf.c ****     HAL_PCDEx_SetTxFiFoInBytes(hpcd_USB_OTG_PTR, (CDC_ECM_CMD_EP & 0x7F), 64);
 462:Middlewares/Third_Party/AL94_USB_Composite/COMPOSITE/Target/usbd_conf.c **** #endif
 463:Middlewares/Third_Party/AL94_USB_Composite/COMPOSITE/Target/usbd_conf.c **** #if (USBD_USE_HID_MOUSE == 1)
 464:Middlewares/Third_Party/AL94_USB_Composite/COMPOSITE/Target/usbd_conf.c ****     HAL_PCDEx_SetTxFiFoInBytes(hpcd_USB_OTG_PTR, (HID_MOUSE_IN_EP & 0x7F), 64);
 465:Middlewares/Third_Party/AL94_USB_Composite/COMPOSITE/Target/usbd_conf.c **** #endif
 466:Middlewares/Third_Party/AL94_USB_Composite/COMPOSITE/Target/usbd_conf.c **** #if (USBD_USE_HID_KEYBOARD == 1)
 467:Middlewares/Third_Party/AL94_USB_Composite/COMPOSITE/Target/usbd_conf.c ****     HAL_PCDEx_SetTxFiFoInBytes(hpcd_USB_OTG_PTR, (HID_KEYBOARD_IN_EP & 0x7F), 64);
 468:Middlewares/Third_Party/AL94_USB_Composite/COMPOSITE/Target/usbd_conf.c **** #endif
 469:Middlewares/Third_Party/AL94_USB_Composite/COMPOSITE/Target/usbd_conf.c **** #if (USBD_USE_HID_CUSTOM == 1)
 470:Middlewares/Third_Party/AL94_USB_Composite/COMPOSITE/Target/usbd_conf.c ****     HAL_PCDEx_SetTxFiFoInBytes(hpcd_USB_OTG_PTR, (CUSTOM_HID_IN_EP & 0x7F), 64);
 471:Middlewares/Third_Party/AL94_USB_Composite/COMPOSITE/Target/usbd_conf.c **** #endif
 472:Middlewares/Third_Party/AL94_USB_Composite/COMPOSITE/Target/usbd_conf.c **** #if (USBD_USE_UAC_MIC == 1)
 473:Middlewares/Third_Party/AL94_USB_Composite/COMPOSITE/Target/usbd_conf.c ****     HAL_PCDEx_SetTxFiFoInBytes(hpcd_USB_OTG_PTR, (AUDIO_MIC_EP & 0x7F), 128);
 474:Middlewares/Third_Party/AL94_USB_Composite/COMPOSITE/Target/usbd_conf.c **** #endif
 475:Middlewares/Third_Party/AL94_USB_Composite/COMPOSITE/Target/usbd_conf.c **** #if (USBD_USE_UAC_SPKR == 1)
 476:Middlewares/Third_Party/AL94_USB_Composite/COMPOSITE/Target/usbd_conf.c **** #endif
 477:Middlewares/Third_Party/AL94_USB_Composite/COMPOSITE/Target/usbd_conf.c **** #if (USBD_USE_UVC == 1)
 478:Middlewares/Third_Party/AL94_USB_Composite/COMPOSITE/Target/usbd_conf.c ****     HAL_PCDEx_SetTxFiFoInBytes(hpcd_USB_OTG_PTR, (UVC_IN_EP & 0x7F), 128);
 479:Middlewares/Third_Party/AL94_USB_Composite/COMPOSITE/Target/usbd_conf.c **** #endif
 480:Middlewares/Third_Party/AL94_USB_Composite/COMPOSITE/Target/usbd_conf.c **** #if (USBD_USE_MSC == 1)
 481:Middlewares/Third_Party/AL94_USB_Composite/COMPOSITE/Target/usbd_conf.c ****     HAL_PCDEx_SetTxFiFoInBytes(hpcd_USB_OTG_PTR, (MSC_IN_EP & 0x7F), 128);
 482:Middlewares/Third_Party/AL94_USB_Composite/COMPOSITE/Target/usbd_conf.c **** #endif
 483:Middlewares/Third_Party/AL94_USB_Composite/COMPOSITE/Target/usbd_conf.c **** #if (USBD_USE_DFU == 1)
 484:Middlewares/Third_Party/AL94_USB_Composite/COMPOSITE/Target/usbd_conf.c **** #endif
 485:Middlewares/Third_Party/AL94_USB_Composite/COMPOSITE/Target/usbd_conf.c **** #if (USBD_USE_PRNTR == 1)
 486:Middlewares/Third_Party/AL94_USB_Composite/COMPOSITE/Target/usbd_conf.c ****     HAL_PCDEx_SetTxFiFoInBytes(hpcd_USB_OTG_PTR, (PRNT_IN_EP & 0x7F), 128);
 487:Middlewares/Third_Party/AL94_USB_Composite/COMPOSITE/Target/usbd_conf.c **** #endif
 488:Middlewares/Third_Party/AL94_USB_Composite/COMPOSITE/Target/usbd_conf.c **** #if (USBD_USE_CDC_ACM == 1)
 489:Middlewares/Third_Party/AL94_USB_Composite/COMPOSITE/Target/usbd_conf.c ****     for (uint8_t i = 0; i < USBD_CDC_ACM_COUNT; i++)
 490:Middlewares/Third_Party/AL94_USB_Composite/COMPOSITE/Target/usbd_conf.c ****     {
 491:Middlewares/Third_Party/AL94_USB_Composite/COMPOSITE/Target/usbd_conf.c ****       HAL_PCDEx_SetTxFiFoInBytes(hpcd_USB_OTG_PTR, (CDC_IN_EP[i] & 0x7F), 128);
 492:Middlewares/Third_Party/AL94_USB_Composite/COMPOSITE/Target/usbd_conf.c ****       HAL_PCDEx_SetTxFiFoInBytes(hpcd_USB_OTG_PTR, (CDC_CMD_EP[i] & 0x7F), 64);
 493:Middlewares/Third_Party/AL94_USB_Composite/COMPOSITE/Target/usbd_conf.c ****     }
ARM GAS  /tmp/ccXVBrPs.s 			page 19


 494:Middlewares/Third_Party/AL94_USB_Composite/COMPOSITE/Target/usbd_conf.c **** #endif
 495:Middlewares/Third_Party/AL94_USB_Composite/COMPOSITE/Target/usbd_conf.c **** #endif
 496:Middlewares/Third_Party/AL94_USB_Composite/COMPOSITE/Target/usbd_conf.c ****   }
 497:Middlewares/Third_Party/AL94_USB_Composite/COMPOSITE/Target/usbd_conf.c **** #endif
 498:Middlewares/Third_Party/AL94_USB_Composite/COMPOSITE/Target/usbd_conf.c **** 
 499:Middlewares/Third_Party/AL94_USB_Composite/COMPOSITE/Target/usbd_conf.c **** #if (USE_HAL_PCD_REGISTER_CALLBACKS == 1U)
 500:Middlewares/Third_Party/AL94_USB_Composite/COMPOSITE/Target/usbd_conf.c ****   /* Register USB PCD CallBacks */
 501:Middlewares/Third_Party/AL94_USB_Composite/COMPOSITE/Target/usbd_conf.c ****   HAL_PCD_RegisterCallback(hpcd_USB_OTG_PTR, HAL_PCD_SOF_CB_ID, PCD_SOFCallback);
 502:Middlewares/Third_Party/AL94_USB_Composite/COMPOSITE/Target/usbd_conf.c ****   HAL_PCD_RegisterCallback(hpcd_USB_OTG_PTR, HAL_PCD_SETUPSTAGE_CB_ID, PCD_SetupStageCallback);
 503:Middlewares/Third_Party/AL94_USB_Composite/COMPOSITE/Target/usbd_conf.c ****   HAL_PCD_RegisterCallback(hpcd_USB_OTG_PTR, HAL_PCD_RESET_CB_ID, PCD_ResetCallback);
 504:Middlewares/Third_Party/AL94_USB_Composite/COMPOSITE/Target/usbd_conf.c ****   HAL_PCD_RegisterCallback(hpcd_USB_OTG_PTR, HAL_PCD_SUSPEND_CB_ID, PCD_SuspendCallback);
 505:Middlewares/Third_Party/AL94_USB_Composite/COMPOSITE/Target/usbd_conf.c ****   HAL_PCD_RegisterCallback(hpcd_USB_OTG_PTR, HAL_PCD_RESUME_CB_ID, PCD_ResumeCallback);
 506:Middlewares/Third_Party/AL94_USB_Composite/COMPOSITE/Target/usbd_conf.c ****   HAL_PCD_RegisterCallback(hpcd_USB_OTG_PTR, HAL_PCD_CONNECT_CB_ID, PCD_ConnectCallback);
 507:Middlewares/Third_Party/AL94_USB_Composite/COMPOSITE/Target/usbd_conf.c ****   HAL_PCD_RegisterCallback(hpcd_USB_OTG_PTR, HAL_PCD_DISCONNECT_CB_ID, PCD_DisconnectCallback);
 508:Middlewares/Third_Party/AL94_USB_Composite/COMPOSITE/Target/usbd_conf.c **** 
 509:Middlewares/Third_Party/AL94_USB_Composite/COMPOSITE/Target/usbd_conf.c ****   HAL_PCD_RegisterDataOutStageCallback(hpcd_USB_OTG_PTR, PCD_DataOutStageCallback);
 510:Middlewares/Third_Party/AL94_USB_Composite/COMPOSITE/Target/usbd_conf.c ****   HAL_PCD_RegisterDataInStageCallback(hpcd_USB_OTG_PTR, PCD_DataInStageCallback);
 511:Middlewares/Third_Party/AL94_USB_Composite/COMPOSITE/Target/usbd_conf.c ****   HAL_PCD_RegisterIsoOutIncpltCallback(hpcd_USB_OTG_PTR, PCD_ISOOUTIncompleteCallback);
 512:Middlewares/Third_Party/AL94_USB_Composite/COMPOSITE/Target/usbd_conf.c ****   HAL_PCD_RegisterIsoInIncpltCallback(hpcd_USB_OTG_PTR, PCD_ISOINIncompleteCallback);
 513:Middlewares/Third_Party/AL94_USB_Composite/COMPOSITE/Target/usbd_conf.c **** #endif /* USE_HAL_PCD_REGISTER_CALLBACKS */
 514:Middlewares/Third_Party/AL94_USB_Composite/COMPOSITE/Target/usbd_conf.c ****   return USBD_OK;
 562              		.loc 1 514 3 is_stmt 1 view .LVU95
 515:Middlewares/Third_Party/AL94_USB_Composite/COMPOSITE/Target/usbd_conf.c **** }
 563              		.loc 1 515 1 is_stmt 0 view .LVU96
 564 000e 0020     		movs	r0, #0
 565 0010 38BD     		pop	{r3, r4, r5, pc}
 566              	.LVL49:
 567              	.L41:
 303:Middlewares/Third_Party/AL94_USB_Composite/COMPOSITE/Target/usbd_conf.c ****     pdev->pData = hpcd_USB_OTG_PTR;
 568              		.loc 1 303 5 is_stmt 1 view .LVU97
 303:Middlewares/Third_Party/AL94_USB_Composite/COMPOSITE/Target/usbd_conf.c ****     pdev->pData = hpcd_USB_OTG_PTR;
 569              		.loc 1 303 29 is_stmt 0 view .LVU98
 570 0012 C2F80405 		str	r0, [r2, #1284]
 304:Middlewares/Third_Party/AL94_USB_Composite/COMPOSITE/Target/usbd_conf.c **** 
 571              		.loc 1 304 5 is_stmt 1 view .LVU99
 304:Middlewares/Third_Party/AL94_USB_Composite/COMPOSITE/Target/usbd_conf.c **** 
 572              		.loc 1 304 17 is_stmt 0 view .LVU100
 573 0016 C0F81023 		str	r2, [r0, #784]
 308:Middlewares/Third_Party/AL94_USB_Composite/COMPOSITE/Target/usbd_conf.c **** 
 574              		.loc 1 308 5 is_stmt 1 view .LVU101
 575 001a 4FF48061 		mov	r1, #1024
 576 001e 1046     		mov	r0, r2
 577              	.LVL50:
 308:Middlewares/Third_Party/AL94_USB_Composite/COMPOSITE/Target/usbd_conf.c **** 
 578              		.loc 1 308 5 is_stmt 0 view .LVU102
 579 0020 FFF7FEFF 		bl	HAL_PCDEx_SetRxFiFoInBytes
 580              	.LVL51:
 310:Middlewares/Third_Party/AL94_USB_Composite/COMPOSITE/Target/usbd_conf.c **** 
 581              		.loc 1 310 5 is_stmt 1 view .LVU103
 582 0024 124C     		ldr	r4, .L42
 583 0026 4022     		movs	r2, #64
 584 0028 0021     		movs	r1, #0
 585 002a 2068     		ldr	r0, [r4]
 586 002c FFF7FEFF 		bl	HAL_PCDEx_SetTxFiFoInBytes
 587              	.LVL52:
 324:Middlewares/Third_Party/AL94_USB_Composite/COMPOSITE/Target/usbd_conf.c **** #endif
 588              		.loc 1 324 5 view .LVU104
ARM GAS  /tmp/ccXVBrPs.s 			page 20


 589 0030 114B     		ldr	r3, .L42+8
 590 0032 1978     		ldrb	r1, [r3]	@ zero_extendqisi2
 591 0034 4022     		movs	r2, #64
 592 0036 01F07F01 		and	r1, r1, #127
 593 003a 2068     		ldr	r0, [r4]
 594 003c FFF7FEFF 		bl	HAL_PCDEx_SetTxFiFoInBytes
 595              	.LVL53:
 346:Middlewares/Third_Party/AL94_USB_Composite/COMPOSITE/Target/usbd_conf.c ****     {
 596              		.loc 1 346 5 view .LVU105
 597              	.LBB2:
 346:Middlewares/Third_Party/AL94_USB_Composite/COMPOSITE/Target/usbd_conf.c ****     {
 598              		.loc 1 346 10 view .LVU106
 346:Middlewares/Third_Party/AL94_USB_Composite/COMPOSITE/Target/usbd_conf.c ****     {
 599              		.loc 1 346 18 is_stmt 0 view .LVU107
 600 0040 0024     		movs	r4, #0
 601              	.LVL54:
 602              	.L38:
 346:Middlewares/Third_Party/AL94_USB_Composite/COMPOSITE/Target/usbd_conf.c ****     {
 603              		.loc 1 346 25 is_stmt 1 discriminator 1 view .LVU108
 346:Middlewares/Third_Party/AL94_USB_Composite/COMPOSITE/Target/usbd_conf.c ****     {
 604              		.loc 1 346 5 is_stmt 0 discriminator 1 view .LVU109
 605 0042 002C     		cmp	r4, #0
 606 0044 E3D1     		bne	.L37
 348:Middlewares/Third_Party/AL94_USB_Composite/COMPOSITE/Target/usbd_conf.c ****       HAL_PCDEx_SetTxFiFoInBytes(hpcd_USB_OTG_PTR, (CDC_CMD_EP[i] & 0x7F), 64);
 607              		.loc 1 348 7 is_stmt 1 discriminator 3 view .LVU110
 348:Middlewares/Third_Party/AL94_USB_Composite/COMPOSITE/Target/usbd_conf.c ****       HAL_PCDEx_SetTxFiFoInBytes(hpcd_USB_OTG_PTR, (CDC_CMD_EP[i] & 0x7F), 64);
 608              		.loc 1 348 62 is_stmt 0 discriminator 3 view .LVU111
 609 0046 0D4B     		ldr	r3, .L42+12
 610 0048 195D     		ldrb	r1, [r3, r4]	@ zero_extendqisi2
 348:Middlewares/Third_Party/AL94_USB_Composite/COMPOSITE/Target/usbd_conf.c ****       HAL_PCDEx_SetTxFiFoInBytes(hpcd_USB_OTG_PTR, (CDC_CMD_EP[i] & 0x7F), 64);
 611              		.loc 1 348 7 discriminator 3 view .LVU112
 612 004a 094D     		ldr	r5, .L42
 613 004c 8022     		movs	r2, #128
 614 004e 01F07F01 		and	r1, r1, #127
 615 0052 2868     		ldr	r0, [r5]
 616 0054 FFF7FEFF 		bl	HAL_PCDEx_SetTxFiFoInBytes
 617              	.LVL55:
 349:Middlewares/Third_Party/AL94_USB_Composite/COMPOSITE/Target/usbd_conf.c ****     }
 618              		.loc 1 349 7 is_stmt 1 discriminator 3 view .LVU113
 349:Middlewares/Third_Party/AL94_USB_Composite/COMPOSITE/Target/usbd_conf.c ****     }
 619              		.loc 1 349 63 is_stmt 0 discriminator 3 view .LVU114
 620 0058 094B     		ldr	r3, .L42+16
 621 005a 195D     		ldrb	r1, [r3, r4]	@ zero_extendqisi2
 349:Middlewares/Third_Party/AL94_USB_Composite/COMPOSITE/Target/usbd_conf.c ****     }
 622              		.loc 1 349 7 discriminator 3 view .LVU115
 623 005c 4022     		movs	r2, #64
 624 005e 01F07F01 		and	r1, r1, #127
 625 0062 2868     		ldr	r0, [r5]
 626 0064 FFF7FEFF 		bl	HAL_PCDEx_SetTxFiFoInBytes
 627              	.LVL56:
 346:Middlewares/Third_Party/AL94_USB_Composite/COMPOSITE/Target/usbd_conf.c ****     {
 628              		.loc 1 346 49 is_stmt 1 discriminator 3 view .LVU116
 346:Middlewares/Third_Party/AL94_USB_Composite/COMPOSITE/Target/usbd_conf.c ****     {
 629              		.loc 1 346 50 is_stmt 0 discriminator 3 view .LVU117
 630 0068 0134     		adds	r4, r4, #1
 631              	.LVL57:
 346:Middlewares/Third_Party/AL94_USB_Composite/COMPOSITE/Target/usbd_conf.c ****     {
ARM GAS  /tmp/ccXVBrPs.s 			page 21


 632              		.loc 1 346 50 discriminator 3 view .LVU118
 633 006a E4B2     		uxtb	r4, r4
 634              	.LVL58:
 346:Middlewares/Third_Party/AL94_USB_Composite/COMPOSITE/Target/usbd_conf.c ****     {
 635              		.loc 1 346 50 discriminator 3 view .LVU119
 636 006c E9E7     		b	.L38
 637              	.L43:
 638 006e 00BF     		.align	2
 639              	.L42:
 640 0070 00000000 		.word	.LANCHOR0
 641 0074 00000000 		.word	hpcd_USB_OTG_HS
 642 0078 00000000 		.word	HID_KEYBOARD_IN_EP
 643 007c 00000000 		.word	CDC_IN_EP
 644 0080 00000000 		.word	CDC_CMD_EP
 645              	.LBE2:
 646              		.cfi_endproc
 647              	.LFE160:
 649              		.section	.text.USBD_LL_IsStallEP,"ax",%progbits
 650              		.align	1
 651              		.global	USBD_LL_IsStallEP
 652              		.syntax unified
 653              		.thumb
 654              		.thumb_func
 656              	USBD_LL_IsStallEP:
 657              	.LVL59:
 658              	.LFB169:
 516:Middlewares/Third_Party/AL94_USB_Composite/COMPOSITE/Target/usbd_conf.c **** 
 517:Middlewares/Third_Party/AL94_USB_Composite/COMPOSITE/Target/usbd_conf.c **** /**
 518:Middlewares/Third_Party/AL94_USB_Composite/COMPOSITE/Target/usbd_conf.c ****   * @brief  De-Initializes the low level portion of the device driver.
 519:Middlewares/Third_Party/AL94_USB_Composite/COMPOSITE/Target/usbd_conf.c ****   * @param  pdev: Device handle
 520:Middlewares/Third_Party/AL94_USB_Composite/COMPOSITE/Target/usbd_conf.c ****   * @retval USBD status
 521:Middlewares/Third_Party/AL94_USB_Composite/COMPOSITE/Target/usbd_conf.c ****   */
 522:Middlewares/Third_Party/AL94_USB_Composite/COMPOSITE/Target/usbd_conf.c **** USBD_StatusTypeDef USBD_LL_DeInit(USBD_HandleTypeDef *pdev)
 523:Middlewares/Third_Party/AL94_USB_Composite/COMPOSITE/Target/usbd_conf.c **** {
 524:Middlewares/Third_Party/AL94_USB_Composite/COMPOSITE/Target/usbd_conf.c ****   HAL_StatusTypeDef hal_status = HAL_OK;
 525:Middlewares/Third_Party/AL94_USB_Composite/COMPOSITE/Target/usbd_conf.c ****   USBD_StatusTypeDef usb_status = USBD_OK;
 526:Middlewares/Third_Party/AL94_USB_Composite/COMPOSITE/Target/usbd_conf.c **** 
 527:Middlewares/Third_Party/AL94_USB_Composite/COMPOSITE/Target/usbd_conf.c ****   hal_status = HAL_PCD_DeInit(pdev->pData);
 528:Middlewares/Third_Party/AL94_USB_Composite/COMPOSITE/Target/usbd_conf.c **** 
 529:Middlewares/Third_Party/AL94_USB_Composite/COMPOSITE/Target/usbd_conf.c ****   usb_status = USBD_Get_USB_Status(hal_status);
 530:Middlewares/Third_Party/AL94_USB_Composite/COMPOSITE/Target/usbd_conf.c **** 
 531:Middlewares/Third_Party/AL94_USB_Composite/COMPOSITE/Target/usbd_conf.c ****   return usb_status;
 532:Middlewares/Third_Party/AL94_USB_Composite/COMPOSITE/Target/usbd_conf.c **** }
 533:Middlewares/Third_Party/AL94_USB_Composite/COMPOSITE/Target/usbd_conf.c **** 
 534:Middlewares/Third_Party/AL94_USB_Composite/COMPOSITE/Target/usbd_conf.c **** /**
 535:Middlewares/Third_Party/AL94_USB_Composite/COMPOSITE/Target/usbd_conf.c ****   * @brief  Starts the low level portion of the device driver.
 536:Middlewares/Third_Party/AL94_USB_Composite/COMPOSITE/Target/usbd_conf.c ****   * @param  pdev: Device handle
 537:Middlewares/Third_Party/AL94_USB_Composite/COMPOSITE/Target/usbd_conf.c ****   * @retval USBD status
 538:Middlewares/Third_Party/AL94_USB_Composite/COMPOSITE/Target/usbd_conf.c ****   */
 539:Middlewares/Third_Party/AL94_USB_Composite/COMPOSITE/Target/usbd_conf.c **** USBD_StatusTypeDef USBD_LL_Start(USBD_HandleTypeDef *pdev)
 540:Middlewares/Third_Party/AL94_USB_Composite/COMPOSITE/Target/usbd_conf.c **** {
 541:Middlewares/Third_Party/AL94_USB_Composite/COMPOSITE/Target/usbd_conf.c ****   HAL_StatusTypeDef hal_status = HAL_OK;
 542:Middlewares/Third_Party/AL94_USB_Composite/COMPOSITE/Target/usbd_conf.c ****   USBD_StatusTypeDef usb_status = USBD_OK;
 543:Middlewares/Third_Party/AL94_USB_Composite/COMPOSITE/Target/usbd_conf.c **** 
 544:Middlewares/Third_Party/AL94_USB_Composite/COMPOSITE/Target/usbd_conf.c ****   hal_status = HAL_PCD_Start(pdev->pData);
 545:Middlewares/Third_Party/AL94_USB_Composite/COMPOSITE/Target/usbd_conf.c **** 
 546:Middlewares/Third_Party/AL94_USB_Composite/COMPOSITE/Target/usbd_conf.c ****   usb_status = USBD_Get_USB_Status(hal_status);
ARM GAS  /tmp/ccXVBrPs.s 			page 22


 547:Middlewares/Third_Party/AL94_USB_Composite/COMPOSITE/Target/usbd_conf.c **** 
 548:Middlewares/Third_Party/AL94_USB_Composite/COMPOSITE/Target/usbd_conf.c ****   return usb_status;
 549:Middlewares/Third_Party/AL94_USB_Composite/COMPOSITE/Target/usbd_conf.c **** }
 550:Middlewares/Third_Party/AL94_USB_Composite/COMPOSITE/Target/usbd_conf.c **** 
 551:Middlewares/Third_Party/AL94_USB_Composite/COMPOSITE/Target/usbd_conf.c **** /**
 552:Middlewares/Third_Party/AL94_USB_Composite/COMPOSITE/Target/usbd_conf.c ****   * @brief  Stops the low level portion of the device driver.
 553:Middlewares/Third_Party/AL94_USB_Composite/COMPOSITE/Target/usbd_conf.c ****   * @param  pdev: Device handle
 554:Middlewares/Third_Party/AL94_USB_Composite/COMPOSITE/Target/usbd_conf.c ****   * @retval USBD status
 555:Middlewares/Third_Party/AL94_USB_Composite/COMPOSITE/Target/usbd_conf.c ****   */
 556:Middlewares/Third_Party/AL94_USB_Composite/COMPOSITE/Target/usbd_conf.c **** USBD_StatusTypeDef USBD_LL_Stop(USBD_HandleTypeDef *pdev)
 557:Middlewares/Third_Party/AL94_USB_Composite/COMPOSITE/Target/usbd_conf.c **** {
 558:Middlewares/Third_Party/AL94_USB_Composite/COMPOSITE/Target/usbd_conf.c ****   HAL_StatusTypeDef hal_status = HAL_OK;
 559:Middlewares/Third_Party/AL94_USB_Composite/COMPOSITE/Target/usbd_conf.c ****   USBD_StatusTypeDef usb_status = USBD_OK;
 560:Middlewares/Third_Party/AL94_USB_Composite/COMPOSITE/Target/usbd_conf.c **** 
 561:Middlewares/Third_Party/AL94_USB_Composite/COMPOSITE/Target/usbd_conf.c ****   hal_status = HAL_PCD_Stop(pdev->pData);
 562:Middlewares/Third_Party/AL94_USB_Composite/COMPOSITE/Target/usbd_conf.c **** 
 563:Middlewares/Third_Party/AL94_USB_Composite/COMPOSITE/Target/usbd_conf.c ****   usb_status = USBD_Get_USB_Status(hal_status);
 564:Middlewares/Third_Party/AL94_USB_Composite/COMPOSITE/Target/usbd_conf.c **** 
 565:Middlewares/Third_Party/AL94_USB_Composite/COMPOSITE/Target/usbd_conf.c ****   return usb_status;
 566:Middlewares/Third_Party/AL94_USB_Composite/COMPOSITE/Target/usbd_conf.c **** }
 567:Middlewares/Third_Party/AL94_USB_Composite/COMPOSITE/Target/usbd_conf.c **** 
 568:Middlewares/Third_Party/AL94_USB_Composite/COMPOSITE/Target/usbd_conf.c **** /**
 569:Middlewares/Third_Party/AL94_USB_Composite/COMPOSITE/Target/usbd_conf.c ****   * @brief  Opens an endpoint of the low level driver.
 570:Middlewares/Third_Party/AL94_USB_Composite/COMPOSITE/Target/usbd_conf.c ****   * @param  pdev: Device handle
 571:Middlewares/Third_Party/AL94_USB_Composite/COMPOSITE/Target/usbd_conf.c ****   * @param  ep_addr: Endpoint number
 572:Middlewares/Third_Party/AL94_USB_Composite/COMPOSITE/Target/usbd_conf.c ****   * @param  ep_type: Endpoint type
 573:Middlewares/Third_Party/AL94_USB_Composite/COMPOSITE/Target/usbd_conf.c ****   * @param  ep_mps: Endpoint max packet size
 574:Middlewares/Third_Party/AL94_USB_Composite/COMPOSITE/Target/usbd_conf.c ****   * @retval USBD status
 575:Middlewares/Third_Party/AL94_USB_Composite/COMPOSITE/Target/usbd_conf.c ****   */
 576:Middlewares/Third_Party/AL94_USB_Composite/COMPOSITE/Target/usbd_conf.c **** USBD_StatusTypeDef USBD_LL_OpenEP(USBD_HandleTypeDef *pdev, uint8_t ep_addr, uint8_t ep_type, uint1
 577:Middlewares/Third_Party/AL94_USB_Composite/COMPOSITE/Target/usbd_conf.c **** {
 578:Middlewares/Third_Party/AL94_USB_Composite/COMPOSITE/Target/usbd_conf.c ****   HAL_StatusTypeDef hal_status = HAL_OK;
 579:Middlewares/Third_Party/AL94_USB_Composite/COMPOSITE/Target/usbd_conf.c ****   USBD_StatusTypeDef usb_status = USBD_OK;
 580:Middlewares/Third_Party/AL94_USB_Composite/COMPOSITE/Target/usbd_conf.c **** 
 581:Middlewares/Third_Party/AL94_USB_Composite/COMPOSITE/Target/usbd_conf.c ****   hal_status = HAL_PCD_EP_Open(pdev->pData, ep_addr, ep_mps, ep_type);
 582:Middlewares/Third_Party/AL94_USB_Composite/COMPOSITE/Target/usbd_conf.c **** 
 583:Middlewares/Third_Party/AL94_USB_Composite/COMPOSITE/Target/usbd_conf.c ****   usb_status = USBD_Get_USB_Status(hal_status);
 584:Middlewares/Third_Party/AL94_USB_Composite/COMPOSITE/Target/usbd_conf.c **** 
 585:Middlewares/Third_Party/AL94_USB_Composite/COMPOSITE/Target/usbd_conf.c ****   return usb_status;
 586:Middlewares/Third_Party/AL94_USB_Composite/COMPOSITE/Target/usbd_conf.c **** }
 587:Middlewares/Third_Party/AL94_USB_Composite/COMPOSITE/Target/usbd_conf.c **** 
 588:Middlewares/Third_Party/AL94_USB_Composite/COMPOSITE/Target/usbd_conf.c **** /**
 589:Middlewares/Third_Party/AL94_USB_Composite/COMPOSITE/Target/usbd_conf.c ****   * @brief  Closes an endpoint of the low level driver.
 590:Middlewares/Third_Party/AL94_USB_Composite/COMPOSITE/Target/usbd_conf.c ****   * @param  pdev: Device handle
 591:Middlewares/Third_Party/AL94_USB_Composite/COMPOSITE/Target/usbd_conf.c ****   * @param  ep_addr: Endpoint number
 592:Middlewares/Third_Party/AL94_USB_Composite/COMPOSITE/Target/usbd_conf.c ****   * @retval USBD status
 593:Middlewares/Third_Party/AL94_USB_Composite/COMPOSITE/Target/usbd_conf.c ****   */
 594:Middlewares/Third_Party/AL94_USB_Composite/COMPOSITE/Target/usbd_conf.c **** USBD_StatusTypeDef USBD_LL_CloseEP(USBD_HandleTypeDef *pdev, uint8_t ep_addr)
 595:Middlewares/Third_Party/AL94_USB_Composite/COMPOSITE/Target/usbd_conf.c **** {
 596:Middlewares/Third_Party/AL94_USB_Composite/COMPOSITE/Target/usbd_conf.c ****   HAL_StatusTypeDef hal_status = HAL_OK;
 597:Middlewares/Third_Party/AL94_USB_Composite/COMPOSITE/Target/usbd_conf.c ****   USBD_StatusTypeDef usb_status = USBD_OK;
 598:Middlewares/Third_Party/AL94_USB_Composite/COMPOSITE/Target/usbd_conf.c **** 
 599:Middlewares/Third_Party/AL94_USB_Composite/COMPOSITE/Target/usbd_conf.c ****   hal_status = HAL_PCD_EP_Close(pdev->pData, ep_addr);
 600:Middlewares/Third_Party/AL94_USB_Composite/COMPOSITE/Target/usbd_conf.c **** 
 601:Middlewares/Third_Party/AL94_USB_Composite/COMPOSITE/Target/usbd_conf.c ****   usb_status = USBD_Get_USB_Status(hal_status);
 602:Middlewares/Third_Party/AL94_USB_Composite/COMPOSITE/Target/usbd_conf.c **** 
 603:Middlewares/Third_Party/AL94_USB_Composite/COMPOSITE/Target/usbd_conf.c ****   return usb_status;
ARM GAS  /tmp/ccXVBrPs.s 			page 23


 604:Middlewares/Third_Party/AL94_USB_Composite/COMPOSITE/Target/usbd_conf.c **** }
 605:Middlewares/Third_Party/AL94_USB_Composite/COMPOSITE/Target/usbd_conf.c **** 
 606:Middlewares/Third_Party/AL94_USB_Composite/COMPOSITE/Target/usbd_conf.c **** /**
 607:Middlewares/Third_Party/AL94_USB_Composite/COMPOSITE/Target/usbd_conf.c ****   * @brief  Flushes an endpoint of the Low Level Driver.
 608:Middlewares/Third_Party/AL94_USB_Composite/COMPOSITE/Target/usbd_conf.c ****   * @param  pdev: Device handle
 609:Middlewares/Third_Party/AL94_USB_Composite/COMPOSITE/Target/usbd_conf.c ****   * @param  ep_addr: Endpoint number
 610:Middlewares/Third_Party/AL94_USB_Composite/COMPOSITE/Target/usbd_conf.c ****   * @retval USBD status
 611:Middlewares/Third_Party/AL94_USB_Composite/COMPOSITE/Target/usbd_conf.c ****   */
 612:Middlewares/Third_Party/AL94_USB_Composite/COMPOSITE/Target/usbd_conf.c **** USBD_StatusTypeDef USBD_LL_FlushEP(USBD_HandleTypeDef *pdev, uint8_t ep_addr)
 613:Middlewares/Third_Party/AL94_USB_Composite/COMPOSITE/Target/usbd_conf.c **** {
 614:Middlewares/Third_Party/AL94_USB_Composite/COMPOSITE/Target/usbd_conf.c ****   HAL_StatusTypeDef hal_status = HAL_OK;
 615:Middlewares/Third_Party/AL94_USB_Composite/COMPOSITE/Target/usbd_conf.c ****   USBD_StatusTypeDef usb_status = USBD_OK;
 616:Middlewares/Third_Party/AL94_USB_Composite/COMPOSITE/Target/usbd_conf.c **** 
 617:Middlewares/Third_Party/AL94_USB_Composite/COMPOSITE/Target/usbd_conf.c ****   hal_status = HAL_PCD_EP_Flush(pdev->pData, ep_addr);
 618:Middlewares/Third_Party/AL94_USB_Composite/COMPOSITE/Target/usbd_conf.c **** 
 619:Middlewares/Third_Party/AL94_USB_Composite/COMPOSITE/Target/usbd_conf.c ****   usb_status = USBD_Get_USB_Status(hal_status);
 620:Middlewares/Third_Party/AL94_USB_Composite/COMPOSITE/Target/usbd_conf.c **** 
 621:Middlewares/Third_Party/AL94_USB_Composite/COMPOSITE/Target/usbd_conf.c ****   return usb_status;
 622:Middlewares/Third_Party/AL94_USB_Composite/COMPOSITE/Target/usbd_conf.c **** }
 623:Middlewares/Third_Party/AL94_USB_Composite/COMPOSITE/Target/usbd_conf.c **** 
 624:Middlewares/Third_Party/AL94_USB_Composite/COMPOSITE/Target/usbd_conf.c **** /**
 625:Middlewares/Third_Party/AL94_USB_Composite/COMPOSITE/Target/usbd_conf.c ****   * @brief  Sets a Stall condition on an endpoint of the Low Level Driver.
 626:Middlewares/Third_Party/AL94_USB_Composite/COMPOSITE/Target/usbd_conf.c ****   * @param  pdev: Device handle
 627:Middlewares/Third_Party/AL94_USB_Composite/COMPOSITE/Target/usbd_conf.c ****   * @param  ep_addr: Endpoint number
 628:Middlewares/Third_Party/AL94_USB_Composite/COMPOSITE/Target/usbd_conf.c ****   * @retval USBD status
 629:Middlewares/Third_Party/AL94_USB_Composite/COMPOSITE/Target/usbd_conf.c ****   */
 630:Middlewares/Third_Party/AL94_USB_Composite/COMPOSITE/Target/usbd_conf.c **** USBD_StatusTypeDef USBD_LL_StallEP(USBD_HandleTypeDef *pdev, uint8_t ep_addr)
 631:Middlewares/Third_Party/AL94_USB_Composite/COMPOSITE/Target/usbd_conf.c **** {
 632:Middlewares/Third_Party/AL94_USB_Composite/COMPOSITE/Target/usbd_conf.c ****   HAL_StatusTypeDef hal_status = HAL_OK;
 633:Middlewares/Third_Party/AL94_USB_Composite/COMPOSITE/Target/usbd_conf.c ****   USBD_StatusTypeDef usb_status = USBD_OK;
 634:Middlewares/Third_Party/AL94_USB_Composite/COMPOSITE/Target/usbd_conf.c **** 
 635:Middlewares/Third_Party/AL94_USB_Composite/COMPOSITE/Target/usbd_conf.c ****   hal_status = HAL_PCD_EP_SetStall(pdev->pData, ep_addr);
 636:Middlewares/Third_Party/AL94_USB_Composite/COMPOSITE/Target/usbd_conf.c **** 
 637:Middlewares/Third_Party/AL94_USB_Composite/COMPOSITE/Target/usbd_conf.c ****   usb_status = USBD_Get_USB_Status(hal_status);
 638:Middlewares/Third_Party/AL94_USB_Composite/COMPOSITE/Target/usbd_conf.c **** 
 639:Middlewares/Third_Party/AL94_USB_Composite/COMPOSITE/Target/usbd_conf.c ****   return usb_status;
 640:Middlewares/Third_Party/AL94_USB_Composite/COMPOSITE/Target/usbd_conf.c **** }
 641:Middlewares/Third_Party/AL94_USB_Composite/COMPOSITE/Target/usbd_conf.c **** 
 642:Middlewares/Third_Party/AL94_USB_Composite/COMPOSITE/Target/usbd_conf.c **** /**
 643:Middlewares/Third_Party/AL94_USB_Composite/COMPOSITE/Target/usbd_conf.c ****   * @brief  Clears a Stall condition on an endpoint of the Low Level Driver.
 644:Middlewares/Third_Party/AL94_USB_Composite/COMPOSITE/Target/usbd_conf.c ****   * @param  pdev: Device handle
 645:Middlewares/Third_Party/AL94_USB_Composite/COMPOSITE/Target/usbd_conf.c ****   * @param  ep_addr: Endpoint number
 646:Middlewares/Third_Party/AL94_USB_Composite/COMPOSITE/Target/usbd_conf.c ****   * @retval USBD status
 647:Middlewares/Third_Party/AL94_USB_Composite/COMPOSITE/Target/usbd_conf.c ****   */
 648:Middlewares/Third_Party/AL94_USB_Composite/COMPOSITE/Target/usbd_conf.c **** USBD_StatusTypeDef USBD_LL_ClearStallEP(USBD_HandleTypeDef *pdev, uint8_t ep_addr)
 649:Middlewares/Third_Party/AL94_USB_Composite/COMPOSITE/Target/usbd_conf.c **** {
 650:Middlewares/Third_Party/AL94_USB_Composite/COMPOSITE/Target/usbd_conf.c ****   HAL_StatusTypeDef hal_status = HAL_OK;
 651:Middlewares/Third_Party/AL94_USB_Composite/COMPOSITE/Target/usbd_conf.c ****   USBD_StatusTypeDef usb_status = USBD_OK;
 652:Middlewares/Third_Party/AL94_USB_Composite/COMPOSITE/Target/usbd_conf.c **** 
 653:Middlewares/Third_Party/AL94_USB_Composite/COMPOSITE/Target/usbd_conf.c ****   hal_status = HAL_PCD_EP_ClrStall(pdev->pData, ep_addr);
 654:Middlewares/Third_Party/AL94_USB_Composite/COMPOSITE/Target/usbd_conf.c **** 
 655:Middlewares/Third_Party/AL94_USB_Composite/COMPOSITE/Target/usbd_conf.c ****   usb_status = USBD_Get_USB_Status(hal_status);
 656:Middlewares/Third_Party/AL94_USB_Composite/COMPOSITE/Target/usbd_conf.c **** 
 657:Middlewares/Third_Party/AL94_USB_Composite/COMPOSITE/Target/usbd_conf.c ****   return usb_status;
 658:Middlewares/Third_Party/AL94_USB_Composite/COMPOSITE/Target/usbd_conf.c **** }
 659:Middlewares/Third_Party/AL94_USB_Composite/COMPOSITE/Target/usbd_conf.c **** 
 660:Middlewares/Third_Party/AL94_USB_Composite/COMPOSITE/Target/usbd_conf.c **** /**
ARM GAS  /tmp/ccXVBrPs.s 			page 24


 661:Middlewares/Third_Party/AL94_USB_Composite/COMPOSITE/Target/usbd_conf.c ****   * @brief  Returns Stall condition.
 662:Middlewares/Third_Party/AL94_USB_Composite/COMPOSITE/Target/usbd_conf.c ****   * @param  pdev: Device handle
 663:Middlewares/Third_Party/AL94_USB_Composite/COMPOSITE/Target/usbd_conf.c ****   * @param  ep_addr: Endpoint number
 664:Middlewares/Third_Party/AL94_USB_Composite/COMPOSITE/Target/usbd_conf.c ****   * @retval Stall (1: Yes, 0: No)
 665:Middlewares/Third_Party/AL94_USB_Composite/COMPOSITE/Target/usbd_conf.c ****   */
 666:Middlewares/Third_Party/AL94_USB_Composite/COMPOSITE/Target/usbd_conf.c **** uint8_t USBD_LL_IsStallEP(USBD_HandleTypeDef *pdev, uint8_t ep_addr)
 667:Middlewares/Third_Party/AL94_USB_Composite/COMPOSITE/Target/usbd_conf.c **** {
 659              		.loc 1 667 1 is_stmt 1 view -0
 660              		.cfi_startproc
 661              		@ args = 0, pretend = 0, frame = 0
 662              		@ frame_needed = 0, uses_anonymous_args = 0
 663              		@ link register save eliminated.
 668:Middlewares/Third_Party/AL94_USB_Composite/COMPOSITE/Target/usbd_conf.c ****   PCD_HandleTypeDef *hpcd = (PCD_HandleTypeDef *)pdev->pData;
 664              		.loc 1 668 3 view .LVU121
 665              		.loc 1 668 22 is_stmt 0 view .LVU122
 666 0000 D0F81033 		ldr	r3, [r0, #784]
 667              	.LVL60:
 669:Middlewares/Third_Party/AL94_USB_Composite/COMPOSITE/Target/usbd_conf.c **** 
 670:Middlewares/Third_Party/AL94_USB_Composite/COMPOSITE/Target/usbd_conf.c ****   if ((ep_addr & 0x80) == 0x80)
 668              		.loc 1 670 3 is_stmt 1 view .LVU123
 669              		.loc 1 670 6 is_stmt 0 view .LVU124
 670 0004 11F0800F 		tst	r1, #128
 671 0008 08D1     		bne	.L47
 671:Middlewares/Third_Party/AL94_USB_Composite/COMPOSITE/Target/usbd_conf.c ****   {
 672:Middlewares/Third_Party/AL94_USB_Composite/COMPOSITE/Target/usbd_conf.c ****     return hpcd->IN_ep[ep_addr & 0x7F].is_stall;
 673:Middlewares/Third_Party/AL94_USB_Composite/COMPOSITE/Target/usbd_conf.c ****   }
 674:Middlewares/Third_Party/AL94_USB_Composite/COMPOSITE/Target/usbd_conf.c ****   else
 675:Middlewares/Third_Party/AL94_USB_Composite/COMPOSITE/Target/usbd_conf.c ****   {
 676:Middlewares/Third_Party/AL94_USB_Composite/COMPOSITE/Target/usbd_conf.c ****     return hpcd->OUT_ep[ep_addr & 0x7F].is_stall;
 672              		.loc 1 676 5 is_stmt 1 view .LVU125
 673              		.loc 1 676 33 is_stmt 0 view .LVU126
 674 000a 01F07F01 		and	r1, r1, #127
 675              	.LVL61:
 676              		.loc 1 676 40 view .LVU127
 677 000e 01EBC101 		add	r1, r1, r1, lsl #3
 678 0012 03EB8101 		add	r1, r3, r1, lsl #2
 679 0016 91F87E02 		ldrb	r0, [r1, #638]	@ zero_extendqisi2
 680              	.LVL62:
 677:Middlewares/Third_Party/AL94_USB_Composite/COMPOSITE/Target/usbd_conf.c ****   }
 678:Middlewares/Third_Party/AL94_USB_Composite/COMPOSITE/Target/usbd_conf.c **** }
 681              		.loc 1 678 1 view .LVU128
 682 001a 7047     		bx	lr
 683              	.LVL63:
 684              	.L47:
 672:Middlewares/Third_Party/AL94_USB_Composite/COMPOSITE/Target/usbd_conf.c ****   }
 685              		.loc 1 672 5 is_stmt 1 view .LVU129
 672:Middlewares/Third_Party/AL94_USB_Composite/COMPOSITE/Target/usbd_conf.c ****   }
 686              		.loc 1 672 32 is_stmt 0 view .LVU130
 687 001c 01F07F01 		and	r1, r1, #127
 688              	.LVL64:
 672:Middlewares/Third_Party/AL94_USB_Composite/COMPOSITE/Target/usbd_conf.c ****   }
 689              		.loc 1 672 39 view .LVU131
 690 0020 01EBC101 		add	r1, r1, r1, lsl #3
 691 0024 03EB8101 		add	r1, r3, r1, lsl #2
 692 0028 91F83E00 		ldrb	r0, [r1, #62]	@ zero_extendqisi2
 693              	.LVL65:
 672:Middlewares/Third_Party/AL94_USB_Composite/COMPOSITE/Target/usbd_conf.c ****   }
ARM GAS  /tmp/ccXVBrPs.s 			page 25


 694              		.loc 1 672 39 view .LVU132
 695 002c 7047     		bx	lr
 696              		.cfi_endproc
 697              	.LFE169:
 699              		.section	.text.USBD_LL_GetRxDataSize,"ax",%progbits
 700              		.align	1
 701              		.global	USBD_LL_GetRxDataSize
 702              		.syntax unified
 703              		.thumb
 704              		.thumb_func
 706              	USBD_LL_GetRxDataSize:
 707              	.LVL66:
 708              	.LFB173:
 679:Middlewares/Third_Party/AL94_USB_Composite/COMPOSITE/Target/usbd_conf.c **** 
 680:Middlewares/Third_Party/AL94_USB_Composite/COMPOSITE/Target/usbd_conf.c **** /**
 681:Middlewares/Third_Party/AL94_USB_Composite/COMPOSITE/Target/usbd_conf.c ****   * @brief  Assigns a USB address to the device.
 682:Middlewares/Third_Party/AL94_USB_Composite/COMPOSITE/Target/usbd_conf.c ****   * @param  pdev: Device handle
 683:Middlewares/Third_Party/AL94_USB_Composite/COMPOSITE/Target/usbd_conf.c ****   * @param  dev_addr: Device address
 684:Middlewares/Third_Party/AL94_USB_Composite/COMPOSITE/Target/usbd_conf.c ****   * @retval USBD status
 685:Middlewares/Third_Party/AL94_USB_Composite/COMPOSITE/Target/usbd_conf.c ****   */
 686:Middlewares/Third_Party/AL94_USB_Composite/COMPOSITE/Target/usbd_conf.c **** USBD_StatusTypeDef USBD_LL_SetUSBAddress(USBD_HandleTypeDef *pdev, uint8_t dev_addr)
 687:Middlewares/Third_Party/AL94_USB_Composite/COMPOSITE/Target/usbd_conf.c **** {
 688:Middlewares/Third_Party/AL94_USB_Composite/COMPOSITE/Target/usbd_conf.c ****   HAL_StatusTypeDef hal_status = HAL_OK;
 689:Middlewares/Third_Party/AL94_USB_Composite/COMPOSITE/Target/usbd_conf.c ****   USBD_StatusTypeDef usb_status = USBD_OK;
 690:Middlewares/Third_Party/AL94_USB_Composite/COMPOSITE/Target/usbd_conf.c **** 
 691:Middlewares/Third_Party/AL94_USB_Composite/COMPOSITE/Target/usbd_conf.c ****   hal_status = HAL_PCD_SetAddress(pdev->pData, dev_addr);
 692:Middlewares/Third_Party/AL94_USB_Composite/COMPOSITE/Target/usbd_conf.c **** 
 693:Middlewares/Third_Party/AL94_USB_Composite/COMPOSITE/Target/usbd_conf.c ****   usb_status = USBD_Get_USB_Status(hal_status);
 694:Middlewares/Third_Party/AL94_USB_Composite/COMPOSITE/Target/usbd_conf.c **** 
 695:Middlewares/Third_Party/AL94_USB_Composite/COMPOSITE/Target/usbd_conf.c ****   return usb_status;
 696:Middlewares/Third_Party/AL94_USB_Composite/COMPOSITE/Target/usbd_conf.c **** }
 697:Middlewares/Third_Party/AL94_USB_Composite/COMPOSITE/Target/usbd_conf.c **** 
 698:Middlewares/Third_Party/AL94_USB_Composite/COMPOSITE/Target/usbd_conf.c **** /**
 699:Middlewares/Third_Party/AL94_USB_Composite/COMPOSITE/Target/usbd_conf.c ****   * @brief  Transmits data over an endpoint.
 700:Middlewares/Third_Party/AL94_USB_Composite/COMPOSITE/Target/usbd_conf.c ****   * @param  pdev: Device handle
 701:Middlewares/Third_Party/AL94_USB_Composite/COMPOSITE/Target/usbd_conf.c ****   * @param  ep_addr: Endpoint number
 702:Middlewares/Third_Party/AL94_USB_Composite/COMPOSITE/Target/usbd_conf.c ****   * @param  pbuf: Pointer to data to be sent
 703:Middlewares/Third_Party/AL94_USB_Composite/COMPOSITE/Target/usbd_conf.c ****   * @param  size: Data size
 704:Middlewares/Third_Party/AL94_USB_Composite/COMPOSITE/Target/usbd_conf.c ****   * @retval USBD status
 705:Middlewares/Third_Party/AL94_USB_Composite/COMPOSITE/Target/usbd_conf.c ****   */
 706:Middlewares/Third_Party/AL94_USB_Composite/COMPOSITE/Target/usbd_conf.c **** USBD_StatusTypeDef USBD_LL_Transmit(USBD_HandleTypeDef *pdev, uint8_t ep_addr, uint8_t *pbuf, uint3
 707:Middlewares/Third_Party/AL94_USB_Composite/COMPOSITE/Target/usbd_conf.c **** {
 708:Middlewares/Third_Party/AL94_USB_Composite/COMPOSITE/Target/usbd_conf.c ****   HAL_StatusTypeDef hal_status = HAL_OK;
 709:Middlewares/Third_Party/AL94_USB_Composite/COMPOSITE/Target/usbd_conf.c ****   USBD_StatusTypeDef usb_status = USBD_OK;
 710:Middlewares/Third_Party/AL94_USB_Composite/COMPOSITE/Target/usbd_conf.c **** 
 711:Middlewares/Third_Party/AL94_USB_Composite/COMPOSITE/Target/usbd_conf.c ****   hal_status = HAL_PCD_EP_Transmit(pdev->pData, ep_addr, pbuf, size);
 712:Middlewares/Third_Party/AL94_USB_Composite/COMPOSITE/Target/usbd_conf.c **** 
 713:Middlewares/Third_Party/AL94_USB_Composite/COMPOSITE/Target/usbd_conf.c ****   usb_status = USBD_Get_USB_Status(hal_status);
 714:Middlewares/Third_Party/AL94_USB_Composite/COMPOSITE/Target/usbd_conf.c **** 
 715:Middlewares/Third_Party/AL94_USB_Composite/COMPOSITE/Target/usbd_conf.c ****   return usb_status;
 716:Middlewares/Third_Party/AL94_USB_Composite/COMPOSITE/Target/usbd_conf.c **** }
 717:Middlewares/Third_Party/AL94_USB_Composite/COMPOSITE/Target/usbd_conf.c **** 
 718:Middlewares/Third_Party/AL94_USB_Composite/COMPOSITE/Target/usbd_conf.c **** /**
 719:Middlewares/Third_Party/AL94_USB_Composite/COMPOSITE/Target/usbd_conf.c ****   * @brief  Prepares an endpoint for reception.
 720:Middlewares/Third_Party/AL94_USB_Composite/COMPOSITE/Target/usbd_conf.c ****   * @param  pdev: Device handle
 721:Middlewares/Third_Party/AL94_USB_Composite/COMPOSITE/Target/usbd_conf.c ****   * @param  ep_addr: Endpoint number
 722:Middlewares/Third_Party/AL94_USB_Composite/COMPOSITE/Target/usbd_conf.c ****   * @param  pbuf: Pointer to data to be received
ARM GAS  /tmp/ccXVBrPs.s 			page 26


 723:Middlewares/Third_Party/AL94_USB_Composite/COMPOSITE/Target/usbd_conf.c ****   * @param  size: Data size
 724:Middlewares/Third_Party/AL94_USB_Composite/COMPOSITE/Target/usbd_conf.c ****   * @retval USBD status
 725:Middlewares/Third_Party/AL94_USB_Composite/COMPOSITE/Target/usbd_conf.c ****   */
 726:Middlewares/Third_Party/AL94_USB_Composite/COMPOSITE/Target/usbd_conf.c **** USBD_StatusTypeDef USBD_LL_PrepareReceive(USBD_HandleTypeDef *pdev, uint8_t ep_addr, uint8_t *pbuf,
 727:Middlewares/Third_Party/AL94_USB_Composite/COMPOSITE/Target/usbd_conf.c **** {
 728:Middlewares/Third_Party/AL94_USB_Composite/COMPOSITE/Target/usbd_conf.c ****   HAL_StatusTypeDef hal_status = HAL_OK;
 729:Middlewares/Third_Party/AL94_USB_Composite/COMPOSITE/Target/usbd_conf.c ****   USBD_StatusTypeDef usb_status = USBD_OK;
 730:Middlewares/Third_Party/AL94_USB_Composite/COMPOSITE/Target/usbd_conf.c **** 
 731:Middlewares/Third_Party/AL94_USB_Composite/COMPOSITE/Target/usbd_conf.c ****   hal_status = HAL_PCD_EP_Receive(pdev->pData, ep_addr, pbuf, size);
 732:Middlewares/Third_Party/AL94_USB_Composite/COMPOSITE/Target/usbd_conf.c **** 
 733:Middlewares/Third_Party/AL94_USB_Composite/COMPOSITE/Target/usbd_conf.c ****   usb_status = USBD_Get_USB_Status(hal_status);
 734:Middlewares/Third_Party/AL94_USB_Composite/COMPOSITE/Target/usbd_conf.c **** 
 735:Middlewares/Third_Party/AL94_USB_Composite/COMPOSITE/Target/usbd_conf.c ****   return usb_status;
 736:Middlewares/Third_Party/AL94_USB_Composite/COMPOSITE/Target/usbd_conf.c **** }
 737:Middlewares/Third_Party/AL94_USB_Composite/COMPOSITE/Target/usbd_conf.c **** 
 738:Middlewares/Third_Party/AL94_USB_Composite/COMPOSITE/Target/usbd_conf.c **** /**
 739:Middlewares/Third_Party/AL94_USB_Composite/COMPOSITE/Target/usbd_conf.c ****   * @brief  Returns the last transfered packet size.
 740:Middlewares/Third_Party/AL94_USB_Composite/COMPOSITE/Target/usbd_conf.c ****   * @param  pdev: Device handle
 741:Middlewares/Third_Party/AL94_USB_Composite/COMPOSITE/Target/usbd_conf.c ****   * @param  ep_addr: Endpoint number
 742:Middlewares/Third_Party/AL94_USB_Composite/COMPOSITE/Target/usbd_conf.c ****   * @retval Recived Data Size
 743:Middlewares/Third_Party/AL94_USB_Composite/COMPOSITE/Target/usbd_conf.c ****   */
 744:Middlewares/Third_Party/AL94_USB_Composite/COMPOSITE/Target/usbd_conf.c **** uint32_t USBD_LL_GetRxDataSize(USBD_HandleTypeDef *pdev, uint8_t ep_addr)
 745:Middlewares/Third_Party/AL94_USB_Composite/COMPOSITE/Target/usbd_conf.c **** {
 709              		.loc 1 745 1 is_stmt 1 view -0
 710              		.cfi_startproc
 711              		@ args = 0, pretend = 0, frame = 0
 712              		@ frame_needed = 0, uses_anonymous_args = 0
 713              		.loc 1 745 1 is_stmt 0 view .LVU134
 714 0000 08B5     		push	{r3, lr}
 715              	.LCFI14:
 716              		.cfi_def_cfa_offset 8
 717              		.cfi_offset 3, -8
 718              		.cfi_offset 14, -4
 746:Middlewares/Third_Party/AL94_USB_Composite/COMPOSITE/Target/usbd_conf.c ****   return HAL_PCD_EP_GetRxCount((PCD_HandleTypeDef *)pdev->pData, ep_addr);
 719              		.loc 1 746 3 is_stmt 1 view .LVU135
 720              		.loc 1 746 10 is_stmt 0 view .LVU136
 721 0002 D0F81003 		ldr	r0, [r0, #784]
 722              	.LVL67:
 723              		.loc 1 746 10 view .LVU137
 724 0006 FFF7FEFF 		bl	HAL_PCD_EP_GetRxCount
 725              	.LVL68:
 747:Middlewares/Third_Party/AL94_USB_Composite/COMPOSITE/Target/usbd_conf.c **** }
 726              		.loc 1 747 1 view .LVU138
 727 000a 08BD     		pop	{r3, pc}
 728              		.cfi_endproc
 729              	.LFE173:
 731              		.section	.text.USBD_LL_Delay,"ax",%progbits
 732              		.align	1
 733              		.global	USBD_LL_Delay
 734              		.syntax unified
 735              		.thumb
 736              		.thumb_func
 738              	USBD_LL_Delay:
 739              	.LVL69:
 740              	.LFB174:
 748:Middlewares/Third_Party/AL94_USB_Composite/COMPOSITE/Target/usbd_conf.c **** 
 749:Middlewares/Third_Party/AL94_USB_Composite/COMPOSITE/Target/usbd_conf.c **** /**
ARM GAS  /tmp/ccXVBrPs.s 			page 27


 750:Middlewares/Third_Party/AL94_USB_Composite/COMPOSITE/Target/usbd_conf.c ****   * @brief  Delays routine for the USB device library.
 751:Middlewares/Third_Party/AL94_USB_Composite/COMPOSITE/Target/usbd_conf.c ****   * @param  Delay: Delay in ms
 752:Middlewares/Third_Party/AL94_USB_Composite/COMPOSITE/Target/usbd_conf.c ****   * @retval None
 753:Middlewares/Third_Party/AL94_USB_Composite/COMPOSITE/Target/usbd_conf.c ****   */
 754:Middlewares/Third_Party/AL94_USB_Composite/COMPOSITE/Target/usbd_conf.c **** void USBD_LL_Delay(uint32_t Delay)
 755:Middlewares/Third_Party/AL94_USB_Composite/COMPOSITE/Target/usbd_conf.c **** {
 741              		.loc 1 755 1 is_stmt 1 view -0
 742              		.cfi_startproc
 743              		@ args = 0, pretend = 0, frame = 0
 744              		@ frame_needed = 0, uses_anonymous_args = 0
 745              		.loc 1 755 1 is_stmt 0 view .LVU140
 746 0000 08B5     		push	{r3, lr}
 747              	.LCFI15:
 748              		.cfi_def_cfa_offset 8
 749              		.cfi_offset 3, -8
 750              		.cfi_offset 14, -4
 756:Middlewares/Third_Party/AL94_USB_Composite/COMPOSITE/Target/usbd_conf.c ****   HAL_Delay(Delay);
 751              		.loc 1 756 3 is_stmt 1 view .LVU141
 752 0002 FFF7FEFF 		bl	HAL_Delay
 753              	.LVL70:
 757:Middlewares/Third_Party/AL94_USB_Composite/COMPOSITE/Target/usbd_conf.c **** }
 754              		.loc 1 757 1 is_stmt 0 view .LVU142
 755 0006 08BD     		pop	{r3, pc}
 756              		.cfi_endproc
 757              	.LFE174:
 759              		.section	.text.USBD_Get_USB_Status,"ax",%progbits
 760              		.align	1
 761              		.global	USBD_Get_USB_Status
 762              		.syntax unified
 763              		.thumb
 764              		.thumb_func
 766              	USBD_Get_USB_Status:
 767              	.LVL71:
 768              	.LFB175:
 758:Middlewares/Third_Party/AL94_USB_Composite/COMPOSITE/Target/usbd_conf.c **** 
 759:Middlewares/Third_Party/AL94_USB_Composite/COMPOSITE/Target/usbd_conf.c **** /**
 760:Middlewares/Third_Party/AL94_USB_Composite/COMPOSITE/Target/usbd_conf.c ****   * @brief  Retuns the USB status depending on the HAL status:
 761:Middlewares/Third_Party/AL94_USB_Composite/COMPOSITE/Target/usbd_conf.c ****   * @param  hal_status: HAL status
 762:Middlewares/Third_Party/AL94_USB_Composite/COMPOSITE/Target/usbd_conf.c ****   * @retval USB status
 763:Middlewares/Third_Party/AL94_USB_Composite/COMPOSITE/Target/usbd_conf.c ****   */
 764:Middlewares/Third_Party/AL94_USB_Composite/COMPOSITE/Target/usbd_conf.c **** USBD_StatusTypeDef USBD_Get_USB_Status(HAL_StatusTypeDef hal_status)
 765:Middlewares/Third_Party/AL94_USB_Composite/COMPOSITE/Target/usbd_conf.c **** {
 769              		.loc 1 765 1 is_stmt 1 view -0
 770              		.cfi_startproc
 771              		@ args = 0, pretend = 0, frame = 0
 772              		@ frame_needed = 0, uses_anonymous_args = 0
 773              		@ link register save eliminated.
 766:Middlewares/Third_Party/AL94_USB_Composite/COMPOSITE/Target/usbd_conf.c ****   USBD_StatusTypeDef usb_status = USBD_OK;
 774              		.loc 1 766 3 view .LVU144
 767:Middlewares/Third_Party/AL94_USB_Composite/COMPOSITE/Target/usbd_conf.c **** 
 768:Middlewares/Third_Party/AL94_USB_Composite/COMPOSITE/Target/usbd_conf.c ****   switch (hal_status)
 775              		.loc 1 768 3 view .LVU145
 776 0000 0328     		cmp	r0, #3
 777 0002 05D8     		bhi	.L58
 778 0004 DFE800F0 		tbb	[pc, r0]
 779              	.L55:
 780 0008 05       		.byte	(.L53-.L55)/2
ARM GAS  /tmp/ccXVBrPs.s 			page 28


 781 0009 04       		.byte	(.L58-.L55)/2
 782 000a 02       		.byte	(.L56-.L55)/2
 783 000b 05       		.byte	(.L53-.L55)/2
 784              		.p2align 1
 785              	.L56:
 769:Middlewares/Third_Party/AL94_USB_Composite/COMPOSITE/Target/usbd_conf.c ****   {
 770:Middlewares/Third_Party/AL94_USB_Composite/COMPOSITE/Target/usbd_conf.c ****   case HAL_OK:
 771:Middlewares/Third_Party/AL94_USB_Composite/COMPOSITE/Target/usbd_conf.c ****     usb_status = USBD_OK;
 772:Middlewares/Third_Party/AL94_USB_Composite/COMPOSITE/Target/usbd_conf.c ****     break;
 773:Middlewares/Third_Party/AL94_USB_Composite/COMPOSITE/Target/usbd_conf.c ****   case HAL_ERROR:
 774:Middlewares/Third_Party/AL94_USB_Composite/COMPOSITE/Target/usbd_conf.c ****     usb_status = USBD_FAIL;
 775:Middlewares/Third_Party/AL94_USB_Composite/COMPOSITE/Target/usbd_conf.c ****     break;
 776:Middlewares/Third_Party/AL94_USB_Composite/COMPOSITE/Target/usbd_conf.c ****   case HAL_BUSY:
 777:Middlewares/Third_Party/AL94_USB_Composite/COMPOSITE/Target/usbd_conf.c ****     usb_status = USBD_BUSY;
 786              		.loc 1 777 5 view .LVU146
 787              	.LVL72:
 778:Middlewares/Third_Party/AL94_USB_Composite/COMPOSITE/Target/usbd_conf.c ****     break;
 788              		.loc 1 778 5 view .LVU147
 777:Middlewares/Third_Party/AL94_USB_Composite/COMPOSITE/Target/usbd_conf.c ****     break;
 789              		.loc 1 777 16 is_stmt 0 view .LVU148
 790 000c 0120     		movs	r0, #1
 791              	.LVL73:
 792              		.loc 1 778 5 view .LVU149
 793 000e 7047     		bx	lr
 794              	.LVL74:
 795              	.L58:
 774:Middlewares/Third_Party/AL94_USB_Composite/COMPOSITE/Target/usbd_conf.c ****     break;
 796              		.loc 1 774 16 view .LVU150
 797 0010 0320     		movs	r0, #3
 798              	.LVL75:
 799              	.L53:
 779:Middlewares/Third_Party/AL94_USB_Composite/COMPOSITE/Target/usbd_conf.c ****   case HAL_TIMEOUT:
 780:Middlewares/Third_Party/AL94_USB_Composite/COMPOSITE/Target/usbd_conf.c ****     usb_status = USBD_FAIL;
 781:Middlewares/Third_Party/AL94_USB_Composite/COMPOSITE/Target/usbd_conf.c ****     break;
 782:Middlewares/Third_Party/AL94_USB_Composite/COMPOSITE/Target/usbd_conf.c ****   default:
 783:Middlewares/Third_Party/AL94_USB_Composite/COMPOSITE/Target/usbd_conf.c ****     usb_status = USBD_FAIL;
 784:Middlewares/Third_Party/AL94_USB_Composite/COMPOSITE/Target/usbd_conf.c ****     break;
 785:Middlewares/Third_Party/AL94_USB_Composite/COMPOSITE/Target/usbd_conf.c ****   }
 786:Middlewares/Third_Party/AL94_USB_Composite/COMPOSITE/Target/usbd_conf.c ****   return usb_status;
 800              		.loc 1 786 3 is_stmt 1 view .LVU151
 787:Middlewares/Third_Party/AL94_USB_Composite/COMPOSITE/Target/usbd_conf.c **** }
 801              		.loc 1 787 1 is_stmt 0 view .LVU152
 802 0012 7047     		bx	lr
 803              		.cfi_endproc
 804              	.LFE175:
 806              		.section	.text.USBD_LL_DeInit,"ax",%progbits
 807              		.align	1
 808              		.global	USBD_LL_DeInit
 809              		.syntax unified
 810              		.thumb
 811              		.thumb_func
 813              	USBD_LL_DeInit:
 814              	.LVL76:
 815              	.LFB161:
 523:Middlewares/Third_Party/AL94_USB_Composite/COMPOSITE/Target/usbd_conf.c ****   HAL_StatusTypeDef hal_status = HAL_OK;
 816              		.loc 1 523 1 is_stmt 1 view -0
 817              		.cfi_startproc
ARM GAS  /tmp/ccXVBrPs.s 			page 29


 818              		@ args = 0, pretend = 0, frame = 0
 819              		@ frame_needed = 0, uses_anonymous_args = 0
 523:Middlewares/Third_Party/AL94_USB_Composite/COMPOSITE/Target/usbd_conf.c ****   HAL_StatusTypeDef hal_status = HAL_OK;
 820              		.loc 1 523 1 is_stmt 0 view .LVU154
 821 0000 08B5     		push	{r3, lr}
 822              	.LCFI16:
 823              		.cfi_def_cfa_offset 8
 824              		.cfi_offset 3, -8
 825              		.cfi_offset 14, -4
 524:Middlewares/Third_Party/AL94_USB_Composite/COMPOSITE/Target/usbd_conf.c ****   USBD_StatusTypeDef usb_status = USBD_OK;
 826              		.loc 1 524 3 is_stmt 1 view .LVU155
 827              	.LVL77:
 525:Middlewares/Third_Party/AL94_USB_Composite/COMPOSITE/Target/usbd_conf.c **** 
 828              		.loc 1 525 3 view .LVU156
 527:Middlewares/Third_Party/AL94_USB_Composite/COMPOSITE/Target/usbd_conf.c **** 
 829              		.loc 1 527 3 view .LVU157
 527:Middlewares/Third_Party/AL94_USB_Composite/COMPOSITE/Target/usbd_conf.c **** 
 830              		.loc 1 527 16 is_stmt 0 view .LVU158
 831 0002 D0F81003 		ldr	r0, [r0, #784]
 832              	.LVL78:
 527:Middlewares/Third_Party/AL94_USB_Composite/COMPOSITE/Target/usbd_conf.c **** 
 833              		.loc 1 527 16 view .LVU159
 834 0006 FFF7FEFF 		bl	HAL_PCD_DeInit
 835              	.LVL79:
 529:Middlewares/Third_Party/AL94_USB_Composite/COMPOSITE/Target/usbd_conf.c **** 
 836              		.loc 1 529 3 is_stmt 1 view .LVU160
 529:Middlewares/Third_Party/AL94_USB_Composite/COMPOSITE/Target/usbd_conf.c **** 
 837              		.loc 1 529 16 is_stmt 0 view .LVU161
 838 000a FFF7FEFF 		bl	USBD_Get_USB_Status
 839              	.LVL80:
 531:Middlewares/Third_Party/AL94_USB_Composite/COMPOSITE/Target/usbd_conf.c **** }
 840              		.loc 1 531 3 is_stmt 1 view .LVU162
 532:Middlewares/Third_Party/AL94_USB_Composite/COMPOSITE/Target/usbd_conf.c **** 
 841              		.loc 1 532 1 is_stmt 0 view .LVU163
 842 000e 08BD     		pop	{r3, pc}
 843              		.cfi_endproc
 844              	.LFE161:
 846              		.section	.text.USBD_LL_Start,"ax",%progbits
 847              		.align	1
 848              		.global	USBD_LL_Start
 849              		.syntax unified
 850              		.thumb
 851              		.thumb_func
 853              	USBD_LL_Start:
 854              	.LVL81:
 855              	.LFB162:
 540:Middlewares/Third_Party/AL94_USB_Composite/COMPOSITE/Target/usbd_conf.c ****   HAL_StatusTypeDef hal_status = HAL_OK;
 856              		.loc 1 540 1 is_stmt 1 view -0
 857              		.cfi_startproc
 858              		@ args = 0, pretend = 0, frame = 0
 859              		@ frame_needed = 0, uses_anonymous_args = 0
 540:Middlewares/Third_Party/AL94_USB_Composite/COMPOSITE/Target/usbd_conf.c ****   HAL_StatusTypeDef hal_status = HAL_OK;
 860              		.loc 1 540 1 is_stmt 0 view .LVU165
 861 0000 08B5     		push	{r3, lr}
 862              	.LCFI17:
 863              		.cfi_def_cfa_offset 8
 864              		.cfi_offset 3, -8
ARM GAS  /tmp/ccXVBrPs.s 			page 30


 865              		.cfi_offset 14, -4
 541:Middlewares/Third_Party/AL94_USB_Composite/COMPOSITE/Target/usbd_conf.c ****   USBD_StatusTypeDef usb_status = USBD_OK;
 866              		.loc 1 541 3 is_stmt 1 view .LVU166
 867              	.LVL82:
 542:Middlewares/Third_Party/AL94_USB_Composite/COMPOSITE/Target/usbd_conf.c **** 
 868              		.loc 1 542 3 view .LVU167
 544:Middlewares/Third_Party/AL94_USB_Composite/COMPOSITE/Target/usbd_conf.c **** 
 869              		.loc 1 544 3 view .LVU168
 544:Middlewares/Third_Party/AL94_USB_Composite/COMPOSITE/Target/usbd_conf.c **** 
 870              		.loc 1 544 16 is_stmt 0 view .LVU169
 871 0002 D0F81003 		ldr	r0, [r0, #784]
 872              	.LVL83:
 544:Middlewares/Third_Party/AL94_USB_Composite/COMPOSITE/Target/usbd_conf.c **** 
 873              		.loc 1 544 16 view .LVU170
 874 0006 FFF7FEFF 		bl	HAL_PCD_Start
 875              	.LVL84:
 546:Middlewares/Third_Party/AL94_USB_Composite/COMPOSITE/Target/usbd_conf.c **** 
 876              		.loc 1 546 3 is_stmt 1 view .LVU171
 546:Middlewares/Third_Party/AL94_USB_Composite/COMPOSITE/Target/usbd_conf.c **** 
 877              		.loc 1 546 16 is_stmt 0 view .LVU172
 878 000a FFF7FEFF 		bl	USBD_Get_USB_Status
 879              	.LVL85:
 548:Middlewares/Third_Party/AL94_USB_Composite/COMPOSITE/Target/usbd_conf.c **** }
 880              		.loc 1 548 3 is_stmt 1 view .LVU173
 549:Middlewares/Third_Party/AL94_USB_Composite/COMPOSITE/Target/usbd_conf.c **** 
 881              		.loc 1 549 1 is_stmt 0 view .LVU174
 882 000e 08BD     		pop	{r3, pc}
 883              		.cfi_endproc
 884              	.LFE162:
 886              		.section	.text.USBD_LL_Stop,"ax",%progbits
 887              		.align	1
 888              		.global	USBD_LL_Stop
 889              		.syntax unified
 890              		.thumb
 891              		.thumb_func
 893              	USBD_LL_Stop:
 894              	.LVL86:
 895              	.LFB163:
 557:Middlewares/Third_Party/AL94_USB_Composite/COMPOSITE/Target/usbd_conf.c ****   HAL_StatusTypeDef hal_status = HAL_OK;
 896              		.loc 1 557 1 is_stmt 1 view -0
 897              		.cfi_startproc
 898              		@ args = 0, pretend = 0, frame = 0
 899              		@ frame_needed = 0, uses_anonymous_args = 0
 557:Middlewares/Third_Party/AL94_USB_Composite/COMPOSITE/Target/usbd_conf.c ****   HAL_StatusTypeDef hal_status = HAL_OK;
 900              		.loc 1 557 1 is_stmt 0 view .LVU176
 901 0000 08B5     		push	{r3, lr}
 902              	.LCFI18:
 903              		.cfi_def_cfa_offset 8
 904              		.cfi_offset 3, -8
 905              		.cfi_offset 14, -4
 558:Middlewares/Third_Party/AL94_USB_Composite/COMPOSITE/Target/usbd_conf.c ****   USBD_StatusTypeDef usb_status = USBD_OK;
 906              		.loc 1 558 3 is_stmt 1 view .LVU177
 907              	.LVL87:
 559:Middlewares/Third_Party/AL94_USB_Composite/COMPOSITE/Target/usbd_conf.c **** 
 908              		.loc 1 559 3 view .LVU178
 561:Middlewares/Third_Party/AL94_USB_Composite/COMPOSITE/Target/usbd_conf.c **** 
 909              		.loc 1 561 3 view .LVU179
ARM GAS  /tmp/ccXVBrPs.s 			page 31


 561:Middlewares/Third_Party/AL94_USB_Composite/COMPOSITE/Target/usbd_conf.c **** 
 910              		.loc 1 561 16 is_stmt 0 view .LVU180
 911 0002 D0F81003 		ldr	r0, [r0, #784]
 912              	.LVL88:
 561:Middlewares/Third_Party/AL94_USB_Composite/COMPOSITE/Target/usbd_conf.c **** 
 913              		.loc 1 561 16 view .LVU181
 914 0006 FFF7FEFF 		bl	HAL_PCD_Stop
 915              	.LVL89:
 563:Middlewares/Third_Party/AL94_USB_Composite/COMPOSITE/Target/usbd_conf.c **** 
 916              		.loc 1 563 3 is_stmt 1 view .LVU182
 563:Middlewares/Third_Party/AL94_USB_Composite/COMPOSITE/Target/usbd_conf.c **** 
 917              		.loc 1 563 16 is_stmt 0 view .LVU183
 918 000a FFF7FEFF 		bl	USBD_Get_USB_Status
 919              	.LVL90:
 565:Middlewares/Third_Party/AL94_USB_Composite/COMPOSITE/Target/usbd_conf.c **** }
 920              		.loc 1 565 3 is_stmt 1 view .LVU184
 566:Middlewares/Third_Party/AL94_USB_Composite/COMPOSITE/Target/usbd_conf.c **** 
 921              		.loc 1 566 1 is_stmt 0 view .LVU185
 922 000e 08BD     		pop	{r3, pc}
 923              		.cfi_endproc
 924              	.LFE163:
 926              		.section	.text.USBD_LL_OpenEP,"ax",%progbits
 927              		.align	1
 928              		.global	USBD_LL_OpenEP
 929              		.syntax unified
 930              		.thumb
 931              		.thumb_func
 933              	USBD_LL_OpenEP:
 934              	.LVL91:
 935              	.LFB164:
 577:Middlewares/Third_Party/AL94_USB_Composite/COMPOSITE/Target/usbd_conf.c ****   HAL_StatusTypeDef hal_status = HAL_OK;
 936              		.loc 1 577 1 is_stmt 1 view -0
 937              		.cfi_startproc
 938              		@ args = 0, pretend = 0, frame = 0
 939              		@ frame_needed = 0, uses_anonymous_args = 0
 577:Middlewares/Third_Party/AL94_USB_Composite/COMPOSITE/Target/usbd_conf.c ****   HAL_StatusTypeDef hal_status = HAL_OK;
 940              		.loc 1 577 1 is_stmt 0 view .LVU187
 941 0000 08B5     		push	{r3, lr}
 942              	.LCFI19:
 943              		.cfi_def_cfa_offset 8
 944              		.cfi_offset 3, -8
 945              		.cfi_offset 14, -4
 946 0002 9446     		mov	ip, r2
 947 0004 1A46     		mov	r2, r3
 948              	.LVL92:
 578:Middlewares/Third_Party/AL94_USB_Composite/COMPOSITE/Target/usbd_conf.c ****   USBD_StatusTypeDef usb_status = USBD_OK;
 949              		.loc 1 578 3 is_stmt 1 view .LVU188
 579:Middlewares/Third_Party/AL94_USB_Composite/COMPOSITE/Target/usbd_conf.c **** 
 950              		.loc 1 579 3 view .LVU189
 581:Middlewares/Third_Party/AL94_USB_Composite/COMPOSITE/Target/usbd_conf.c **** 
 951              		.loc 1 581 3 view .LVU190
 581:Middlewares/Third_Party/AL94_USB_Composite/COMPOSITE/Target/usbd_conf.c **** 
 952              		.loc 1 581 16 is_stmt 0 view .LVU191
 953 0006 6346     		mov	r3, ip
 954              	.LVL93:
 581:Middlewares/Third_Party/AL94_USB_Composite/COMPOSITE/Target/usbd_conf.c **** 
 955              		.loc 1 581 16 view .LVU192
ARM GAS  /tmp/ccXVBrPs.s 			page 32


 956 0008 D0F81003 		ldr	r0, [r0, #784]
 957              	.LVL94:
 581:Middlewares/Third_Party/AL94_USB_Composite/COMPOSITE/Target/usbd_conf.c **** 
 958              		.loc 1 581 16 view .LVU193
 959 000c FFF7FEFF 		bl	HAL_PCD_EP_Open
 960              	.LVL95:
 583:Middlewares/Third_Party/AL94_USB_Composite/COMPOSITE/Target/usbd_conf.c **** 
 961              		.loc 1 583 3 is_stmt 1 view .LVU194
 583:Middlewares/Third_Party/AL94_USB_Composite/COMPOSITE/Target/usbd_conf.c **** 
 962              		.loc 1 583 16 is_stmt 0 view .LVU195
 963 0010 FFF7FEFF 		bl	USBD_Get_USB_Status
 964              	.LVL96:
 585:Middlewares/Third_Party/AL94_USB_Composite/COMPOSITE/Target/usbd_conf.c **** }
 965              		.loc 1 585 3 is_stmt 1 view .LVU196
 586:Middlewares/Third_Party/AL94_USB_Composite/COMPOSITE/Target/usbd_conf.c **** 
 966              		.loc 1 586 1 is_stmt 0 view .LVU197
 967 0014 08BD     		pop	{r3, pc}
 968              		.cfi_endproc
 969              	.LFE164:
 971              		.section	.text.USBD_LL_CloseEP,"ax",%progbits
 972              		.align	1
 973              		.global	USBD_LL_CloseEP
 974              		.syntax unified
 975              		.thumb
 976              		.thumb_func
 978              	USBD_LL_CloseEP:
 979              	.LVL97:
 980              	.LFB165:
 595:Middlewares/Third_Party/AL94_USB_Composite/COMPOSITE/Target/usbd_conf.c ****   HAL_StatusTypeDef hal_status = HAL_OK;
 981              		.loc 1 595 1 is_stmt 1 view -0
 982              		.cfi_startproc
 983              		@ args = 0, pretend = 0, frame = 0
 984              		@ frame_needed = 0, uses_anonymous_args = 0
 595:Middlewares/Third_Party/AL94_USB_Composite/COMPOSITE/Target/usbd_conf.c ****   HAL_StatusTypeDef hal_status = HAL_OK;
 985              		.loc 1 595 1 is_stmt 0 view .LVU199
 986 0000 08B5     		push	{r3, lr}
 987              	.LCFI20:
 988              		.cfi_def_cfa_offset 8
 989              		.cfi_offset 3, -8
 990              		.cfi_offset 14, -4
 596:Middlewares/Third_Party/AL94_USB_Composite/COMPOSITE/Target/usbd_conf.c ****   USBD_StatusTypeDef usb_status = USBD_OK;
 991              		.loc 1 596 3 is_stmt 1 view .LVU200
 992              	.LVL98:
 597:Middlewares/Third_Party/AL94_USB_Composite/COMPOSITE/Target/usbd_conf.c **** 
 993              		.loc 1 597 3 view .LVU201
 599:Middlewares/Third_Party/AL94_USB_Composite/COMPOSITE/Target/usbd_conf.c **** 
 994              		.loc 1 599 3 view .LVU202
 599:Middlewares/Third_Party/AL94_USB_Composite/COMPOSITE/Target/usbd_conf.c **** 
 995              		.loc 1 599 16 is_stmt 0 view .LVU203
 996 0002 D0F81003 		ldr	r0, [r0, #784]
 997              	.LVL99:
 599:Middlewares/Third_Party/AL94_USB_Composite/COMPOSITE/Target/usbd_conf.c **** 
 998              		.loc 1 599 16 view .LVU204
 999 0006 FFF7FEFF 		bl	HAL_PCD_EP_Close
 1000              	.LVL100:
 601:Middlewares/Third_Party/AL94_USB_Composite/COMPOSITE/Target/usbd_conf.c **** 
 1001              		.loc 1 601 3 is_stmt 1 view .LVU205
ARM GAS  /tmp/ccXVBrPs.s 			page 33


 601:Middlewares/Third_Party/AL94_USB_Composite/COMPOSITE/Target/usbd_conf.c **** 
 1002              		.loc 1 601 16 is_stmt 0 view .LVU206
 1003 000a FFF7FEFF 		bl	USBD_Get_USB_Status
 1004              	.LVL101:
 603:Middlewares/Third_Party/AL94_USB_Composite/COMPOSITE/Target/usbd_conf.c **** }
 1005              		.loc 1 603 3 is_stmt 1 view .LVU207
 604:Middlewares/Third_Party/AL94_USB_Composite/COMPOSITE/Target/usbd_conf.c **** 
 1006              		.loc 1 604 1 is_stmt 0 view .LVU208
 1007 000e 08BD     		pop	{r3, pc}
 1008              		.cfi_endproc
 1009              	.LFE165:
 1011              		.section	.text.USBD_LL_FlushEP,"ax",%progbits
 1012              		.align	1
 1013              		.global	USBD_LL_FlushEP
 1014              		.syntax unified
 1015              		.thumb
 1016              		.thumb_func
 1018              	USBD_LL_FlushEP:
 1019              	.LVL102:
 1020              	.LFB166:
 613:Middlewares/Third_Party/AL94_USB_Composite/COMPOSITE/Target/usbd_conf.c ****   HAL_StatusTypeDef hal_status = HAL_OK;
 1021              		.loc 1 613 1 is_stmt 1 view -0
 1022              		.cfi_startproc
 1023              		@ args = 0, pretend = 0, frame = 0
 1024              		@ frame_needed = 0, uses_anonymous_args = 0
 613:Middlewares/Third_Party/AL94_USB_Composite/COMPOSITE/Target/usbd_conf.c ****   HAL_StatusTypeDef hal_status = HAL_OK;
 1025              		.loc 1 613 1 is_stmt 0 view .LVU210
 1026 0000 08B5     		push	{r3, lr}
 1027              	.LCFI21:
 1028              		.cfi_def_cfa_offset 8
 1029              		.cfi_offset 3, -8
 1030              		.cfi_offset 14, -4
 614:Middlewares/Third_Party/AL94_USB_Composite/COMPOSITE/Target/usbd_conf.c ****   USBD_StatusTypeDef usb_status = USBD_OK;
 1031              		.loc 1 614 3 is_stmt 1 view .LVU211
 1032              	.LVL103:
 615:Middlewares/Third_Party/AL94_USB_Composite/COMPOSITE/Target/usbd_conf.c **** 
 1033              		.loc 1 615 3 view .LVU212
 617:Middlewares/Third_Party/AL94_USB_Composite/COMPOSITE/Target/usbd_conf.c **** 
 1034              		.loc 1 617 3 view .LVU213
 617:Middlewares/Third_Party/AL94_USB_Composite/COMPOSITE/Target/usbd_conf.c **** 
 1035              		.loc 1 617 16 is_stmt 0 view .LVU214
 1036 0002 D0F81003 		ldr	r0, [r0, #784]
 1037              	.LVL104:
 617:Middlewares/Third_Party/AL94_USB_Composite/COMPOSITE/Target/usbd_conf.c **** 
 1038              		.loc 1 617 16 view .LVU215
 1039 0006 FFF7FEFF 		bl	HAL_PCD_EP_Flush
 1040              	.LVL105:
 619:Middlewares/Third_Party/AL94_USB_Composite/COMPOSITE/Target/usbd_conf.c **** 
 1041              		.loc 1 619 3 is_stmt 1 view .LVU216
 619:Middlewares/Third_Party/AL94_USB_Composite/COMPOSITE/Target/usbd_conf.c **** 
 1042              		.loc 1 619 16 is_stmt 0 view .LVU217
 1043 000a FFF7FEFF 		bl	USBD_Get_USB_Status
 1044              	.LVL106:
 621:Middlewares/Third_Party/AL94_USB_Composite/COMPOSITE/Target/usbd_conf.c **** }
 1045              		.loc 1 621 3 is_stmt 1 view .LVU218
 622:Middlewares/Third_Party/AL94_USB_Composite/COMPOSITE/Target/usbd_conf.c **** 
 1046              		.loc 1 622 1 is_stmt 0 view .LVU219
ARM GAS  /tmp/ccXVBrPs.s 			page 34


 1047 000e 08BD     		pop	{r3, pc}
 1048              		.cfi_endproc
 1049              	.LFE166:
 1051              		.section	.text.USBD_LL_StallEP,"ax",%progbits
 1052              		.align	1
 1053              		.global	USBD_LL_StallEP
 1054              		.syntax unified
 1055              		.thumb
 1056              		.thumb_func
 1058              	USBD_LL_StallEP:
 1059              	.LVL107:
 1060              	.LFB167:
 631:Middlewares/Third_Party/AL94_USB_Composite/COMPOSITE/Target/usbd_conf.c ****   HAL_StatusTypeDef hal_status = HAL_OK;
 1061              		.loc 1 631 1 is_stmt 1 view -0
 1062              		.cfi_startproc
 1063              		@ args = 0, pretend = 0, frame = 0
 1064              		@ frame_needed = 0, uses_anonymous_args = 0
 631:Middlewares/Third_Party/AL94_USB_Composite/COMPOSITE/Target/usbd_conf.c ****   HAL_StatusTypeDef hal_status = HAL_OK;
 1065              		.loc 1 631 1 is_stmt 0 view .LVU221
 1066 0000 08B5     		push	{r3, lr}
 1067              	.LCFI22:
 1068              		.cfi_def_cfa_offset 8
 1069              		.cfi_offset 3, -8
 1070              		.cfi_offset 14, -4
 632:Middlewares/Third_Party/AL94_USB_Composite/COMPOSITE/Target/usbd_conf.c ****   USBD_StatusTypeDef usb_status = USBD_OK;
 1071              		.loc 1 632 3 is_stmt 1 view .LVU222
 1072              	.LVL108:
 633:Middlewares/Third_Party/AL94_USB_Composite/COMPOSITE/Target/usbd_conf.c **** 
 1073              		.loc 1 633 3 view .LVU223
 635:Middlewares/Third_Party/AL94_USB_Composite/COMPOSITE/Target/usbd_conf.c **** 
 1074              		.loc 1 635 3 view .LVU224
 635:Middlewares/Third_Party/AL94_USB_Composite/COMPOSITE/Target/usbd_conf.c **** 
 1075              		.loc 1 635 16 is_stmt 0 view .LVU225
 1076 0002 D0F81003 		ldr	r0, [r0, #784]
 1077              	.LVL109:
 635:Middlewares/Third_Party/AL94_USB_Composite/COMPOSITE/Target/usbd_conf.c **** 
 1078              		.loc 1 635 16 view .LVU226
 1079 0006 FFF7FEFF 		bl	HAL_PCD_EP_SetStall
 1080              	.LVL110:
 637:Middlewares/Third_Party/AL94_USB_Composite/COMPOSITE/Target/usbd_conf.c **** 
 1081              		.loc 1 637 3 is_stmt 1 view .LVU227
 637:Middlewares/Third_Party/AL94_USB_Composite/COMPOSITE/Target/usbd_conf.c **** 
 1082              		.loc 1 637 16 is_stmt 0 view .LVU228
 1083 000a FFF7FEFF 		bl	USBD_Get_USB_Status
 1084              	.LVL111:
 639:Middlewares/Third_Party/AL94_USB_Composite/COMPOSITE/Target/usbd_conf.c **** }
 1085              		.loc 1 639 3 is_stmt 1 view .LVU229
 640:Middlewares/Third_Party/AL94_USB_Composite/COMPOSITE/Target/usbd_conf.c **** 
 1086              		.loc 1 640 1 is_stmt 0 view .LVU230
 1087 000e 08BD     		pop	{r3, pc}
 1088              		.cfi_endproc
 1089              	.LFE167:
 1091              		.section	.text.USBD_LL_ClearStallEP,"ax",%progbits
 1092              		.align	1
 1093              		.global	USBD_LL_ClearStallEP
 1094              		.syntax unified
 1095              		.thumb
ARM GAS  /tmp/ccXVBrPs.s 			page 35


 1096              		.thumb_func
 1098              	USBD_LL_ClearStallEP:
 1099              	.LVL112:
 1100              	.LFB168:
 649:Middlewares/Third_Party/AL94_USB_Composite/COMPOSITE/Target/usbd_conf.c ****   HAL_StatusTypeDef hal_status = HAL_OK;
 1101              		.loc 1 649 1 is_stmt 1 view -0
 1102              		.cfi_startproc
 1103              		@ args = 0, pretend = 0, frame = 0
 1104              		@ frame_needed = 0, uses_anonymous_args = 0
 649:Middlewares/Third_Party/AL94_USB_Composite/COMPOSITE/Target/usbd_conf.c ****   HAL_StatusTypeDef hal_status = HAL_OK;
 1105              		.loc 1 649 1 is_stmt 0 view .LVU232
 1106 0000 08B5     		push	{r3, lr}
 1107              	.LCFI23:
 1108              		.cfi_def_cfa_offset 8
 1109              		.cfi_offset 3, -8
 1110              		.cfi_offset 14, -4
 650:Middlewares/Third_Party/AL94_USB_Composite/COMPOSITE/Target/usbd_conf.c ****   USBD_StatusTypeDef usb_status = USBD_OK;
 1111              		.loc 1 650 3 is_stmt 1 view .LVU233
 1112              	.LVL113:
 651:Middlewares/Third_Party/AL94_USB_Composite/COMPOSITE/Target/usbd_conf.c **** 
 1113              		.loc 1 651 3 view .LVU234
 653:Middlewares/Third_Party/AL94_USB_Composite/COMPOSITE/Target/usbd_conf.c **** 
 1114              		.loc 1 653 3 view .LVU235
 653:Middlewares/Third_Party/AL94_USB_Composite/COMPOSITE/Target/usbd_conf.c **** 
 1115              		.loc 1 653 16 is_stmt 0 view .LVU236
 1116 0002 D0F81003 		ldr	r0, [r0, #784]
 1117              	.LVL114:
 653:Middlewares/Third_Party/AL94_USB_Composite/COMPOSITE/Target/usbd_conf.c **** 
 1118              		.loc 1 653 16 view .LVU237
 1119 0006 FFF7FEFF 		bl	HAL_PCD_EP_ClrStall
 1120              	.LVL115:
 655:Middlewares/Third_Party/AL94_USB_Composite/COMPOSITE/Target/usbd_conf.c **** 
 1121              		.loc 1 655 3 is_stmt 1 view .LVU238
 655:Middlewares/Third_Party/AL94_USB_Composite/COMPOSITE/Target/usbd_conf.c **** 
 1122              		.loc 1 655 16 is_stmt 0 view .LVU239
 1123 000a FFF7FEFF 		bl	USBD_Get_USB_Status
 1124              	.LVL116:
 657:Middlewares/Third_Party/AL94_USB_Composite/COMPOSITE/Target/usbd_conf.c **** }
 1125              		.loc 1 657 3 is_stmt 1 view .LVU240
 658:Middlewares/Third_Party/AL94_USB_Composite/COMPOSITE/Target/usbd_conf.c **** 
 1126              		.loc 1 658 1 is_stmt 0 view .LVU241
 1127 000e 08BD     		pop	{r3, pc}
 1128              		.cfi_endproc
 1129              	.LFE168:
 1131              		.section	.text.USBD_LL_SetUSBAddress,"ax",%progbits
 1132              		.align	1
 1133              		.global	USBD_LL_SetUSBAddress
 1134              		.syntax unified
 1135              		.thumb
 1136              		.thumb_func
 1138              	USBD_LL_SetUSBAddress:
 1139              	.LVL117:
 1140              	.LFB170:
 687:Middlewares/Third_Party/AL94_USB_Composite/COMPOSITE/Target/usbd_conf.c ****   HAL_StatusTypeDef hal_status = HAL_OK;
 1141              		.loc 1 687 1 is_stmt 1 view -0
 1142              		.cfi_startproc
 1143              		@ args = 0, pretend = 0, frame = 0
ARM GAS  /tmp/ccXVBrPs.s 			page 36


 1144              		@ frame_needed = 0, uses_anonymous_args = 0
 687:Middlewares/Third_Party/AL94_USB_Composite/COMPOSITE/Target/usbd_conf.c ****   HAL_StatusTypeDef hal_status = HAL_OK;
 1145              		.loc 1 687 1 is_stmt 0 view .LVU243
 1146 0000 08B5     		push	{r3, lr}
 1147              	.LCFI24:
 1148              		.cfi_def_cfa_offset 8
 1149              		.cfi_offset 3, -8
 1150              		.cfi_offset 14, -4
 688:Middlewares/Third_Party/AL94_USB_Composite/COMPOSITE/Target/usbd_conf.c ****   USBD_StatusTypeDef usb_status = USBD_OK;
 1151              		.loc 1 688 3 is_stmt 1 view .LVU244
 1152              	.LVL118:
 689:Middlewares/Third_Party/AL94_USB_Composite/COMPOSITE/Target/usbd_conf.c **** 
 1153              		.loc 1 689 3 view .LVU245
 691:Middlewares/Third_Party/AL94_USB_Composite/COMPOSITE/Target/usbd_conf.c **** 
 1154              		.loc 1 691 3 view .LVU246
 691:Middlewares/Third_Party/AL94_USB_Composite/COMPOSITE/Target/usbd_conf.c **** 
 1155              		.loc 1 691 16 is_stmt 0 view .LVU247
 1156 0002 D0F81003 		ldr	r0, [r0, #784]
 1157              	.LVL119:
 691:Middlewares/Third_Party/AL94_USB_Composite/COMPOSITE/Target/usbd_conf.c **** 
 1158              		.loc 1 691 16 view .LVU248
 1159 0006 FFF7FEFF 		bl	HAL_PCD_SetAddress
 1160              	.LVL120:
 693:Middlewares/Third_Party/AL94_USB_Composite/COMPOSITE/Target/usbd_conf.c **** 
 1161              		.loc 1 693 3 is_stmt 1 view .LVU249
 693:Middlewares/Third_Party/AL94_USB_Composite/COMPOSITE/Target/usbd_conf.c **** 
 1162              		.loc 1 693 16 is_stmt 0 view .LVU250
 1163 000a FFF7FEFF 		bl	USBD_Get_USB_Status
 1164              	.LVL121:
 695:Middlewares/Third_Party/AL94_USB_Composite/COMPOSITE/Target/usbd_conf.c **** }
 1165              		.loc 1 695 3 is_stmt 1 view .LVU251
 696:Middlewares/Third_Party/AL94_USB_Composite/COMPOSITE/Target/usbd_conf.c **** 
 1166              		.loc 1 696 1 is_stmt 0 view .LVU252
 1167 000e 08BD     		pop	{r3, pc}
 1168              		.cfi_endproc
 1169              	.LFE170:
 1171              		.section	.text.USBD_LL_Transmit,"ax",%progbits
 1172              		.align	1
 1173              		.global	USBD_LL_Transmit
 1174              		.syntax unified
 1175              		.thumb
 1176              		.thumb_func
 1178              	USBD_LL_Transmit:
 1179              	.LVL122:
 1180              	.LFB171:
 707:Middlewares/Third_Party/AL94_USB_Composite/COMPOSITE/Target/usbd_conf.c ****   HAL_StatusTypeDef hal_status = HAL_OK;
 1181              		.loc 1 707 1 is_stmt 1 view -0
 1182              		.cfi_startproc
 1183              		@ args = 0, pretend = 0, frame = 0
 1184              		@ frame_needed = 0, uses_anonymous_args = 0
 707:Middlewares/Third_Party/AL94_USB_Composite/COMPOSITE/Target/usbd_conf.c ****   HAL_StatusTypeDef hal_status = HAL_OK;
 1185              		.loc 1 707 1 is_stmt 0 view .LVU254
 1186 0000 08B5     		push	{r3, lr}
 1187              	.LCFI25:
 1188              		.cfi_def_cfa_offset 8
 1189              		.cfi_offset 3, -8
 1190              		.cfi_offset 14, -4
ARM GAS  /tmp/ccXVBrPs.s 			page 37


 708:Middlewares/Third_Party/AL94_USB_Composite/COMPOSITE/Target/usbd_conf.c ****   USBD_StatusTypeDef usb_status = USBD_OK;
 1191              		.loc 1 708 3 is_stmt 1 view .LVU255
 1192              	.LVL123:
 709:Middlewares/Third_Party/AL94_USB_Composite/COMPOSITE/Target/usbd_conf.c **** 
 1193              		.loc 1 709 3 view .LVU256
 711:Middlewares/Third_Party/AL94_USB_Composite/COMPOSITE/Target/usbd_conf.c **** 
 1194              		.loc 1 711 3 view .LVU257
 711:Middlewares/Third_Party/AL94_USB_Composite/COMPOSITE/Target/usbd_conf.c **** 
 1195              		.loc 1 711 16 is_stmt 0 view .LVU258
 1196 0002 D0F81003 		ldr	r0, [r0, #784]
 1197              	.LVL124:
 711:Middlewares/Third_Party/AL94_USB_Composite/COMPOSITE/Target/usbd_conf.c **** 
 1198              		.loc 1 711 16 view .LVU259
 1199 0006 FFF7FEFF 		bl	HAL_PCD_EP_Transmit
 1200              	.LVL125:
 713:Middlewares/Third_Party/AL94_USB_Composite/COMPOSITE/Target/usbd_conf.c **** 
 1201              		.loc 1 713 3 is_stmt 1 view .LVU260
 713:Middlewares/Third_Party/AL94_USB_Composite/COMPOSITE/Target/usbd_conf.c **** 
 1202              		.loc 1 713 16 is_stmt 0 view .LVU261
 1203 000a FFF7FEFF 		bl	USBD_Get_USB_Status
 1204              	.LVL126:
 715:Middlewares/Third_Party/AL94_USB_Composite/COMPOSITE/Target/usbd_conf.c **** }
 1205              		.loc 1 715 3 is_stmt 1 view .LVU262
 716:Middlewares/Third_Party/AL94_USB_Composite/COMPOSITE/Target/usbd_conf.c **** 
 1206              		.loc 1 716 1 is_stmt 0 view .LVU263
 1207 000e 08BD     		pop	{r3, pc}
 1208              		.cfi_endproc
 1209              	.LFE171:
 1211              		.section	.text.USBD_LL_PrepareReceive,"ax",%progbits
 1212              		.align	1
 1213              		.global	USBD_LL_PrepareReceive
 1214              		.syntax unified
 1215              		.thumb
 1216              		.thumb_func
 1218              	USBD_LL_PrepareReceive:
 1219              	.LVL127:
 1220              	.LFB172:
 727:Middlewares/Third_Party/AL94_USB_Composite/COMPOSITE/Target/usbd_conf.c ****   HAL_StatusTypeDef hal_status = HAL_OK;
 1221              		.loc 1 727 1 is_stmt 1 view -0
 1222              		.cfi_startproc
 1223              		@ args = 0, pretend = 0, frame = 0
 1224              		@ frame_needed = 0, uses_anonymous_args = 0
 727:Middlewares/Third_Party/AL94_USB_Composite/COMPOSITE/Target/usbd_conf.c ****   HAL_StatusTypeDef hal_status = HAL_OK;
 1225              		.loc 1 727 1 is_stmt 0 view .LVU265
 1226 0000 08B5     		push	{r3, lr}
 1227              	.LCFI26:
 1228              		.cfi_def_cfa_offset 8
 1229              		.cfi_offset 3, -8
 1230              		.cfi_offset 14, -4
 728:Middlewares/Third_Party/AL94_USB_Composite/COMPOSITE/Target/usbd_conf.c ****   USBD_StatusTypeDef usb_status = USBD_OK;
 1231              		.loc 1 728 3 is_stmt 1 view .LVU266
 1232              	.LVL128:
 729:Middlewares/Third_Party/AL94_USB_Composite/COMPOSITE/Target/usbd_conf.c **** 
 1233              		.loc 1 729 3 view .LVU267
 731:Middlewares/Third_Party/AL94_USB_Composite/COMPOSITE/Target/usbd_conf.c **** 
 1234              		.loc 1 731 3 view .LVU268
 731:Middlewares/Third_Party/AL94_USB_Composite/COMPOSITE/Target/usbd_conf.c **** 
ARM GAS  /tmp/ccXVBrPs.s 			page 38


 1235              		.loc 1 731 16 is_stmt 0 view .LVU269
 1236 0002 D0F81003 		ldr	r0, [r0, #784]
 1237              	.LVL129:
 731:Middlewares/Third_Party/AL94_USB_Composite/COMPOSITE/Target/usbd_conf.c **** 
 1238              		.loc 1 731 16 view .LVU270
 1239 0006 FFF7FEFF 		bl	HAL_PCD_EP_Receive
 1240              	.LVL130:
 733:Middlewares/Third_Party/AL94_USB_Composite/COMPOSITE/Target/usbd_conf.c **** 
 1241              		.loc 1 733 3 is_stmt 1 view .LVU271
 733:Middlewares/Third_Party/AL94_USB_Composite/COMPOSITE/Target/usbd_conf.c **** 
 1242              		.loc 1 733 16 is_stmt 0 view .LVU272
 1243 000a FFF7FEFF 		bl	USBD_Get_USB_Status
 1244              	.LVL131:
 735:Middlewares/Third_Party/AL94_USB_Composite/COMPOSITE/Target/usbd_conf.c **** }
 1245              		.loc 1 735 3 is_stmt 1 view .LVU273
 736:Middlewares/Third_Party/AL94_USB_Composite/COMPOSITE/Target/usbd_conf.c **** 
 1246              		.loc 1 736 1 is_stmt 0 view .LVU274
 1247 000e 08BD     		pop	{r3, pc}
 1248              		.cfi_endproc
 1249              	.LFE172:
 1251              		.global	hpcd_USB_OTG_PTR
 1252              		.section	.bss.hpcd_USB_OTG_PTR,"aw",%nobits
 1253              		.align	2
 1254              		.set	.LANCHOR0,. + 0
 1257              	hpcd_USB_OTG_PTR:
 1258 0000 00000000 		.space	4
 1259              		.text
 1260              	.Letext0:
 1261              		.file 2 "/opt/gcc-arm-none-eabi-10.3-2021.10/arm-none-eabi/include/machine/_default_types.h"
 1262              		.file 3 "/opt/gcc-arm-none-eabi-10.3-2021.10/arm-none-eabi/include/sys/_stdint.h"
 1263              		.file 4 "Drivers/CMSIS/Include/core_cm7.h"
 1264              		.file 5 "Drivers/CMSIS/Device/ST/STM32F7xx/Include/stm32f723xx.h"
 1265              		.file 6 "Drivers/STM32F7xx_HAL_Driver/Inc/stm32f7xx_hal_def.h"
 1266              		.file 7 "Drivers/STM32F7xx_HAL_Driver/Inc/stm32f7xx_ll_usb.h"
 1267              		.file 8 "Drivers/STM32F7xx_HAL_Driver/Inc/stm32f7xx_hal_pcd.h"
 1268              		.file 9 "Middlewares/Third_Party/AL94_USB_Composite/COMPOSITE/Core/Inc/usbd_def.h"
 1269              		.file 10 "Middlewares/Third_Party/AL94_USB_Composite/COMPOSITE/Class/CDC_ACM/Inc/usbd_cdc_acm.h"
 1270              		.file 11 "Middlewares/Third_Party/AL94_USB_Composite/COMPOSITE/Class/HID_KEYBOARD/Inc/usbd_hid_key
 1271              		.file 12 "Core/Inc/usb_otg.h"
 1272              		.file 13 "Drivers/STM32F7xx_HAL_Driver/Inc/stm32f7xx_hal.h"
 1273              		.file 14 "Middlewares/Third_Party/AL94_USB_Composite/COMPOSITE/Core/Inc/usbd_core.h"
 1274              		.file 15 "Drivers/STM32F7xx_HAL_Driver/Inc/stm32f7xx_hal_pcd_ex.h"
ARM GAS  /tmp/ccXVBrPs.s 			page 39

