ARM GAS  /tmp/ccZpROtE.s 			page 1


   1              		.cpu cortex-m7
   2              		.arch armv7e-m
   3              		.fpu fpv5-sp-d16
   4              		.eabi_attribute 27, 1
   5              		.eabi_attribute 28, 1
   6              		.eabi_attribute 20, 1
   7              		.eabi_attribute 21, 1
   8              		.eabi_attribute 23, 3
   9              		.eabi_attribute 24, 1
  10              		.eabi_attribute 25, 1
  11              		.eabi_attribute 26, 1
  12              		.eabi_attribute 30, 1
  13              		.eabi_attribute 34, 1
  14              		.eabi_attribute 18, 4
  15              		.file	"usbd_conf.c"
  16              		.text
  17              	.Ltext0:
  18              		.cfi_sections	.debug_frame
  19              		.file 1 "Middlewares/Third_Party/AL94_USB_Composite/COMPOSITE/Target/usbd_conf.c"
  20              		.section	.text.HAL_PCDEx_SetTxFiFoInBytes,"ax",%progbits
  21              		.align	1
  22              		.global	HAL_PCDEx_SetTxFiFoInBytes
  23              		.syntax unified
  24              		.thumb
  25              		.thumb_func
  27              	HAL_PCDEx_SetTxFiFoInBytes:
  28              	.LVL0:
  29              	.LFB145:
   1:Middlewares/Third_Party/AL94_USB_Composite/COMPOSITE/Target/usbd_conf.c **** /* USER CODE BEGIN Header */
   2:Middlewares/Third_Party/AL94_USB_Composite/COMPOSITE/Target/usbd_conf.c **** /**
   3:Middlewares/Third_Party/AL94_USB_Composite/COMPOSITE/Target/usbd_conf.c ****   ******************************************************************************
   4:Middlewares/Third_Party/AL94_USB_Composite/COMPOSITE/Target/usbd_conf.c ****   * @file           : Target/usbd_conf.c
   5:Middlewares/Third_Party/AL94_USB_Composite/COMPOSITE/Target/usbd_conf.c ****   * @version        : v1.0_Cube
   6:Middlewares/Third_Party/AL94_USB_Composite/COMPOSITE/Target/usbd_conf.c ****   * @brief          : This file implements the board support package for the USB device library
   7:Middlewares/Third_Party/AL94_USB_Composite/COMPOSITE/Target/usbd_conf.c ****   ******************************************************************************
   8:Middlewares/Third_Party/AL94_USB_Composite/COMPOSITE/Target/usbd_conf.c ****   * @attention
   9:Middlewares/Third_Party/AL94_USB_Composite/COMPOSITE/Target/usbd_conf.c ****   *
  10:Middlewares/Third_Party/AL94_USB_Composite/COMPOSITE/Target/usbd_conf.c ****   * <h2><center>&copy; Copyright (c) 2021 STMicroelectronics.
  11:Middlewares/Third_Party/AL94_USB_Composite/COMPOSITE/Target/usbd_conf.c ****   * All rights reserved.</center></h2>
  12:Middlewares/Third_Party/AL94_USB_Composite/COMPOSITE/Target/usbd_conf.c ****   *
  13:Middlewares/Third_Party/AL94_USB_Composite/COMPOSITE/Target/usbd_conf.c ****   * This software component is licensed by ST under Ultimate Liberty license
  14:Middlewares/Third_Party/AL94_USB_Composite/COMPOSITE/Target/usbd_conf.c ****   * SLA0044, the "License"; You may not use this file except in compliance with
  15:Middlewares/Third_Party/AL94_USB_Composite/COMPOSITE/Target/usbd_conf.c ****   * the License. You may obtain a copy of the License at:
  16:Middlewares/Third_Party/AL94_USB_Composite/COMPOSITE/Target/usbd_conf.c ****   *                             www.st.com/SLA0044
  17:Middlewares/Third_Party/AL94_USB_Composite/COMPOSITE/Target/usbd_conf.c ****   *
  18:Middlewares/Third_Party/AL94_USB_Composite/COMPOSITE/Target/usbd_conf.c ****   ******************************************************************************
  19:Middlewares/Third_Party/AL94_USB_Composite/COMPOSITE/Target/usbd_conf.c ****   */
  20:Middlewares/Third_Party/AL94_USB_Composite/COMPOSITE/Target/usbd_conf.c **** /* USER CODE END Header */
  21:Middlewares/Third_Party/AL94_USB_Composite/COMPOSITE/Target/usbd_conf.c **** 
  22:Middlewares/Third_Party/AL94_USB_Composite/COMPOSITE/Target/usbd_conf.c **** /* Includes ------------------------------------------------------------------*/
  23:Middlewares/Third_Party/AL94_USB_Composite/COMPOSITE/Target/usbd_conf.c **** #include "usbd_def.h"
  24:Middlewares/Third_Party/AL94_USB_Composite/COMPOSITE/Target/usbd_conf.c **** #include "usbd_core.h"
  25:Middlewares/Third_Party/AL94_USB_Composite/COMPOSITE/Target/usbd_conf.c **** 
  26:Middlewares/Third_Party/AL94_USB_Composite/COMPOSITE/Target/usbd_conf.c **** /* USER CODE BEGIN Includes */
  27:Middlewares/Third_Party/AL94_USB_Composite/COMPOSITE/Target/usbd_conf.c **** #include "usbd_composite.h"
  28:Middlewares/Third_Party/AL94_USB_Composite/COMPOSITE/Target/usbd_conf.c **** #if (STM32F1_DEVICE) /** for STM32F1 or similar */
  29:Middlewares/Third_Party/AL94_USB_Composite/COMPOSITE/Target/usbd_conf.c **** #include "usb.h"
ARM GAS  /tmp/ccZpROtE.s 			page 2


  30:Middlewares/Third_Party/AL94_USB_Composite/COMPOSITE/Target/usbd_conf.c **** #else
  31:Middlewares/Third_Party/AL94_USB_Composite/COMPOSITE/Target/usbd_conf.c **** #include "usb_otg.h"
  32:Middlewares/Third_Party/AL94_USB_Composite/COMPOSITE/Target/usbd_conf.c **** #endif
  33:Middlewares/Third_Party/AL94_USB_Composite/COMPOSITE/Target/usbd_conf.c **** /* USER CODE END Includes */
  34:Middlewares/Third_Party/AL94_USB_Composite/COMPOSITE/Target/usbd_conf.c **** 
  35:Middlewares/Third_Party/AL94_USB_Composite/COMPOSITE/Target/usbd_conf.c **** /* Private typedef -----------------------------------------------------------*/
  36:Middlewares/Third_Party/AL94_USB_Composite/COMPOSITE/Target/usbd_conf.c **** /* Private define ------------------------------------------------------------*/
  37:Middlewares/Third_Party/AL94_USB_Composite/COMPOSITE/Target/usbd_conf.c **** /* Private macro -------------------------------------------------------------*/
  38:Middlewares/Third_Party/AL94_USB_Composite/COMPOSITE/Target/usbd_conf.c **** 
  39:Middlewares/Third_Party/AL94_USB_Composite/COMPOSITE/Target/usbd_conf.c **** /* USER CODE BEGIN PV */
  40:Middlewares/Third_Party/AL94_USB_Composite/COMPOSITE/Target/usbd_conf.c **** /* Private variables ---------------------------------------------------------*/
  41:Middlewares/Third_Party/AL94_USB_Composite/COMPOSITE/Target/usbd_conf.c **** 
  42:Middlewares/Third_Party/AL94_USB_Composite/COMPOSITE/Target/usbd_conf.c **** /* USER CODE END PV */
  43:Middlewares/Third_Party/AL94_USB_Composite/COMPOSITE/Target/usbd_conf.c **** PCD_HandleTypeDef *hpcd_USB_OTG_PTR;
  44:Middlewares/Third_Party/AL94_USB_Composite/COMPOSITE/Target/usbd_conf.c **** void Error_Handler(void);
  45:Middlewares/Third_Party/AL94_USB_Composite/COMPOSITE/Target/usbd_conf.c **** 
  46:Middlewares/Third_Party/AL94_USB_Composite/COMPOSITE/Target/usbd_conf.c **** /* External functions --------------------------------------------------------*/
  47:Middlewares/Third_Party/AL94_USB_Composite/COMPOSITE/Target/usbd_conf.c **** 
  48:Middlewares/Third_Party/AL94_USB_Composite/COMPOSITE/Target/usbd_conf.c **** /* USER CODE BEGIN 0 */
  49:Middlewares/Third_Party/AL94_USB_Composite/COMPOSITE/Target/usbd_conf.c **** 
  50:Middlewares/Third_Party/AL94_USB_Composite/COMPOSITE/Target/usbd_conf.c **** /* USER CODE END 0 */
  51:Middlewares/Third_Party/AL94_USB_Composite/COMPOSITE/Target/usbd_conf.c **** 
  52:Middlewares/Third_Party/AL94_USB_Composite/COMPOSITE/Target/usbd_conf.c **** /* USER CODE BEGIN PFP */
  53:Middlewares/Third_Party/AL94_USB_Composite/COMPOSITE/Target/usbd_conf.c **** /* Private function prototypes -----------------------------------------------*/
  54:Middlewares/Third_Party/AL94_USB_Composite/COMPOSITE/Target/usbd_conf.c **** USBD_StatusTypeDef USBD_Get_USB_Status(HAL_StatusTypeDef hal_status);
  55:Middlewares/Third_Party/AL94_USB_Composite/COMPOSITE/Target/usbd_conf.c **** HAL_StatusTypeDef HAL_PCDEx_SetTxFiFoInBytes(PCD_HandleTypeDef *hpcd, uint8_t fifo, uint16_t size);
  56:Middlewares/Third_Party/AL94_USB_Composite/COMPOSITE/Target/usbd_conf.c **** HAL_StatusTypeDef HAL_PCDEx_SetRxFiFoInBytes(PCD_HandleTypeDef *hpcd, uint16_t size);
  57:Middlewares/Third_Party/AL94_USB_Composite/COMPOSITE/Target/usbd_conf.c **** /* USER CODE END PFP */
  58:Middlewares/Third_Party/AL94_USB_Composite/COMPOSITE/Target/usbd_conf.c **** 
  59:Middlewares/Third_Party/AL94_USB_Composite/COMPOSITE/Target/usbd_conf.c **** /* Private functions ---------------------------------------------------------*/
  60:Middlewares/Third_Party/AL94_USB_Composite/COMPOSITE/Target/usbd_conf.c **** 
  61:Middlewares/Third_Party/AL94_USB_Composite/COMPOSITE/Target/usbd_conf.c **** /* USER CODE BEGIN 1 */
  62:Middlewares/Third_Party/AL94_USB_Composite/COMPOSITE/Target/usbd_conf.c **** #if(!STM32F1_DEVICE)
  63:Middlewares/Third_Party/AL94_USB_Composite/COMPOSITE/Target/usbd_conf.c **** HAL_StatusTypeDef HAL_PCDEx_SetTxFiFoInBytes(PCD_HandleTypeDef *hpcd, uint8_t fifo, uint16_t size)
  64:Middlewares/Third_Party/AL94_USB_Composite/COMPOSITE/Target/usbd_conf.c **** {
  30              		.loc 1 64 1 view -0
  31              		.cfi_startproc
  32              		@ args = 0, pretend = 0, frame = 0
  33              		@ frame_needed = 0, uses_anonymous_args = 0
  34              		.loc 1 64 1 is_stmt 0 view .LVU1
  35 0000 08B5     		push	{r3, lr}
  36              		.cfi_def_cfa_offset 8
  37              		.cfi_offset 3, -8
  38              		.cfi_offset 14, -4
  65:Middlewares/Third_Party/AL94_USB_Composite/COMPOSITE/Target/usbd_conf.c **** 	return HAL_PCDEx_SetTxFiFo(hpcd, fifo, (size/4));
  39              		.loc 1 65 2 is_stmt 1 view .LVU2
  40              		.loc 1 65 9 is_stmt 0 view .LVU3
  41 0002 9208     		lsrs	r2, r2, #2
  42              	.LVL1:
  43              		.loc 1 65 9 view .LVU4
  44 0004 FFF7FEFF 		bl	HAL_PCDEx_SetTxFiFo
  45              	.LVL2:
  66:Middlewares/Third_Party/AL94_USB_Composite/COMPOSITE/Target/usbd_conf.c **** }
  46              		.loc 1 66 1 view .LVU5
  47 0008 08BD     		pop	{r3, pc}
  48              		.cfi_endproc
  49              	.LFE145:
ARM GAS  /tmp/ccZpROtE.s 			page 3


  51              		.section	.text.HAL_PCDEx_SetRxFiFoInBytes,"ax",%progbits
  52              		.align	1
  53              		.global	HAL_PCDEx_SetRxFiFoInBytes
  54              		.syntax unified
  55              		.thumb
  56              		.thumb_func
  58              	HAL_PCDEx_SetRxFiFoInBytes:
  59              	.LVL3:
  60              	.LFB146:
  67:Middlewares/Third_Party/AL94_USB_Composite/COMPOSITE/Target/usbd_conf.c **** 
  68:Middlewares/Third_Party/AL94_USB_Composite/COMPOSITE/Target/usbd_conf.c **** HAL_StatusTypeDef HAL_PCDEx_SetRxFiFoInBytes(PCD_HandleTypeDef *hpcd, uint16_t size)
  69:Middlewares/Third_Party/AL94_USB_Composite/COMPOSITE/Target/usbd_conf.c **** {
  61              		.loc 1 69 1 is_stmt 1 view -0
  62              		.cfi_startproc
  63              		@ args = 0, pretend = 0, frame = 0
  64              		@ frame_needed = 0, uses_anonymous_args = 0
  65              		.loc 1 69 1 is_stmt 0 view .LVU7
  66 0000 08B5     		push	{r3, lr}
  67              		.cfi_def_cfa_offset 8
  68              		.cfi_offset 3, -8
  69              		.cfi_offset 14, -4
  70:Middlewares/Third_Party/AL94_USB_Composite/COMPOSITE/Target/usbd_conf.c **** 	return HAL_PCDEx_SetRxFiFo(hpcd, (size/4));
  70              		.loc 1 70 2 is_stmt 1 view .LVU8
  71              		.loc 1 70 9 is_stmt 0 view .LVU9
  72 0002 8908     		lsrs	r1, r1, #2
  73              	.LVL4:
  74              		.loc 1 70 9 view .LVU10
  75 0004 FFF7FEFF 		bl	HAL_PCDEx_SetRxFiFo
  76              	.LVL5:
  71:Middlewares/Third_Party/AL94_USB_Composite/COMPOSITE/Target/usbd_conf.c **** }
  77              		.loc 1 71 1 view .LVU11
  78 0008 08BD     		pop	{r3, pc}
  79              		.cfi_endproc
  80              	.LFE146:
  82              		.section	.text.HAL_PCD_MspInit,"ax",%progbits
  83              		.align	1
  84              		.weak	HAL_PCD_MspInit
  85              		.syntax unified
  86              		.thumb
  87              		.thumb_func
  89              	HAL_PCD_MspInit:
  90              	.LVL6:
  91              	.LFB147:
  72:Middlewares/Third_Party/AL94_USB_Composite/COMPOSITE/Target/usbd_conf.c **** #endif
  73:Middlewares/Third_Party/AL94_USB_Composite/COMPOSITE/Target/usbd_conf.c **** /* USER CODE END 1 */
  74:Middlewares/Third_Party/AL94_USB_Composite/COMPOSITE/Target/usbd_conf.c **** 
  75:Middlewares/Third_Party/AL94_USB_Composite/COMPOSITE/Target/usbd_conf.c **** /*******************************************************************************
  76:Middlewares/Third_Party/AL94_USB_Composite/COMPOSITE/Target/usbd_conf.c ****                        LL Driver Callbacks (PCD -> USB Device Library)
  77:Middlewares/Third_Party/AL94_USB_Composite/COMPOSITE/Target/usbd_conf.c **** *******************************************************************************/
  78:Middlewares/Third_Party/AL94_USB_Composite/COMPOSITE/Target/usbd_conf.c **** /* MSP Init */
  79:Middlewares/Third_Party/AL94_USB_Composite/COMPOSITE/Target/usbd_conf.c **** 
  80:Middlewares/Third_Party/AL94_USB_Composite/COMPOSITE/Target/usbd_conf.c **** __weak void HAL_PCD_MspInit(PCD_HandleTypeDef *pcdHandle)
  81:Middlewares/Third_Party/AL94_USB_Composite/COMPOSITE/Target/usbd_conf.c **** {
  92              		.loc 1 81 1 is_stmt 1 view -0
  93              		.cfi_startproc
  94              		@ args = 0, pretend = 0, frame = 0
  95              		@ frame_needed = 0, uses_anonymous_args = 0
ARM GAS  /tmp/ccZpROtE.s 			page 4


  96              		@ link register save eliminated.
  82:Middlewares/Third_Party/AL94_USB_Composite/COMPOSITE/Target/usbd_conf.c ****     /* @see usb_otg.c or usb.c for (STM32F1 or similar) generated by cube **/
  83:Middlewares/Third_Party/AL94_USB_Composite/COMPOSITE/Target/usbd_conf.c **** }
  97              		.loc 1 83 1 view .LVU13
  98 0000 7047     		bx	lr
  99              		.cfi_endproc
 100              	.LFE147:
 102              		.section	.text.HAL_PCD_MspDeInit,"ax",%progbits
 103              		.align	1
 104              		.weak	HAL_PCD_MspDeInit
 105              		.syntax unified
 106              		.thumb
 107              		.thumb_func
 109              	HAL_PCD_MspDeInit:
 110              	.LVL7:
 111              	.LFB148:
  84:Middlewares/Third_Party/AL94_USB_Composite/COMPOSITE/Target/usbd_conf.c **** 
  85:Middlewares/Third_Party/AL94_USB_Composite/COMPOSITE/Target/usbd_conf.c **** __weak void HAL_PCD_MspDeInit(PCD_HandleTypeDef *pcdHandle)
  86:Middlewares/Third_Party/AL94_USB_Composite/COMPOSITE/Target/usbd_conf.c **** {
 112              		.loc 1 86 1 view -0
 113              		.cfi_startproc
 114              		@ args = 0, pretend = 0, frame = 0
 115              		@ frame_needed = 0, uses_anonymous_args = 0
 116              		@ link register save eliminated.
  87:Middlewares/Third_Party/AL94_USB_Composite/COMPOSITE/Target/usbd_conf.c ****     /* @see usb_otg.c or usb.c for (STM32F1 or similar) generated by cube **/
  88:Middlewares/Third_Party/AL94_USB_Composite/COMPOSITE/Target/usbd_conf.c **** }
 117              		.loc 1 88 1 view .LVU15
 118 0000 7047     		bx	lr
 119              		.cfi_endproc
 120              	.LFE148:
 122              		.section	.text.HAL_PCD_SetupStageCallback,"ax",%progbits
 123              		.align	1
 124              		.global	HAL_PCD_SetupStageCallback
 125              		.syntax unified
 126              		.thumb
 127              		.thumb_func
 129              	HAL_PCD_SetupStageCallback:
 130              	.LVL8:
 131              	.LFB149:
  89:Middlewares/Third_Party/AL94_USB_Composite/COMPOSITE/Target/usbd_conf.c **** 
  90:Middlewares/Third_Party/AL94_USB_Composite/COMPOSITE/Target/usbd_conf.c **** /**
  91:Middlewares/Third_Party/AL94_USB_Composite/COMPOSITE/Target/usbd_conf.c ****   * @brief  Setup stage callback
  92:Middlewares/Third_Party/AL94_USB_Composite/COMPOSITE/Target/usbd_conf.c ****   * @param  hpcd: PCD handle
  93:Middlewares/Third_Party/AL94_USB_Composite/COMPOSITE/Target/usbd_conf.c ****   * @retval None
  94:Middlewares/Third_Party/AL94_USB_Composite/COMPOSITE/Target/usbd_conf.c ****   */
  95:Middlewares/Third_Party/AL94_USB_Composite/COMPOSITE/Target/usbd_conf.c **** #if (USE_HAL_PCD_REGISTER_CALLBACKS == 1U)
  96:Middlewares/Third_Party/AL94_USB_Composite/COMPOSITE/Target/usbd_conf.c **** static void PCD_SetupStageCallback(PCD_HandleTypeDef *hpcd)
  97:Middlewares/Third_Party/AL94_USB_Composite/COMPOSITE/Target/usbd_conf.c **** #else
  98:Middlewares/Third_Party/AL94_USB_Composite/COMPOSITE/Target/usbd_conf.c **** void HAL_PCD_SetupStageCallback(PCD_HandleTypeDef *hpcd)
  99:Middlewares/Third_Party/AL94_USB_Composite/COMPOSITE/Target/usbd_conf.c **** #endif /* USE_HAL_PCD_REGISTER_CALLBACKS */
 100:Middlewares/Third_Party/AL94_USB_Composite/COMPOSITE/Target/usbd_conf.c **** {
 132              		.loc 1 100 1 view -0
 133              		.cfi_startproc
 134              		@ args = 0, pretend = 0, frame = 0
 135              		@ frame_needed = 0, uses_anonymous_args = 0
 136              		.loc 1 100 1 is_stmt 0 view .LVU17
 137 0000 08B5     		push	{r3, lr}
ARM GAS  /tmp/ccZpROtE.s 			page 5


 138              		.cfi_def_cfa_offset 8
 139              		.cfi_offset 3, -8
 140              		.cfi_offset 14, -4
 101:Middlewares/Third_Party/AL94_USB_Composite/COMPOSITE/Target/usbd_conf.c ****   USBD_LL_SetupStage((USBD_HandleTypeDef *)hpcd->pData, (uint8_t *)hpcd->Setup);
 141              		.loc 1 101 3 is_stmt 1 view .LVU18
 142 0002 00F2C441 		addw	r1, r0, #1220
 143 0006 D0F80405 		ldr	r0, [r0, #1284]
 144              	.LVL9:
 145              		.loc 1 101 3 is_stmt 0 view .LVU19
 146 000a FFF7FEFF 		bl	USBD_LL_SetupStage
 147              	.LVL10:
 102:Middlewares/Third_Party/AL94_USB_Composite/COMPOSITE/Target/usbd_conf.c **** }
 148              		.loc 1 102 1 view .LVU20
 149 000e 08BD     		pop	{r3, pc}
 150              		.cfi_endproc
 151              	.LFE149:
 153              		.section	.text.HAL_PCD_DataOutStageCallback,"ax",%progbits
 154              		.align	1
 155              		.global	HAL_PCD_DataOutStageCallback
 156              		.syntax unified
 157              		.thumb
 158              		.thumb_func
 160              	HAL_PCD_DataOutStageCallback:
 161              	.LVL11:
 162              	.LFB150:
 103:Middlewares/Third_Party/AL94_USB_Composite/COMPOSITE/Target/usbd_conf.c **** 
 104:Middlewares/Third_Party/AL94_USB_Composite/COMPOSITE/Target/usbd_conf.c **** /**
 105:Middlewares/Third_Party/AL94_USB_Composite/COMPOSITE/Target/usbd_conf.c ****   * @brief  Data Out stage callback.
 106:Middlewares/Third_Party/AL94_USB_Composite/COMPOSITE/Target/usbd_conf.c ****   * @param  hpcd: PCD handle
 107:Middlewares/Third_Party/AL94_USB_Composite/COMPOSITE/Target/usbd_conf.c ****   * @param  epnum: Endpoint number
 108:Middlewares/Third_Party/AL94_USB_Composite/COMPOSITE/Target/usbd_conf.c ****   * @retval None
 109:Middlewares/Third_Party/AL94_USB_Composite/COMPOSITE/Target/usbd_conf.c ****   */
 110:Middlewares/Third_Party/AL94_USB_Composite/COMPOSITE/Target/usbd_conf.c **** #if (USE_HAL_PCD_REGISTER_CALLBACKS == 1U)
 111:Middlewares/Third_Party/AL94_USB_Composite/COMPOSITE/Target/usbd_conf.c **** static void PCD_DataOutStageCallback(PCD_HandleTypeDef *hpcd, uint8_t epnum)
 112:Middlewares/Third_Party/AL94_USB_Composite/COMPOSITE/Target/usbd_conf.c **** #else
 113:Middlewares/Third_Party/AL94_USB_Composite/COMPOSITE/Target/usbd_conf.c **** void HAL_PCD_DataOutStageCallback(PCD_HandleTypeDef *hpcd, uint8_t epnum)
 114:Middlewares/Third_Party/AL94_USB_Composite/COMPOSITE/Target/usbd_conf.c **** #endif /* USE_HAL_PCD_REGISTER_CALLBACKS */
 115:Middlewares/Third_Party/AL94_USB_Composite/COMPOSITE/Target/usbd_conf.c **** {
 163              		.loc 1 115 1 is_stmt 1 view -0
 164              		.cfi_startproc
 165              		@ args = 0, pretend = 0, frame = 0
 166              		@ frame_needed = 0, uses_anonymous_args = 0
 167              		.loc 1 115 1 is_stmt 0 view .LVU22
 168 0000 08B5     		push	{r3, lr}
 169              		.cfi_def_cfa_offset 8
 170              		.cfi_offset 3, -8
 171              		.cfi_offset 14, -4
 116:Middlewares/Third_Party/AL94_USB_Composite/COMPOSITE/Target/usbd_conf.c ****   USBD_LL_DataOutStage((USBD_HandleTypeDef *)hpcd->pData, epnum, hpcd->OUT_ep[epnum].xfer_buff);
 172              		.loc 1 116 3 is_stmt 1 view .LVU23
 173 0002 01EBC103 		add	r3, r1, r1, lsl #3
 174 0006 00EB8303 		add	r3, r0, r3, lsl #2
 175 000a D3F88C22 		ldr	r2, [r3, #652]
 176 000e D0F80405 		ldr	r0, [r0, #1284]
 177              	.LVL12:
 178              		.loc 1 116 3 is_stmt 0 view .LVU24
 179 0012 FFF7FEFF 		bl	USBD_LL_DataOutStage
 180              	.LVL13:
ARM GAS  /tmp/ccZpROtE.s 			page 6


 117:Middlewares/Third_Party/AL94_USB_Composite/COMPOSITE/Target/usbd_conf.c **** }
 181              		.loc 1 117 1 view .LVU25
 182 0016 08BD     		pop	{r3, pc}
 183              		.cfi_endproc
 184              	.LFE150:
 186              		.section	.text.HAL_PCD_DataInStageCallback,"ax",%progbits
 187              		.align	1
 188              		.global	HAL_PCD_DataInStageCallback
 189              		.syntax unified
 190              		.thumb
 191              		.thumb_func
 193              	HAL_PCD_DataInStageCallback:
 194              	.LVL14:
 195              	.LFB151:
 118:Middlewares/Third_Party/AL94_USB_Composite/COMPOSITE/Target/usbd_conf.c **** 
 119:Middlewares/Third_Party/AL94_USB_Composite/COMPOSITE/Target/usbd_conf.c **** /**
 120:Middlewares/Third_Party/AL94_USB_Composite/COMPOSITE/Target/usbd_conf.c ****   * @brief  Data In stage callback.
 121:Middlewares/Third_Party/AL94_USB_Composite/COMPOSITE/Target/usbd_conf.c ****   * @param  hpcd: PCD handle
 122:Middlewares/Third_Party/AL94_USB_Composite/COMPOSITE/Target/usbd_conf.c ****   * @param  epnum: Endpoint number
 123:Middlewares/Third_Party/AL94_USB_Composite/COMPOSITE/Target/usbd_conf.c ****   * @retval None
 124:Middlewares/Third_Party/AL94_USB_Composite/COMPOSITE/Target/usbd_conf.c ****   */
 125:Middlewares/Third_Party/AL94_USB_Composite/COMPOSITE/Target/usbd_conf.c **** #if (USE_HAL_PCD_REGISTER_CALLBACKS == 1U)
 126:Middlewares/Third_Party/AL94_USB_Composite/COMPOSITE/Target/usbd_conf.c **** static void PCD_DataInStageCallback(PCD_HandleTypeDef *hpcd, uint8_t epnum)
 127:Middlewares/Third_Party/AL94_USB_Composite/COMPOSITE/Target/usbd_conf.c **** #else
 128:Middlewares/Third_Party/AL94_USB_Composite/COMPOSITE/Target/usbd_conf.c **** void HAL_PCD_DataInStageCallback(PCD_HandleTypeDef *hpcd, uint8_t epnum)
 129:Middlewares/Third_Party/AL94_USB_Composite/COMPOSITE/Target/usbd_conf.c **** #endif /* USE_HAL_PCD_REGISTER_CALLBACKS */
 130:Middlewares/Third_Party/AL94_USB_Composite/COMPOSITE/Target/usbd_conf.c **** {
 196              		.loc 1 130 1 is_stmt 1 view -0
 197              		.cfi_startproc
 198              		@ args = 0, pretend = 0, frame = 0
 199              		@ frame_needed = 0, uses_anonymous_args = 0
 200              		.loc 1 130 1 is_stmt 0 view .LVU27
 201 0000 08B5     		push	{r3, lr}
 202              		.cfi_def_cfa_offset 8
 203              		.cfi_offset 3, -8
 204              		.cfi_offset 14, -4
 131:Middlewares/Third_Party/AL94_USB_Composite/COMPOSITE/Target/usbd_conf.c ****   USBD_LL_DataInStage((USBD_HandleTypeDef *)hpcd->pData, epnum, hpcd->IN_ep[epnum].xfer_buff);
 205              		.loc 1 131 3 is_stmt 1 view .LVU28
 206 0002 01EBC103 		add	r3, r1, r1, lsl #3
 207 0006 00EB8303 		add	r3, r0, r3, lsl #2
 208 000a DA6C     		ldr	r2, [r3, #76]
 209 000c D0F80405 		ldr	r0, [r0, #1284]
 210              	.LVL15:
 211              		.loc 1 131 3 is_stmt 0 view .LVU29
 212 0010 FFF7FEFF 		bl	USBD_LL_DataInStage
 213              	.LVL16:
 132:Middlewares/Third_Party/AL94_USB_Composite/COMPOSITE/Target/usbd_conf.c **** }
 214              		.loc 1 132 1 view .LVU30
 215 0014 08BD     		pop	{r3, pc}
 216              		.cfi_endproc
 217              	.LFE151:
 219              		.section	.text.HAL_PCD_SOFCallback,"ax",%progbits
 220              		.align	1
 221              		.global	HAL_PCD_SOFCallback
 222              		.syntax unified
 223              		.thumb
 224              		.thumb_func
ARM GAS  /tmp/ccZpROtE.s 			page 7


 226              	HAL_PCD_SOFCallback:
 227              	.LVL17:
 228              	.LFB152:
 133:Middlewares/Third_Party/AL94_USB_Composite/COMPOSITE/Target/usbd_conf.c **** 
 134:Middlewares/Third_Party/AL94_USB_Composite/COMPOSITE/Target/usbd_conf.c **** /**
 135:Middlewares/Third_Party/AL94_USB_Composite/COMPOSITE/Target/usbd_conf.c ****   * @brief  SOF callback.
 136:Middlewares/Third_Party/AL94_USB_Composite/COMPOSITE/Target/usbd_conf.c ****   * @param  hpcd: PCD handle
 137:Middlewares/Third_Party/AL94_USB_Composite/COMPOSITE/Target/usbd_conf.c ****   * @retval None
 138:Middlewares/Third_Party/AL94_USB_Composite/COMPOSITE/Target/usbd_conf.c ****   */
 139:Middlewares/Third_Party/AL94_USB_Composite/COMPOSITE/Target/usbd_conf.c **** #if (USE_HAL_PCD_REGISTER_CALLBACKS == 1U)
 140:Middlewares/Third_Party/AL94_USB_Composite/COMPOSITE/Target/usbd_conf.c **** static void PCD_SOFCallback(PCD_HandleTypeDef *hpcd)
 141:Middlewares/Third_Party/AL94_USB_Composite/COMPOSITE/Target/usbd_conf.c **** #else
 142:Middlewares/Third_Party/AL94_USB_Composite/COMPOSITE/Target/usbd_conf.c **** void HAL_PCD_SOFCallback(PCD_HandleTypeDef *hpcd)
 143:Middlewares/Third_Party/AL94_USB_Composite/COMPOSITE/Target/usbd_conf.c **** #endif /* USE_HAL_PCD_REGISTER_CALLBACKS */
 144:Middlewares/Third_Party/AL94_USB_Composite/COMPOSITE/Target/usbd_conf.c **** {
 229              		.loc 1 144 1 is_stmt 1 view -0
 230              		.cfi_startproc
 231              		@ args = 0, pretend = 0, frame = 0
 232              		@ frame_needed = 0, uses_anonymous_args = 0
 233              		.loc 1 144 1 is_stmt 0 view .LVU32
 234 0000 08B5     		push	{r3, lr}
 235              		.cfi_def_cfa_offset 8
 236              		.cfi_offset 3, -8
 237              		.cfi_offset 14, -4
 145:Middlewares/Third_Party/AL94_USB_Composite/COMPOSITE/Target/usbd_conf.c ****   USBD_LL_SOF((USBD_HandleTypeDef *)hpcd->pData);
 238              		.loc 1 145 3 is_stmt 1 view .LVU33
 239 0002 D0F80405 		ldr	r0, [r0, #1284]
 240              	.LVL18:
 241              		.loc 1 145 3 is_stmt 0 view .LVU34
 242 0006 FFF7FEFF 		bl	USBD_LL_SOF
 243              	.LVL19:
 146:Middlewares/Third_Party/AL94_USB_Composite/COMPOSITE/Target/usbd_conf.c **** }
 244              		.loc 1 146 1 view .LVU35
 245 000a 08BD     		pop	{r3, pc}
 246              		.cfi_endproc
 247              	.LFE152:
 249              		.section	.text.HAL_PCD_ResetCallback,"ax",%progbits
 250              		.align	1
 251              		.global	HAL_PCD_ResetCallback
 252              		.syntax unified
 253              		.thumb
 254              		.thumb_func
 256              	HAL_PCD_ResetCallback:
 257              	.LVL20:
 258              	.LFB153:
 147:Middlewares/Third_Party/AL94_USB_Composite/COMPOSITE/Target/usbd_conf.c **** 
 148:Middlewares/Third_Party/AL94_USB_Composite/COMPOSITE/Target/usbd_conf.c **** /**
 149:Middlewares/Third_Party/AL94_USB_Composite/COMPOSITE/Target/usbd_conf.c ****   * @brief  Reset callback.
 150:Middlewares/Third_Party/AL94_USB_Composite/COMPOSITE/Target/usbd_conf.c ****   * @param  hpcd: PCD handle
 151:Middlewares/Third_Party/AL94_USB_Composite/COMPOSITE/Target/usbd_conf.c ****   * @retval None
 152:Middlewares/Third_Party/AL94_USB_Composite/COMPOSITE/Target/usbd_conf.c ****   */
 153:Middlewares/Third_Party/AL94_USB_Composite/COMPOSITE/Target/usbd_conf.c **** #if (USE_HAL_PCD_REGISTER_CALLBACKS == 1U)
 154:Middlewares/Third_Party/AL94_USB_Composite/COMPOSITE/Target/usbd_conf.c **** static void PCD_ResetCallback(PCD_HandleTypeDef *hpcd)
 155:Middlewares/Third_Party/AL94_USB_Composite/COMPOSITE/Target/usbd_conf.c **** #else
 156:Middlewares/Third_Party/AL94_USB_Composite/COMPOSITE/Target/usbd_conf.c **** void HAL_PCD_ResetCallback(PCD_HandleTypeDef *hpcd)
 157:Middlewares/Third_Party/AL94_USB_Composite/COMPOSITE/Target/usbd_conf.c **** #endif /* USE_HAL_PCD_REGISTER_CALLBACKS */
 158:Middlewares/Third_Party/AL94_USB_Composite/COMPOSITE/Target/usbd_conf.c **** {
ARM GAS  /tmp/ccZpROtE.s 			page 8


 259              		.loc 1 158 1 is_stmt 1 view -0
 260              		.cfi_startproc
 261              		@ args = 0, pretend = 0, frame = 0
 262              		@ frame_needed = 0, uses_anonymous_args = 0
 263              		.loc 1 158 1 is_stmt 0 view .LVU37
 264 0000 10B5     		push	{r4, lr}
 265              		.cfi_def_cfa_offset 8
 266              		.cfi_offset 4, -8
 267              		.cfi_offset 14, -4
 268 0002 0446     		mov	r4, r0
 159:Middlewares/Third_Party/AL94_USB_Composite/COMPOSITE/Target/usbd_conf.c ****   USBD_SpeedTypeDef speed = USBD_SPEED_FULL;
 269              		.loc 1 159 3 is_stmt 1 view .LVU38
 270              	.LVL21:
 160:Middlewares/Third_Party/AL94_USB_Composite/COMPOSITE/Target/usbd_conf.c **** 
 161:Middlewares/Third_Party/AL94_USB_Composite/COMPOSITE/Target/usbd_conf.c ****   if (hpcd->Init.speed == PCD_SPEED_FULL)
 271              		.loc 1 161 3 view .LVU39
 272              		.loc 1 161 17 is_stmt 0 view .LVU40
 273 0004 C368     		ldr	r3, [r0, #12]
 274              		.loc 1 161 6 view .LVU41
 275 0006 022B     		cmp	r3, #2
 276 0008 0ED0     		beq	.L17
 162:Middlewares/Third_Party/AL94_USB_Composite/COMPOSITE/Target/usbd_conf.c ****   {
 163:Middlewares/Third_Party/AL94_USB_Composite/COMPOSITE/Target/usbd_conf.c ****     speed = USBD_SPEED_FULL; 
 164:Middlewares/Third_Party/AL94_USB_Composite/COMPOSITE/Target/usbd_conf.c ****   }
 165:Middlewares/Third_Party/AL94_USB_Composite/COMPOSITE/Target/usbd_conf.c ****   #if(!STM32F1_DEVICE)
 166:Middlewares/Third_Party/AL94_USB_Composite/COMPOSITE/Target/usbd_conf.c ****   else if (hpcd->Init.speed == PCD_SPEED_HIGH)
 277              		.loc 1 166 8 is_stmt 1 view .LVU42
 278              		.loc 1 166 11 is_stmt 0 view .LVU43
 279 000a 4BB9     		cbnz	r3, .L20
 167:Middlewares/Third_Party/AL94_USB_Composite/COMPOSITE/Target/usbd_conf.c ****   {
 168:Middlewares/Third_Party/AL94_USB_Composite/COMPOSITE/Target/usbd_conf.c ****     speed = USBD_SPEED_HIGH;
 280              		.loc 1 168 11 view .LVU44
 281 000c 0021     		movs	r1, #0
 282              	.LVL22:
 283              	.L16:
 169:Middlewares/Third_Party/AL94_USB_Composite/COMPOSITE/Target/usbd_conf.c ****   }
 170:Middlewares/Third_Party/AL94_USB_Composite/COMPOSITE/Target/usbd_conf.c ****   #endif
 171:Middlewares/Third_Party/AL94_USB_Composite/COMPOSITE/Target/usbd_conf.c ****   else
 172:Middlewares/Third_Party/AL94_USB_Composite/COMPOSITE/Target/usbd_conf.c ****   {
 173:Middlewares/Third_Party/AL94_USB_Composite/COMPOSITE/Target/usbd_conf.c ****     Error_Handler();
 174:Middlewares/Third_Party/AL94_USB_Composite/COMPOSITE/Target/usbd_conf.c ****   }
 175:Middlewares/Third_Party/AL94_USB_Composite/COMPOSITE/Target/usbd_conf.c ****   /* Set Speed. */
 176:Middlewares/Third_Party/AL94_USB_Composite/COMPOSITE/Target/usbd_conf.c ****   USBD_LL_SetSpeed((USBD_HandleTypeDef *)hpcd->pData, speed);
 284              		.loc 1 176 3 is_stmt 1 view .LVU45
 285 000e D4F80405 		ldr	r0, [r4, #1284]
 286 0012 FFF7FEFF 		bl	USBD_LL_SetSpeed
 287              	.LVL23:
 177:Middlewares/Third_Party/AL94_USB_Composite/COMPOSITE/Target/usbd_conf.c **** 
 178:Middlewares/Third_Party/AL94_USB_Composite/COMPOSITE/Target/usbd_conf.c ****   /* Reset Device. */
 179:Middlewares/Third_Party/AL94_USB_Composite/COMPOSITE/Target/usbd_conf.c ****   USBD_LL_Reset((USBD_HandleTypeDef *)hpcd->pData);
 288              		.loc 1 179 3 view .LVU46
 289 0016 D4F80405 		ldr	r0, [r4, #1284]
 290 001a FFF7FEFF 		bl	USBD_LL_Reset
 291              	.LVL24:
 180:Middlewares/Third_Party/AL94_USB_Composite/COMPOSITE/Target/usbd_conf.c **** }
 292              		.loc 1 180 1 is_stmt 0 view .LVU47
 293 001e 10BD     		pop	{r4, pc}
ARM GAS  /tmp/ccZpROtE.s 			page 9


 294              	.LVL25:
 295              	.L20:
 173:Middlewares/Third_Party/AL94_USB_Composite/COMPOSITE/Target/usbd_conf.c ****   }
 296              		.loc 1 173 5 is_stmt 1 view .LVU48
 297 0020 FFF7FEFF 		bl	Error_Handler
 298              	.LVL26:
 159:Middlewares/Third_Party/AL94_USB_Composite/COMPOSITE/Target/usbd_conf.c **** 
 299              		.loc 1 159 21 is_stmt 0 view .LVU49
 300 0024 0121     		movs	r1, #1
 301 0026 F2E7     		b	.L16
 302              	.LVL27:
 303              	.L17:
 163:Middlewares/Third_Party/AL94_USB_Composite/COMPOSITE/Target/usbd_conf.c ****   }
 304              		.loc 1 163 11 view .LVU50
 305 0028 0121     		movs	r1, #1
 306 002a F0E7     		b	.L16
 307              		.cfi_endproc
 308              	.LFE153:
 310              		.section	.text.HAL_PCD_SuspendCallback,"ax",%progbits
 311              		.align	1
 312              		.global	HAL_PCD_SuspendCallback
 313              		.syntax unified
 314              		.thumb
 315              		.thumb_func
 317              	HAL_PCD_SuspendCallback:
 318              	.LVL28:
 319              	.LFB154:
 181:Middlewares/Third_Party/AL94_USB_Composite/COMPOSITE/Target/usbd_conf.c **** 
 182:Middlewares/Third_Party/AL94_USB_Composite/COMPOSITE/Target/usbd_conf.c **** /**
 183:Middlewares/Third_Party/AL94_USB_Composite/COMPOSITE/Target/usbd_conf.c ****   * @brief  Suspend callback.
 184:Middlewares/Third_Party/AL94_USB_Composite/COMPOSITE/Target/usbd_conf.c ****   * When Low power mode is enabled the debug cannot be used (IAR, Keil doesn't support it)
 185:Middlewares/Third_Party/AL94_USB_Composite/COMPOSITE/Target/usbd_conf.c ****   * @param  hpcd: PCD handle
 186:Middlewares/Third_Party/AL94_USB_Composite/COMPOSITE/Target/usbd_conf.c ****   * @retval None
 187:Middlewares/Third_Party/AL94_USB_Composite/COMPOSITE/Target/usbd_conf.c ****   */
 188:Middlewares/Third_Party/AL94_USB_Composite/COMPOSITE/Target/usbd_conf.c **** #if (USE_HAL_PCD_REGISTER_CALLBACKS == 1U)
 189:Middlewares/Third_Party/AL94_USB_Composite/COMPOSITE/Target/usbd_conf.c **** static void PCD_SuspendCallback(PCD_HandleTypeDef *hpcd)
 190:Middlewares/Third_Party/AL94_USB_Composite/COMPOSITE/Target/usbd_conf.c **** #else
 191:Middlewares/Third_Party/AL94_USB_Composite/COMPOSITE/Target/usbd_conf.c **** void HAL_PCD_SuspendCallback(PCD_HandleTypeDef *hpcd)
 192:Middlewares/Third_Party/AL94_USB_Composite/COMPOSITE/Target/usbd_conf.c **** #endif /* USE_HAL_PCD_REGISTER_CALLBACKS */
 193:Middlewares/Third_Party/AL94_USB_Composite/COMPOSITE/Target/usbd_conf.c **** {
 320              		.loc 1 193 1 is_stmt 1 view -0
 321              		.cfi_startproc
 322              		@ args = 0, pretend = 0, frame = 0
 323              		@ frame_needed = 0, uses_anonymous_args = 0
 324              		.loc 1 193 1 is_stmt 0 view .LVU52
 325 0000 10B5     		push	{r4, lr}
 326              		.cfi_def_cfa_offset 8
 327              		.cfi_offset 4, -8
 328              		.cfi_offset 14, -4
 329 0002 0446     		mov	r4, r0
 194:Middlewares/Third_Party/AL94_USB_Composite/COMPOSITE/Target/usbd_conf.c ****   /* Inform USB library that core enters in suspend Mode. */
 195:Middlewares/Third_Party/AL94_USB_Composite/COMPOSITE/Target/usbd_conf.c ****   USBD_LL_Suspend((USBD_HandleTypeDef *)hpcd->pData);
 330              		.loc 1 195 3 is_stmt 1 view .LVU53
 331 0004 D0F80405 		ldr	r0, [r0, #1284]
 332              	.LVL29:
 333              		.loc 1 195 3 is_stmt 0 view .LVU54
 334 0008 FFF7FEFF 		bl	USBD_LL_Suspend
ARM GAS  /tmp/ccZpROtE.s 			page 10


 335              	.LVL30:
 196:Middlewares/Third_Party/AL94_USB_Composite/COMPOSITE/Target/usbd_conf.c **** #if (!STM32F1_DEVICE)
 197:Middlewares/Third_Party/AL94_USB_Composite/COMPOSITE/Target/usbd_conf.c ****   __HAL_PCD_GATE_PHYCLOCK(hpcd);
 336              		.loc 1 197 3 is_stmt 1 view .LVU55
 337 000c 2268     		ldr	r2, [r4]
 338 000e D2F8003E 		ldr	r3, [r2, #3584]
 339 0012 43F00103 		orr	r3, r3, #1
 340 0016 C2F8003E 		str	r3, [r2, #3584]
 198:Middlewares/Third_Party/AL94_USB_Composite/COMPOSITE/Target/usbd_conf.c ****   /* Enter in STOP mode. */
 199:Middlewares/Third_Party/AL94_USB_Composite/COMPOSITE/Target/usbd_conf.c ****   /* USER CODE BEGIN 2 */
 200:Middlewares/Third_Party/AL94_USB_Composite/COMPOSITE/Target/usbd_conf.c ****   if (hpcd->Init.low_power_enable)
 341              		.loc 1 200 3 view .LVU56
 342              		.loc 1 200 17 is_stmt 0 view .LVU57
 343 001a 236A     		ldr	r3, [r4, #32]
 344              		.loc 1 200 6 view .LVU58
 345 001c 23B1     		cbz	r3, .L21
 201:Middlewares/Third_Party/AL94_USB_Composite/COMPOSITE/Target/usbd_conf.c ****   {
 202:Middlewares/Third_Party/AL94_USB_Composite/COMPOSITE/Target/usbd_conf.c ****     /* Set SLEEPDEEP bit and SleepOnExit of Cortex System Control Register. */
 203:Middlewares/Third_Party/AL94_USB_Composite/COMPOSITE/Target/usbd_conf.c ****     SCB->SCR |= (uint32_t)((uint32_t)(SCB_SCR_SLEEPDEEP_Msk | SCB_SCR_SLEEPONEXIT_Msk));
 346              		.loc 1 203 5 is_stmt 1 view .LVU59
 347              		.loc 1 203 8 is_stmt 0 view .LVU60
 348 001e 034A     		ldr	r2, .L24
 349 0020 1369     		ldr	r3, [r2, #16]
 350              		.loc 1 203 14 view .LVU61
 351 0022 43F00603 		orr	r3, r3, #6
 352 0026 1361     		str	r3, [r2, #16]
 353              	.L21:
 204:Middlewares/Third_Party/AL94_USB_Composite/COMPOSITE/Target/usbd_conf.c ****   }
 205:Middlewares/Third_Party/AL94_USB_Composite/COMPOSITE/Target/usbd_conf.c **** #endif
 206:Middlewares/Third_Party/AL94_USB_Composite/COMPOSITE/Target/usbd_conf.c ****   /* USER CODE END 2 */
 207:Middlewares/Third_Party/AL94_USB_Composite/COMPOSITE/Target/usbd_conf.c **** }
 354              		.loc 1 207 1 view .LVU62
 355 0028 10BD     		pop	{r4, pc}
 356              	.LVL31:
 357              	.L25:
 358              		.loc 1 207 1 view .LVU63
 359 002a 00BF     		.align	2
 360              	.L24:
 361 002c 00ED00E0 		.word	-536810240
 362              		.cfi_endproc
 363              	.LFE154:
 365              		.section	.text.HAL_PCD_ResumeCallback,"ax",%progbits
 366              		.align	1
 367              		.global	HAL_PCD_ResumeCallback
 368              		.syntax unified
 369              		.thumb
 370              		.thumb_func
 372              	HAL_PCD_ResumeCallback:
 373              	.LVL32:
 374              	.LFB155:
 208:Middlewares/Third_Party/AL94_USB_Composite/COMPOSITE/Target/usbd_conf.c **** 
 209:Middlewares/Third_Party/AL94_USB_Composite/COMPOSITE/Target/usbd_conf.c **** /**
 210:Middlewares/Third_Party/AL94_USB_Composite/COMPOSITE/Target/usbd_conf.c ****   * @brief  Resume callback.
 211:Middlewares/Third_Party/AL94_USB_Composite/COMPOSITE/Target/usbd_conf.c ****   * When Low power mode is enabled the debug cannot be used (IAR, Keil doesn't support it)
 212:Middlewares/Third_Party/AL94_USB_Composite/COMPOSITE/Target/usbd_conf.c ****   * @param  hpcd: PCD handle
 213:Middlewares/Third_Party/AL94_USB_Composite/COMPOSITE/Target/usbd_conf.c ****   * @retval None
 214:Middlewares/Third_Party/AL94_USB_Composite/COMPOSITE/Target/usbd_conf.c ****   */
ARM GAS  /tmp/ccZpROtE.s 			page 11


 215:Middlewares/Third_Party/AL94_USB_Composite/COMPOSITE/Target/usbd_conf.c **** #if (USE_HAL_PCD_REGISTER_CALLBACKS == 1U)
 216:Middlewares/Third_Party/AL94_USB_Composite/COMPOSITE/Target/usbd_conf.c **** static void PCD_ResumeCallback(PCD_HandleTypeDef *hpcd)
 217:Middlewares/Third_Party/AL94_USB_Composite/COMPOSITE/Target/usbd_conf.c **** #else
 218:Middlewares/Third_Party/AL94_USB_Composite/COMPOSITE/Target/usbd_conf.c **** void HAL_PCD_ResumeCallback(PCD_HandleTypeDef *hpcd)
 219:Middlewares/Third_Party/AL94_USB_Composite/COMPOSITE/Target/usbd_conf.c **** #endif /* USE_HAL_PCD_REGISTER_CALLBACKS */
 220:Middlewares/Third_Party/AL94_USB_Composite/COMPOSITE/Target/usbd_conf.c **** {
 375              		.loc 1 220 1 is_stmt 1 view -0
 376              		.cfi_startproc
 377              		@ args = 0, pretend = 0, frame = 0
 378              		@ frame_needed = 0, uses_anonymous_args = 0
 379              		.loc 1 220 1 is_stmt 0 view .LVU65
 380 0000 08B5     		push	{r3, lr}
 381              		.cfi_def_cfa_offset 8
 382              		.cfi_offset 3, -8
 383              		.cfi_offset 14, -4
 221:Middlewares/Third_Party/AL94_USB_Composite/COMPOSITE/Target/usbd_conf.c ****   /* USER CODE BEGIN 3 */
 222:Middlewares/Third_Party/AL94_USB_Composite/COMPOSITE/Target/usbd_conf.c **** 
 223:Middlewares/Third_Party/AL94_USB_Composite/COMPOSITE/Target/usbd_conf.c ****   /* USER CODE END 3 */
 224:Middlewares/Third_Party/AL94_USB_Composite/COMPOSITE/Target/usbd_conf.c ****   USBD_LL_Resume((USBD_HandleTypeDef *)hpcd->pData);
 384              		.loc 1 224 3 is_stmt 1 view .LVU66
 385 0002 D0F80405 		ldr	r0, [r0, #1284]
 386              	.LVL33:
 387              		.loc 1 224 3 is_stmt 0 view .LVU67
 388 0006 FFF7FEFF 		bl	USBD_LL_Resume
 389              	.LVL34:
 225:Middlewares/Third_Party/AL94_USB_Composite/COMPOSITE/Target/usbd_conf.c **** }
 390              		.loc 1 225 1 view .LVU68
 391 000a 08BD     		pop	{r3, pc}
 392              		.cfi_endproc
 393              	.LFE155:
 395              		.section	.text.HAL_PCD_ISOOUTIncompleteCallback,"ax",%progbits
 396              		.align	1
 397              		.global	HAL_PCD_ISOOUTIncompleteCallback
 398              		.syntax unified
 399              		.thumb
 400              		.thumb_func
 402              	HAL_PCD_ISOOUTIncompleteCallback:
 403              	.LVL35:
 404              	.LFB156:
 226:Middlewares/Third_Party/AL94_USB_Composite/COMPOSITE/Target/usbd_conf.c **** 
 227:Middlewares/Third_Party/AL94_USB_Composite/COMPOSITE/Target/usbd_conf.c **** /**
 228:Middlewares/Third_Party/AL94_USB_Composite/COMPOSITE/Target/usbd_conf.c ****   * @brief  ISOOUTIncomplete callback.
 229:Middlewares/Third_Party/AL94_USB_Composite/COMPOSITE/Target/usbd_conf.c ****   * @param  hpcd: PCD handle
 230:Middlewares/Third_Party/AL94_USB_Composite/COMPOSITE/Target/usbd_conf.c ****   * @param  epnum: Endpoint number
 231:Middlewares/Third_Party/AL94_USB_Composite/COMPOSITE/Target/usbd_conf.c ****   * @retval None
 232:Middlewares/Third_Party/AL94_USB_Composite/COMPOSITE/Target/usbd_conf.c ****   */
 233:Middlewares/Third_Party/AL94_USB_Composite/COMPOSITE/Target/usbd_conf.c **** #if (USE_HAL_PCD_REGISTER_CALLBACKS == 1U)
 234:Middlewares/Third_Party/AL94_USB_Composite/COMPOSITE/Target/usbd_conf.c **** static void PCD_ISOOUTIncompleteCallback(PCD_HandleTypeDef *hpcd, uint8_t epnum)
 235:Middlewares/Third_Party/AL94_USB_Composite/COMPOSITE/Target/usbd_conf.c **** #else
 236:Middlewares/Third_Party/AL94_USB_Composite/COMPOSITE/Target/usbd_conf.c **** void HAL_PCD_ISOOUTIncompleteCallback(PCD_HandleTypeDef *hpcd, uint8_t epnum)
 237:Middlewares/Third_Party/AL94_USB_Composite/COMPOSITE/Target/usbd_conf.c **** #endif /* USE_HAL_PCD_REGISTER_CALLBACKS */
 238:Middlewares/Third_Party/AL94_USB_Composite/COMPOSITE/Target/usbd_conf.c **** {
 405              		.loc 1 238 1 is_stmt 1 view -0
 406              		.cfi_startproc
 407              		@ args = 0, pretend = 0, frame = 0
 408              		@ frame_needed = 0, uses_anonymous_args = 0
 409              		.loc 1 238 1 is_stmt 0 view .LVU70
ARM GAS  /tmp/ccZpROtE.s 			page 12


 410 0000 08B5     		push	{r3, lr}
 411              		.cfi_def_cfa_offset 8
 412              		.cfi_offset 3, -8
 413              		.cfi_offset 14, -4
 239:Middlewares/Third_Party/AL94_USB_Composite/COMPOSITE/Target/usbd_conf.c ****   USBD_LL_IsoOUTIncomplete((USBD_HandleTypeDef *)hpcd->pData, epnum);
 414              		.loc 1 239 3 is_stmt 1 view .LVU71
 415 0002 D0F80405 		ldr	r0, [r0, #1284]
 416              	.LVL36:
 417              		.loc 1 239 3 is_stmt 0 view .LVU72
 418 0006 FFF7FEFF 		bl	USBD_LL_IsoOUTIncomplete
 419              	.LVL37:
 240:Middlewares/Third_Party/AL94_USB_Composite/COMPOSITE/Target/usbd_conf.c **** }
 420              		.loc 1 240 1 view .LVU73
 421 000a 08BD     		pop	{r3, pc}
 422              		.cfi_endproc
 423              	.LFE156:
 425              		.section	.text.HAL_PCD_ISOINIncompleteCallback,"ax",%progbits
 426              		.align	1
 427              		.global	HAL_PCD_ISOINIncompleteCallback
 428              		.syntax unified
 429              		.thumb
 430              		.thumb_func
 432              	HAL_PCD_ISOINIncompleteCallback:
 433              	.LVL38:
 434              	.LFB157:
 241:Middlewares/Third_Party/AL94_USB_Composite/COMPOSITE/Target/usbd_conf.c **** 
 242:Middlewares/Third_Party/AL94_USB_Composite/COMPOSITE/Target/usbd_conf.c **** /**
 243:Middlewares/Third_Party/AL94_USB_Composite/COMPOSITE/Target/usbd_conf.c ****   * @brief  ISOINIncomplete callback.
 244:Middlewares/Third_Party/AL94_USB_Composite/COMPOSITE/Target/usbd_conf.c ****   * @param  hpcd: PCD handle
 245:Middlewares/Third_Party/AL94_USB_Composite/COMPOSITE/Target/usbd_conf.c ****   * @param  epnum: Endpoint number
 246:Middlewares/Third_Party/AL94_USB_Composite/COMPOSITE/Target/usbd_conf.c ****   * @retval None
 247:Middlewares/Third_Party/AL94_USB_Composite/COMPOSITE/Target/usbd_conf.c ****   */
 248:Middlewares/Third_Party/AL94_USB_Composite/COMPOSITE/Target/usbd_conf.c **** #if (USE_HAL_PCD_REGISTER_CALLBACKS == 1U)
 249:Middlewares/Third_Party/AL94_USB_Composite/COMPOSITE/Target/usbd_conf.c **** static void PCD_ISOINIncompleteCallback(PCD_HandleTypeDef *hpcd, uint8_t epnum)
 250:Middlewares/Third_Party/AL94_USB_Composite/COMPOSITE/Target/usbd_conf.c **** #else
 251:Middlewares/Third_Party/AL94_USB_Composite/COMPOSITE/Target/usbd_conf.c **** void HAL_PCD_ISOINIncompleteCallback(PCD_HandleTypeDef *hpcd, uint8_t epnum)
 252:Middlewares/Third_Party/AL94_USB_Composite/COMPOSITE/Target/usbd_conf.c **** #endif /* USE_HAL_PCD_REGISTER_CALLBACKS */
 253:Middlewares/Third_Party/AL94_USB_Composite/COMPOSITE/Target/usbd_conf.c **** {
 435              		.loc 1 253 1 is_stmt 1 view -0
 436              		.cfi_startproc
 437              		@ args = 0, pretend = 0, frame = 0
 438              		@ frame_needed = 0, uses_anonymous_args = 0
 439              		.loc 1 253 1 is_stmt 0 view .LVU75
 440 0000 08B5     		push	{r3, lr}
 441              		.cfi_def_cfa_offset 8
 442              		.cfi_offset 3, -8
 443              		.cfi_offset 14, -4
 254:Middlewares/Third_Party/AL94_USB_Composite/COMPOSITE/Target/usbd_conf.c ****   USBD_LL_IsoINIncomplete((USBD_HandleTypeDef *)hpcd->pData, epnum);
 444              		.loc 1 254 3 is_stmt 1 view .LVU76
 445 0002 D0F80405 		ldr	r0, [r0, #1284]
 446              	.LVL39:
 447              		.loc 1 254 3 is_stmt 0 view .LVU77
 448 0006 FFF7FEFF 		bl	USBD_LL_IsoINIncomplete
 449              	.LVL40:
 255:Middlewares/Third_Party/AL94_USB_Composite/COMPOSITE/Target/usbd_conf.c **** }
 450              		.loc 1 255 1 view .LVU78
 451 000a 08BD     		pop	{r3, pc}
ARM GAS  /tmp/ccZpROtE.s 			page 13


 452              		.cfi_endproc
 453              	.LFE157:
 455              		.section	.text.HAL_PCD_ConnectCallback,"ax",%progbits
 456              		.align	1
 457              		.global	HAL_PCD_ConnectCallback
 458              		.syntax unified
 459              		.thumb
 460              		.thumb_func
 462              	HAL_PCD_ConnectCallback:
 463              	.LVL41:
 464              	.LFB158:
 256:Middlewares/Third_Party/AL94_USB_Composite/COMPOSITE/Target/usbd_conf.c **** 
 257:Middlewares/Third_Party/AL94_USB_Composite/COMPOSITE/Target/usbd_conf.c **** /**
 258:Middlewares/Third_Party/AL94_USB_Composite/COMPOSITE/Target/usbd_conf.c ****   * @brief  Connect callback.
 259:Middlewares/Third_Party/AL94_USB_Composite/COMPOSITE/Target/usbd_conf.c ****   * @param  hpcd: PCD handle
 260:Middlewares/Third_Party/AL94_USB_Composite/COMPOSITE/Target/usbd_conf.c ****   * @retval None
 261:Middlewares/Third_Party/AL94_USB_Composite/COMPOSITE/Target/usbd_conf.c ****   */
 262:Middlewares/Third_Party/AL94_USB_Composite/COMPOSITE/Target/usbd_conf.c **** #if (USE_HAL_PCD_REGISTER_CALLBACKS == 1U)
 263:Middlewares/Third_Party/AL94_USB_Composite/COMPOSITE/Target/usbd_conf.c **** static void PCD_ConnectCallback(PCD_HandleTypeDef *hpcd)
 264:Middlewares/Third_Party/AL94_USB_Composite/COMPOSITE/Target/usbd_conf.c **** #else
 265:Middlewares/Third_Party/AL94_USB_Composite/COMPOSITE/Target/usbd_conf.c **** void HAL_PCD_ConnectCallback(PCD_HandleTypeDef *hpcd)
 266:Middlewares/Third_Party/AL94_USB_Composite/COMPOSITE/Target/usbd_conf.c **** #endif /* USE_HAL_PCD_REGISTER_CALLBACKS */
 267:Middlewares/Third_Party/AL94_USB_Composite/COMPOSITE/Target/usbd_conf.c **** {
 465              		.loc 1 267 1 is_stmt 1 view -0
 466              		.cfi_startproc
 467              		@ args = 0, pretend = 0, frame = 0
 468              		@ frame_needed = 0, uses_anonymous_args = 0
 469              		.loc 1 267 1 is_stmt 0 view .LVU80
 470 0000 08B5     		push	{r3, lr}
 471              		.cfi_def_cfa_offset 8
 472              		.cfi_offset 3, -8
 473              		.cfi_offset 14, -4
 268:Middlewares/Third_Party/AL94_USB_Composite/COMPOSITE/Target/usbd_conf.c ****   USBD_LL_DevConnected((USBD_HandleTypeDef *)hpcd->pData);
 474              		.loc 1 268 3 is_stmt 1 view .LVU81
 475 0002 D0F80405 		ldr	r0, [r0, #1284]
 476              	.LVL42:
 477              		.loc 1 268 3 is_stmt 0 view .LVU82
 478 0006 FFF7FEFF 		bl	USBD_LL_DevConnected
 479              	.LVL43:
 269:Middlewares/Third_Party/AL94_USB_Composite/COMPOSITE/Target/usbd_conf.c **** }
 480              		.loc 1 269 1 view .LVU83
 481 000a 08BD     		pop	{r3, pc}
 482              		.cfi_endproc
 483              	.LFE158:
 485              		.section	.text.HAL_PCD_DisconnectCallback,"ax",%progbits
 486              		.align	1
 487              		.global	HAL_PCD_DisconnectCallback
 488              		.syntax unified
 489              		.thumb
 490              		.thumb_func
 492              	HAL_PCD_DisconnectCallback:
 493              	.LVL44:
 494              	.LFB159:
 270:Middlewares/Third_Party/AL94_USB_Composite/COMPOSITE/Target/usbd_conf.c **** 
 271:Middlewares/Third_Party/AL94_USB_Composite/COMPOSITE/Target/usbd_conf.c **** /**
 272:Middlewares/Third_Party/AL94_USB_Composite/COMPOSITE/Target/usbd_conf.c ****   * @brief  Disconnect callback.
 273:Middlewares/Third_Party/AL94_USB_Composite/COMPOSITE/Target/usbd_conf.c ****   * @param  hpcd: PCD handle
ARM GAS  /tmp/ccZpROtE.s 			page 14


 274:Middlewares/Third_Party/AL94_USB_Composite/COMPOSITE/Target/usbd_conf.c ****   * @retval None
 275:Middlewares/Third_Party/AL94_USB_Composite/COMPOSITE/Target/usbd_conf.c ****   */
 276:Middlewares/Third_Party/AL94_USB_Composite/COMPOSITE/Target/usbd_conf.c **** #if (USE_HAL_PCD_REGISTER_CALLBACKS == 1U)
 277:Middlewares/Third_Party/AL94_USB_Composite/COMPOSITE/Target/usbd_conf.c **** static void PCD_DisconnectCallback(PCD_HandleTypeDef *hpcd)
 278:Middlewares/Third_Party/AL94_USB_Composite/COMPOSITE/Target/usbd_conf.c **** #else
 279:Middlewares/Third_Party/AL94_USB_Composite/COMPOSITE/Target/usbd_conf.c **** void HAL_PCD_DisconnectCallback(PCD_HandleTypeDef *hpcd)
 280:Middlewares/Third_Party/AL94_USB_Composite/COMPOSITE/Target/usbd_conf.c **** #endif /* USE_HAL_PCD_REGISTER_CALLBACKS */
 281:Middlewares/Third_Party/AL94_USB_Composite/COMPOSITE/Target/usbd_conf.c **** {
 495              		.loc 1 281 1 is_stmt 1 view -0
 496              		.cfi_startproc
 497              		@ args = 0, pretend = 0, frame = 0
 498              		@ frame_needed = 0, uses_anonymous_args = 0
 499              		.loc 1 281 1 is_stmt 0 view .LVU85
 500 0000 08B5     		push	{r3, lr}
 501              		.cfi_def_cfa_offset 8
 502              		.cfi_offset 3, -8
 503              		.cfi_offset 14, -4
 282:Middlewares/Third_Party/AL94_USB_Composite/COMPOSITE/Target/usbd_conf.c ****   USBD_LL_DevDisconnected((USBD_HandleTypeDef *)hpcd->pData);
 504              		.loc 1 282 3 is_stmt 1 view .LVU86
 505 0002 D0F80405 		ldr	r0, [r0, #1284]
 506              	.LVL45:
 507              		.loc 1 282 3 is_stmt 0 view .LVU87
 508 0006 FFF7FEFF 		bl	USBD_LL_DevDisconnected
 509              	.LVL46:
 283:Middlewares/Third_Party/AL94_USB_Composite/COMPOSITE/Target/usbd_conf.c **** }
 510              		.loc 1 283 1 view .LVU88
 511 000a 08BD     		pop	{r3, pc}
 512              		.cfi_endproc
 513              	.LFE159:
 515              		.section	.text.USBD_LL_Init,"ax",%progbits
 516              		.align	1
 517              		.global	USBD_LL_Init
 518              		.syntax unified
 519              		.thumb
 520              		.thumb_func
 522              	USBD_LL_Init:
 523              	.LVL47:
 524              	.LFB160:
 284:Middlewares/Third_Party/AL94_USB_Composite/COMPOSITE/Target/usbd_conf.c **** 
 285:Middlewares/Third_Party/AL94_USB_Composite/COMPOSITE/Target/usbd_conf.c **** /*******************************************************************************
 286:Middlewares/Third_Party/AL94_USB_Composite/COMPOSITE/Target/usbd_conf.c ****                        LL Driver Interface (USB Device Library --> PCD)
 287:Middlewares/Third_Party/AL94_USB_Composite/COMPOSITE/Target/usbd_conf.c **** *******************************************************************************/
 288:Middlewares/Third_Party/AL94_USB_Composite/COMPOSITE/Target/usbd_conf.c **** 
 289:Middlewares/Third_Party/AL94_USB_Composite/COMPOSITE/Target/usbd_conf.c **** /**
 290:Middlewares/Third_Party/AL94_USB_Composite/COMPOSITE/Target/usbd_conf.c ****   * @brief  Initializes the low level portion of the device driver.
 291:Middlewares/Third_Party/AL94_USB_Composite/COMPOSITE/Target/usbd_conf.c ****   * @param  pdev: Device handle
 292:Middlewares/Third_Party/AL94_USB_Composite/COMPOSITE/Target/usbd_conf.c ****   * @retval USBD status
 293:Middlewares/Third_Party/AL94_USB_Composite/COMPOSITE/Target/usbd_conf.c ****   */
 294:Middlewares/Third_Party/AL94_USB_Composite/COMPOSITE/Target/usbd_conf.c **** USBD_StatusTypeDef USBD_LL_Init(USBD_HandleTypeDef *pdev)
 295:Middlewares/Third_Party/AL94_USB_Composite/COMPOSITE/Target/usbd_conf.c **** {
 525              		.loc 1 295 1 is_stmt 1 view -0
 526              		.cfi_startproc
 527              		@ args = 0, pretend = 0, frame = 0
 528              		@ frame_needed = 0, uses_anonymous_args = 0
 529              		.loc 1 295 1 is_stmt 0 view .LVU90
 530 0000 38B5     		push	{r3, r4, r5, lr}
 531              		.cfi_def_cfa_offset 16
ARM GAS  /tmp/ccZpROtE.s 			page 15


 532              		.cfi_offset 3, -16
 533              		.cfi_offset 4, -12
 534              		.cfi_offset 5, -8
 535              		.cfi_offset 14, -4
 296:Middlewares/Third_Party/AL94_USB_Composite/COMPOSITE/Target/usbd_conf.c **** #if (USBD_USE_HS == 1)
 297:Middlewares/Third_Party/AL94_USB_Composite/COMPOSITE/Target/usbd_conf.c ****   /** HIGH SPEED USB */
 298:Middlewares/Third_Party/AL94_USB_Composite/COMPOSITE/Target/usbd_conf.c ****   hpcd_USB_OTG_PTR = &hpcd_USB_OTG_HS;
 536              		.loc 1 298 3 is_stmt 1 view .LVU91
 537              		.loc 1 298 20 is_stmt 0 view .LVU92
 538 0002 1B4B     		ldr	r3, .L42
 539 0004 1B4A     		ldr	r2, .L42+4
 540 0006 1A60     		str	r2, [r3]
 299:Middlewares/Third_Party/AL94_USB_Composite/COMPOSITE/Target/usbd_conf.c **** 
 300:Middlewares/Third_Party/AL94_USB_Composite/COMPOSITE/Target/usbd_conf.c ****   if (pdev->id == DEVICE_HS)
 541              		.loc 1 300 3 is_stmt 1 view .LVU93
 542              		.loc 1 300 11 is_stmt 0 view .LVU94
 543 0008 0378     		ldrb	r3, [r0]	@ zero_extendqisi2
 544              		.loc 1 300 6 view .LVU95
 545 000a 012B     		cmp	r3, #1
 546 000c 01D0     		beq	.L41
 547              	.LVL48:
 548              	.L37:
 301:Middlewares/Third_Party/AL94_USB_Composite/COMPOSITE/Target/usbd_conf.c ****   {
 302:Middlewares/Third_Party/AL94_USB_Composite/COMPOSITE/Target/usbd_conf.c ****     /* Link the driver to the stack. */
 303:Middlewares/Third_Party/AL94_USB_Composite/COMPOSITE/Target/usbd_conf.c ****     hpcd_USB_OTG_PTR->pData = pdev;
 304:Middlewares/Third_Party/AL94_USB_Composite/COMPOSITE/Target/usbd_conf.c ****     pdev->pData = hpcd_USB_OTG_PTR;
 305:Middlewares/Third_Party/AL94_USB_Composite/COMPOSITE/Target/usbd_conf.c **** 
 306:Middlewares/Third_Party/AL94_USB_Composite/COMPOSITE/Target/usbd_conf.c ****     /* @see HAL_PCD_Init() usb_otg.c generated by cube **/
 307:Middlewares/Third_Party/AL94_USB_Composite/COMPOSITE/Target/usbd_conf.c **** 
 308:Middlewares/Third_Party/AL94_USB_Composite/COMPOSITE/Target/usbd_conf.c ****     HAL_PCDEx_SetRxFiFoInBytes(hpcd_USB_OTG_PTR, 1024);
 309:Middlewares/Third_Party/AL94_USB_Composite/COMPOSITE/Target/usbd_conf.c **** 
 310:Middlewares/Third_Party/AL94_USB_Composite/COMPOSITE/Target/usbd_conf.c ****     HAL_PCDEx_SetTxFiFoInBytes(hpcd_USB_OTG_PTR, 0, 64); // EP0 IN
 311:Middlewares/Third_Party/AL94_USB_Composite/COMPOSITE/Target/usbd_conf.c **** 
 312:Middlewares/Third_Party/AL94_USB_Composite/COMPOSITE/Target/usbd_conf.c **** #if (USBD_USE_CDC_RNDIS == 1)
 313:Middlewares/Third_Party/AL94_USB_Composite/COMPOSITE/Target/usbd_conf.c ****     HAL_PCDEx_SetTxFiFoInBytes(hpcd_USB_OTG_PTR, (CDC_RNDIS_IN_EP & 0x7F), 128);
 314:Middlewares/Third_Party/AL94_USB_Composite/COMPOSITE/Target/usbd_conf.c ****     HAL_PCDEx_SetTxFiFoInBytes(hpcd_USB_OTG_PTR, (CDC_RNDIS_CMD_EP & 0x7F), 64);
 315:Middlewares/Third_Party/AL94_USB_Composite/COMPOSITE/Target/usbd_conf.c **** #endif
 316:Middlewares/Third_Party/AL94_USB_Composite/COMPOSITE/Target/usbd_conf.c **** #if (USBD_USE_CDC_ECM == 1)
 317:Middlewares/Third_Party/AL94_USB_Composite/COMPOSITE/Target/usbd_conf.c ****     HAL_PCDEx_SetTxFiFoInBytes(hpcd_USB_OTG_PTR, (CDC_ECM_IN_EP & 0x7F), 128);
 318:Middlewares/Third_Party/AL94_USB_Composite/COMPOSITE/Target/usbd_conf.c ****     HAL_PCDEx_SetTxFiFoInBytes(hpcd_USB_OTG_PTR, (CDC_ECM_CMD_EP & 0x7F), 64);
 319:Middlewares/Third_Party/AL94_USB_Composite/COMPOSITE/Target/usbd_conf.c **** #endif
 320:Middlewares/Third_Party/AL94_USB_Composite/COMPOSITE/Target/usbd_conf.c **** #if (USBD_USE_HID_MOUSE == 1)
 321:Middlewares/Third_Party/AL94_USB_Composite/COMPOSITE/Target/usbd_conf.c ****     HAL_PCDEx_SetTxFiFoInBytes(hpcd_USB_OTG_PTR, (HID_MOUSE_IN_EP & 0x7F), 64);
 322:Middlewares/Third_Party/AL94_USB_Composite/COMPOSITE/Target/usbd_conf.c **** #endif
 323:Middlewares/Third_Party/AL94_USB_Composite/COMPOSITE/Target/usbd_conf.c **** #if (USBD_USE_HID_KEYBOARD == 1)
 324:Middlewares/Third_Party/AL94_USB_Composite/COMPOSITE/Target/usbd_conf.c ****     HAL_PCDEx_SetTxFiFoInBytes(hpcd_USB_OTG_PTR, (HID_KEYBOARD_IN_EP & 0x7F), 64);
 325:Middlewares/Third_Party/AL94_USB_Composite/COMPOSITE/Target/usbd_conf.c **** #endif
 326:Middlewares/Third_Party/AL94_USB_Composite/COMPOSITE/Target/usbd_conf.c **** #if (USBD_USE_HID_CUSTOM == 1)
 327:Middlewares/Third_Party/AL94_USB_Composite/COMPOSITE/Target/usbd_conf.c ****     HAL_PCDEx_SetTxFiFoInBytes(hpcd_USB_OTG_PTR, (CUSTOM_HID_IN_EP & 0x7F), 64);
 328:Middlewares/Third_Party/AL94_USB_Composite/COMPOSITE/Target/usbd_conf.c **** #endif
 329:Middlewares/Third_Party/AL94_USB_Composite/COMPOSITE/Target/usbd_conf.c **** #if (USBD_USE_UAC_MIC == 1)
 330:Middlewares/Third_Party/AL94_USB_Composite/COMPOSITE/Target/usbd_conf.c ****     HAL_PCDEx_SetTxFiFoInBytes(hpcd_USB_OTG_PTR, (AUDIO_MIC_EP & 0x7F), 128);
 331:Middlewares/Third_Party/AL94_USB_Composite/COMPOSITE/Target/usbd_conf.c **** #endif
 332:Middlewares/Third_Party/AL94_USB_Composite/COMPOSITE/Target/usbd_conf.c **** #if (USBD_USE_UAC_SPKR == 1)
 333:Middlewares/Third_Party/AL94_USB_Composite/COMPOSITE/Target/usbd_conf.c **** #endif
 334:Middlewares/Third_Party/AL94_USB_Composite/COMPOSITE/Target/usbd_conf.c **** #if (USBD_USE_UVC == 1)
 335:Middlewares/Third_Party/AL94_USB_Composite/COMPOSITE/Target/usbd_conf.c ****     HAL_PCDEx_SetTxFiFoInBytes(hpcd_USB_OTG_PTR, (UVC_IN_EP & 0x7F), 128);
ARM GAS  /tmp/ccZpROtE.s 			page 16


 336:Middlewares/Third_Party/AL94_USB_Composite/COMPOSITE/Target/usbd_conf.c **** #endif
 337:Middlewares/Third_Party/AL94_USB_Composite/COMPOSITE/Target/usbd_conf.c **** #if (USBD_USE_MSC == 1)
 338:Middlewares/Third_Party/AL94_USB_Composite/COMPOSITE/Target/usbd_conf.c ****     HAL_PCDEx_SetTxFiFoInBytes(hpcd_USB_OTG_PTR, (MSC_IN_EP & 0x7F), 128);
 339:Middlewares/Third_Party/AL94_USB_Composite/COMPOSITE/Target/usbd_conf.c **** #endif
 340:Middlewares/Third_Party/AL94_USB_Composite/COMPOSITE/Target/usbd_conf.c **** #if (USBD_USE_DFU == 1)
 341:Middlewares/Third_Party/AL94_USB_Composite/COMPOSITE/Target/usbd_conf.c **** #endif
 342:Middlewares/Third_Party/AL94_USB_Composite/COMPOSITE/Target/usbd_conf.c **** #if (USBD_USE_PRNTR == 1)
 343:Middlewares/Third_Party/AL94_USB_Composite/COMPOSITE/Target/usbd_conf.c ****     HAL_PCDEx_SetTxFiFoInBytes(hpcd_USB_OTG_PTR, (PRNT_IN_EP & 0x7F), 128);
 344:Middlewares/Third_Party/AL94_USB_Composite/COMPOSITE/Target/usbd_conf.c **** #endif
 345:Middlewares/Third_Party/AL94_USB_Composite/COMPOSITE/Target/usbd_conf.c **** #if (USBD_USE_CDC_ACM == 1)
 346:Middlewares/Third_Party/AL94_USB_Composite/COMPOSITE/Target/usbd_conf.c ****     for (uint8_t i = 0; i < USBD_CDC_ACM_COUNT; i++)
 347:Middlewares/Third_Party/AL94_USB_Composite/COMPOSITE/Target/usbd_conf.c ****     {
 348:Middlewares/Third_Party/AL94_USB_Composite/COMPOSITE/Target/usbd_conf.c ****       HAL_PCDEx_SetTxFiFoInBytes(hpcd_USB_OTG_PTR, (CDC_IN_EP[i] & 0x7F), 128);
 349:Middlewares/Third_Party/AL94_USB_Composite/COMPOSITE/Target/usbd_conf.c ****       HAL_PCDEx_SetTxFiFoInBytes(hpcd_USB_OTG_PTR, (CDC_CMD_EP[i] & 0x7F), 64);
 350:Middlewares/Third_Party/AL94_USB_Composite/COMPOSITE/Target/usbd_conf.c ****     }
 351:Middlewares/Third_Party/AL94_USB_Composite/COMPOSITE/Target/usbd_conf.c **** #endif
 352:Middlewares/Third_Party/AL94_USB_Composite/COMPOSITE/Target/usbd_conf.c ****   }
 353:Middlewares/Third_Party/AL94_USB_Composite/COMPOSITE/Target/usbd_conf.c **** #else
 354:Middlewares/Third_Party/AL94_USB_Composite/COMPOSITE/Target/usbd_conf.c ****   /**FULL SPEED USB */
 355:Middlewares/Third_Party/AL94_USB_Composite/COMPOSITE/Target/usbd_conf.c **** #if (STM32F1_DEVICE) /** for STM32F1 or similar */
 356:Middlewares/Third_Party/AL94_USB_Composite/COMPOSITE/Target/usbd_conf.c ****   hpcd_USB_OTG_PTR = &hpcd_USB_FS;  /** hpcd_USB_FS or hpcd_USB_OTG_FS*/
 357:Middlewares/Third_Party/AL94_USB_Composite/COMPOSITE/Target/usbd_conf.c **** #else
 358:Middlewares/Third_Party/AL94_USB_Composite/COMPOSITE/Target/usbd_conf.c ****   hpcd_USB_OTG_PTR = &hpcd_USB_OTG_FS;  /** hpcd_USB_FS or hpcd_USB_OTG_FS*/
 359:Middlewares/Third_Party/AL94_USB_Composite/COMPOSITE/Target/usbd_conf.c **** #endif
 360:Middlewares/Third_Party/AL94_USB_Composite/COMPOSITE/Target/usbd_conf.c **** 
 361:Middlewares/Third_Party/AL94_USB_Composite/COMPOSITE/Target/usbd_conf.c ****   if (pdev->id == DEVICE_FS)
 362:Middlewares/Third_Party/AL94_USB_Composite/COMPOSITE/Target/usbd_conf.c ****   {
 363:Middlewares/Third_Party/AL94_USB_Composite/COMPOSITE/Target/usbd_conf.c ****     /* Link the driver to the stack. */
 364:Middlewares/Third_Party/AL94_USB_Composite/COMPOSITE/Target/usbd_conf.c ****     hpcd_USB_OTG_PTR->pData = pdev;
 365:Middlewares/Third_Party/AL94_USB_Composite/COMPOSITE/Target/usbd_conf.c ****     pdev->pData = hpcd_USB_OTG_PTR;
 366:Middlewares/Third_Party/AL94_USB_Composite/COMPOSITE/Target/usbd_conf.c **** 
 367:Middlewares/Third_Party/AL94_USB_Composite/COMPOSITE/Target/usbd_conf.c ****     /* @see HAL_PCD_Init() usb_otg.c generated by cube **/
 368:Middlewares/Third_Party/AL94_USB_Composite/COMPOSITE/Target/usbd_conf.c **** 
 369:Middlewares/Third_Party/AL94_USB_Composite/COMPOSITE/Target/usbd_conf.c **** #if (STM32F1_DEVICE)
 370:Middlewares/Third_Party/AL94_USB_Composite/COMPOSITE/Target/usbd_conf.c ****     /** Device is F1 or similar or if HAL_PCDEx_PMAConfig() is used by HAL driver */
 371:Middlewares/Third_Party/AL94_USB_Composite/COMPOSITE/Target/usbd_conf.c ****     uint16_t pma_track = 0x40; /** PMA offset*/
 372:Middlewares/Third_Party/AL94_USB_Composite/COMPOSITE/Target/usbd_conf.c **** 
 373:Middlewares/Third_Party/AL94_USB_Composite/COMPOSITE/Target/usbd_conf.c ****     HAL_PCDEx_PMAConfig((PCD_HandleTypeDef *)pdev->pData, 0x00, PCD_SNG_BUF, pma_track);
 374:Middlewares/Third_Party/AL94_USB_Composite/COMPOSITE/Target/usbd_conf.c ****     pma_track += 0x40;
 375:Middlewares/Third_Party/AL94_USB_Composite/COMPOSITE/Target/usbd_conf.c **** 
 376:Middlewares/Third_Party/AL94_USB_Composite/COMPOSITE/Target/usbd_conf.c ****     HAL_PCDEx_PMAConfig((PCD_HandleTypeDef *)pdev->pData, 0x80, PCD_SNG_BUF, pma_track);
 377:Middlewares/Third_Party/AL94_USB_Composite/COMPOSITE/Target/usbd_conf.c ****     pma_track += 0x40;
 378:Middlewares/Third_Party/AL94_USB_Composite/COMPOSITE/Target/usbd_conf.c **** 
 379:Middlewares/Third_Party/AL94_USB_Composite/COMPOSITE/Target/usbd_conf.c **** #if (USBD_USE_CDC_RNDIS == 1)
 380:Middlewares/Third_Party/AL94_USB_Composite/COMPOSITE/Target/usbd_conf.c ****     HAL_PCDEx_PMAConfig((PCD_HandleTypeDef *)pdev->pData, CDC_RNDIS_IN_EP, PCD_SNG_BUF, pma_track);
 381:Middlewares/Third_Party/AL94_USB_Composite/COMPOSITE/Target/usbd_conf.c ****     pma_track += 128;
 382:Middlewares/Third_Party/AL94_USB_Composite/COMPOSITE/Target/usbd_conf.c ****     HAL_PCDEx_PMAConfig((PCD_HandleTypeDef *)pdev->pData, CDC_RNDIS_OUT_EP, PCD_SNG_BUF, pma_track)
 383:Middlewares/Third_Party/AL94_USB_Composite/COMPOSITE/Target/usbd_conf.c ****     pma_track += 128;
 384:Middlewares/Third_Party/AL94_USB_Composite/COMPOSITE/Target/usbd_conf.c ****     HAL_PCDEx_PMAConfig((PCD_HandleTypeDef *)pdev->pData, CDC_RNDIS_CMD_EP, PCD_SNG_BUF, pma_track)
 385:Middlewares/Third_Party/AL94_USB_Composite/COMPOSITE/Target/usbd_conf.c ****     pma_track += 8;
 386:Middlewares/Third_Party/AL94_USB_Composite/COMPOSITE/Target/usbd_conf.c **** #endif
 387:Middlewares/Third_Party/AL94_USB_Composite/COMPOSITE/Target/usbd_conf.c **** #if (USBD_USE_CDC_ECM == 1)
 388:Middlewares/Third_Party/AL94_USB_Composite/COMPOSITE/Target/usbd_conf.c ****     HAL_PCDEx_PMAConfig((PCD_HandleTypeDef *)pdev->pData, CDC_ECM_IN_EP, PCD_SNG_BUF, pma_track);
 389:Middlewares/Third_Party/AL94_USB_Composite/COMPOSITE/Target/usbd_conf.c ****     pma_track += 48;
 390:Middlewares/Third_Party/AL94_USB_Composite/COMPOSITE/Target/usbd_conf.c ****     HAL_PCDEx_PMAConfig((PCD_HandleTypeDef *)pdev->pData, CDC_ECM_OUT_EP, PCD_SNG_BUF, pma_track);
 391:Middlewares/Third_Party/AL94_USB_Composite/COMPOSITE/Target/usbd_conf.c ****     pma_track += 48;
 392:Middlewares/Third_Party/AL94_USB_Composite/COMPOSITE/Target/usbd_conf.c ****     HAL_PCDEx_PMAConfig((PCD_HandleTypeDef *)pdev->pData, CDC_ECM_CMD_EP, PCD_SNG_BUF, pma_track);
ARM GAS  /tmp/ccZpROtE.s 			page 17


 393:Middlewares/Third_Party/AL94_USB_Composite/COMPOSITE/Target/usbd_conf.c ****     pma_track += 8;
 394:Middlewares/Third_Party/AL94_USB_Composite/COMPOSITE/Target/usbd_conf.c **** #endif
 395:Middlewares/Third_Party/AL94_USB_Composite/COMPOSITE/Target/usbd_conf.c **** #if (USBD_USE_HID_MOUSE == 1)
 396:Middlewares/Third_Party/AL94_USB_Composite/COMPOSITE/Target/usbd_conf.c ****     HAL_PCDEx_PMAConfig((PCD_HandleTypeDef *)pdev->pData, HID_MOUSE_IN_EP, PCD_SNG_BUF, pma_track);
 397:Middlewares/Third_Party/AL94_USB_Composite/COMPOSITE/Target/usbd_conf.c ****     pma_track += 8;
 398:Middlewares/Third_Party/AL94_USB_Composite/COMPOSITE/Target/usbd_conf.c **** #endif
 399:Middlewares/Third_Party/AL94_USB_Composite/COMPOSITE/Target/usbd_conf.c **** #if (USBD_USE_HID_KEYBOARD == 1)
 400:Middlewares/Third_Party/AL94_USB_Composite/COMPOSITE/Target/usbd_conf.c ****     HAL_PCDEx_PMAConfig((PCD_HandleTypeDef *)pdev->pData, HID_KEYBOARD_IN_EP, PCD_SNG_BUF, pma_trac
 401:Middlewares/Third_Party/AL94_USB_Composite/COMPOSITE/Target/usbd_conf.c ****     pma_track += 8;
 402:Middlewares/Third_Party/AL94_USB_Composite/COMPOSITE/Target/usbd_conf.c **** #endif
 403:Middlewares/Third_Party/AL94_USB_Composite/COMPOSITE/Target/usbd_conf.c **** #if (USBD_USE_HID_CUSTOM == 1)
 404:Middlewares/Third_Party/AL94_USB_Composite/COMPOSITE/Target/usbd_conf.c ****     HAL_PCDEx_PMAConfig((PCD_HandleTypeDef *)pdev->pData, CUSTOM_HID_IN_EP, PCD_SNG_BUF, pma_track)
 405:Middlewares/Third_Party/AL94_USB_Composite/COMPOSITE/Target/usbd_conf.c ****     pma_track += 8;
 406:Middlewares/Third_Party/AL94_USB_Composite/COMPOSITE/Target/usbd_conf.c ****     HAL_PCDEx_PMAConfig((PCD_HandleTypeDef *)pdev->pData, CUSTOM_HID_OUT_EP, PCD_SNG_BUF, pma_track
 407:Middlewares/Third_Party/AL94_USB_Composite/COMPOSITE/Target/usbd_conf.c ****     pma_track += 8;
 408:Middlewares/Third_Party/AL94_USB_Composite/COMPOSITE/Target/usbd_conf.c **** #endif
 409:Middlewares/Third_Party/AL94_USB_Composite/COMPOSITE/Target/usbd_conf.c **** #if (USBD_USE_UAC_MIC == 1)
 410:Middlewares/Third_Party/AL94_USB_Composite/COMPOSITE/Target/usbd_conf.c ****     HAL_PCDEx_PMAConfig((PCD_HandleTypeDef *)pdev->pData, AUDIO_MIC_EP, PCD_SNG_BUF, pma_track);
 411:Middlewares/Third_Party/AL94_USB_Composite/COMPOSITE/Target/usbd_conf.c ****     pma_track += 128;
 412:Middlewares/Third_Party/AL94_USB_Composite/COMPOSITE/Target/usbd_conf.c **** #endif
 413:Middlewares/Third_Party/AL94_USB_Composite/COMPOSITE/Target/usbd_conf.c **** #if (USBD_USE_UAC_SPKR == 1)
 414:Middlewares/Third_Party/AL94_USB_Composite/COMPOSITE/Target/usbd_conf.c ****     HAL_PCDEx_PMAConfig((PCD_HandleTypeDef *)pdev->pData, AUDIO_SPKR_EP, PCD_SNG_BUF, pma_track);
 415:Middlewares/Third_Party/AL94_USB_Composite/COMPOSITE/Target/usbd_conf.c ****     pma_track += 128;
 416:Middlewares/Third_Party/AL94_USB_Composite/COMPOSITE/Target/usbd_conf.c **** #endif
 417:Middlewares/Third_Party/AL94_USB_Composite/COMPOSITE/Target/usbd_conf.c **** #if (USBD_USE_UVC == 1)
 418:Middlewares/Third_Party/AL94_USB_Composite/COMPOSITE/Target/usbd_conf.c ****     HAL_PCDEx_PMAConfig((PCD_HandleTypeDef *)pdev->pData, UVC_IN_EP, PCD_SNG_BUF, pma_track);
 419:Middlewares/Third_Party/AL94_USB_Composite/COMPOSITE/Target/usbd_conf.c ****     pma_track += 128;
 420:Middlewares/Third_Party/AL94_USB_Composite/COMPOSITE/Target/usbd_conf.c **** #endif
 421:Middlewares/Third_Party/AL94_USB_Composite/COMPOSITE/Target/usbd_conf.c **** #if (USBD_USE_MSC == 1)
 422:Middlewares/Third_Party/AL94_USB_Composite/COMPOSITE/Target/usbd_conf.c ****     HAL_PCDEx_PMAConfig((PCD_HandleTypeDef *)pdev->pData, MSC_IN_EP, PCD_SNG_BUF, pma_track);
 423:Middlewares/Third_Party/AL94_USB_Composite/COMPOSITE/Target/usbd_conf.c ****     pma_track += 128;
 424:Middlewares/Third_Party/AL94_USB_Composite/COMPOSITE/Target/usbd_conf.c ****     HAL_PCDEx_PMAConfig((PCD_HandleTypeDef *)pdev->pData, MSC_OUT_EP, PCD_SNG_BUF, pma_track);
 425:Middlewares/Third_Party/AL94_USB_Composite/COMPOSITE/Target/usbd_conf.c ****     pma_track += 128;
 426:Middlewares/Third_Party/AL94_USB_Composite/COMPOSITE/Target/usbd_conf.c **** #endif
 427:Middlewares/Third_Party/AL94_USB_Composite/COMPOSITE/Target/usbd_conf.c **** #if (USBD_USE_DFU == 1)
 428:Middlewares/Third_Party/AL94_USB_Composite/COMPOSITE/Target/usbd_conf.c **** #endif
 429:Middlewares/Third_Party/AL94_USB_Composite/COMPOSITE/Target/usbd_conf.c **** #if (USBD_USE_PRNTR == 1)
 430:Middlewares/Third_Party/AL94_USB_Composite/COMPOSITE/Target/usbd_conf.c ****     HAL_PCDEx_PMAConfig((PCD_HandleTypeDef *)pdev->pData, PRNT_IN_EP, PCD_SNG_BUF, pma_track);
 431:Middlewares/Third_Party/AL94_USB_Composite/COMPOSITE/Target/usbd_conf.c ****     pma_track += 128;
 432:Middlewares/Third_Party/AL94_USB_Composite/COMPOSITE/Target/usbd_conf.c ****     HAL_PCDEx_PMAConfig((PCD_HandleTypeDef *)pdev->pData, PRNT_OUT_EP, PCD_SNG_BUF, pma_track);
 433:Middlewares/Third_Party/AL94_USB_Composite/COMPOSITE/Target/usbd_conf.c ****     pma_track += 128;
 434:Middlewares/Third_Party/AL94_USB_Composite/COMPOSITE/Target/usbd_conf.c **** #endif
 435:Middlewares/Third_Party/AL94_USB_Composite/COMPOSITE/Target/usbd_conf.c **** #if (USBD_USE_CDC_ACM == 1)
 436:Middlewares/Third_Party/AL94_USB_Composite/COMPOSITE/Target/usbd_conf.c ****     for (uint8_t i = 0; i < USBD_CDC_ACM_COUNT; i++)
 437:Middlewares/Third_Party/AL94_USB_Composite/COMPOSITE/Target/usbd_conf.c ****     {
 438:Middlewares/Third_Party/AL94_USB_Composite/COMPOSITE/Target/usbd_conf.c ****       HAL_PCDEx_PMAConfig((PCD_HandleTypeDef *)pdev->pData, CDC_IN_EP[i], PCD_SNG_BUF, pma_track);
 439:Middlewares/Third_Party/AL94_USB_Composite/COMPOSITE/Target/usbd_conf.c ****       pma_track += 48;
 440:Middlewares/Third_Party/AL94_USB_Composite/COMPOSITE/Target/usbd_conf.c **** 
 441:Middlewares/Third_Party/AL94_USB_Composite/COMPOSITE/Target/usbd_conf.c ****       HAL_PCDEx_PMAConfig((PCD_HandleTypeDef *)pdev->pData, CDC_OUT_EP[i], PCD_SNG_BUF, pma_track);
 442:Middlewares/Third_Party/AL94_USB_Composite/COMPOSITE/Target/usbd_conf.c ****       pma_track += 48;
 443:Middlewares/Third_Party/AL94_USB_Composite/COMPOSITE/Target/usbd_conf.c **** 
 444:Middlewares/Third_Party/AL94_USB_Composite/COMPOSITE/Target/usbd_conf.c ****       HAL_PCDEx_PMAConfig((PCD_HandleTypeDef *)pdev->pData, CDC_CMD_EP[i], PCD_SNG_BUF, pma_track);
 445:Middlewares/Third_Party/AL94_USB_Composite/COMPOSITE/Target/usbd_conf.c ****       pma_track += 8;
 446:Middlewares/Third_Party/AL94_USB_Composite/COMPOSITE/Target/usbd_conf.c ****     }
 447:Middlewares/Third_Party/AL94_USB_Composite/COMPOSITE/Target/usbd_conf.c **** #endif
 448:Middlewares/Third_Party/AL94_USB_Composite/COMPOSITE/Target/usbd_conf.c **** #else /** if HAL_PCDEx_SetRxFiFo() is used by HAL driver */
 449:Middlewares/Third_Party/AL94_USB_Composite/COMPOSITE/Target/usbd_conf.c **** 
ARM GAS  /tmp/ccZpROtE.s 			page 18


 450:Middlewares/Third_Party/AL94_USB_Composite/COMPOSITE/Target/usbd_conf.c ****     HAL_PCDEx_SetRxFiFoInBytes(hpcd_USB_OTG_PTR, 512); // ALL OUT EP Buffer
 451:Middlewares/Third_Party/AL94_USB_Composite/COMPOSITE/Target/usbd_conf.c **** 
 452:Middlewares/Third_Party/AL94_USB_Composite/COMPOSITE/Target/usbd_conf.c ****     HAL_PCDEx_SetTxFiFoInBytes(hpcd_USB_OTG_PTR, 0, 64); // EP0 IN
 453:Middlewares/Third_Party/AL94_USB_Composite/COMPOSITE/Target/usbd_conf.c **** 
 454:Middlewares/Third_Party/AL94_USB_Composite/COMPOSITE/Target/usbd_conf.c **** #if (USBD_USE_CDC_RNDIS == 1)
 455:Middlewares/Third_Party/AL94_USB_Composite/COMPOSITE/Target/usbd_conf.c ****     HAL_PCDEx_SetTxFiFoInBytes(hpcd_USB_OTG_PTR, (CDC_RNDIS_IN_EP & 0x7F), 128);
 456:Middlewares/Third_Party/AL94_USB_Composite/COMPOSITE/Target/usbd_conf.c ****     HAL_PCDEx_SetTxFiFoInBytes(hpcd_USB_OTG_PTR, (CDC_RNDIS_CMD_EP & 0x7F), 64);
 457:Middlewares/Third_Party/AL94_USB_Composite/COMPOSITE/Target/usbd_conf.c **** #endif
 458:Middlewares/Third_Party/AL94_USB_Composite/COMPOSITE/Target/usbd_conf.c **** 
 459:Middlewares/Third_Party/AL94_USB_Composite/COMPOSITE/Target/usbd_conf.c **** #if (USBD_USE_CDC_ECM == 1)
 460:Middlewares/Third_Party/AL94_USB_Composite/COMPOSITE/Target/usbd_conf.c ****     HAL_PCDEx_SetTxFiFoInBytes(hpcd_USB_OTG_PTR, (CDC_ECM_IN_EP & 0x7F), 128);
 461:Middlewares/Third_Party/AL94_USB_Composite/COMPOSITE/Target/usbd_conf.c ****     HAL_PCDEx_SetTxFiFoInBytes(hpcd_USB_OTG_PTR, (CDC_ECM_CMD_EP & 0x7F), 64);
 462:Middlewares/Third_Party/AL94_USB_Composite/COMPOSITE/Target/usbd_conf.c **** #endif
 463:Middlewares/Third_Party/AL94_USB_Composite/COMPOSITE/Target/usbd_conf.c **** #if (USBD_USE_HID_MOUSE == 1)
 464:Middlewares/Third_Party/AL94_USB_Composite/COMPOSITE/Target/usbd_conf.c ****     HAL_PCDEx_SetTxFiFoInBytes(hpcd_USB_OTG_PTR, (HID_MOUSE_IN_EP & 0x7F), 64);
 465:Middlewares/Third_Party/AL94_USB_Composite/COMPOSITE/Target/usbd_conf.c **** #endif
 466:Middlewares/Third_Party/AL94_USB_Composite/COMPOSITE/Target/usbd_conf.c **** #if (USBD_USE_HID_KEYBOARD == 1)
 467:Middlewares/Third_Party/AL94_USB_Composite/COMPOSITE/Target/usbd_conf.c ****     HAL_PCDEx_SetTxFiFoInBytes(hpcd_USB_OTG_PTR, (HID_KEYBOARD_IN_EP & 0x7F), 64);
 468:Middlewares/Third_Party/AL94_USB_Composite/COMPOSITE/Target/usbd_conf.c **** #endif
 469:Middlewares/Third_Party/AL94_USB_Composite/COMPOSITE/Target/usbd_conf.c **** #if (USBD_USE_HID_CUSTOM == 1)
 470:Middlewares/Third_Party/AL94_USB_Composite/COMPOSITE/Target/usbd_conf.c ****     HAL_PCDEx_SetTxFiFoInBytes(hpcd_USB_OTG_PTR, (CUSTOM_HID_IN_EP & 0x7F), 64);
 471:Middlewares/Third_Party/AL94_USB_Composite/COMPOSITE/Target/usbd_conf.c **** #endif
 472:Middlewares/Third_Party/AL94_USB_Composite/COMPOSITE/Target/usbd_conf.c **** #if (USBD_USE_UAC_MIC == 1)
 473:Middlewares/Third_Party/AL94_USB_Composite/COMPOSITE/Target/usbd_conf.c ****     HAL_PCDEx_SetTxFiFoInBytes(hpcd_USB_OTG_PTR, (AUDIO_MIC_EP & 0x7F), 128);
 474:Middlewares/Third_Party/AL94_USB_Composite/COMPOSITE/Target/usbd_conf.c **** #endif
 475:Middlewares/Third_Party/AL94_USB_Composite/COMPOSITE/Target/usbd_conf.c **** #if (USBD_USE_UAC_SPKR == 1)
 476:Middlewares/Third_Party/AL94_USB_Composite/COMPOSITE/Target/usbd_conf.c **** #endif
 477:Middlewares/Third_Party/AL94_USB_Composite/COMPOSITE/Target/usbd_conf.c **** #if (USBD_USE_UVC == 1)
 478:Middlewares/Third_Party/AL94_USB_Composite/COMPOSITE/Target/usbd_conf.c ****     HAL_PCDEx_SetTxFiFoInBytes(hpcd_USB_OTG_PTR, (UVC_IN_EP & 0x7F), 128);
 479:Middlewares/Third_Party/AL94_USB_Composite/COMPOSITE/Target/usbd_conf.c **** #endif
 480:Middlewares/Third_Party/AL94_USB_Composite/COMPOSITE/Target/usbd_conf.c **** #if (USBD_USE_MSC == 1)
 481:Middlewares/Third_Party/AL94_USB_Composite/COMPOSITE/Target/usbd_conf.c ****     HAL_PCDEx_SetTxFiFoInBytes(hpcd_USB_OTG_PTR, (MSC_IN_EP & 0x7F), 128);
 482:Middlewares/Third_Party/AL94_USB_Composite/COMPOSITE/Target/usbd_conf.c **** #endif
 483:Middlewares/Third_Party/AL94_USB_Composite/COMPOSITE/Target/usbd_conf.c **** #if (USBD_USE_DFU == 1)
 484:Middlewares/Third_Party/AL94_USB_Composite/COMPOSITE/Target/usbd_conf.c **** #endif
 485:Middlewares/Third_Party/AL94_USB_Composite/COMPOSITE/Target/usbd_conf.c **** #if (USBD_USE_PRNTR == 1)
 486:Middlewares/Third_Party/AL94_USB_Composite/COMPOSITE/Target/usbd_conf.c ****     HAL_PCDEx_SetTxFiFoInBytes(hpcd_USB_OTG_PTR, (PRNT_IN_EP & 0x7F), 128);
 487:Middlewares/Third_Party/AL94_USB_Composite/COMPOSITE/Target/usbd_conf.c **** #endif
 488:Middlewares/Third_Party/AL94_USB_Composite/COMPOSITE/Target/usbd_conf.c **** #if (USBD_USE_CDC_ACM == 1)
 489:Middlewares/Third_Party/AL94_USB_Composite/COMPOSITE/Target/usbd_conf.c ****     for (uint8_t i = 0; i < USBD_CDC_ACM_COUNT; i++)
 490:Middlewares/Third_Party/AL94_USB_Composite/COMPOSITE/Target/usbd_conf.c ****     {
 491:Middlewares/Third_Party/AL94_USB_Composite/COMPOSITE/Target/usbd_conf.c ****       HAL_PCDEx_SetTxFiFoInBytes(hpcd_USB_OTG_PTR, (CDC_IN_EP[i] & 0x7F), 128);
 492:Middlewares/Third_Party/AL94_USB_Composite/COMPOSITE/Target/usbd_conf.c ****       HAL_PCDEx_SetTxFiFoInBytes(hpcd_USB_OTG_PTR, (CDC_CMD_EP[i] & 0x7F), 64);
 493:Middlewares/Third_Party/AL94_USB_Composite/COMPOSITE/Target/usbd_conf.c ****     }
 494:Middlewares/Third_Party/AL94_USB_Composite/COMPOSITE/Target/usbd_conf.c **** #endif
 495:Middlewares/Third_Party/AL94_USB_Composite/COMPOSITE/Target/usbd_conf.c **** #endif
 496:Middlewares/Third_Party/AL94_USB_Composite/COMPOSITE/Target/usbd_conf.c ****   }
 497:Middlewares/Third_Party/AL94_USB_Composite/COMPOSITE/Target/usbd_conf.c **** #endif
 498:Middlewares/Third_Party/AL94_USB_Composite/COMPOSITE/Target/usbd_conf.c **** 
 499:Middlewares/Third_Party/AL94_USB_Composite/COMPOSITE/Target/usbd_conf.c **** #if (USE_HAL_PCD_REGISTER_CALLBACKS == 1U)
 500:Middlewares/Third_Party/AL94_USB_Composite/COMPOSITE/Target/usbd_conf.c ****   /* Register USB PCD CallBacks */
 501:Middlewares/Third_Party/AL94_USB_Composite/COMPOSITE/Target/usbd_conf.c ****   HAL_PCD_RegisterCallback(hpcd_USB_OTG_PTR, HAL_PCD_SOF_CB_ID, PCD_SOFCallback);
 502:Middlewares/Third_Party/AL94_USB_Composite/COMPOSITE/Target/usbd_conf.c ****   HAL_PCD_RegisterCallback(hpcd_USB_OTG_PTR, HAL_PCD_SETUPSTAGE_CB_ID, PCD_SetupStageCallback);
 503:Middlewares/Third_Party/AL94_USB_Composite/COMPOSITE/Target/usbd_conf.c ****   HAL_PCD_RegisterCallback(hpcd_USB_OTG_PTR, HAL_PCD_RESET_CB_ID, PCD_ResetCallback);
 504:Middlewares/Third_Party/AL94_USB_Composite/COMPOSITE/Target/usbd_conf.c ****   HAL_PCD_RegisterCallback(hpcd_USB_OTG_PTR, HAL_PCD_SUSPEND_CB_ID, PCD_SuspendCallback);
 505:Middlewares/Third_Party/AL94_USB_Composite/COMPOSITE/Target/usbd_conf.c ****   HAL_PCD_RegisterCallback(hpcd_USB_OTG_PTR, HAL_PCD_RESUME_CB_ID, PCD_ResumeCallback);
 506:Middlewares/Third_Party/AL94_USB_Composite/COMPOSITE/Target/usbd_conf.c ****   HAL_PCD_RegisterCallback(hpcd_USB_OTG_PTR, HAL_PCD_CONNECT_CB_ID, PCD_ConnectCallback);
ARM GAS  /tmp/ccZpROtE.s 			page 19


 507:Middlewares/Third_Party/AL94_USB_Composite/COMPOSITE/Target/usbd_conf.c ****   HAL_PCD_RegisterCallback(hpcd_USB_OTG_PTR, HAL_PCD_DISCONNECT_CB_ID, PCD_DisconnectCallback);
 508:Middlewares/Third_Party/AL94_USB_Composite/COMPOSITE/Target/usbd_conf.c **** 
 509:Middlewares/Third_Party/AL94_USB_Composite/COMPOSITE/Target/usbd_conf.c ****   HAL_PCD_RegisterDataOutStageCallback(hpcd_USB_OTG_PTR, PCD_DataOutStageCallback);
 510:Middlewares/Third_Party/AL94_USB_Composite/COMPOSITE/Target/usbd_conf.c ****   HAL_PCD_RegisterDataInStageCallback(hpcd_USB_OTG_PTR, PCD_DataInStageCallback);
 511:Middlewares/Third_Party/AL94_USB_Composite/COMPOSITE/Target/usbd_conf.c ****   HAL_PCD_RegisterIsoOutIncpltCallback(hpcd_USB_OTG_PTR, PCD_ISOOUTIncompleteCallback);
 512:Middlewares/Third_Party/AL94_USB_Composite/COMPOSITE/Target/usbd_conf.c ****   HAL_PCD_RegisterIsoInIncpltCallback(hpcd_USB_OTG_PTR, PCD_ISOINIncompleteCallback);
 513:Middlewares/Third_Party/AL94_USB_Composite/COMPOSITE/Target/usbd_conf.c **** #endif /* USE_HAL_PCD_REGISTER_CALLBACKS */
 514:Middlewares/Third_Party/AL94_USB_Composite/COMPOSITE/Target/usbd_conf.c ****   return USBD_OK;
 549              		.loc 1 514 3 is_stmt 1 view .LVU96
 515:Middlewares/Third_Party/AL94_USB_Composite/COMPOSITE/Target/usbd_conf.c **** }
 550              		.loc 1 515 1 is_stmt 0 view .LVU97
 551 000e 0020     		movs	r0, #0
 552 0010 38BD     		pop	{r3, r4, r5, pc}
 553              	.LVL49:
 554              	.L41:
 303:Middlewares/Third_Party/AL94_USB_Composite/COMPOSITE/Target/usbd_conf.c ****     pdev->pData = hpcd_USB_OTG_PTR;
 555              		.loc 1 303 5 is_stmt 1 view .LVU98
 303:Middlewares/Third_Party/AL94_USB_Composite/COMPOSITE/Target/usbd_conf.c ****     pdev->pData = hpcd_USB_OTG_PTR;
 556              		.loc 1 303 29 is_stmt 0 view .LVU99
 557 0012 C2F80405 		str	r0, [r2, #1284]
 304:Middlewares/Third_Party/AL94_USB_Composite/COMPOSITE/Target/usbd_conf.c **** 
 558              		.loc 1 304 5 is_stmt 1 view .LVU100
 304:Middlewares/Third_Party/AL94_USB_Composite/COMPOSITE/Target/usbd_conf.c **** 
 559              		.loc 1 304 17 is_stmt 0 view .LVU101
 560 0016 C0F81023 		str	r2, [r0, #784]
 308:Middlewares/Third_Party/AL94_USB_Composite/COMPOSITE/Target/usbd_conf.c **** 
 561              		.loc 1 308 5 is_stmt 1 view .LVU102
 562 001a 4FF48061 		mov	r1, #1024
 563 001e 1046     		mov	r0, r2
 564              	.LVL50:
 308:Middlewares/Third_Party/AL94_USB_Composite/COMPOSITE/Target/usbd_conf.c **** 
 565              		.loc 1 308 5 is_stmt 0 view .LVU103
 566 0020 FFF7FEFF 		bl	HAL_PCDEx_SetRxFiFoInBytes
 567              	.LVL51:
 310:Middlewares/Third_Party/AL94_USB_Composite/COMPOSITE/Target/usbd_conf.c **** 
 568              		.loc 1 310 5 is_stmt 1 view .LVU104
 569 0024 124C     		ldr	r4, .L42
 570 0026 4022     		movs	r2, #64
 571 0028 0021     		movs	r1, #0
 572 002a 2068     		ldr	r0, [r4]
 573 002c FFF7FEFF 		bl	HAL_PCDEx_SetTxFiFoInBytes
 574              	.LVL52:
 324:Middlewares/Third_Party/AL94_USB_Composite/COMPOSITE/Target/usbd_conf.c **** #endif
 575              		.loc 1 324 5 view .LVU105
 576 0030 114B     		ldr	r3, .L42+8
 577 0032 1978     		ldrb	r1, [r3]	@ zero_extendqisi2
 578 0034 4022     		movs	r2, #64
 579 0036 01F07F01 		and	r1, r1, #127
 580 003a 2068     		ldr	r0, [r4]
 581 003c FFF7FEFF 		bl	HAL_PCDEx_SetTxFiFoInBytes
 582              	.LVL53:
 346:Middlewares/Third_Party/AL94_USB_Composite/COMPOSITE/Target/usbd_conf.c ****     {
 583              		.loc 1 346 5 view .LVU106
 584              	.LBB2:
 346:Middlewares/Third_Party/AL94_USB_Composite/COMPOSITE/Target/usbd_conf.c ****     {
 585              		.loc 1 346 10 view .LVU107
 346:Middlewares/Third_Party/AL94_USB_Composite/COMPOSITE/Target/usbd_conf.c ****     {
ARM GAS  /tmp/ccZpROtE.s 			page 20


 586              		.loc 1 346 18 is_stmt 0 view .LVU108
 587 0040 0024     		movs	r4, #0
 588              	.LVL54:
 589              	.L38:
 346:Middlewares/Third_Party/AL94_USB_Composite/COMPOSITE/Target/usbd_conf.c ****     {
 590              		.loc 1 346 27 is_stmt 1 discriminator 1 view .LVU109
 591 0042 002C     		cmp	r4, #0
 592 0044 E3D1     		bne	.L37
 348:Middlewares/Third_Party/AL94_USB_Composite/COMPOSITE/Target/usbd_conf.c ****       HAL_PCDEx_SetTxFiFoInBytes(hpcd_USB_OTG_PTR, (CDC_CMD_EP[i] & 0x7F), 64);
 593              		.loc 1 348 7 discriminator 3 view .LVU110
 348:Middlewares/Third_Party/AL94_USB_Composite/COMPOSITE/Target/usbd_conf.c ****       HAL_PCDEx_SetTxFiFoInBytes(hpcd_USB_OTG_PTR, (CDC_CMD_EP[i] & 0x7F), 64);
 594              		.loc 1 348 62 is_stmt 0 discriminator 3 view .LVU111
 595 0046 0D4B     		ldr	r3, .L42+12
 596 0048 195D     		ldrb	r1, [r3, r4]	@ zero_extendqisi2
 348:Middlewares/Third_Party/AL94_USB_Composite/COMPOSITE/Target/usbd_conf.c ****       HAL_PCDEx_SetTxFiFoInBytes(hpcd_USB_OTG_PTR, (CDC_CMD_EP[i] & 0x7F), 64);
 597              		.loc 1 348 7 discriminator 3 view .LVU112
 598 004a 094D     		ldr	r5, .L42
 599 004c 8022     		movs	r2, #128
 600 004e 01F07F01 		and	r1, r1, #127
 601 0052 2868     		ldr	r0, [r5]
 602 0054 FFF7FEFF 		bl	HAL_PCDEx_SetTxFiFoInBytes
 603              	.LVL55:
 349:Middlewares/Third_Party/AL94_USB_Composite/COMPOSITE/Target/usbd_conf.c ****     }
 604              		.loc 1 349 7 is_stmt 1 discriminator 3 view .LVU113
 349:Middlewares/Third_Party/AL94_USB_Composite/COMPOSITE/Target/usbd_conf.c ****     }
 605              		.loc 1 349 63 is_stmt 0 discriminator 3 view .LVU114
 606 0058 094B     		ldr	r3, .L42+16
 607 005a 195D     		ldrb	r1, [r3, r4]	@ zero_extendqisi2
 349:Middlewares/Third_Party/AL94_USB_Composite/COMPOSITE/Target/usbd_conf.c ****     }
 608              		.loc 1 349 7 discriminator 3 view .LVU115
 609 005c 4022     		movs	r2, #64
 610 005e 01F07F01 		and	r1, r1, #127
 611 0062 2868     		ldr	r0, [r5]
 612 0064 FFF7FEFF 		bl	HAL_PCDEx_SetTxFiFoInBytes
 613              	.LVL56:
 346:Middlewares/Third_Party/AL94_USB_Composite/COMPOSITE/Target/usbd_conf.c ****     {
 614              		.loc 1 346 50 is_stmt 1 discriminator 3 view .LVU116
 615 0068 0134     		adds	r4, r4, #1
 616              	.LVL57:
 346:Middlewares/Third_Party/AL94_USB_Composite/COMPOSITE/Target/usbd_conf.c ****     {
 617              		.loc 1 346 50 is_stmt 0 discriminator 3 view .LVU117
 618 006a E4B2     		uxtb	r4, r4
 619              	.LVL58:
 346:Middlewares/Third_Party/AL94_USB_Composite/COMPOSITE/Target/usbd_conf.c ****     {
 620              		.loc 1 346 50 discriminator 3 view .LVU118
 621 006c E9E7     		b	.L38
 622              	.L43:
 623 006e 00BF     		.align	2
 624              	.L42:
 625 0070 00000000 		.word	hpcd_USB_OTG_PTR
 626 0074 00000000 		.word	hpcd_USB_OTG_HS
 627 0078 00000000 		.word	HID_KEYBOARD_IN_EP
 628 007c 00000000 		.word	CDC_IN_EP
 629 0080 00000000 		.word	CDC_CMD_EP
 630              	.LBE2:
 631              		.cfi_endproc
 632              	.LFE160:
ARM GAS  /tmp/ccZpROtE.s 			page 21


 634              		.section	.text.USBD_LL_IsStallEP,"ax",%progbits
 635              		.align	1
 636              		.global	USBD_LL_IsStallEP
 637              		.syntax unified
 638              		.thumb
 639              		.thumb_func
 641              	USBD_LL_IsStallEP:
 642              	.LVL59:
 643              	.LFB169:
 516:Middlewares/Third_Party/AL94_USB_Composite/COMPOSITE/Target/usbd_conf.c **** 
 517:Middlewares/Third_Party/AL94_USB_Composite/COMPOSITE/Target/usbd_conf.c **** /**
 518:Middlewares/Third_Party/AL94_USB_Composite/COMPOSITE/Target/usbd_conf.c ****   * @brief  De-Initializes the low level portion of the device driver.
 519:Middlewares/Third_Party/AL94_USB_Composite/COMPOSITE/Target/usbd_conf.c ****   * @param  pdev: Device handle
 520:Middlewares/Third_Party/AL94_USB_Composite/COMPOSITE/Target/usbd_conf.c ****   * @retval USBD status
 521:Middlewares/Third_Party/AL94_USB_Composite/COMPOSITE/Target/usbd_conf.c ****   */
 522:Middlewares/Third_Party/AL94_USB_Composite/COMPOSITE/Target/usbd_conf.c **** USBD_StatusTypeDef USBD_LL_DeInit(USBD_HandleTypeDef *pdev)
 523:Middlewares/Third_Party/AL94_USB_Composite/COMPOSITE/Target/usbd_conf.c **** {
 524:Middlewares/Third_Party/AL94_USB_Composite/COMPOSITE/Target/usbd_conf.c ****   HAL_StatusTypeDef hal_status = HAL_OK;
 525:Middlewares/Third_Party/AL94_USB_Composite/COMPOSITE/Target/usbd_conf.c ****   USBD_StatusTypeDef usb_status = USBD_OK;
 526:Middlewares/Third_Party/AL94_USB_Composite/COMPOSITE/Target/usbd_conf.c **** 
 527:Middlewares/Third_Party/AL94_USB_Composite/COMPOSITE/Target/usbd_conf.c ****   hal_status = HAL_PCD_DeInit(pdev->pData);
 528:Middlewares/Third_Party/AL94_USB_Composite/COMPOSITE/Target/usbd_conf.c **** 
 529:Middlewares/Third_Party/AL94_USB_Composite/COMPOSITE/Target/usbd_conf.c ****   usb_status = USBD_Get_USB_Status(hal_status);
 530:Middlewares/Third_Party/AL94_USB_Composite/COMPOSITE/Target/usbd_conf.c **** 
 531:Middlewares/Third_Party/AL94_USB_Composite/COMPOSITE/Target/usbd_conf.c ****   return usb_status;
 532:Middlewares/Third_Party/AL94_USB_Composite/COMPOSITE/Target/usbd_conf.c **** }
 533:Middlewares/Third_Party/AL94_USB_Composite/COMPOSITE/Target/usbd_conf.c **** 
 534:Middlewares/Third_Party/AL94_USB_Composite/COMPOSITE/Target/usbd_conf.c **** /**
 535:Middlewares/Third_Party/AL94_USB_Composite/COMPOSITE/Target/usbd_conf.c ****   * @brief  Starts the low level portion of the device driver.
 536:Middlewares/Third_Party/AL94_USB_Composite/COMPOSITE/Target/usbd_conf.c ****   * @param  pdev: Device handle
 537:Middlewares/Third_Party/AL94_USB_Composite/COMPOSITE/Target/usbd_conf.c ****   * @retval USBD status
 538:Middlewares/Third_Party/AL94_USB_Composite/COMPOSITE/Target/usbd_conf.c ****   */
 539:Middlewares/Third_Party/AL94_USB_Composite/COMPOSITE/Target/usbd_conf.c **** USBD_StatusTypeDef USBD_LL_Start(USBD_HandleTypeDef *pdev)
 540:Middlewares/Third_Party/AL94_USB_Composite/COMPOSITE/Target/usbd_conf.c **** {
 541:Middlewares/Third_Party/AL94_USB_Composite/COMPOSITE/Target/usbd_conf.c ****   HAL_StatusTypeDef hal_status = HAL_OK;
 542:Middlewares/Third_Party/AL94_USB_Composite/COMPOSITE/Target/usbd_conf.c ****   USBD_StatusTypeDef usb_status = USBD_OK;
 543:Middlewares/Third_Party/AL94_USB_Composite/COMPOSITE/Target/usbd_conf.c **** 
 544:Middlewares/Third_Party/AL94_USB_Composite/COMPOSITE/Target/usbd_conf.c ****   hal_status = HAL_PCD_Start(pdev->pData);
 545:Middlewares/Third_Party/AL94_USB_Composite/COMPOSITE/Target/usbd_conf.c **** 
 546:Middlewares/Third_Party/AL94_USB_Composite/COMPOSITE/Target/usbd_conf.c ****   usb_status = USBD_Get_USB_Status(hal_status);
 547:Middlewares/Third_Party/AL94_USB_Composite/COMPOSITE/Target/usbd_conf.c **** 
 548:Middlewares/Third_Party/AL94_USB_Composite/COMPOSITE/Target/usbd_conf.c ****   return usb_status;
 549:Middlewares/Third_Party/AL94_USB_Composite/COMPOSITE/Target/usbd_conf.c **** }
 550:Middlewares/Third_Party/AL94_USB_Composite/COMPOSITE/Target/usbd_conf.c **** 
 551:Middlewares/Third_Party/AL94_USB_Composite/COMPOSITE/Target/usbd_conf.c **** /**
 552:Middlewares/Third_Party/AL94_USB_Composite/COMPOSITE/Target/usbd_conf.c ****   * @brief  Stops the low level portion of the device driver.
 553:Middlewares/Third_Party/AL94_USB_Composite/COMPOSITE/Target/usbd_conf.c ****   * @param  pdev: Device handle
 554:Middlewares/Third_Party/AL94_USB_Composite/COMPOSITE/Target/usbd_conf.c ****   * @retval USBD status
 555:Middlewares/Third_Party/AL94_USB_Composite/COMPOSITE/Target/usbd_conf.c ****   */
 556:Middlewares/Third_Party/AL94_USB_Composite/COMPOSITE/Target/usbd_conf.c **** USBD_StatusTypeDef USBD_LL_Stop(USBD_HandleTypeDef *pdev)
 557:Middlewares/Third_Party/AL94_USB_Composite/COMPOSITE/Target/usbd_conf.c **** {
 558:Middlewares/Third_Party/AL94_USB_Composite/COMPOSITE/Target/usbd_conf.c ****   HAL_StatusTypeDef hal_status = HAL_OK;
 559:Middlewares/Third_Party/AL94_USB_Composite/COMPOSITE/Target/usbd_conf.c ****   USBD_StatusTypeDef usb_status = USBD_OK;
 560:Middlewares/Third_Party/AL94_USB_Composite/COMPOSITE/Target/usbd_conf.c **** 
 561:Middlewares/Third_Party/AL94_USB_Composite/COMPOSITE/Target/usbd_conf.c ****   hal_status = HAL_PCD_Stop(pdev->pData);
 562:Middlewares/Third_Party/AL94_USB_Composite/COMPOSITE/Target/usbd_conf.c **** 
 563:Middlewares/Third_Party/AL94_USB_Composite/COMPOSITE/Target/usbd_conf.c ****   usb_status = USBD_Get_USB_Status(hal_status);
ARM GAS  /tmp/ccZpROtE.s 			page 22


 564:Middlewares/Third_Party/AL94_USB_Composite/COMPOSITE/Target/usbd_conf.c **** 
 565:Middlewares/Third_Party/AL94_USB_Composite/COMPOSITE/Target/usbd_conf.c ****   return usb_status;
 566:Middlewares/Third_Party/AL94_USB_Composite/COMPOSITE/Target/usbd_conf.c **** }
 567:Middlewares/Third_Party/AL94_USB_Composite/COMPOSITE/Target/usbd_conf.c **** 
 568:Middlewares/Third_Party/AL94_USB_Composite/COMPOSITE/Target/usbd_conf.c **** /**
 569:Middlewares/Third_Party/AL94_USB_Composite/COMPOSITE/Target/usbd_conf.c ****   * @brief  Opens an endpoint of the low level driver.
 570:Middlewares/Third_Party/AL94_USB_Composite/COMPOSITE/Target/usbd_conf.c ****   * @param  pdev: Device handle
 571:Middlewares/Third_Party/AL94_USB_Composite/COMPOSITE/Target/usbd_conf.c ****   * @param  ep_addr: Endpoint number
 572:Middlewares/Third_Party/AL94_USB_Composite/COMPOSITE/Target/usbd_conf.c ****   * @param  ep_type: Endpoint type
 573:Middlewares/Third_Party/AL94_USB_Composite/COMPOSITE/Target/usbd_conf.c ****   * @param  ep_mps: Endpoint max packet size
 574:Middlewares/Third_Party/AL94_USB_Composite/COMPOSITE/Target/usbd_conf.c ****   * @retval USBD status
 575:Middlewares/Third_Party/AL94_USB_Composite/COMPOSITE/Target/usbd_conf.c ****   */
 576:Middlewares/Third_Party/AL94_USB_Composite/COMPOSITE/Target/usbd_conf.c **** USBD_StatusTypeDef USBD_LL_OpenEP(USBD_HandleTypeDef *pdev, uint8_t ep_addr, uint8_t ep_type, uint1
 577:Middlewares/Third_Party/AL94_USB_Composite/COMPOSITE/Target/usbd_conf.c **** {
 578:Middlewares/Third_Party/AL94_USB_Composite/COMPOSITE/Target/usbd_conf.c ****   HAL_StatusTypeDef hal_status = HAL_OK;
 579:Middlewares/Third_Party/AL94_USB_Composite/COMPOSITE/Target/usbd_conf.c ****   USBD_StatusTypeDef usb_status = USBD_OK;
 580:Middlewares/Third_Party/AL94_USB_Composite/COMPOSITE/Target/usbd_conf.c **** 
 581:Middlewares/Third_Party/AL94_USB_Composite/COMPOSITE/Target/usbd_conf.c ****   hal_status = HAL_PCD_EP_Open(pdev->pData, ep_addr, ep_mps, ep_type);
 582:Middlewares/Third_Party/AL94_USB_Composite/COMPOSITE/Target/usbd_conf.c **** 
 583:Middlewares/Third_Party/AL94_USB_Composite/COMPOSITE/Target/usbd_conf.c ****   usb_status = USBD_Get_USB_Status(hal_status);
 584:Middlewares/Third_Party/AL94_USB_Composite/COMPOSITE/Target/usbd_conf.c **** 
 585:Middlewares/Third_Party/AL94_USB_Composite/COMPOSITE/Target/usbd_conf.c ****   return usb_status;
 586:Middlewares/Third_Party/AL94_USB_Composite/COMPOSITE/Target/usbd_conf.c **** }
 587:Middlewares/Third_Party/AL94_USB_Composite/COMPOSITE/Target/usbd_conf.c **** 
 588:Middlewares/Third_Party/AL94_USB_Composite/COMPOSITE/Target/usbd_conf.c **** /**
 589:Middlewares/Third_Party/AL94_USB_Composite/COMPOSITE/Target/usbd_conf.c ****   * @brief  Closes an endpoint of the low level driver.
 590:Middlewares/Third_Party/AL94_USB_Composite/COMPOSITE/Target/usbd_conf.c ****   * @param  pdev: Device handle
 591:Middlewares/Third_Party/AL94_USB_Composite/COMPOSITE/Target/usbd_conf.c ****   * @param  ep_addr: Endpoint number
 592:Middlewares/Third_Party/AL94_USB_Composite/COMPOSITE/Target/usbd_conf.c ****   * @retval USBD status
 593:Middlewares/Third_Party/AL94_USB_Composite/COMPOSITE/Target/usbd_conf.c ****   */
 594:Middlewares/Third_Party/AL94_USB_Composite/COMPOSITE/Target/usbd_conf.c **** USBD_StatusTypeDef USBD_LL_CloseEP(USBD_HandleTypeDef *pdev, uint8_t ep_addr)
 595:Middlewares/Third_Party/AL94_USB_Composite/COMPOSITE/Target/usbd_conf.c **** {
 596:Middlewares/Third_Party/AL94_USB_Composite/COMPOSITE/Target/usbd_conf.c ****   HAL_StatusTypeDef hal_status = HAL_OK;
 597:Middlewares/Third_Party/AL94_USB_Composite/COMPOSITE/Target/usbd_conf.c ****   USBD_StatusTypeDef usb_status = USBD_OK;
 598:Middlewares/Third_Party/AL94_USB_Composite/COMPOSITE/Target/usbd_conf.c **** 
 599:Middlewares/Third_Party/AL94_USB_Composite/COMPOSITE/Target/usbd_conf.c ****   hal_status = HAL_PCD_EP_Close(pdev->pData, ep_addr);
 600:Middlewares/Third_Party/AL94_USB_Composite/COMPOSITE/Target/usbd_conf.c **** 
 601:Middlewares/Third_Party/AL94_USB_Composite/COMPOSITE/Target/usbd_conf.c ****   usb_status = USBD_Get_USB_Status(hal_status);
 602:Middlewares/Third_Party/AL94_USB_Composite/COMPOSITE/Target/usbd_conf.c **** 
 603:Middlewares/Third_Party/AL94_USB_Composite/COMPOSITE/Target/usbd_conf.c ****   return usb_status;
 604:Middlewares/Third_Party/AL94_USB_Composite/COMPOSITE/Target/usbd_conf.c **** }
 605:Middlewares/Third_Party/AL94_USB_Composite/COMPOSITE/Target/usbd_conf.c **** 
 606:Middlewares/Third_Party/AL94_USB_Composite/COMPOSITE/Target/usbd_conf.c **** /**
 607:Middlewares/Third_Party/AL94_USB_Composite/COMPOSITE/Target/usbd_conf.c ****   * @brief  Flushes an endpoint of the Low Level Driver.
 608:Middlewares/Third_Party/AL94_USB_Composite/COMPOSITE/Target/usbd_conf.c ****   * @param  pdev: Device handle
 609:Middlewares/Third_Party/AL94_USB_Composite/COMPOSITE/Target/usbd_conf.c ****   * @param  ep_addr: Endpoint number
 610:Middlewares/Third_Party/AL94_USB_Composite/COMPOSITE/Target/usbd_conf.c ****   * @retval USBD status
 611:Middlewares/Third_Party/AL94_USB_Composite/COMPOSITE/Target/usbd_conf.c ****   */
 612:Middlewares/Third_Party/AL94_USB_Composite/COMPOSITE/Target/usbd_conf.c **** USBD_StatusTypeDef USBD_LL_FlushEP(USBD_HandleTypeDef *pdev, uint8_t ep_addr)
 613:Middlewares/Third_Party/AL94_USB_Composite/COMPOSITE/Target/usbd_conf.c **** {
 614:Middlewares/Third_Party/AL94_USB_Composite/COMPOSITE/Target/usbd_conf.c ****   HAL_StatusTypeDef hal_status = HAL_OK;
 615:Middlewares/Third_Party/AL94_USB_Composite/COMPOSITE/Target/usbd_conf.c ****   USBD_StatusTypeDef usb_status = USBD_OK;
 616:Middlewares/Third_Party/AL94_USB_Composite/COMPOSITE/Target/usbd_conf.c **** 
 617:Middlewares/Third_Party/AL94_USB_Composite/COMPOSITE/Target/usbd_conf.c ****   hal_status = HAL_PCD_EP_Flush(pdev->pData, ep_addr);
 618:Middlewares/Third_Party/AL94_USB_Composite/COMPOSITE/Target/usbd_conf.c **** 
 619:Middlewares/Third_Party/AL94_USB_Composite/COMPOSITE/Target/usbd_conf.c ****   usb_status = USBD_Get_USB_Status(hal_status);
 620:Middlewares/Third_Party/AL94_USB_Composite/COMPOSITE/Target/usbd_conf.c **** 
ARM GAS  /tmp/ccZpROtE.s 			page 23


 621:Middlewares/Third_Party/AL94_USB_Composite/COMPOSITE/Target/usbd_conf.c ****   return usb_status;
 622:Middlewares/Third_Party/AL94_USB_Composite/COMPOSITE/Target/usbd_conf.c **** }
 623:Middlewares/Third_Party/AL94_USB_Composite/COMPOSITE/Target/usbd_conf.c **** 
 624:Middlewares/Third_Party/AL94_USB_Composite/COMPOSITE/Target/usbd_conf.c **** /**
 625:Middlewares/Third_Party/AL94_USB_Composite/COMPOSITE/Target/usbd_conf.c ****   * @brief  Sets a Stall condition on an endpoint of the Low Level Driver.
 626:Middlewares/Third_Party/AL94_USB_Composite/COMPOSITE/Target/usbd_conf.c ****   * @param  pdev: Device handle
 627:Middlewares/Third_Party/AL94_USB_Composite/COMPOSITE/Target/usbd_conf.c ****   * @param  ep_addr: Endpoint number
 628:Middlewares/Third_Party/AL94_USB_Composite/COMPOSITE/Target/usbd_conf.c ****   * @retval USBD status
 629:Middlewares/Third_Party/AL94_USB_Composite/COMPOSITE/Target/usbd_conf.c ****   */
 630:Middlewares/Third_Party/AL94_USB_Composite/COMPOSITE/Target/usbd_conf.c **** USBD_StatusTypeDef USBD_LL_StallEP(USBD_HandleTypeDef *pdev, uint8_t ep_addr)
 631:Middlewares/Third_Party/AL94_USB_Composite/COMPOSITE/Target/usbd_conf.c **** {
 632:Middlewares/Third_Party/AL94_USB_Composite/COMPOSITE/Target/usbd_conf.c ****   HAL_StatusTypeDef hal_status = HAL_OK;
 633:Middlewares/Third_Party/AL94_USB_Composite/COMPOSITE/Target/usbd_conf.c ****   USBD_StatusTypeDef usb_status = USBD_OK;
 634:Middlewares/Third_Party/AL94_USB_Composite/COMPOSITE/Target/usbd_conf.c **** 
 635:Middlewares/Third_Party/AL94_USB_Composite/COMPOSITE/Target/usbd_conf.c ****   hal_status = HAL_PCD_EP_SetStall(pdev->pData, ep_addr);
 636:Middlewares/Third_Party/AL94_USB_Composite/COMPOSITE/Target/usbd_conf.c **** 
 637:Middlewares/Third_Party/AL94_USB_Composite/COMPOSITE/Target/usbd_conf.c ****   usb_status = USBD_Get_USB_Status(hal_status);
 638:Middlewares/Third_Party/AL94_USB_Composite/COMPOSITE/Target/usbd_conf.c **** 
 639:Middlewares/Third_Party/AL94_USB_Composite/COMPOSITE/Target/usbd_conf.c ****   return usb_status;
 640:Middlewares/Third_Party/AL94_USB_Composite/COMPOSITE/Target/usbd_conf.c **** }
 641:Middlewares/Third_Party/AL94_USB_Composite/COMPOSITE/Target/usbd_conf.c **** 
 642:Middlewares/Third_Party/AL94_USB_Composite/COMPOSITE/Target/usbd_conf.c **** /**
 643:Middlewares/Third_Party/AL94_USB_Composite/COMPOSITE/Target/usbd_conf.c ****   * @brief  Clears a Stall condition on an endpoint of the Low Level Driver.
 644:Middlewares/Third_Party/AL94_USB_Composite/COMPOSITE/Target/usbd_conf.c ****   * @param  pdev: Device handle
 645:Middlewares/Third_Party/AL94_USB_Composite/COMPOSITE/Target/usbd_conf.c ****   * @param  ep_addr: Endpoint number
 646:Middlewares/Third_Party/AL94_USB_Composite/COMPOSITE/Target/usbd_conf.c ****   * @retval USBD status
 647:Middlewares/Third_Party/AL94_USB_Composite/COMPOSITE/Target/usbd_conf.c ****   */
 648:Middlewares/Third_Party/AL94_USB_Composite/COMPOSITE/Target/usbd_conf.c **** USBD_StatusTypeDef USBD_LL_ClearStallEP(USBD_HandleTypeDef *pdev, uint8_t ep_addr)
 649:Middlewares/Third_Party/AL94_USB_Composite/COMPOSITE/Target/usbd_conf.c **** {
 650:Middlewares/Third_Party/AL94_USB_Composite/COMPOSITE/Target/usbd_conf.c ****   HAL_StatusTypeDef hal_status = HAL_OK;
 651:Middlewares/Third_Party/AL94_USB_Composite/COMPOSITE/Target/usbd_conf.c ****   USBD_StatusTypeDef usb_status = USBD_OK;
 652:Middlewares/Third_Party/AL94_USB_Composite/COMPOSITE/Target/usbd_conf.c **** 
 653:Middlewares/Third_Party/AL94_USB_Composite/COMPOSITE/Target/usbd_conf.c ****   hal_status = HAL_PCD_EP_ClrStall(pdev->pData, ep_addr);
 654:Middlewares/Third_Party/AL94_USB_Composite/COMPOSITE/Target/usbd_conf.c **** 
 655:Middlewares/Third_Party/AL94_USB_Composite/COMPOSITE/Target/usbd_conf.c ****   usb_status = USBD_Get_USB_Status(hal_status);
 656:Middlewares/Third_Party/AL94_USB_Composite/COMPOSITE/Target/usbd_conf.c **** 
 657:Middlewares/Third_Party/AL94_USB_Composite/COMPOSITE/Target/usbd_conf.c ****   return usb_status;
 658:Middlewares/Third_Party/AL94_USB_Composite/COMPOSITE/Target/usbd_conf.c **** }
 659:Middlewares/Third_Party/AL94_USB_Composite/COMPOSITE/Target/usbd_conf.c **** 
 660:Middlewares/Third_Party/AL94_USB_Composite/COMPOSITE/Target/usbd_conf.c **** /**
 661:Middlewares/Third_Party/AL94_USB_Composite/COMPOSITE/Target/usbd_conf.c ****   * @brief  Returns Stall condition.
 662:Middlewares/Third_Party/AL94_USB_Composite/COMPOSITE/Target/usbd_conf.c ****   * @param  pdev: Device handle
 663:Middlewares/Third_Party/AL94_USB_Composite/COMPOSITE/Target/usbd_conf.c ****   * @param  ep_addr: Endpoint number
 664:Middlewares/Third_Party/AL94_USB_Composite/COMPOSITE/Target/usbd_conf.c ****   * @retval Stall (1: Yes, 0: No)
 665:Middlewares/Third_Party/AL94_USB_Composite/COMPOSITE/Target/usbd_conf.c ****   */
 666:Middlewares/Third_Party/AL94_USB_Composite/COMPOSITE/Target/usbd_conf.c **** uint8_t USBD_LL_IsStallEP(USBD_HandleTypeDef *pdev, uint8_t ep_addr)
 667:Middlewares/Third_Party/AL94_USB_Composite/COMPOSITE/Target/usbd_conf.c **** {
 644              		.loc 1 667 1 is_stmt 1 view -0
 645              		.cfi_startproc
 646              		@ args = 0, pretend = 0, frame = 0
 647              		@ frame_needed = 0, uses_anonymous_args = 0
 648              		@ link register save eliminated.
 668:Middlewares/Third_Party/AL94_USB_Composite/COMPOSITE/Target/usbd_conf.c ****   PCD_HandleTypeDef *hpcd = (PCD_HandleTypeDef *)pdev->pData;
 649              		.loc 1 668 3 view .LVU120
 650              		.loc 1 668 22 is_stmt 0 view .LVU121
 651 0000 D0F81033 		ldr	r3, [r0, #784]
 652              	.LVL60:
ARM GAS  /tmp/ccZpROtE.s 			page 24


 669:Middlewares/Third_Party/AL94_USB_Composite/COMPOSITE/Target/usbd_conf.c **** 
 670:Middlewares/Third_Party/AL94_USB_Composite/COMPOSITE/Target/usbd_conf.c ****   if ((ep_addr & 0x80) == 0x80)
 653              		.loc 1 670 3 is_stmt 1 view .LVU122
 654              		.loc 1 670 6 is_stmt 0 view .LVU123
 655 0004 11F0800F 		tst	r1, #128
 656 0008 08D1     		bne	.L47
 671:Middlewares/Third_Party/AL94_USB_Composite/COMPOSITE/Target/usbd_conf.c ****   {
 672:Middlewares/Third_Party/AL94_USB_Composite/COMPOSITE/Target/usbd_conf.c ****     return hpcd->IN_ep[ep_addr & 0x7F].is_stall;
 673:Middlewares/Third_Party/AL94_USB_Composite/COMPOSITE/Target/usbd_conf.c ****   }
 674:Middlewares/Third_Party/AL94_USB_Composite/COMPOSITE/Target/usbd_conf.c ****   else
 675:Middlewares/Third_Party/AL94_USB_Composite/COMPOSITE/Target/usbd_conf.c ****   {
 676:Middlewares/Third_Party/AL94_USB_Composite/COMPOSITE/Target/usbd_conf.c ****     return hpcd->OUT_ep[ep_addr & 0x7F].is_stall;
 657              		.loc 1 676 5 is_stmt 1 view .LVU124
 658              		.loc 1 676 33 is_stmt 0 view .LVU125
 659 000a 01F07F01 		and	r1, r1, #127
 660              	.LVL61:
 661              		.loc 1 676 40 view .LVU126
 662 000e 01EBC101 		add	r1, r1, r1, lsl #3
 663 0012 03EB8103 		add	r3, r3, r1, lsl #2
 664              	.LVL62:
 665              		.loc 1 676 40 view .LVU127
 666 0016 93F87E02 		ldrb	r0, [r3, #638]	@ zero_extendqisi2
 667              	.LVL63:
 677:Middlewares/Third_Party/AL94_USB_Composite/COMPOSITE/Target/usbd_conf.c ****   }
 678:Middlewares/Third_Party/AL94_USB_Composite/COMPOSITE/Target/usbd_conf.c **** }
 668              		.loc 1 678 1 view .LVU128
 669 001a 7047     		bx	lr
 670              	.LVL64:
 671              	.L47:
 672:Middlewares/Third_Party/AL94_USB_Composite/COMPOSITE/Target/usbd_conf.c ****   }
 672              		.loc 1 672 5 is_stmt 1 view .LVU129
 672:Middlewares/Third_Party/AL94_USB_Composite/COMPOSITE/Target/usbd_conf.c ****   }
 673              		.loc 1 672 32 is_stmt 0 view .LVU130
 674 001c 01F07F01 		and	r1, r1, #127
 675              	.LVL65:
 672:Middlewares/Third_Party/AL94_USB_Composite/COMPOSITE/Target/usbd_conf.c ****   }
 676              		.loc 1 672 39 view .LVU131
 677 0020 01EBC101 		add	r1, r1, r1, lsl #3
 678 0024 03EB8103 		add	r3, r3, r1, lsl #2
 679              	.LVL66:
 672:Middlewares/Third_Party/AL94_USB_Composite/COMPOSITE/Target/usbd_conf.c ****   }
 680              		.loc 1 672 39 view .LVU132
 681 0028 93F83E00 		ldrb	r0, [r3, #62]	@ zero_extendqisi2
 682              	.LVL67:
 672:Middlewares/Third_Party/AL94_USB_Composite/COMPOSITE/Target/usbd_conf.c ****   }
 683              		.loc 1 672 39 view .LVU133
 684 002c 7047     		bx	lr
 685              		.cfi_endproc
 686              	.LFE169:
 688              		.section	.text.USBD_LL_GetRxDataSize,"ax",%progbits
 689              		.align	1
 690              		.global	USBD_LL_GetRxDataSize
 691              		.syntax unified
 692              		.thumb
 693              		.thumb_func
 695              	USBD_LL_GetRxDataSize:
 696              	.LVL68:
ARM GAS  /tmp/ccZpROtE.s 			page 25


 697              	.LFB173:
 679:Middlewares/Third_Party/AL94_USB_Composite/COMPOSITE/Target/usbd_conf.c **** 
 680:Middlewares/Third_Party/AL94_USB_Composite/COMPOSITE/Target/usbd_conf.c **** /**
 681:Middlewares/Third_Party/AL94_USB_Composite/COMPOSITE/Target/usbd_conf.c ****   * @brief  Assigns a USB address to the device.
 682:Middlewares/Third_Party/AL94_USB_Composite/COMPOSITE/Target/usbd_conf.c ****   * @param  pdev: Device handle
 683:Middlewares/Third_Party/AL94_USB_Composite/COMPOSITE/Target/usbd_conf.c ****   * @param  dev_addr: Device address
 684:Middlewares/Third_Party/AL94_USB_Composite/COMPOSITE/Target/usbd_conf.c ****   * @retval USBD status
 685:Middlewares/Third_Party/AL94_USB_Composite/COMPOSITE/Target/usbd_conf.c ****   */
 686:Middlewares/Third_Party/AL94_USB_Composite/COMPOSITE/Target/usbd_conf.c **** USBD_StatusTypeDef USBD_LL_SetUSBAddress(USBD_HandleTypeDef *pdev, uint8_t dev_addr)
 687:Middlewares/Third_Party/AL94_USB_Composite/COMPOSITE/Target/usbd_conf.c **** {
 688:Middlewares/Third_Party/AL94_USB_Composite/COMPOSITE/Target/usbd_conf.c ****   HAL_StatusTypeDef hal_status = HAL_OK;
 689:Middlewares/Third_Party/AL94_USB_Composite/COMPOSITE/Target/usbd_conf.c ****   USBD_StatusTypeDef usb_status = USBD_OK;
 690:Middlewares/Third_Party/AL94_USB_Composite/COMPOSITE/Target/usbd_conf.c **** 
 691:Middlewares/Third_Party/AL94_USB_Composite/COMPOSITE/Target/usbd_conf.c ****   hal_status = HAL_PCD_SetAddress(pdev->pData, dev_addr);
 692:Middlewares/Third_Party/AL94_USB_Composite/COMPOSITE/Target/usbd_conf.c **** 
 693:Middlewares/Third_Party/AL94_USB_Composite/COMPOSITE/Target/usbd_conf.c ****   usb_status = USBD_Get_USB_Status(hal_status);
 694:Middlewares/Third_Party/AL94_USB_Composite/COMPOSITE/Target/usbd_conf.c **** 
 695:Middlewares/Third_Party/AL94_USB_Composite/COMPOSITE/Target/usbd_conf.c ****   return usb_status;
 696:Middlewares/Third_Party/AL94_USB_Composite/COMPOSITE/Target/usbd_conf.c **** }
 697:Middlewares/Third_Party/AL94_USB_Composite/COMPOSITE/Target/usbd_conf.c **** 
 698:Middlewares/Third_Party/AL94_USB_Composite/COMPOSITE/Target/usbd_conf.c **** /**
 699:Middlewares/Third_Party/AL94_USB_Composite/COMPOSITE/Target/usbd_conf.c ****   * @brief  Transmits data over an endpoint.
 700:Middlewares/Third_Party/AL94_USB_Composite/COMPOSITE/Target/usbd_conf.c ****   * @param  pdev: Device handle
 701:Middlewares/Third_Party/AL94_USB_Composite/COMPOSITE/Target/usbd_conf.c ****   * @param  ep_addr: Endpoint number
 702:Middlewares/Third_Party/AL94_USB_Composite/COMPOSITE/Target/usbd_conf.c ****   * @param  pbuf: Pointer to data to be sent
 703:Middlewares/Third_Party/AL94_USB_Composite/COMPOSITE/Target/usbd_conf.c ****   * @param  size: Data size
 704:Middlewares/Third_Party/AL94_USB_Composite/COMPOSITE/Target/usbd_conf.c ****   * @retval USBD status
 705:Middlewares/Third_Party/AL94_USB_Composite/COMPOSITE/Target/usbd_conf.c ****   */
 706:Middlewares/Third_Party/AL94_USB_Composite/COMPOSITE/Target/usbd_conf.c **** USBD_StatusTypeDef USBD_LL_Transmit(USBD_HandleTypeDef *pdev, uint8_t ep_addr, uint8_t *pbuf, uint3
 707:Middlewares/Third_Party/AL94_USB_Composite/COMPOSITE/Target/usbd_conf.c **** {
 708:Middlewares/Third_Party/AL94_USB_Composite/COMPOSITE/Target/usbd_conf.c ****   HAL_StatusTypeDef hal_status = HAL_OK;
 709:Middlewares/Third_Party/AL94_USB_Composite/COMPOSITE/Target/usbd_conf.c ****   USBD_StatusTypeDef usb_status = USBD_OK;
 710:Middlewares/Third_Party/AL94_USB_Composite/COMPOSITE/Target/usbd_conf.c **** 
 711:Middlewares/Third_Party/AL94_USB_Composite/COMPOSITE/Target/usbd_conf.c ****   hal_status = HAL_PCD_EP_Transmit(pdev->pData, ep_addr, pbuf, size);
 712:Middlewares/Third_Party/AL94_USB_Composite/COMPOSITE/Target/usbd_conf.c **** 
 713:Middlewares/Third_Party/AL94_USB_Composite/COMPOSITE/Target/usbd_conf.c ****   usb_status = USBD_Get_USB_Status(hal_status);
 714:Middlewares/Third_Party/AL94_USB_Composite/COMPOSITE/Target/usbd_conf.c **** 
 715:Middlewares/Third_Party/AL94_USB_Composite/COMPOSITE/Target/usbd_conf.c ****   return usb_status;
 716:Middlewares/Third_Party/AL94_USB_Composite/COMPOSITE/Target/usbd_conf.c **** }
 717:Middlewares/Third_Party/AL94_USB_Composite/COMPOSITE/Target/usbd_conf.c **** 
 718:Middlewares/Third_Party/AL94_USB_Composite/COMPOSITE/Target/usbd_conf.c **** /**
 719:Middlewares/Third_Party/AL94_USB_Composite/COMPOSITE/Target/usbd_conf.c ****   * @brief  Prepares an endpoint for reception.
 720:Middlewares/Third_Party/AL94_USB_Composite/COMPOSITE/Target/usbd_conf.c ****   * @param  pdev: Device handle
 721:Middlewares/Third_Party/AL94_USB_Composite/COMPOSITE/Target/usbd_conf.c ****   * @param  ep_addr: Endpoint number
 722:Middlewares/Third_Party/AL94_USB_Composite/COMPOSITE/Target/usbd_conf.c ****   * @param  pbuf: Pointer to data to be received
 723:Middlewares/Third_Party/AL94_USB_Composite/COMPOSITE/Target/usbd_conf.c ****   * @param  size: Data size
 724:Middlewares/Third_Party/AL94_USB_Composite/COMPOSITE/Target/usbd_conf.c ****   * @retval USBD status
 725:Middlewares/Third_Party/AL94_USB_Composite/COMPOSITE/Target/usbd_conf.c ****   */
 726:Middlewares/Third_Party/AL94_USB_Composite/COMPOSITE/Target/usbd_conf.c **** USBD_StatusTypeDef USBD_LL_PrepareReceive(USBD_HandleTypeDef *pdev, uint8_t ep_addr, uint8_t *pbuf,
 727:Middlewares/Third_Party/AL94_USB_Composite/COMPOSITE/Target/usbd_conf.c **** {
 728:Middlewares/Third_Party/AL94_USB_Composite/COMPOSITE/Target/usbd_conf.c ****   HAL_StatusTypeDef hal_status = HAL_OK;
 729:Middlewares/Third_Party/AL94_USB_Composite/COMPOSITE/Target/usbd_conf.c ****   USBD_StatusTypeDef usb_status = USBD_OK;
 730:Middlewares/Third_Party/AL94_USB_Composite/COMPOSITE/Target/usbd_conf.c **** 
 731:Middlewares/Third_Party/AL94_USB_Composite/COMPOSITE/Target/usbd_conf.c ****   hal_status = HAL_PCD_EP_Receive(pdev->pData, ep_addr, pbuf, size);
 732:Middlewares/Third_Party/AL94_USB_Composite/COMPOSITE/Target/usbd_conf.c **** 
 733:Middlewares/Third_Party/AL94_USB_Composite/COMPOSITE/Target/usbd_conf.c ****   usb_status = USBD_Get_USB_Status(hal_status);
 734:Middlewares/Third_Party/AL94_USB_Composite/COMPOSITE/Target/usbd_conf.c **** 
ARM GAS  /tmp/ccZpROtE.s 			page 26


 735:Middlewares/Third_Party/AL94_USB_Composite/COMPOSITE/Target/usbd_conf.c ****   return usb_status;
 736:Middlewares/Third_Party/AL94_USB_Composite/COMPOSITE/Target/usbd_conf.c **** }
 737:Middlewares/Third_Party/AL94_USB_Composite/COMPOSITE/Target/usbd_conf.c **** 
 738:Middlewares/Third_Party/AL94_USB_Composite/COMPOSITE/Target/usbd_conf.c **** /**
 739:Middlewares/Third_Party/AL94_USB_Composite/COMPOSITE/Target/usbd_conf.c ****   * @brief  Returns the last transfered packet size.
 740:Middlewares/Third_Party/AL94_USB_Composite/COMPOSITE/Target/usbd_conf.c ****   * @param  pdev: Device handle
 741:Middlewares/Third_Party/AL94_USB_Composite/COMPOSITE/Target/usbd_conf.c ****   * @param  ep_addr: Endpoint number
 742:Middlewares/Third_Party/AL94_USB_Composite/COMPOSITE/Target/usbd_conf.c ****   * @retval Recived Data Size
 743:Middlewares/Third_Party/AL94_USB_Composite/COMPOSITE/Target/usbd_conf.c ****   */
 744:Middlewares/Third_Party/AL94_USB_Composite/COMPOSITE/Target/usbd_conf.c **** uint32_t USBD_LL_GetRxDataSize(USBD_HandleTypeDef *pdev, uint8_t ep_addr)
 745:Middlewares/Third_Party/AL94_USB_Composite/COMPOSITE/Target/usbd_conf.c **** {
 698              		.loc 1 745 1 is_stmt 1 view -0
 699              		.cfi_startproc
 700              		@ args = 0, pretend = 0, frame = 0
 701              		@ frame_needed = 0, uses_anonymous_args = 0
 702              		.loc 1 745 1 is_stmt 0 view .LVU135
 703 0000 08B5     		push	{r3, lr}
 704              		.cfi_def_cfa_offset 8
 705              		.cfi_offset 3, -8
 706              		.cfi_offset 14, -4
 746:Middlewares/Third_Party/AL94_USB_Composite/COMPOSITE/Target/usbd_conf.c ****   return HAL_PCD_EP_GetRxCount((PCD_HandleTypeDef *)pdev->pData, ep_addr);
 707              		.loc 1 746 3 is_stmt 1 view .LVU136
 708              		.loc 1 746 10 is_stmt 0 view .LVU137
 709 0002 D0F81003 		ldr	r0, [r0, #784]
 710              	.LVL69:
 711              		.loc 1 746 10 view .LVU138
 712 0006 FFF7FEFF 		bl	HAL_PCD_EP_GetRxCount
 713              	.LVL70:
 747:Middlewares/Third_Party/AL94_USB_Composite/COMPOSITE/Target/usbd_conf.c **** }
 714              		.loc 1 747 1 view .LVU139
 715 000a 08BD     		pop	{r3, pc}
 716              		.cfi_endproc
 717              	.LFE173:
 719              		.section	.text.USBD_LL_Delay,"ax",%progbits
 720              		.align	1
 721              		.global	USBD_LL_Delay
 722              		.syntax unified
 723              		.thumb
 724              		.thumb_func
 726              	USBD_LL_Delay:
 727              	.LVL71:
 728              	.LFB174:
 748:Middlewares/Third_Party/AL94_USB_Composite/COMPOSITE/Target/usbd_conf.c **** 
 749:Middlewares/Third_Party/AL94_USB_Composite/COMPOSITE/Target/usbd_conf.c **** /**
 750:Middlewares/Third_Party/AL94_USB_Composite/COMPOSITE/Target/usbd_conf.c ****   * @brief  Delays routine for the USB device library.
 751:Middlewares/Third_Party/AL94_USB_Composite/COMPOSITE/Target/usbd_conf.c ****   * @param  Delay: Delay in ms
 752:Middlewares/Third_Party/AL94_USB_Composite/COMPOSITE/Target/usbd_conf.c ****   * @retval None
 753:Middlewares/Third_Party/AL94_USB_Composite/COMPOSITE/Target/usbd_conf.c ****   */
 754:Middlewares/Third_Party/AL94_USB_Composite/COMPOSITE/Target/usbd_conf.c **** void USBD_LL_Delay(uint32_t Delay)
 755:Middlewares/Third_Party/AL94_USB_Composite/COMPOSITE/Target/usbd_conf.c **** {
 729              		.loc 1 755 1 is_stmt 1 view -0
 730              		.cfi_startproc
 731              		@ args = 0, pretend = 0, frame = 0
 732              		@ frame_needed = 0, uses_anonymous_args = 0
 733              		.loc 1 755 1 is_stmt 0 view .LVU141
 734 0000 08B5     		push	{r3, lr}
 735              		.cfi_def_cfa_offset 8
ARM GAS  /tmp/ccZpROtE.s 			page 27


 736              		.cfi_offset 3, -8
 737              		.cfi_offset 14, -4
 756:Middlewares/Third_Party/AL94_USB_Composite/COMPOSITE/Target/usbd_conf.c ****   HAL_Delay(Delay);
 738              		.loc 1 756 3 is_stmt 1 view .LVU142
 739 0002 FFF7FEFF 		bl	HAL_Delay
 740              	.LVL72:
 757:Middlewares/Third_Party/AL94_USB_Composite/COMPOSITE/Target/usbd_conf.c **** }
 741              		.loc 1 757 1 is_stmt 0 view .LVU143
 742 0006 08BD     		pop	{r3, pc}
 743              		.cfi_endproc
 744              	.LFE174:
 746              		.section	.text.USBD_Get_USB_Status,"ax",%progbits
 747              		.align	1
 748              		.global	USBD_Get_USB_Status
 749              		.syntax unified
 750              		.thumb
 751              		.thumb_func
 753              	USBD_Get_USB_Status:
 754              	.LVL73:
 755              	.LFB175:
 758:Middlewares/Third_Party/AL94_USB_Composite/COMPOSITE/Target/usbd_conf.c **** 
 759:Middlewares/Third_Party/AL94_USB_Composite/COMPOSITE/Target/usbd_conf.c **** /**
 760:Middlewares/Third_Party/AL94_USB_Composite/COMPOSITE/Target/usbd_conf.c ****   * @brief  Retuns the USB status depending on the HAL status:
 761:Middlewares/Third_Party/AL94_USB_Composite/COMPOSITE/Target/usbd_conf.c ****   * @param  hal_status: HAL status
 762:Middlewares/Third_Party/AL94_USB_Composite/COMPOSITE/Target/usbd_conf.c ****   * @retval USB status
 763:Middlewares/Third_Party/AL94_USB_Composite/COMPOSITE/Target/usbd_conf.c ****   */
 764:Middlewares/Third_Party/AL94_USB_Composite/COMPOSITE/Target/usbd_conf.c **** USBD_StatusTypeDef USBD_Get_USB_Status(HAL_StatusTypeDef hal_status)
 765:Middlewares/Third_Party/AL94_USB_Composite/COMPOSITE/Target/usbd_conf.c **** {
 756              		.loc 1 765 1 is_stmt 1 view -0
 757              		.cfi_startproc
 758              		@ args = 0, pretend = 0, frame = 0
 759              		@ frame_needed = 0, uses_anonymous_args = 0
 760              		@ link register save eliminated.
 766:Middlewares/Third_Party/AL94_USB_Composite/COMPOSITE/Target/usbd_conf.c ****   USBD_StatusTypeDef usb_status = USBD_OK;
 761              		.loc 1 766 3 view .LVU145
 767:Middlewares/Third_Party/AL94_USB_Composite/COMPOSITE/Target/usbd_conf.c **** 
 768:Middlewares/Third_Party/AL94_USB_Composite/COMPOSITE/Target/usbd_conf.c ****   switch (hal_status)
 762              		.loc 1 768 3 view .LVU146
 763 0000 0328     		cmp	r0, #3
 764 0002 05D8     		bhi	.L58
 765 0004 DFE800F0 		tbb	[pc, r0]
 766              	.L55:
 767 0008 05       		.byte	(.L53-.L55)/2
 768 0009 04       		.byte	(.L58-.L55)/2
 769 000a 02       		.byte	(.L56-.L55)/2
 770 000b 05       		.byte	(.L53-.L55)/2
 771              		.p2align 1
 772              	.L56:
 769:Middlewares/Third_Party/AL94_USB_Composite/COMPOSITE/Target/usbd_conf.c ****   {
 770:Middlewares/Third_Party/AL94_USB_Composite/COMPOSITE/Target/usbd_conf.c ****   case HAL_OK:
 771:Middlewares/Third_Party/AL94_USB_Composite/COMPOSITE/Target/usbd_conf.c ****     usb_status = USBD_OK;
 772:Middlewares/Third_Party/AL94_USB_Composite/COMPOSITE/Target/usbd_conf.c ****     break;
 773:Middlewares/Third_Party/AL94_USB_Composite/COMPOSITE/Target/usbd_conf.c ****   case HAL_ERROR:
 774:Middlewares/Third_Party/AL94_USB_Composite/COMPOSITE/Target/usbd_conf.c ****     usb_status = USBD_FAIL;
 775:Middlewares/Third_Party/AL94_USB_Composite/COMPOSITE/Target/usbd_conf.c ****     break;
 776:Middlewares/Third_Party/AL94_USB_Composite/COMPOSITE/Target/usbd_conf.c ****   case HAL_BUSY:
 777:Middlewares/Third_Party/AL94_USB_Composite/COMPOSITE/Target/usbd_conf.c ****     usb_status = USBD_BUSY;
ARM GAS  /tmp/ccZpROtE.s 			page 28


 773              		.loc 1 777 5 view .LVU147
 774              	.LVL74:
 778:Middlewares/Third_Party/AL94_USB_Composite/COMPOSITE/Target/usbd_conf.c ****     break;
 775              		.loc 1 778 5 view .LVU148
 777:Middlewares/Third_Party/AL94_USB_Composite/COMPOSITE/Target/usbd_conf.c ****     break;
 776              		.loc 1 777 16 is_stmt 0 view .LVU149
 777 000c 0120     		movs	r0, #1
 778              	.LVL75:
 779              		.loc 1 778 5 view .LVU150
 780 000e 7047     		bx	lr
 781              	.LVL76:
 782              	.L58:
 774:Middlewares/Third_Party/AL94_USB_Composite/COMPOSITE/Target/usbd_conf.c ****     break;
 783              		.loc 1 774 16 view .LVU151
 784 0010 0320     		movs	r0, #3
 785              	.LVL77:
 786              	.L53:
 779:Middlewares/Third_Party/AL94_USB_Composite/COMPOSITE/Target/usbd_conf.c ****   case HAL_TIMEOUT:
 780:Middlewares/Third_Party/AL94_USB_Composite/COMPOSITE/Target/usbd_conf.c ****     usb_status = USBD_FAIL;
 781:Middlewares/Third_Party/AL94_USB_Composite/COMPOSITE/Target/usbd_conf.c ****     break;
 782:Middlewares/Third_Party/AL94_USB_Composite/COMPOSITE/Target/usbd_conf.c ****   default:
 783:Middlewares/Third_Party/AL94_USB_Composite/COMPOSITE/Target/usbd_conf.c ****     usb_status = USBD_FAIL;
 784:Middlewares/Third_Party/AL94_USB_Composite/COMPOSITE/Target/usbd_conf.c ****     break;
 785:Middlewares/Third_Party/AL94_USB_Composite/COMPOSITE/Target/usbd_conf.c ****   }
 786:Middlewares/Third_Party/AL94_USB_Composite/COMPOSITE/Target/usbd_conf.c ****   return usb_status;
 787              		.loc 1 786 3 is_stmt 1 view .LVU152
 787:Middlewares/Third_Party/AL94_USB_Composite/COMPOSITE/Target/usbd_conf.c **** }
 788              		.loc 1 787 1 is_stmt 0 view .LVU153
 789 0012 7047     		bx	lr
 790              		.cfi_endproc
 791              	.LFE175:
 793              		.section	.text.USBD_LL_DeInit,"ax",%progbits
 794              		.align	1
 795              		.global	USBD_LL_DeInit
 796              		.syntax unified
 797              		.thumb
 798              		.thumb_func
 800              	USBD_LL_DeInit:
 801              	.LVL78:
 802              	.LFB161:
 523:Middlewares/Third_Party/AL94_USB_Composite/COMPOSITE/Target/usbd_conf.c ****   HAL_StatusTypeDef hal_status = HAL_OK;
 803              		.loc 1 523 1 is_stmt 1 view -0
 804              		.cfi_startproc
 805              		@ args = 0, pretend = 0, frame = 0
 806              		@ frame_needed = 0, uses_anonymous_args = 0
 523:Middlewares/Third_Party/AL94_USB_Composite/COMPOSITE/Target/usbd_conf.c ****   HAL_StatusTypeDef hal_status = HAL_OK;
 807              		.loc 1 523 1 is_stmt 0 view .LVU155
 808 0000 08B5     		push	{r3, lr}
 809              		.cfi_def_cfa_offset 8
 810              		.cfi_offset 3, -8
 811              		.cfi_offset 14, -4
 524:Middlewares/Third_Party/AL94_USB_Composite/COMPOSITE/Target/usbd_conf.c ****   USBD_StatusTypeDef usb_status = USBD_OK;
 812              		.loc 1 524 3 is_stmt 1 view .LVU156
 813              	.LVL79:
 525:Middlewares/Third_Party/AL94_USB_Composite/COMPOSITE/Target/usbd_conf.c **** 
 814              		.loc 1 525 3 view .LVU157
 527:Middlewares/Third_Party/AL94_USB_Composite/COMPOSITE/Target/usbd_conf.c **** 
ARM GAS  /tmp/ccZpROtE.s 			page 29


 815              		.loc 1 527 3 view .LVU158
 527:Middlewares/Third_Party/AL94_USB_Composite/COMPOSITE/Target/usbd_conf.c **** 
 816              		.loc 1 527 16 is_stmt 0 view .LVU159
 817 0002 D0F81003 		ldr	r0, [r0, #784]
 818              	.LVL80:
 527:Middlewares/Third_Party/AL94_USB_Composite/COMPOSITE/Target/usbd_conf.c **** 
 819              		.loc 1 527 16 view .LVU160
 820 0006 FFF7FEFF 		bl	HAL_PCD_DeInit
 821              	.LVL81:
 529:Middlewares/Third_Party/AL94_USB_Composite/COMPOSITE/Target/usbd_conf.c **** 
 822              		.loc 1 529 3 is_stmt 1 view .LVU161
 529:Middlewares/Third_Party/AL94_USB_Composite/COMPOSITE/Target/usbd_conf.c **** 
 823              		.loc 1 529 16 is_stmt 0 view .LVU162
 824 000a FFF7FEFF 		bl	USBD_Get_USB_Status
 825              	.LVL82:
 531:Middlewares/Third_Party/AL94_USB_Composite/COMPOSITE/Target/usbd_conf.c **** }
 826              		.loc 1 531 3 is_stmt 1 view .LVU163
 532:Middlewares/Third_Party/AL94_USB_Composite/COMPOSITE/Target/usbd_conf.c **** 
 827              		.loc 1 532 1 is_stmt 0 view .LVU164
 828 000e 08BD     		pop	{r3, pc}
 829              		.cfi_endproc
 830              	.LFE161:
 832              		.section	.text.USBD_LL_Start,"ax",%progbits
 833              		.align	1
 834              		.global	USBD_LL_Start
 835              		.syntax unified
 836              		.thumb
 837              		.thumb_func
 839              	USBD_LL_Start:
 840              	.LVL83:
 841              	.LFB162:
 540:Middlewares/Third_Party/AL94_USB_Composite/COMPOSITE/Target/usbd_conf.c ****   HAL_StatusTypeDef hal_status = HAL_OK;
 842              		.loc 1 540 1 is_stmt 1 view -0
 843              		.cfi_startproc
 844              		@ args = 0, pretend = 0, frame = 0
 845              		@ frame_needed = 0, uses_anonymous_args = 0
 540:Middlewares/Third_Party/AL94_USB_Composite/COMPOSITE/Target/usbd_conf.c ****   HAL_StatusTypeDef hal_status = HAL_OK;
 846              		.loc 1 540 1 is_stmt 0 view .LVU166
 847 0000 08B5     		push	{r3, lr}
 848              		.cfi_def_cfa_offset 8
 849              		.cfi_offset 3, -8
 850              		.cfi_offset 14, -4
 541:Middlewares/Third_Party/AL94_USB_Composite/COMPOSITE/Target/usbd_conf.c ****   USBD_StatusTypeDef usb_status = USBD_OK;
 851              		.loc 1 541 3 is_stmt 1 view .LVU167
 852              	.LVL84:
 542:Middlewares/Third_Party/AL94_USB_Composite/COMPOSITE/Target/usbd_conf.c **** 
 853              		.loc 1 542 3 view .LVU168
 544:Middlewares/Third_Party/AL94_USB_Composite/COMPOSITE/Target/usbd_conf.c **** 
 854              		.loc 1 544 3 view .LVU169
 544:Middlewares/Third_Party/AL94_USB_Composite/COMPOSITE/Target/usbd_conf.c **** 
 855              		.loc 1 544 16 is_stmt 0 view .LVU170
 856 0002 D0F81003 		ldr	r0, [r0, #784]
 857              	.LVL85:
 544:Middlewares/Third_Party/AL94_USB_Composite/COMPOSITE/Target/usbd_conf.c **** 
 858              		.loc 1 544 16 view .LVU171
 859 0006 FFF7FEFF 		bl	HAL_PCD_Start
 860              	.LVL86:
ARM GAS  /tmp/ccZpROtE.s 			page 30


 546:Middlewares/Third_Party/AL94_USB_Composite/COMPOSITE/Target/usbd_conf.c **** 
 861              		.loc 1 546 3 is_stmt 1 view .LVU172
 546:Middlewares/Third_Party/AL94_USB_Composite/COMPOSITE/Target/usbd_conf.c **** 
 862              		.loc 1 546 16 is_stmt 0 view .LVU173
 863 000a FFF7FEFF 		bl	USBD_Get_USB_Status
 864              	.LVL87:
 548:Middlewares/Third_Party/AL94_USB_Composite/COMPOSITE/Target/usbd_conf.c **** }
 865              		.loc 1 548 3 is_stmt 1 view .LVU174
 549:Middlewares/Third_Party/AL94_USB_Composite/COMPOSITE/Target/usbd_conf.c **** 
 866              		.loc 1 549 1 is_stmt 0 view .LVU175
 867 000e 08BD     		pop	{r3, pc}
 868              		.cfi_endproc
 869              	.LFE162:
 871              		.section	.text.USBD_LL_Stop,"ax",%progbits
 872              		.align	1
 873              		.global	USBD_LL_Stop
 874              		.syntax unified
 875              		.thumb
 876              		.thumb_func
 878              	USBD_LL_Stop:
 879              	.LVL88:
 880              	.LFB163:
 557:Middlewares/Third_Party/AL94_USB_Composite/COMPOSITE/Target/usbd_conf.c ****   HAL_StatusTypeDef hal_status = HAL_OK;
 881              		.loc 1 557 1 is_stmt 1 view -0
 882              		.cfi_startproc
 883              		@ args = 0, pretend = 0, frame = 0
 884              		@ frame_needed = 0, uses_anonymous_args = 0
 557:Middlewares/Third_Party/AL94_USB_Composite/COMPOSITE/Target/usbd_conf.c ****   HAL_StatusTypeDef hal_status = HAL_OK;
 885              		.loc 1 557 1 is_stmt 0 view .LVU177
 886 0000 08B5     		push	{r3, lr}
 887              		.cfi_def_cfa_offset 8
 888              		.cfi_offset 3, -8
 889              		.cfi_offset 14, -4
 558:Middlewares/Third_Party/AL94_USB_Composite/COMPOSITE/Target/usbd_conf.c ****   USBD_StatusTypeDef usb_status = USBD_OK;
 890              		.loc 1 558 3 is_stmt 1 view .LVU178
 891              	.LVL89:
 559:Middlewares/Third_Party/AL94_USB_Composite/COMPOSITE/Target/usbd_conf.c **** 
 892              		.loc 1 559 3 view .LVU179
 561:Middlewares/Third_Party/AL94_USB_Composite/COMPOSITE/Target/usbd_conf.c **** 
 893              		.loc 1 561 3 view .LVU180
 561:Middlewares/Third_Party/AL94_USB_Composite/COMPOSITE/Target/usbd_conf.c **** 
 894              		.loc 1 561 16 is_stmt 0 view .LVU181
 895 0002 D0F81003 		ldr	r0, [r0, #784]
 896              	.LVL90:
 561:Middlewares/Third_Party/AL94_USB_Composite/COMPOSITE/Target/usbd_conf.c **** 
 897              		.loc 1 561 16 view .LVU182
 898 0006 FFF7FEFF 		bl	HAL_PCD_Stop
 899              	.LVL91:
 563:Middlewares/Third_Party/AL94_USB_Composite/COMPOSITE/Target/usbd_conf.c **** 
 900              		.loc 1 563 3 is_stmt 1 view .LVU183
 563:Middlewares/Third_Party/AL94_USB_Composite/COMPOSITE/Target/usbd_conf.c **** 
 901              		.loc 1 563 16 is_stmt 0 view .LVU184
 902 000a FFF7FEFF 		bl	USBD_Get_USB_Status
 903              	.LVL92:
 565:Middlewares/Third_Party/AL94_USB_Composite/COMPOSITE/Target/usbd_conf.c **** }
 904              		.loc 1 565 3 is_stmt 1 view .LVU185
 566:Middlewares/Third_Party/AL94_USB_Composite/COMPOSITE/Target/usbd_conf.c **** 
ARM GAS  /tmp/ccZpROtE.s 			page 31


 905              		.loc 1 566 1 is_stmt 0 view .LVU186
 906 000e 08BD     		pop	{r3, pc}
 907              		.cfi_endproc
 908              	.LFE163:
 910              		.section	.text.USBD_LL_OpenEP,"ax",%progbits
 911              		.align	1
 912              		.global	USBD_LL_OpenEP
 913              		.syntax unified
 914              		.thumb
 915              		.thumb_func
 917              	USBD_LL_OpenEP:
 918              	.LVL93:
 919              	.LFB164:
 577:Middlewares/Third_Party/AL94_USB_Composite/COMPOSITE/Target/usbd_conf.c ****   HAL_StatusTypeDef hal_status = HAL_OK;
 920              		.loc 1 577 1 is_stmt 1 view -0
 921              		.cfi_startproc
 922              		@ args = 0, pretend = 0, frame = 0
 923              		@ frame_needed = 0, uses_anonymous_args = 0
 577:Middlewares/Third_Party/AL94_USB_Composite/COMPOSITE/Target/usbd_conf.c ****   HAL_StatusTypeDef hal_status = HAL_OK;
 924              		.loc 1 577 1 is_stmt 0 view .LVU188
 925 0000 08B5     		push	{r3, lr}
 926              		.cfi_def_cfa_offset 8
 927              		.cfi_offset 3, -8
 928              		.cfi_offset 14, -4
 929 0002 9446     		mov	ip, r2
 930 0004 1A46     		mov	r2, r3
 931              	.LVL94:
 578:Middlewares/Third_Party/AL94_USB_Composite/COMPOSITE/Target/usbd_conf.c ****   USBD_StatusTypeDef usb_status = USBD_OK;
 932              		.loc 1 578 3 is_stmt 1 view .LVU189
 579:Middlewares/Third_Party/AL94_USB_Composite/COMPOSITE/Target/usbd_conf.c **** 
 933              		.loc 1 579 3 view .LVU190
 581:Middlewares/Third_Party/AL94_USB_Composite/COMPOSITE/Target/usbd_conf.c **** 
 934              		.loc 1 581 3 view .LVU191
 581:Middlewares/Third_Party/AL94_USB_Composite/COMPOSITE/Target/usbd_conf.c **** 
 935              		.loc 1 581 16 is_stmt 0 view .LVU192
 936 0006 6346     		mov	r3, ip
 937              	.LVL95:
 581:Middlewares/Third_Party/AL94_USB_Composite/COMPOSITE/Target/usbd_conf.c **** 
 938              		.loc 1 581 16 view .LVU193
 939 0008 D0F81003 		ldr	r0, [r0, #784]
 940              	.LVL96:
 581:Middlewares/Third_Party/AL94_USB_Composite/COMPOSITE/Target/usbd_conf.c **** 
 941              		.loc 1 581 16 view .LVU194
 942 000c FFF7FEFF 		bl	HAL_PCD_EP_Open
 943              	.LVL97:
 583:Middlewares/Third_Party/AL94_USB_Composite/COMPOSITE/Target/usbd_conf.c **** 
 944              		.loc 1 583 3 is_stmt 1 view .LVU195
 583:Middlewares/Third_Party/AL94_USB_Composite/COMPOSITE/Target/usbd_conf.c **** 
 945              		.loc 1 583 16 is_stmt 0 view .LVU196
 946 0010 FFF7FEFF 		bl	USBD_Get_USB_Status
 947              	.LVL98:
 585:Middlewares/Third_Party/AL94_USB_Composite/COMPOSITE/Target/usbd_conf.c **** }
 948              		.loc 1 585 3 is_stmt 1 view .LVU197
 586:Middlewares/Third_Party/AL94_USB_Composite/COMPOSITE/Target/usbd_conf.c **** 
 949              		.loc 1 586 1 is_stmt 0 view .LVU198
 950 0014 08BD     		pop	{r3, pc}
 951              		.cfi_endproc
ARM GAS  /tmp/ccZpROtE.s 			page 32


 952              	.LFE164:
 954              		.section	.text.USBD_LL_CloseEP,"ax",%progbits
 955              		.align	1
 956              		.global	USBD_LL_CloseEP
 957              		.syntax unified
 958              		.thumb
 959              		.thumb_func
 961              	USBD_LL_CloseEP:
 962              	.LVL99:
 963              	.LFB165:
 595:Middlewares/Third_Party/AL94_USB_Composite/COMPOSITE/Target/usbd_conf.c ****   HAL_StatusTypeDef hal_status = HAL_OK;
 964              		.loc 1 595 1 is_stmt 1 view -0
 965              		.cfi_startproc
 966              		@ args = 0, pretend = 0, frame = 0
 967              		@ frame_needed = 0, uses_anonymous_args = 0
 595:Middlewares/Third_Party/AL94_USB_Composite/COMPOSITE/Target/usbd_conf.c ****   HAL_StatusTypeDef hal_status = HAL_OK;
 968              		.loc 1 595 1 is_stmt 0 view .LVU200
 969 0000 08B5     		push	{r3, lr}
 970              		.cfi_def_cfa_offset 8
 971              		.cfi_offset 3, -8
 972              		.cfi_offset 14, -4
 596:Middlewares/Third_Party/AL94_USB_Composite/COMPOSITE/Target/usbd_conf.c ****   USBD_StatusTypeDef usb_status = USBD_OK;
 973              		.loc 1 596 3 is_stmt 1 view .LVU201
 974              	.LVL100:
 597:Middlewares/Third_Party/AL94_USB_Composite/COMPOSITE/Target/usbd_conf.c **** 
 975              		.loc 1 597 3 view .LVU202
 599:Middlewares/Third_Party/AL94_USB_Composite/COMPOSITE/Target/usbd_conf.c **** 
 976              		.loc 1 599 3 view .LVU203
 599:Middlewares/Third_Party/AL94_USB_Composite/COMPOSITE/Target/usbd_conf.c **** 
 977              		.loc 1 599 16 is_stmt 0 view .LVU204
 978 0002 D0F81003 		ldr	r0, [r0, #784]
 979              	.LVL101:
 599:Middlewares/Third_Party/AL94_USB_Composite/COMPOSITE/Target/usbd_conf.c **** 
 980              		.loc 1 599 16 view .LVU205
 981 0006 FFF7FEFF 		bl	HAL_PCD_EP_Close
 982              	.LVL102:
 601:Middlewares/Third_Party/AL94_USB_Composite/COMPOSITE/Target/usbd_conf.c **** 
 983              		.loc 1 601 3 is_stmt 1 view .LVU206
 601:Middlewares/Third_Party/AL94_USB_Composite/COMPOSITE/Target/usbd_conf.c **** 
 984              		.loc 1 601 16 is_stmt 0 view .LVU207
 985 000a FFF7FEFF 		bl	USBD_Get_USB_Status
 986              	.LVL103:
 603:Middlewares/Third_Party/AL94_USB_Composite/COMPOSITE/Target/usbd_conf.c **** }
 987              		.loc 1 603 3 is_stmt 1 view .LVU208
 604:Middlewares/Third_Party/AL94_USB_Composite/COMPOSITE/Target/usbd_conf.c **** 
 988              		.loc 1 604 1 is_stmt 0 view .LVU209
 989 000e 08BD     		pop	{r3, pc}
 990              		.cfi_endproc
 991              	.LFE165:
 993              		.section	.text.USBD_LL_FlushEP,"ax",%progbits
 994              		.align	1
 995              		.global	USBD_LL_FlushEP
 996              		.syntax unified
 997              		.thumb
 998              		.thumb_func
 1000              	USBD_LL_FlushEP:
 1001              	.LVL104:
ARM GAS  /tmp/ccZpROtE.s 			page 33


 1002              	.LFB166:
 613:Middlewares/Third_Party/AL94_USB_Composite/COMPOSITE/Target/usbd_conf.c ****   HAL_StatusTypeDef hal_status = HAL_OK;
 1003              		.loc 1 613 1 is_stmt 1 view -0
 1004              		.cfi_startproc
 1005              		@ args = 0, pretend = 0, frame = 0
 1006              		@ frame_needed = 0, uses_anonymous_args = 0
 613:Middlewares/Third_Party/AL94_USB_Composite/COMPOSITE/Target/usbd_conf.c ****   HAL_StatusTypeDef hal_status = HAL_OK;
 1007              		.loc 1 613 1 is_stmt 0 view .LVU211
 1008 0000 08B5     		push	{r3, lr}
 1009              		.cfi_def_cfa_offset 8
 1010              		.cfi_offset 3, -8
 1011              		.cfi_offset 14, -4
 614:Middlewares/Third_Party/AL94_USB_Composite/COMPOSITE/Target/usbd_conf.c ****   USBD_StatusTypeDef usb_status = USBD_OK;
 1012              		.loc 1 614 3 is_stmt 1 view .LVU212
 1013              	.LVL105:
 615:Middlewares/Third_Party/AL94_USB_Composite/COMPOSITE/Target/usbd_conf.c **** 
 1014              		.loc 1 615 3 view .LVU213
 617:Middlewares/Third_Party/AL94_USB_Composite/COMPOSITE/Target/usbd_conf.c **** 
 1015              		.loc 1 617 3 view .LVU214
 617:Middlewares/Third_Party/AL94_USB_Composite/COMPOSITE/Target/usbd_conf.c **** 
 1016              		.loc 1 617 16 is_stmt 0 view .LVU215
 1017 0002 D0F81003 		ldr	r0, [r0, #784]
 1018              	.LVL106:
 617:Middlewares/Third_Party/AL94_USB_Composite/COMPOSITE/Target/usbd_conf.c **** 
 1019              		.loc 1 617 16 view .LVU216
 1020 0006 FFF7FEFF 		bl	HAL_PCD_EP_Flush
 1021              	.LVL107:
 619:Middlewares/Third_Party/AL94_USB_Composite/COMPOSITE/Target/usbd_conf.c **** 
 1022              		.loc 1 619 3 is_stmt 1 view .LVU217
 619:Middlewares/Third_Party/AL94_USB_Composite/COMPOSITE/Target/usbd_conf.c **** 
 1023              		.loc 1 619 16 is_stmt 0 view .LVU218
 1024 000a FFF7FEFF 		bl	USBD_Get_USB_Status
 1025              	.LVL108:
 621:Middlewares/Third_Party/AL94_USB_Composite/COMPOSITE/Target/usbd_conf.c **** }
 1026              		.loc 1 621 3 is_stmt 1 view .LVU219
 622:Middlewares/Third_Party/AL94_USB_Composite/COMPOSITE/Target/usbd_conf.c **** 
 1027              		.loc 1 622 1 is_stmt 0 view .LVU220
 1028 000e 08BD     		pop	{r3, pc}
 1029              		.cfi_endproc
 1030              	.LFE166:
 1032              		.section	.text.USBD_LL_StallEP,"ax",%progbits
 1033              		.align	1
 1034              		.global	USBD_LL_StallEP
 1035              		.syntax unified
 1036              		.thumb
 1037              		.thumb_func
 1039              	USBD_LL_StallEP:
 1040              	.LVL109:
 1041              	.LFB167:
 631:Middlewares/Third_Party/AL94_USB_Composite/COMPOSITE/Target/usbd_conf.c ****   HAL_StatusTypeDef hal_status = HAL_OK;
 1042              		.loc 1 631 1 is_stmt 1 view -0
 1043              		.cfi_startproc
 1044              		@ args = 0, pretend = 0, frame = 0
 1045              		@ frame_needed = 0, uses_anonymous_args = 0
 631:Middlewares/Third_Party/AL94_USB_Composite/COMPOSITE/Target/usbd_conf.c ****   HAL_StatusTypeDef hal_status = HAL_OK;
 1046              		.loc 1 631 1 is_stmt 0 view .LVU222
 1047 0000 08B5     		push	{r3, lr}
ARM GAS  /tmp/ccZpROtE.s 			page 34


 1048              		.cfi_def_cfa_offset 8
 1049              		.cfi_offset 3, -8
 1050              		.cfi_offset 14, -4
 632:Middlewares/Third_Party/AL94_USB_Composite/COMPOSITE/Target/usbd_conf.c ****   USBD_StatusTypeDef usb_status = USBD_OK;
 1051              		.loc 1 632 3 is_stmt 1 view .LVU223
 1052              	.LVL110:
 633:Middlewares/Third_Party/AL94_USB_Composite/COMPOSITE/Target/usbd_conf.c **** 
 1053              		.loc 1 633 3 view .LVU224
 635:Middlewares/Third_Party/AL94_USB_Composite/COMPOSITE/Target/usbd_conf.c **** 
 1054              		.loc 1 635 3 view .LVU225
 635:Middlewares/Third_Party/AL94_USB_Composite/COMPOSITE/Target/usbd_conf.c **** 
 1055              		.loc 1 635 16 is_stmt 0 view .LVU226
 1056 0002 D0F81003 		ldr	r0, [r0, #784]
 1057              	.LVL111:
 635:Middlewares/Third_Party/AL94_USB_Composite/COMPOSITE/Target/usbd_conf.c **** 
 1058              		.loc 1 635 16 view .LVU227
 1059 0006 FFF7FEFF 		bl	HAL_PCD_EP_SetStall
 1060              	.LVL112:
 637:Middlewares/Third_Party/AL94_USB_Composite/COMPOSITE/Target/usbd_conf.c **** 
 1061              		.loc 1 637 3 is_stmt 1 view .LVU228
 637:Middlewares/Third_Party/AL94_USB_Composite/COMPOSITE/Target/usbd_conf.c **** 
 1062              		.loc 1 637 16 is_stmt 0 view .LVU229
 1063 000a FFF7FEFF 		bl	USBD_Get_USB_Status
 1064              	.LVL113:
 639:Middlewares/Third_Party/AL94_USB_Composite/COMPOSITE/Target/usbd_conf.c **** }
 1065              		.loc 1 639 3 is_stmt 1 view .LVU230
 640:Middlewares/Third_Party/AL94_USB_Composite/COMPOSITE/Target/usbd_conf.c **** 
 1066              		.loc 1 640 1 is_stmt 0 view .LVU231
 1067 000e 08BD     		pop	{r3, pc}
 1068              		.cfi_endproc
 1069              	.LFE167:
 1071              		.section	.text.USBD_LL_ClearStallEP,"ax",%progbits
 1072              		.align	1
 1073              		.global	USBD_LL_ClearStallEP
 1074              		.syntax unified
 1075              		.thumb
 1076              		.thumb_func
 1078              	USBD_LL_ClearStallEP:
 1079              	.LVL114:
 1080              	.LFB168:
 649:Middlewares/Third_Party/AL94_USB_Composite/COMPOSITE/Target/usbd_conf.c ****   HAL_StatusTypeDef hal_status = HAL_OK;
 1081              		.loc 1 649 1 is_stmt 1 view -0
 1082              		.cfi_startproc
 1083              		@ args = 0, pretend = 0, frame = 0
 1084              		@ frame_needed = 0, uses_anonymous_args = 0
 649:Middlewares/Third_Party/AL94_USB_Composite/COMPOSITE/Target/usbd_conf.c ****   HAL_StatusTypeDef hal_status = HAL_OK;
 1085              		.loc 1 649 1 is_stmt 0 view .LVU233
 1086 0000 08B5     		push	{r3, lr}
 1087              		.cfi_def_cfa_offset 8
 1088              		.cfi_offset 3, -8
 1089              		.cfi_offset 14, -4
 650:Middlewares/Third_Party/AL94_USB_Composite/COMPOSITE/Target/usbd_conf.c ****   USBD_StatusTypeDef usb_status = USBD_OK;
 1090              		.loc 1 650 3 is_stmt 1 view .LVU234
 1091              	.LVL115:
 651:Middlewares/Third_Party/AL94_USB_Composite/COMPOSITE/Target/usbd_conf.c **** 
 1092              		.loc 1 651 3 view .LVU235
 653:Middlewares/Third_Party/AL94_USB_Composite/COMPOSITE/Target/usbd_conf.c **** 
ARM GAS  /tmp/ccZpROtE.s 			page 35


 1093              		.loc 1 653 3 view .LVU236
 653:Middlewares/Third_Party/AL94_USB_Composite/COMPOSITE/Target/usbd_conf.c **** 
 1094              		.loc 1 653 16 is_stmt 0 view .LVU237
 1095 0002 D0F81003 		ldr	r0, [r0, #784]
 1096              	.LVL116:
 653:Middlewares/Third_Party/AL94_USB_Composite/COMPOSITE/Target/usbd_conf.c **** 
 1097              		.loc 1 653 16 view .LVU238
 1098 0006 FFF7FEFF 		bl	HAL_PCD_EP_ClrStall
 1099              	.LVL117:
 655:Middlewares/Third_Party/AL94_USB_Composite/COMPOSITE/Target/usbd_conf.c **** 
 1100              		.loc 1 655 3 is_stmt 1 view .LVU239
 655:Middlewares/Third_Party/AL94_USB_Composite/COMPOSITE/Target/usbd_conf.c **** 
 1101              		.loc 1 655 16 is_stmt 0 view .LVU240
 1102 000a FFF7FEFF 		bl	USBD_Get_USB_Status
 1103              	.LVL118:
 657:Middlewares/Third_Party/AL94_USB_Composite/COMPOSITE/Target/usbd_conf.c **** }
 1104              		.loc 1 657 3 is_stmt 1 view .LVU241
 658:Middlewares/Third_Party/AL94_USB_Composite/COMPOSITE/Target/usbd_conf.c **** 
 1105              		.loc 1 658 1 is_stmt 0 view .LVU242
 1106 000e 08BD     		pop	{r3, pc}
 1107              		.cfi_endproc
 1108              	.LFE168:
 1110              		.section	.text.USBD_LL_SetUSBAddress,"ax",%progbits
 1111              		.align	1
 1112              		.global	USBD_LL_SetUSBAddress
 1113              		.syntax unified
 1114              		.thumb
 1115              		.thumb_func
 1117              	USBD_LL_SetUSBAddress:
 1118              	.LVL119:
 1119              	.LFB170:
 687:Middlewares/Third_Party/AL94_USB_Composite/COMPOSITE/Target/usbd_conf.c ****   HAL_StatusTypeDef hal_status = HAL_OK;
 1120              		.loc 1 687 1 is_stmt 1 view -0
 1121              		.cfi_startproc
 1122              		@ args = 0, pretend = 0, frame = 0
 1123              		@ frame_needed = 0, uses_anonymous_args = 0
 687:Middlewares/Third_Party/AL94_USB_Composite/COMPOSITE/Target/usbd_conf.c ****   HAL_StatusTypeDef hal_status = HAL_OK;
 1124              		.loc 1 687 1 is_stmt 0 view .LVU244
 1125 0000 08B5     		push	{r3, lr}
 1126              		.cfi_def_cfa_offset 8
 1127              		.cfi_offset 3, -8
 1128              		.cfi_offset 14, -4
 688:Middlewares/Third_Party/AL94_USB_Composite/COMPOSITE/Target/usbd_conf.c ****   USBD_StatusTypeDef usb_status = USBD_OK;
 1129              		.loc 1 688 3 is_stmt 1 view .LVU245
 1130              	.LVL120:
 689:Middlewares/Third_Party/AL94_USB_Composite/COMPOSITE/Target/usbd_conf.c **** 
 1131              		.loc 1 689 3 view .LVU246
 691:Middlewares/Third_Party/AL94_USB_Composite/COMPOSITE/Target/usbd_conf.c **** 
 1132              		.loc 1 691 3 view .LVU247
 691:Middlewares/Third_Party/AL94_USB_Composite/COMPOSITE/Target/usbd_conf.c **** 
 1133              		.loc 1 691 16 is_stmt 0 view .LVU248
 1134 0002 D0F81003 		ldr	r0, [r0, #784]
 1135              	.LVL121:
 691:Middlewares/Third_Party/AL94_USB_Composite/COMPOSITE/Target/usbd_conf.c **** 
 1136              		.loc 1 691 16 view .LVU249
 1137 0006 FFF7FEFF 		bl	HAL_PCD_SetAddress
 1138              	.LVL122:
ARM GAS  /tmp/ccZpROtE.s 			page 36


 693:Middlewares/Third_Party/AL94_USB_Composite/COMPOSITE/Target/usbd_conf.c **** 
 1139              		.loc 1 693 3 is_stmt 1 view .LVU250
 693:Middlewares/Third_Party/AL94_USB_Composite/COMPOSITE/Target/usbd_conf.c **** 
 1140              		.loc 1 693 16 is_stmt 0 view .LVU251
 1141 000a FFF7FEFF 		bl	USBD_Get_USB_Status
 1142              	.LVL123:
 695:Middlewares/Third_Party/AL94_USB_Composite/COMPOSITE/Target/usbd_conf.c **** }
 1143              		.loc 1 695 3 is_stmt 1 view .LVU252
 696:Middlewares/Third_Party/AL94_USB_Composite/COMPOSITE/Target/usbd_conf.c **** 
 1144              		.loc 1 696 1 is_stmt 0 view .LVU253
 1145 000e 08BD     		pop	{r3, pc}
 1146              		.cfi_endproc
 1147              	.LFE170:
 1149              		.section	.text.USBD_LL_Transmit,"ax",%progbits
 1150              		.align	1
 1151              		.global	USBD_LL_Transmit
 1152              		.syntax unified
 1153              		.thumb
 1154              		.thumb_func
 1156              	USBD_LL_Transmit:
 1157              	.LVL124:
 1158              	.LFB171:
 707:Middlewares/Third_Party/AL94_USB_Composite/COMPOSITE/Target/usbd_conf.c ****   HAL_StatusTypeDef hal_status = HAL_OK;
 1159              		.loc 1 707 1 is_stmt 1 view -0
 1160              		.cfi_startproc
 1161              		@ args = 0, pretend = 0, frame = 0
 1162              		@ frame_needed = 0, uses_anonymous_args = 0
 707:Middlewares/Third_Party/AL94_USB_Composite/COMPOSITE/Target/usbd_conf.c ****   HAL_StatusTypeDef hal_status = HAL_OK;
 1163              		.loc 1 707 1 is_stmt 0 view .LVU255
 1164 0000 08B5     		push	{r3, lr}
 1165              		.cfi_def_cfa_offset 8
 1166              		.cfi_offset 3, -8
 1167              		.cfi_offset 14, -4
 708:Middlewares/Third_Party/AL94_USB_Composite/COMPOSITE/Target/usbd_conf.c ****   USBD_StatusTypeDef usb_status = USBD_OK;
 1168              		.loc 1 708 3 is_stmt 1 view .LVU256
 1169              	.LVL125:
 709:Middlewares/Third_Party/AL94_USB_Composite/COMPOSITE/Target/usbd_conf.c **** 
 1170              		.loc 1 709 3 view .LVU257
 711:Middlewares/Third_Party/AL94_USB_Composite/COMPOSITE/Target/usbd_conf.c **** 
 1171              		.loc 1 711 3 view .LVU258
 711:Middlewares/Third_Party/AL94_USB_Composite/COMPOSITE/Target/usbd_conf.c **** 
 1172              		.loc 1 711 16 is_stmt 0 view .LVU259
 1173 0002 D0F81003 		ldr	r0, [r0, #784]
 1174              	.LVL126:
 711:Middlewares/Third_Party/AL94_USB_Composite/COMPOSITE/Target/usbd_conf.c **** 
 1175              		.loc 1 711 16 view .LVU260
 1176 0006 FFF7FEFF 		bl	HAL_PCD_EP_Transmit
 1177              	.LVL127:
 713:Middlewares/Third_Party/AL94_USB_Composite/COMPOSITE/Target/usbd_conf.c **** 
 1178              		.loc 1 713 3 is_stmt 1 view .LVU261
 713:Middlewares/Third_Party/AL94_USB_Composite/COMPOSITE/Target/usbd_conf.c **** 
 1179              		.loc 1 713 16 is_stmt 0 view .LVU262
 1180 000a FFF7FEFF 		bl	USBD_Get_USB_Status
 1181              	.LVL128:
 715:Middlewares/Third_Party/AL94_USB_Composite/COMPOSITE/Target/usbd_conf.c **** }
 1182              		.loc 1 715 3 is_stmt 1 view .LVU263
 716:Middlewares/Third_Party/AL94_USB_Composite/COMPOSITE/Target/usbd_conf.c **** 
ARM GAS  /tmp/ccZpROtE.s 			page 37


 1183              		.loc 1 716 1 is_stmt 0 view .LVU264
 1184 000e 08BD     		pop	{r3, pc}
 1185              		.cfi_endproc
 1186              	.LFE171:
 1188              		.section	.text.USBD_LL_PrepareReceive,"ax",%progbits
 1189              		.align	1
 1190              		.global	USBD_LL_PrepareReceive
 1191              		.syntax unified
 1192              		.thumb
 1193              		.thumb_func
 1195              	USBD_LL_PrepareReceive:
 1196              	.LVL129:
 1197              	.LFB172:
 727:Middlewares/Third_Party/AL94_USB_Composite/COMPOSITE/Target/usbd_conf.c ****   HAL_StatusTypeDef hal_status = HAL_OK;
 1198              		.loc 1 727 1 is_stmt 1 view -0
 1199              		.cfi_startproc
 1200              		@ args = 0, pretend = 0, frame = 0
 1201              		@ frame_needed = 0, uses_anonymous_args = 0
 727:Middlewares/Third_Party/AL94_USB_Composite/COMPOSITE/Target/usbd_conf.c ****   HAL_StatusTypeDef hal_status = HAL_OK;
 1202              		.loc 1 727 1 is_stmt 0 view .LVU266
 1203 0000 08B5     		push	{r3, lr}
 1204              		.cfi_def_cfa_offset 8
 1205              		.cfi_offset 3, -8
 1206              		.cfi_offset 14, -4
 728:Middlewares/Third_Party/AL94_USB_Composite/COMPOSITE/Target/usbd_conf.c ****   USBD_StatusTypeDef usb_status = USBD_OK;
 1207              		.loc 1 728 3 is_stmt 1 view .LVU267
 1208              	.LVL130:
 729:Middlewares/Third_Party/AL94_USB_Composite/COMPOSITE/Target/usbd_conf.c **** 
 1209              		.loc 1 729 3 view .LVU268
 731:Middlewares/Third_Party/AL94_USB_Composite/COMPOSITE/Target/usbd_conf.c **** 
 1210              		.loc 1 731 3 view .LVU269
 731:Middlewares/Third_Party/AL94_USB_Composite/COMPOSITE/Target/usbd_conf.c **** 
 1211              		.loc 1 731 16 is_stmt 0 view .LVU270
 1212 0002 D0F81003 		ldr	r0, [r0, #784]
 1213              	.LVL131:
 731:Middlewares/Third_Party/AL94_USB_Composite/COMPOSITE/Target/usbd_conf.c **** 
 1214              		.loc 1 731 16 view .LVU271
 1215 0006 FFF7FEFF 		bl	HAL_PCD_EP_Receive
 1216              	.LVL132:
 733:Middlewares/Third_Party/AL94_USB_Composite/COMPOSITE/Target/usbd_conf.c **** 
 1217              		.loc 1 733 3 is_stmt 1 view .LVU272
 733:Middlewares/Third_Party/AL94_USB_Composite/COMPOSITE/Target/usbd_conf.c **** 
 1218              		.loc 1 733 16 is_stmt 0 view .LVU273
 1219 000a FFF7FEFF 		bl	USBD_Get_USB_Status
 1220              	.LVL133:
 735:Middlewares/Third_Party/AL94_USB_Composite/COMPOSITE/Target/usbd_conf.c **** }
 1221              		.loc 1 735 3 is_stmt 1 view .LVU274
 736:Middlewares/Third_Party/AL94_USB_Composite/COMPOSITE/Target/usbd_conf.c **** 
 1222              		.loc 1 736 1 is_stmt 0 view .LVU275
 1223 000e 08BD     		pop	{r3, pc}
 1224              		.cfi_endproc
 1225              	.LFE172:
 1227              		.global	hpcd_USB_OTG_PTR
 1228              		.section	.bss.hpcd_USB_OTG_PTR,"aw",%nobits
 1229              		.align	2
 1232              	hpcd_USB_OTG_PTR:
 1233 0000 00000000 		.space	4
ARM GAS  /tmp/ccZpROtE.s 			page 38


 1234              		.text
 1235              	.Letext0:
 1236              		.file 2 "/home/qrsnap/.config/Code/User/globalStorage/bmd.stm32-for-vscode/@xpack-dev-tools/arm-no
 1237              		.file 3 "/home/qrsnap/.config/Code/User/globalStorage/bmd.stm32-for-vscode/@xpack-dev-tools/arm-no
 1238              		.file 4 "Drivers/CMSIS/Include/core_cm7.h"
 1239              		.file 5 "Drivers/CMSIS/Device/ST/STM32F7xx/Include/stm32f723xx.h"
 1240              		.file 6 "Drivers/STM32F7xx_HAL_Driver/Inc/stm32f7xx_hal_def.h"
 1241              		.file 7 "Drivers/STM32F7xx_HAL_Driver/Inc/stm32f7xx_ll_usb.h"
 1242              		.file 8 "Drivers/STM32F7xx_HAL_Driver/Inc/stm32f7xx_hal_pcd.h"
 1243              		.file 9 "Middlewares/Third_Party/AL94_USB_Composite/COMPOSITE/Core/Inc/usbd_def.h"
 1244              		.file 10 "Middlewares/Third_Party/AL94_USB_Composite/COMPOSITE/Class/CDC_ACM/Inc/usbd_cdc_acm.h"
 1245              		.file 11 "Middlewares/Third_Party/AL94_USB_Composite/COMPOSITE/Class/HID_KEYBOARD/Inc/usbd_hid_key
 1246              		.file 12 "Core/Inc/usb_otg.h"
 1247              		.file 13 "Middlewares/Third_Party/AL94_USB_Composite/COMPOSITE/Core/Inc/usbd_core.h"
 1248              		.file 14 "Drivers/STM32F7xx_HAL_Driver/Inc/stm32f7xx_hal_pcd_ex.h"
 1249              		.file 15 "Drivers/STM32F7xx_HAL_Driver/Inc/stm32f7xx_hal.h"
ARM GAS  /tmp/ccZpROtE.s 			page 39


DEFINED SYMBOLS
                            *ABS*:00000000 usbd_conf.c
     /tmp/ccZpROtE.s:21     .text.HAL_PCDEx_SetTxFiFoInBytes:00000000 $t
     /tmp/ccZpROtE.s:27     .text.HAL_PCDEx_SetTxFiFoInBytes:00000000 HAL_PCDEx_SetTxFiFoInBytes
     /tmp/ccZpROtE.s:52     .text.HAL_PCDEx_SetRxFiFoInBytes:00000000 $t
     /tmp/ccZpROtE.s:58     .text.HAL_PCDEx_SetRxFiFoInBytes:00000000 HAL_PCDEx_SetRxFiFoInBytes
     /tmp/ccZpROtE.s:83     .text.HAL_PCD_MspInit:00000000 $t
     /tmp/ccZpROtE.s:89     .text.HAL_PCD_MspInit:00000000 HAL_PCD_MspInit
     /tmp/ccZpROtE.s:103    .text.HAL_PCD_MspDeInit:00000000 $t
     /tmp/ccZpROtE.s:109    .text.HAL_PCD_MspDeInit:00000000 HAL_PCD_MspDeInit
     /tmp/ccZpROtE.s:123    .text.HAL_PCD_SetupStageCallback:00000000 $t
     /tmp/ccZpROtE.s:129    .text.HAL_PCD_SetupStageCallback:00000000 HAL_PCD_SetupStageCallback
     /tmp/ccZpROtE.s:154    .text.HAL_PCD_DataOutStageCallback:00000000 $t
     /tmp/ccZpROtE.s:160    .text.HAL_PCD_DataOutStageCallback:00000000 HAL_PCD_DataOutStageCallback
     /tmp/ccZpROtE.s:187    .text.HAL_PCD_DataInStageCallback:00000000 $t
     /tmp/ccZpROtE.s:193    .text.HAL_PCD_DataInStageCallback:00000000 HAL_PCD_DataInStageCallback
     /tmp/ccZpROtE.s:220    .text.HAL_PCD_SOFCallback:00000000 $t
     /tmp/ccZpROtE.s:226    .text.HAL_PCD_SOFCallback:00000000 HAL_PCD_SOFCallback
     /tmp/ccZpROtE.s:250    .text.HAL_PCD_ResetCallback:00000000 $t
     /tmp/ccZpROtE.s:256    .text.HAL_PCD_ResetCallback:00000000 HAL_PCD_ResetCallback
     /tmp/ccZpROtE.s:311    .text.HAL_PCD_SuspendCallback:00000000 $t
     /tmp/ccZpROtE.s:317    .text.HAL_PCD_SuspendCallback:00000000 HAL_PCD_SuspendCallback
     /tmp/ccZpROtE.s:361    .text.HAL_PCD_SuspendCallback:0000002c $d
     /tmp/ccZpROtE.s:366    .text.HAL_PCD_ResumeCallback:00000000 $t
     /tmp/ccZpROtE.s:372    .text.HAL_PCD_ResumeCallback:00000000 HAL_PCD_ResumeCallback
     /tmp/ccZpROtE.s:396    .text.HAL_PCD_ISOOUTIncompleteCallback:00000000 $t
     /tmp/ccZpROtE.s:402    .text.HAL_PCD_ISOOUTIncompleteCallback:00000000 HAL_PCD_ISOOUTIncompleteCallback
     /tmp/ccZpROtE.s:426    .text.HAL_PCD_ISOINIncompleteCallback:00000000 $t
     /tmp/ccZpROtE.s:432    .text.HAL_PCD_ISOINIncompleteCallback:00000000 HAL_PCD_ISOINIncompleteCallback
     /tmp/ccZpROtE.s:456    .text.HAL_PCD_ConnectCallback:00000000 $t
     /tmp/ccZpROtE.s:462    .text.HAL_PCD_ConnectCallback:00000000 HAL_PCD_ConnectCallback
     /tmp/ccZpROtE.s:486    .text.HAL_PCD_DisconnectCallback:00000000 $t
     /tmp/ccZpROtE.s:492    .text.HAL_PCD_DisconnectCallback:00000000 HAL_PCD_DisconnectCallback
     /tmp/ccZpROtE.s:516    .text.USBD_LL_Init:00000000 $t
     /tmp/ccZpROtE.s:522    .text.USBD_LL_Init:00000000 USBD_LL_Init
     /tmp/ccZpROtE.s:625    .text.USBD_LL_Init:00000070 $d
     /tmp/ccZpROtE.s:1232   .bss.hpcd_USB_OTG_PTR:00000000 hpcd_USB_OTG_PTR
     /tmp/ccZpROtE.s:635    .text.USBD_LL_IsStallEP:00000000 $t
     /tmp/ccZpROtE.s:641    .text.USBD_LL_IsStallEP:00000000 USBD_LL_IsStallEP
     /tmp/ccZpROtE.s:689    .text.USBD_LL_GetRxDataSize:00000000 $t
     /tmp/ccZpROtE.s:695    .text.USBD_LL_GetRxDataSize:00000000 USBD_LL_GetRxDataSize
     /tmp/ccZpROtE.s:720    .text.USBD_LL_Delay:00000000 $t
     /tmp/ccZpROtE.s:726    .text.USBD_LL_Delay:00000000 USBD_LL_Delay
     /tmp/ccZpROtE.s:747    .text.USBD_Get_USB_Status:00000000 $t
     /tmp/ccZpROtE.s:753    .text.USBD_Get_USB_Status:00000000 USBD_Get_USB_Status
     /tmp/ccZpROtE.s:767    .text.USBD_Get_USB_Status:00000008 $d
     /tmp/ccZpROtE.s:771    .text.USBD_Get_USB_Status:0000000c $t
     /tmp/ccZpROtE.s:794    .text.USBD_LL_DeInit:00000000 $t
     /tmp/ccZpROtE.s:800    .text.USBD_LL_DeInit:00000000 USBD_LL_DeInit
     /tmp/ccZpROtE.s:833    .text.USBD_LL_Start:00000000 $t
     /tmp/ccZpROtE.s:839    .text.USBD_LL_Start:00000000 USBD_LL_Start
     /tmp/ccZpROtE.s:872    .text.USBD_LL_Stop:00000000 $t
     /tmp/ccZpROtE.s:878    .text.USBD_LL_Stop:00000000 USBD_LL_Stop
     /tmp/ccZpROtE.s:911    .text.USBD_LL_OpenEP:00000000 $t
     /tmp/ccZpROtE.s:917    .text.USBD_LL_OpenEP:00000000 USBD_LL_OpenEP
     /tmp/ccZpROtE.s:955    .text.USBD_LL_CloseEP:00000000 $t
     /tmp/ccZpROtE.s:961    .text.USBD_LL_CloseEP:00000000 USBD_LL_CloseEP
ARM GAS  /tmp/ccZpROtE.s 			page 40


     /tmp/ccZpROtE.s:994    .text.USBD_LL_FlushEP:00000000 $t
     /tmp/ccZpROtE.s:1000   .text.USBD_LL_FlushEP:00000000 USBD_LL_FlushEP
     /tmp/ccZpROtE.s:1033   .text.USBD_LL_StallEP:00000000 $t
     /tmp/ccZpROtE.s:1039   .text.USBD_LL_StallEP:00000000 USBD_LL_StallEP
     /tmp/ccZpROtE.s:1072   .text.USBD_LL_ClearStallEP:00000000 $t
     /tmp/ccZpROtE.s:1078   .text.USBD_LL_ClearStallEP:00000000 USBD_LL_ClearStallEP
     /tmp/ccZpROtE.s:1111   .text.USBD_LL_SetUSBAddress:00000000 $t
     /tmp/ccZpROtE.s:1117   .text.USBD_LL_SetUSBAddress:00000000 USBD_LL_SetUSBAddress
     /tmp/ccZpROtE.s:1150   .text.USBD_LL_Transmit:00000000 $t
     /tmp/ccZpROtE.s:1156   .text.USBD_LL_Transmit:00000000 USBD_LL_Transmit
     /tmp/ccZpROtE.s:1189   .text.USBD_LL_PrepareReceive:00000000 $t
     /tmp/ccZpROtE.s:1195   .text.USBD_LL_PrepareReceive:00000000 USBD_LL_PrepareReceive
     /tmp/ccZpROtE.s:1229   .bss.hpcd_USB_OTG_PTR:00000000 $d

UNDEFINED SYMBOLS
HAL_PCDEx_SetTxFiFo
HAL_PCDEx_SetRxFiFo
USBD_LL_SetupStage
USBD_LL_DataOutStage
USBD_LL_DataInStage
USBD_LL_SOF
USBD_LL_SetSpeed
USBD_LL_Reset
Error_Handler
USBD_LL_Suspend
USBD_LL_Resume
USBD_LL_IsoOUTIncomplete
USBD_LL_IsoINIncomplete
USBD_LL_DevConnected
USBD_LL_DevDisconnected
hpcd_USB_OTG_HS
HID_KEYBOARD_IN_EP
CDC_IN_EP
CDC_CMD_EP
HAL_PCD_EP_GetRxCount
HAL_Delay
HAL_PCD_DeInit
HAL_PCD_Start
HAL_PCD_Stop
HAL_PCD_EP_Open
HAL_PCD_EP_Close
HAL_PCD_EP_Flush
HAL_PCD_EP_SetStall
HAL_PCD_EP_ClrStall
HAL_PCD_SetAddress
HAL_PCD_EP_Transmit
HAL_PCD_EP_Receive
